ccollections
defaultdict
p0
(c__builtin__
list
p1
tp2
Rp3
(S'Yes'
p4
tp5
(lp6
S'I'
p7
as(S'a'
p8
tp9
(lp10
S'mess'
p11
as(S'guy'
p12
tp13
(lp14
S'sky'
p15
as(g7
tp16
(lp17
S'am'
p18
as(S'mess'
p19
tp20
(lp21
S'guy'
p22
as(S'care'
p23
tp24
(lp25
S'Yes'
p26
as(S'there'
p27
tp28
(lp29
S'bear'
p30
as(S'am'
p31
tp32
(lp33
g8
as(S'Hey'
p34
tp35
(lp36
S'there'
p37
as(S'bear'
p38
tp39
(lp40
S'care'
p41
as.