ccollections
defaultdict
p0
(c__builtin__
list
p1
tp2
Rp3
(S'at'
p4
tp5
(lp6
S'my'
p7
aS'the'
p8
aS'your'
p9
aS"grandma's"
p10
aS'dark'
p11
aS'Grand'
p12
aS'war'
p13
aS'the'
p14
aS'my'
p15
aS'the'
p16
aS'the'
p17
aS'the'
p18
aS'the'
p19
aS'the'
p20
aS'all'
p21
aS'crack'
p22
aS'my'
p23
aS'all'
p24
aS'least'
p25
aS'Somebody'
p26
aS'all'
p27
aS'goodbyes'
p28
aS'leaving'
p29
aS'goodnight'
p30
aS'sleepin'
p31
aS'all'
p32
aS'all'
p33
as(S'America'
p34
tp35
(lp36
S'then'
p37
as(S'dip'
p38
tp39
(lp40
S'Told'
p41
as(S'Rugers'
p42
tp43
(lp44
S'Shooting'
p45
as(S'teammates'
p46
tp47
(lp48
S'and'
p49
as(S'Yo'
p50
tp51
(lp52
S'no'
p53
as(S'brighter'
p54
tp55
(lp56
S'In'
p57
as(S'niggas'
p58
tp59
(lp60
S"ain't"
p61
aS"ain't"
p62
aS'toss'
p63
aS'never'
p64
aS'fucking'
p65
aS'still'
p66
aS'wanna'
p67
aS"gon'"
p68
aS'wanna'
p69
as(S'it'
p70
tp71
(lp72
S'If'
p73
aS'herd'
p74
aS'was'
p75
aS"ain't"
p76
aS'work'
p77
aS'or'
p78
aS'straight'
p79
aS'where'
p80
aS'slow'
p81
aS'sound'
p82
aS'on'
p83
aS'Spotify'
p84
aS'touch'
p85
aS'down'
p86
aS'could'
p87
aS'like'
p88
aS'warm'
p89
aS'you'
p90
aS'you'
p91
aS'You'
p92
aS'is'
p93
aS'Nitty'
p94
aS'was'
p95
aS'the'
p96
aS'They'
p97
aS'is'
p98
aS'Acid'
p99
aS'He'
p100
aS'like'
p101
aS'and'
p102
aS'happen'
p103
aS'happen'
p104
aS'always'
p105
aS'clean'
p106
aS'lowkey'
p107
aS'get'
p108
aS'Make'
p109
aS'get'
p110
aS'trending'
p111
aS'feel'
p112
aS'fell'
p113
aS'made'
p114
aS'Her'
p115
aS'So'
p116
aS"ain't"
p117
aS'just'
p118
aS'fit'
p119
aS'up'
p120
aS'Use'
p121
aS'was'
p122
aS'even'
p123
aS'feel'
p124
aS'feel'
p125
as(S'go'
p126
tp127
(lp128
S'Why'
p129
aS'to'
p130
aS'to'
p131
aS'back'
p132
aS'blow'
p133
aS'hunting'
p134
aS'She'
p135
aS'out'
p136
aS'out'
p137
aS'out'
p138
as(S"Vic's"
p139
tp140
(lp141
S'still'
p142
as(S'now'
p143
tp144
(lp145
S'I'
p146
aS'day'
p147
aS"I'm"
p148
aS'look'
p149
ag146
aS'you'
p150
aS'you'
p151
aS'you'
p152
aS'you'
p153
aS'you'
p154
aS'you'
p155
aS'Shut'
p156
as(S'smoke'
p157
tp158
(lp159
S"I'm"
p160
aS'She'
p161
aS'to'
p162
aS'sesh'
p163
aS'out'
p164
aS'in'
p165
aS'Yeah'
p166
as(S'Nate'
p167
tp168
(lp169
g146
as(S'Only'
p170
tp171
(lp172
S'righteous'
p173
as(S'Ooh'
p174
tp175
(lp176
S'watch'
p177
aS'your'
p178
as(S'done'
p179
tp180
(lp181
S'took'
p182
aS'did'
p183
aS"I'm"
p184
aS'did'
p185
as(S'Shooting'
p186
tp187
(lp188
S'through'
p189
as(S'child'
p190
tp191
(lp192
S'come'
p193
aS'She'
p194
aS'You'
p195
as(S'Zen'
p196
tp197
(lp198
S'with'
p199
as(S"bitch's"
p200
tp201
(lp202
S'ringtone'
p203
as(S'When'
p204
tp205
(lp206
S'the'
p207
ag146
ag146
aS'did'
p208
aS'did'
p209
aS'they'
p210
aS'every'
p211
aS'they'
p212
ag146
aS'it'
p213
aS'she'
p214
ag146
as(S'alley'
p215
tp216
(lp217
S"Could've"
p218
as(S'way'
p219
tp220
(lp221
S'And'
p222
aS'over'
p223
aS'Never'
p224
aS'Make'
p225
aS'downtown'
p226
aS'too'
p227
aS'too'
p228
as(S'Ya'
p229
tp230
(lp231
S'kna'
p232
aS'Kna'
p233
as(S'car'
p234
tp235
(lp236
g146
aS"it's"
p237
as(S'if'
p238
tp239
(lp240
S'it'
p241
aS'they'
p242
aS'they'
p243
aS'you'
p244
aS'you'
p245
aS'this'
p246
aS'you'
p247
ag146
aS'he'
p248
ag146
aS'a'
p249
ag146
as(S'proud'
p250
tp251
(lp252
S'of'
p253
as(S'serpent'
p254
tp255
(lp256
S"That's"
p257
as(S'Nico'
p258
tp259
(lp260
S'grab'
p261
as(S'soccer'
p262
tp263
(lp264
S'hacky'
p265
as(S'pull'
p266
tp267
(lp268
S'up'
p269
as(S'Bruh'
p270
tp271
(lp272
S"I'm"
p273
as(S'Starsky'
p274
tp275
(lp276
S'Hutch'
p277
as(S'till'
p278
tp279
(lp280
S'he'
p281
aS'dawn'
p282
as(S'Two'
p283
tp284
(lp285
S'weeks'
p286
as(S'ready'
p287
tp288
(lp289
S'Tell'
p290
aS'today'
p291
aS'how'
p292
aS'Flip'
p293
as(S'Joe'
p294
tp295
(lp296
S'Namath'
p297
as(S'breathe'
p298
tp299
(lp300
S'We'
p301
as(S'pizzas'
p302
tp303
(lp304
S'Jesus'
p305
as(S'truth'
p306
tp307
(lp308
S"don't"
p309
aS'Merge'
p310
as(S"girl's"
p311
tp312
(lp313
S'behind'
p314
as(S'IGH'
p315
tp316
(lp317
S'Ten'
p318
aS'old'
p319
ag146
as(S'Rest'
p320
tp321
(lp322
S'In'
p323
as(S'college'
p324
tp325
(lp326
S'drop'
p327
as(S'happen'
p328
tp329
(lp330
S'to'
p331
ag146
ag146
as(S'Hosanna'
p332
tp333
(lp334
S'Santa'
p335
as(S'Lil'
p336
tp337
(lp338
S'Derek'
p339
as(S'red'
p340
tp341
(lp342
S'pill'
p343
as(S'e'
p344
tp345
(lp346
S'She'
p347
as(S'follies'
p348
tp349
(lp350
S"fallin'"
p351
as(S'submission'
p352
tp353
(lp354
S'hold'
p355
as(S'batch'
p356
tp357
(lp358
S'fack'
p359
as(S'Tripped'
p360
tp361
(lp362
S'racing'
p363
as(S'Hows'
p364
tp365
(lp366
S'it'
p367
as(S'Started'
p368
tp369
(lp370
S'forgetting'
p371
as(S'designer'
p372
tp373
(lp374
S'galore'
p375
as(S"Jesus'"
p376
tp377
(lp378
S'black'
p379
as(S"ain't"
p380
tp381
(lp382
S'no'
p383
aS'like'
p384
aS'had'
p385
aS'have'
p386
aS'work'
p387
aS'matter'
p388
aS'no'
p389
aS'no'
p390
aS'felt'
p391
aS"goin'"
p392
aS'change'
p393
aS'buy'
p394
aS'got'
p395
aS'got'
p396
aS'holding'
p397
aS'saving'
p398
aS'teaching'
p399
aS'signed'
p400
aS'even'
p401
aS'yours'
p402
aS'the'
p403
aS'really'
p404
aS'even'
p405
aS'really'
p406
aS'worried'
p407
aS'scared'
p408
aS'often'
p409
aS'nothing'
p410
aS'really'
p411
aS'really'
p412
aS'really'
p413
aS'really'
p414
aS'really'
p415
aS'really'
p416
aS'tryna'
p417
as(S'sesh'
p418
tp419
(lp420
g146
as(S'Cletus'
p421
tp422
(lp423
S'to'
p424
as(S'swallow'
p425
tp426
(lp427
S'my'
p428
as(S'everybody'
p429
tp430
(lp431
S'outside'
p432
aS'wanna'
p433
aS'in'
p434
aS'wanna'
p435
aS'wanna'
p436
aS'wanna'
p437
as(S'they'
p438
tp439
(lp440
S'may'
p441
aS'call'
p442
aS'got'
p443
aS'call'
p444
aS'tassel'
p445
aS'fuck'
p446
aS'be'
p447
aS'Kevin'
p448
aS'rest'
p449
aS'bunny'
p450
aS'play'
p451
aS'grown'
p452
aS'dating'
p453
aS"gon'"
p454
aS'cling'
p455
aS'own'
p456
aS'drive'
p457
aS'ship'
p458
aS'teeth'
p459
aS'gums'
p460
aS'bite'
p461
aS'lungs'
p462
aS"don't"
p463
aS'murder'
p464
aS"don't"
p465
aS'really'
p466
aS"sleepin'"
p467
aS'FAFSA'
p468
aS'genitalia'
p469
aS'saw'
p470
aS'never'
p471
as(S'village'
p472
tp473
(lp474
S'raised'
p475
as(S'pill'
p476
tp477
(lp478
S'Got'
p479
aS'pop'
p480
as(S'rolled'
p481
tp482
(lp483
S'at'
p484
as(S'forged'
p485
tp486
(lp487
S'it'
p488
as(S"grandma's"
p489
tp490
(lp491
S'crib'
p492
as(S'becoming'
p493
tp494
(lp495
S'my'
p496
as(S'Chisel'
p497
tp498
(lp499
S'me'
p500
as(S'one'
p501
tp502
(lp503
S'with'
p504
aS'ten'
p505
aS'get'
p506
aS'faking'
p507
aS'score'
p508
aS'time'
p509
aS'two'
p510
aS'sentence'
p511
aS'drown'
p512
aS'right'
p513
as(S'hurry'
p514
tp515
(lp516
S"don't"
p517
as(S'hate'
p518
tp519
(lp520
S'me'
p521
as(S'chauffeurs'
p522
tp523
(lp524
S'hit'
p525
aS'with'
p526
as(S'whip'
p527
tp528
(lp529
S'with'
p530
aS'Damn'
p531
as(S'stain-er'
p532
tp533
(lp534
S'did'
p535
as(S'Okie'
p536
tp537
(lp538
S'dokie'
p539
as(S'magnify'
p540
tp541
(lp542
S'lift'
p543
as(S'Sang'
p544
tp545
(lp546
g249
as(S'mothafuck'
p547
tp548
(lp549
S'opps'
p550
as(S'mad'
p551
tp552
(lp553
S'petty'
p554
as(S'ya'
p555
tp556
(lp557
S'bottom'
p558
aS'BANG'
p559
ag146
aS'And'
p560
as(S'picked'
p561
tp562
(lp563
S'All'
p564
as(S'stone'
p565
tp566
(lp567
S'prayer'
p568
as(S'cars'
p569
tp570
(lp571
S'You'
p572
as(S'word'
p573
tp574
(lp575
S'from'
p576
aS"it's"
p577
aS'poof'
p578
as(S'songs'
p579
tp580
(lp581
S'for'
p582
ag146
aS'You'
p583
aS'with'
p584
aS'Rag'
p585
aS'No'
p586
ag146
aS'niggas'
p587
as(S'blessing'
p588
tp589
(lp590
S'now'
p591
as(S'live'
p592
tp593
(lp594
S'Power'
p595
aS'Power'
p596
as(S'schools'
p597
tp598
(lp599
S'eyes'
p600
as(S'Actor'
p601
tp602
(lp603
S'Kevin'
p604
as(S'true'
p605
tp606
(lp607
S'though'
p608
as(S'swerve'
p609
tp610
(lp611
S'dang'
p612
as(S'ways'
p613
tp614
(lp615
S'We'
p616
aS'Still'
p617
as(S'murder'
p618
tp619
(lp620
S'kids'
p621
as(S'skullduggery'
p622
tp623
(lp624
g146
as(S'For'
p625
tp626
(lp627
S'future'
p628
aS'misdemeanors'
p629
as(S'Start'
p630
tp631
(lp632
S'dancing'
p633
aS'dancing'
p634
as(S'tripping'
p635
tp636
(lp637
S'is'
p638
as(S'tense'
p639
tp640
(lp641
S'past'
p642
as(S'kinda'
p643
tp644
(lp645
S'glad'
p646
as(S'Rag'
p647
tp648
(lp649
S'on'
p650
as(S'sure'
p651
tp652
(lp653
S'that'
p654
as(S'Fallon'
p655
tp656
(lp657
S'and'
p658
as(S'genius'
p659
tp660
(lp661
g249
as(S'park'
p662
tp663
(lp664
S'ayy'
p665
as(S'Vegas'
p666
tp667
(lp668
S"rockin'"
p669
as(S'Poppy'
p670
tp671
(lp672
S'fields'
p673
as(S'hip'
p674
tp675
(lp676
S'roll'
p677
as(S'Hedwig'
p678
tp679
(lp680
S'till'
p681
as(S'lawns'
p682
tp683
(lp684
S'Fold'
p685
as(S'hair'
p686
tp687
(lp688
S'Momma'
p689
aS'salon'
p690
aS"Jesus'"
p691
aS'Where'
p692
aS'then'
p693
aS'wrap'
p694
aS'out'
p695
as(S'Mac'
p696
tp697
(lp698
S'and'
p699
as(S'tweets'
p700
tp701
(lp702
S'And'
p703
as(S'position'
p704
tp705
(lp706
S'Cause'
p707
aS'Getting'
p708
as(S'Uber'
p709
tp710
(lp711
S'You'
p712
aS'whip'
p713
as(S'throwing'
p714
tp715
(lp716
S'on'
p717
ag249
as(S'belly'
p718
tp719
(lp720
S'just'
p721
as(S'into'
p722
tp723
(lp724
S'stone'
p725
aS'song'
p726
aS'racks'
p727
aS'Apple'
p728
as(S'Jericho'
p729
tp730
(lp731
S'with'
p732
as(S"didn't"
p733
tp734
(lp735
S'abandon'
p736
as(S"Kanye's"
p737
tp738
(lp739
S'best'
p740
as(S'goofy'
p741
tp742
(lp743
S'if'
p744
as(S'em'
p745
tp746
(lp747
S"hurtin'"
p748
as(S'holding'
p749
tp750
(lp751
S'you'
p752
as(S'flex'
p753
tp754
(lp755
S'Got'
p756
as(S'ohh'
p757
tp758
(lp759
S'You'
p760
as(S'Told'
p761
tp762
(lp763
S'me'
p764
aS'my'
p765
aS'me'
p766
aS'you'
p767
as(S'evil'
p768
tp769
(lp770
S'And'
p771
as(S'smile'
p772
tp773
(lp774
S'Everybody'
p775
aS'So'
p776
aS'good'
p777
aS'all'
p778
as(S'something'
p779
tp780
(lp781
S"'bout"
p782
as(S'savior'
p783
tp784
(lp785
S'baby'
p786
as(S'Mike'
p787
tp788
(lp789
S'Jackson'
p790
as(S'nice'
p791
tp792
(lp793
S'no'
p794
as(S"trappin'"
p795
tp796
(lp797
S"trippin'"
p798
as(S'Power'
p799
tp800
(lp801
S'92'
p802
aS'92'
p803
as(S'Walked'
p804
tp805
(lp806
S'into'
p807
as(S'A'
p808
tp809
(lp810
S'shadow'
p811
aS'shadow'
p812
aS'week'
p813
as(S'Think'
p814
tp815
(lp816
g146
as(S'Mister'
p817
tp818
(lp819
S'Mufasa'
p820
as(S'Word'
p821
tp822
(lp823
S'This'
p824
as(S'women'
p825
tp826
(lp827
S'real'
p828
as(S'parking'
p829
tp830
(lp831
S'spot'
p832
as(S'spit'
p833
tp834
(lp835
S'fired'
p836
ag249
as(S'different'
p837
tp838
(lp839
S'songs'
p840
aS'colors'
p841
as(S'arms'
p842
tp843
(lp844
S'just'
p845
as(S'dougie'
p846
tp847
(lp848
g146
as(S'being'
p849
tp850
(lp851
S'kids'
p852
aS'told'
p853
ag249
aS'Kobe'
p854
as(S'said'
p855
tp856
(lp857
S"I'm"
p858
aS'rhymed'
p859
aS"I'm"
p860
aS'why'
p861
aS"it's"
p862
aS'cool'
p863
aS'papa'
p864
aS'hell'
p865
aS'that'
p866
as(S'hips'
p867
tp868
(lp869
S'And'
p870
as(S'first'
p871
tp872
(lp873
S'This'
p874
aS'caveman'
p875
aS'time'
p876
aS'time'
p877
as(S'Please'
p878
tp879
(lp880
S"don't"
p881
aS"don't"
p882
as(S'lame'
p883
tp884
(lp885
S'ass'
p886
aS'and'
p887
as(S's\xc3'
p888
tp889
(lp890
g146
as(S'aside'
p891
tp892
(lp893
g146
as(S'Pics'
p894
tp895
(lp896
S'of'
p897
as(S'laughing'
p898
tp899
(lp900
S'with'
p901
as(S'lil'
p902
tp903
(lp904
S'bro'
p905
as(S'Craig'
p906
tp907
(lp908
S'did'
p909
as(S'humble'
p910
tp911
(lp912
S'Hear'
p913
as(S'burner'
p914
tp915
(lp916
S'man'
p917
as(S'that'
p918
tp919
(lp920
S'intro'
p921
aS'played'
p922
aS"ain't"
p923
aS"don't"
p924
aS'talk'
p925
aS'make'
p926
aS'can'
p927
aS'space'
p928
aS'we'
p929
aS'we'
p930
aS'they'
p931
aS'talk'
p932
aS'you'
p933
aS'wax'
p934
aS'deal'
p935
aS'glitters'
p936
aS'popeye'
p937
aS'Laffy'
p938
aS'thing'
p939
aS'ball'
p940
aS'LSD'
p941
aS'lean'
p942
aS'lean'
p943
aS'chakra'
p944
aS'mean'
p945
aS'nigga'
p946
aS'Chicago'
p947
aS'lipstick'
p948
aS'bangers'
p949
aS'young'
p950
aS'blunt'
p951
aS'thirsty'
p952
aS'appealing'
p953
aS'acid'
p954
aS'anti-violence'
p955
aS"wouldn't"
p956
aS'coyote'
p957
aS'nigga'
p958
aS'some'
p959
aS'nigga'
p960
aS'shop'
p961
aS'shit'
p962
aS'shit'
p963
ag146
aS"I'm"
p964
ag146
ag146
aS'good'
p965
aS'bad'
p966
aS'we'
p967
aS'good'
p968
aS'bad'
p969
aS'nigga'
p970
aS'this'
p971
ag146
aS'kills'
p972
as(S'wrong'
p973
tp974
(lp975
S'with'
p976
as(S'long'
p977
tp978
(lp979
S'hair'
p980
aS'my'
p981
aS'ride'
p982
aS'as'
p983
as(S'every'
p984
tp985
(lp986
S'night'
p987
aS'morn'
p988
aS'father'
p989
aS'DJ'
p990
aS'time'
p991
as(S"jammin'"
p992
tp993
(lp994
S'to'
p995
as(S'ballet'
p996
tp997
(lp998
S'shoes'
p999
as(S'drugs'
p1000
tp1001
(lp1002
S"isn't"
p1003
aS'and'
p1004
aS'while'
p1005
as(S'ay'
p1006
tp1007
(lp1008
S'Last'
p1009
as(S'chase'
p1010
tp1011
(lp1012
S'the'
p1013
as(S'Wednesdays'
p1014
tp1015
(lp1016
S'Thursdays'
p1017
as(S'cute'
p1018
tp1019
(lp1020
S'And'
p1021
as(S'wax'
p1022
tp1023
(lp1024
S'just'
p1025
as(S'lyft'
p1026
tp1027
(lp1028
S'Is'
p1029
as(S'hood'
p1030
tp1031
(lp1032
S'when'
p1033
aS'savior'
p1034
aS'like'
p1035
as(S'introduce'
p1036
tp1037
(lp1038
S'nigga'
p1039
as(S'steady'
p1040
tp1041
(lp1042
S"playin'"
p1043
aS"playin'"
p1044
as(S'give'
p1045
tp1046
(lp1047
S'satan'
p1048
aS'nothing'
p1049
aS'her'
p1050
aS'me'
p1051
aS'me'
p1052
as(S'colors'
p1053
tp1054
(lp1055
S'Ben-a-Baller'
p1056
as(S'Russian'
p1057
tp1058
(lp1059
S'Accent'
p1060
as(S'opps'
p1061
tp1062
(lp1063
S'too'
p1064
as(S'feeling'
p1065
tp1066
(lp1067
S'shortness'
p1068
as(S'sauce'
p1069
tp1070
(lp1071
S'Please'
p1072
aS'She'
p1073
as(S'Mr'
p1074
tp1075
(lp1076
S'Bennett'
p1077
aS'Bennett'
p1078
aS'Youmedia'
p1079
aS'Menzies'
p1080
as(S'yours'
p1081
tp1082
(lp1083
S"don't"
p1084
aS'Now'
p1085
as(S'darkness'
p1086
tp1087
(lp1088
S'of'
p1089
as(S"Flamin'"
p1090
tp1091
(lp1092
S'hots'
p1093
as(S"Ain't"
p1094
tp1095
(lp1096
S'no'
p1097
aS'no'
p1098
aS'no'
p1099
as(S'beautiful'
p1100
tp1101
(lp1102
S'view'
p1103
aS'too'
p1104
as(S'all'
p1105
tp1106
(lp1107
S'kings'
p1108
aS'the'
p1109
aS'the'
p1110
aS'my'
p1111
aS'my'
p1112
aS'the'
p1113
aS'night'
p1114
aS'She'
p1115
aS'We'
p1116
aS'of'
p1117
ag146
aS'that'
p1118
aS'my'
p1119
ag146
aS'these'
p1120
aS'the'
p1121
aS'the'
p1122
aS'that'
p1123
aS'on'
p1124
aS'out'
p1125
aS'covered'
p1126
aS'my'
p1127
aS'my'
p1128
aS'of'
p1129
aS'those'
p1130
aS'the'
p1131
aS'up'
p1132
aS'that'
p1133
aS'them'
p1134
aS'the'
p1135
aS'So'
p1136
aS'Got'
p1137
as(S"trippin'"
p1138
tp1139
(lp1140
S"'cid"
p1141
as(S'joke'
p1142
tp1143
(lp1144
S'bout'
p1145
as(S'hotels'
p1146
tp1147
(lp1148
S'on'
p1149
as(S'bugs'
p1150
tp1151
(lp1152
S'When'
p1153
as(S'Jam'
p1154
tp1155
(lp1156
S'Get'
p1157
as(S'gin'
p1158
tp1159
(lp1160
S'Margiela'
p1161
as(S'proms'
p1162
tp1163
(lp1164
S'Tell'
p1165
as(S'words'
p1166
tp1167
(lp1168
S'ayy'
p1169
aS'ayy'
p1170
aS'just'
p1171
as(S'Hebru'
p1172
tp1173
(lp1174
S'Brantleys'
p1175
as(S'Odyssey'
p1176
tp1177
(lp1178
S'They'
p1179
as(S'chamomile'
p1180
tp1181
(lp1182
S'Rice'
p1183
as(S'Letterman'
p1184
tp1185
(lp1186
S'Leno'
p1187
as(S'for'
p1188
tp1189
(lp1190
S'the'
p1191
aS'your'
p1192
aS'free'
p1193
aS'free'
p1194
aS'freedom'
p1195
aS'your'
p1196
ag249
aS'my'
p1197
aS'beef'
p1198
aS'free'
p1199
aS'my'
p1200
aS'you'
p1201
aS'me'
p1202
ag249
ag146
ag249
aS'no'
p1203
aS'herself'
p1204
ag249
aS'myself'
p1205
aS'esteem'
p1206
aS'four'
p1207
aS'when'
p1208
aS'my'
p1209
aS'my'
p1210
ag249
aS'it'
p1211
aS'the'
p1212
aS'good'
p1213
ag249
aS'Swishers'
p1214
aS'the'
p1215
aS'the'
p1216
aS'three'
p1217
aS'foams'
p1218
aS'little'
p1219
aS'my'
p1220
aS'it'
p1221
aS'daddy'
p1222
aS"callin'"
p1223
aS'me'
p1224
aS'the'
p1225
aS'my'
p1226
as(S'Phone'
p1227
tp1228
(lp1229
S'numbers'
p1230
as(S'tour'
p1231
tp1232
(lp1233
S'with'
p1234
as(S'book'
p1235
tp1236
(lp1237
S"don't"
p1238
as(S'Sir'
p1239
tp1240
(lp1241
S'Rapper'
p1242
as(S"she'll"
p1243
tp1244
(lp1245
S'lie'
p1246
aS'fart'
p1247
aS'be'
p1248
as(S'packed'
p1249
tp1250
(lp1251
S'with'
p1252
as(S"you'd"
p1253
tp1254
(lp1255
S'never'
p1256
aS'never'
p1257
aS'think'
p1258
as(S"'bout"
p1259
tp1260
(lp1261
S'blonde'
p1262
aS'Frooties'
p1263
as(S'broken'
p1264
tp1265
(lp1266
S'dams'
p1267
as(S'warm'
p1268
tp1269
(lp1270
g146
as(S'together'
p1271
tp1272
(lp1273
S'like'
p1274
as(S'borders'
p1275
tp1276
(lp1277
S'where'
p1278
as(S'addict'
p1279
tp1280
(lp1281
S'Costly'
p1282
as(S'Hunnid'
p1283
tp1284
(lp1285
S'proof'
p1286
as(S"that's"
p1287
tp1288
(lp1289
S'why'
p1290
aS'nice'
p1291
aS'cool'
p1292
aS'true'
p1293
ag249
aS'just'
p1294
aS'just'
p1295
aS'right'
p1296
aS'that'
p1297
aS'why'
p1298
aS'why'
p1299
aS'the'
p1300
ag249
aS'that'
p1301
ag249
aS'that'
p1302
as(S'thank'
p1303
tp1304
(lp1305
S'you'
p1306
as(S'sang'
p1307
tp1308
(lp1309
S'with'
p1310
as(S'That'
p1311
tp1312
(lp1313
S'with'
p1314
aS'one'
p1315
aS"I'd"
p1316
as(S'buyer'
p1317
tp1318
(lp1319
S'what'
p1320
as(S'performing'
p1321
tp1322
(lp1323
S'at'
p1324
as(S'Even'
p1325
tp1326
(lp1327
S'when'
p1328
aS'when'
p1329
aS'though'
p1330
aS'my'
p1331
as(S'rich'
p1332
tp1333
(lp1334
S'Cause'
p1335
as(S'purple'
p1336
tp1337
(lp1338
S'wrap'
p1339
as(S'Hutch'
p1340
tp1341
(lp1342
g249
as(S'79'
p1343
tp1344
(lp1345
S'79'
p1346
aS'79'
p1347
aS'place'
p1348
aS'79'
p1349
aS'79'
p1350
aS'place'
p1351
as(S'shot'
p1352
tp1353
(lp1354
S'you'
p1355
as(S'fruits'
p1356
tp1357
(lp1358
S'And'
p1359
as(S'Like'
p1360
tp1361
(lp1362
S'my'
p1363
aS'Nat'
p1364
aS"I'm"
p1365
as(S'Squad'
p1366
tp1367
(lp1368
S'praying'
p1369
as(S'housewife'
p1370
tp1371
(lp1372
g146
as(S'link'
p1373
tp1374
(lp1375
S'in'
p1376
as(S'hundred'
p1377
tp1378
(lp1379
S'dinero'
p1380
as(S'knuckling'
p1381
tp1382
(lp1383
S'up'
p1384
as(S'toes'
p1385
tp1386
(lp1387
S'hurt'
p1388
aS'But'
p1389
as(S'juke'
p1390
tp1391
(lp1392
S'angel'
p1393
aS'GCI'
p1394
aS'juke'
p1395
aS'juke'
p1396
aS'juke'
p1397
aS'We'
p1398
as(S'room'
p1399
tp1400
(lp1401
S'And'
p1402
as(S'jacket'
p1403
tp1404
(lp1405
S'jacker'
p1406
aS'as'
p1407
aS"shoppin'"
p1408
as(S'hunting'
p1409
tp1410
(lp1411
S'BLAM'
p1412
as(S'Kicking'
p1413
tp1414
(lp1415
S'dirt'
p1416
as(S"'Bino"
p1417
tp1418
(lp1419
g146
as(S"rockin'"
p1420
tp1421
(lp1422
S"scoopin'"
p1423
aS'Vagabonds'
p1424
as(S'take'
p1425
tp1426
(lp1427
S'nothing'
p1428
aS'the'
p1429
aS'the'
p1430
aS'that'
p1431
aS'you'
p1432
aS'that'
p1433
aS'her'
p1434
as(S'real'
p1435
tp1436
(lp1437
S'early'
p1438
aS'And'
p1439
aS'tall'
p1440
aS'worried'
p1441
aS'man'
p1442
aS'fans'
p1443
as(S'Justin'
p1444
tp1445
(lp1446
S'still'
p1447
aS'lending'
p1448
as(S'Lickety-split'
p1449
tp1450
(lp1451
S'Look'
p1452
as(S'help'
p1453
tp1454
(lp1455
S"I've"
p1456
aS'the'
p1457
as(S'there'
p1458
tp1459
(lp1460
S'he'
p1461
aS'never'
p1462
as(S'folks'
p1463
tp1464
(lp1465
S'dancing'
p1466
aS'do'
p1467
aS'do'
p1468
aS'that'
p1469
aS'in'
p1470
aS'in'
p1471
as(S'called'
p1472
tp1473
(lp1474
S'on'
p1475
as(S"she's"
p1476
tp1477
(lp1478
g249
as(S'petty'
p1479
tp1480
(lp1481
S'Peter'
p1482
ag146
aS'Yeah'
p1483
as(S'Aires'
p1484
tp1485
(lp1486
S'while'
p1487
as(S'last'
p1488
tp1489
(lp1490
S'night'
p1491
aS'time'
p1492
aS'time'
p1493
as(S'huggy'
p1494
tp1495
(lp1496
S'Starsky'
p1497
as(S"goin'"
p1498
tp1499
(lp1500
S'to'
p1501
aS'live'
p1502
aS'live'
p1503
as(S'stand'
p1504
tp1505
(lp1506
S'me'
p1507
aS'you'
p1508
aS'him'
p1509
aS'to'
p1510
as(S'cling'
p1511
tp1512
(lp1513
g146
as(S'raised'
p1514
tp1515
(lp1516
S"'em"
p1517
as(S'those'
p1518
tp1519
(lp1520
S'Bruh'
p1521
aS'open'
p1522
as(S'patrol'
p1523
tp1524
(lp1525
S'Let'
p1526
as(S'marbles'
p1527
tp1528
(lp1529
S'You'
p1530
as(S'Getting'
p1531
tp1532
(lp1533
S'violations'
p1534
as(S'Trippy'
p1535
tp1536
(lp1537
S'shit'
p1538
as(S"Rappin'"
p1539
tp1540
(lp1541
S"trappin'"
p1542
as(S'alike'
p1543
tp1544
(lp1545
S'And'
p1546
as(S'signs'
p1547
tp1548
(lp1549
S"Don't"
p1550
aS'Color'
p1551
as(S'behind'
p1552
tp1553
(lp1554
S'me'
p1555
aS'us'
p1556
as(S'Tonight'
p1557
tp1558
(lp1559
S'she'
p1560
as(S'Momma'
p1561
tp1562
(lp1563
S'hair'
p1564
as(S'fuck'
p1565
tp1566
(lp1567
S'around'
p1568
aS'Then'
p1569
ag249
aS'it'
p1570
aS'is'
p1571
aS'Mom'
p1572
aS'me'
p1573
aS'me'
p1574
aS'you'
p1575
aS'it'
p1576
aS'your'
p1577
as(S'10'
p1578
tp1579
(lp1580
S'Day'
p1581
as(S'shoulda'
p1582
tp1583
(lp1584
S'never'
p1585
aS'knew'
p1586
as(S'Oscar'
p1587
tp1588
(lp1589
S'Russian'
p1590
as(S'goodnight'
p1591
tp1592
(lp1593
g146
as(S"Stressin'"
p1594
tp1595
(lp1596
S"pullin'"
p1597
as(S'Lullabies'
p1598
tp1599
(lp1600
S'and'
p1601
as(S'Slap-happy'
p1602
tp1603
(lp1604
S'faggot'
p1605
as(S'case'
p1606
tp1607
(lp1608
g146
as(S'Acid'
p1609
tp1610
(lp1611
S'Acid'
p1612
aS'get'
p1613
aS'melts'
p1614
aS'on'
p1615
aS'addict'
p1616
as(S'tab'
p1617
tp1618
(lp1619
S'on'
p1620
as(S'partners'
p1621
tp1622
(lp1623
S'have'
p1624
aS'on'
p1625
as(S'booked'
p1626
tp1627
(lp1628
S'the'
p1629
as(S'side'
p1630
tp1631
(lp1632
g146
as(S'melts'
p1633
tp1634
(lp1635
S'through'
p1636
as(S"heaven's"
p1637
tp1638
(lp1639
S'gates'
p1640
as(S'woke'
p1641
tp1642
(lp1643
S'up'
p1644
as(S'tapes'
p1645
tp1646
(lp1647
S'with'
p1648
as(S'dancing'
p1649
tp1650
(lp1651
S'the'
p1652
aS"It's"
p1653
aS'ho'
p1654
aS'ho'
p1655
aS'with'
p1656
as(S'BroBois'
p1657
tp1658
(lp1659
S'City'
p1660
as(S'RedEye'
p1661
tp1662
(lp1663
S'if'
p1664
as(S'hell'
p1665
tp1666
(lp1667
S'or'
p1668
aS'yeah'
p1669
as(S'Hear'
p1670
tp1671
(lp1672
S'for'
p1673
aS'some'
p1674
as(S"hollerin'"
p1675
tp1676
(lp1677
S'love'
p1678
as(S'Wore'
p1679
tp1680
(lp1681
S'my'
p1682
aS'my'
p1683
as(S'catching'
p1684
tp1685
(lp1686
S'lightning'
p1687
as(S'righteous'
p1688
tp1689
(lp1690
g146
as(S'Smoke'
p1691
tp1692
(lp1693
S'all'
p1694
as(S'king'
p1695
tp1696
(lp1697
S'of'
p1698
as(S'bird'
p1699
tp1700
(lp1701
S'pigeon'
p1702
as(S'Kevin'
p1703
tp1704
(lp1705
S'Gates'
p1706
aS'Costner'
p1707
as(S'money'
p1708
tp1709
(lp1710
S"ain't"
p1711
aS'No'
p1712
aS'So'
p1713
aS'get'
p1714
aS'dance'
p1715
aS"ain't"
p1716
aS'hoping'
p1717
aS'back'
p1718
as(S'Somebody'
p1719
tp1720
(lp1721
S'get'
p1722
aS'pray'
p1723
as(S'nose'
p1724
tp1725
(lp1726
S'ring'
p1727
aS'ring'
p1728
as(S'Beam'
p1729
tp1730
(lp1731
S'This'
p1732
as(S'chakra'
p1733
tp1734
(lp1735
g146
as(S'jam'
p1736
tp1737
(lp1738
g146
aS"that's"
p1739
as(S'saying'
p1740
tp1741
(lp1742
S'something'
p1743
as(S'shhh'
p1744
tp1745
(lp1746
S'We'
p1747
as(S'right'
p1748
tp1749
(lp1750
S'back'
p1751
aS'down'
p1752
aS'back'
p1753
aS'Just'
p1754
aS'With'
p1755
aS'here'
p1756
aS"That's"
p1757
as(S'Last'
p1758
tp1759
(lp1760
S'girl'
p1761
aS'year'
p1762
aS'week'
p1763
aS'chance'
p1764
as(S'apple'
p1765
tp1766
(lp1767
S'pies'
p1768
as(S'little-bitty'
p1769
tp1770
(lp1771
S'rock'
p1772
as(S'jack'
p1773
tp1774
(lp1775
S'They'
p1776
aS'Lickety-split'
p1777
as(S'Blockbuster'
p1778
tp1779
(lp1780
S'movies'
p1781
as(S"people's"
p1782
tp1783
(lp1784
S'champ'
p1785
as(S'account'
p1786
tp1787
(lp1788
S'Off'
p1789
as(S'suicide'
p1790
tp1791
(lp1792
S'doors'
p1793
as(S'Costly'
p1794
tp1795
(lp1796
S'avid'
p1797
as(S'opened'
p1798
tp1799
(lp1800
S'up'
p1801
as(S'felt'
p1802
tp1803
(lp1804
S'like'
p1805
aS'hog'
p1806
as(S"wha'"
p1807
tp1808
(lp1809
S'mean'
p1810
aS'mean'
p1811
as(S'some'
p1812
tp1813
(lp1814
S'earl'
p1815
aS'lawns'
p1816
aS'ice'
p1817
aS'Goyard'
p1818
aS'folks'
p1819
aS'food'
p1820
aS'ideas'
p1821
aS'Hebru'
p1822
aS'motherfucking'
p1823
aS'x'
p1824
aS'folks'
p1825
aS'folks'
p1826
aS'bull'
p1827
aS'dude'
p1828
aS'fruit'
p1829
aS"killer's"
p1830
as(S'Mufasa'
p1831
tp1832
(lp1833
g146
as(S'Bang'
p1834
tp1835
(lp1836
S'bang'
p1837
as(S'determined'
p1838
tp1839
(lp1840
S'Told'
p1841
as(S'politics'
p1842
tp1843
(lp1844
S'Chicago'
p1845
as(S'and'
p1846
tp1847
(lp1848
S'sound'
p1849
aS'put'
p1850
aS'now'
p1851
aS'them'
p1852
aS'the'
p1853
aS"Harold's"
p1854
aS'fucked'
p1855
aS'worldly'
p1856
aS'mortar'
p1857
ag146
aS'sign'
p1858
aS'time'
p1859
aS'Chews'
p1860
aS'my'
p1861
aS'they'
p1862
aS'rocket'
p1863
aS'spilt'
p1864
aS'alibis'
p1865
aS'three'
p1866
aS"it's"
p1867
aS'woke'
p1868
aS'fortify'
p1869
aS'bowl'
p1870
aS'roll'
p1871
aS'gars'
p1872
aS'had'
p1873
aS'started'
p1874
aS'he'
p1875
aS'my'
p1876
aS'chamomile'
p1877
aS'they'
p1878
aS'acid'
p1879
aS'that'
p1880
aS"I'mma"
p1881
aS'did'
p1882
aS'fucking'
p1883
ag146
aS"I'm"
p1884
aS'freebase'
p1885
aS'trust'
p1886
aS'shows'
p1887
aS'chauffeurs'
p1888
aS'we'
p1889
aS'the'
p1890
ag249
aS'your'
p1891
ag146
ag249
ag249
aS'like'
p1892
aS'forth'
p1893
aS'Fourths'
p1894
aS'lucy'
p1895
aS"yo'"
p1896
ag249
aS'get'
p1897
aS'get'
p1898
ag249
ag146
ag146
aS'my'
p1899
aS'Chuckie'
p1900
aS'Lindsey'
p1901
aS'the'
p1902
aS"I'm"
p1903
aS'all'
p1904
ag249
aS'needing'
p1905
aS'dollars'
p1906
aS'dubs'
p1907
aS'verses'
p1908
aS'Hooks'
p1909
aS'Churches'
p1910
aS'events'
p1911
aS'thought'
p1912
aS'chewing'
p1913
ag146
aS'the'
p1914
as(S'Matches'
p1915
tp1916
(lp1917
S'to'
p1918
as(S'ball'
p1919
tp1920
(lp1921
S'ayy'
p1922
aS'ayy'
p1923
aS"'fore"
p1924
aS'in'
p1925
aS'and'
p1926
as(S'campers'
p1927
tp1928
(lp1929
S'way'
p1930
as(S'shame'
p1931
tp1932
(lp1933
S'But'
p1934
as(S'drive'
p1935
tp1936
(lp1937
S'an'
p1938
as(S'Flame'
p1939
tp1940
(lp1941
S'on'
p1942
as(S'Son'
p1943
tp1944
(lp1945
S"jammin'"
p1946
as(S'Truth'
p1947
tp1948
(lp1949
S'being'
p1950
aS'be'
p1951
as(S'mutual'
p1952
tp1953
(lp1954
S'fans'
p1955
as(S'Taffy'
p1956
tp1957
(lp1958
S'jolly'
p1959
as(S'whore'
p1960
tp1961
(lp1962
g146
as(S'Chuckie'
p1963
tp1964
(lp1965
S'And'
p1966
as(S'Frooties'
p1967
tp1968
(lp1969
S'and'
p1970
as(S'arenas'
p1971
tp1972
(lp1973
S'And'
p1974
as(S'haters'
p1975
tp1976
(lp1977
S'kinda'
p1978
as(S'Krillin'
p1979
tp1980
(lp1981
S'saying'
p1982
as(S'apart'
p1983
tp1984
(lp1985
S'aight'
p1986
as(S'taking'
p1987
tp1988
(lp1989
S'no'
p1990
as(S'headed'
p1991
tp1992
(lp1993
S'bike-stealing'
p1994
as(S'mater'
p1995
tp1996
(lp1997
S'Motherfucker'
p1998
as(g1824
tp1999
(lp2000
S'on'
p2001
as(S'Captain'
p2002
tp2003
(lp2004
S'Save-a-Hood'
p2005
as(S'blessings'
p2006
tp2007
(lp2008
S'out'
p2009
aS'and'
p2010
as(S'faucet'
p2011
tp2012
(lp2013
g146
as(S'coupon'
p2014
tp2015
(lp2016
S"savin'"
p2017
as(S'angel'
p2018
tp2019
(lp2020
S"goin'"
p2021
aS'juke'
p2022
aS"gon'"
p2023
aS"gon'"
p2024
as(S'Lean'
p2025
tp2026
(lp2027
S'all'
p2028
as(S'bottom'
p2029
tp2030
(lp2031
S'bitch'
p2032
as(S'Bay'
p2033
tp2034
(lp2035
S'the'
p2036
as(S'along'
p2037
tp2038
(lp2039
S'with'
p2040
as(S'King'
p2041
tp2042
(lp2043
S"I'm"
p2044
as(S'Old'
p2045
tp2046
(lp2047
S'school'
p2048
as(S'Iraqi'
p2049
tp2050
(lp2051
S'rocket'
p2052
as(S'hungry'
p2053
tp2054
(lp2055
S"I'm"
p2056
as(S'minimum'
p2057
tp2058
(lp2059
S'Studious'
p2060
as(S'c-note'
p2061
tp2062
(lp2063
S'AK'
p2064
as(S'Take'
p2065
tp2066
(lp2067
S'You'
p2068
as(S'sweet'
p2069
tp2070
(lp2071
S'ho'
p2072
as(S'deserted'
p2073
tp2074
(lp2075
S'us'
p2076
as(S'Troy'
p2077
tp2078
(lp2079
S'But'
p2080
as(S'sand'
p2081
tp2082
(lp2083
S'And'
p2084
as(S'tied'
p2085
tp2086
(lp2087
S'ever'
p2088
as(S'Keef'
p2089
tp2090
(lp2091
S'Got'
p2092
as(S'sign'
p2093
tp2094
(lp2095
S'me'
p2096
as(S'split'
p2097
tp2098
(lp2099
S'an'
p2100
as(S'shawtys'
p2101
tp2102
(lp2103
S'act'
p2104
as(S'glitters'
p2105
tp2106
(lp2107
S'come'
p2108
as(S'Shout'
p2109
tp2110
(lp2111
S'my'
p2112
as(S'gravity'
p2113
tp2114
(lp2115
S'had'
p2116
as(S'Spineless'
p2117
tp2118
(lp2119
S'bitches'
p2120
as(S'Xan'
p2121
tp2122
(lp2123
S"Can't"
p2124
aS'Is'
p2125
as(S'Sometimes'
p2126
tp2127
(lp2128
S'the'
p2129
as(S'Trapped'
p2130
tp2131
(lp2132
S'in'
p2133
as(S'ayy'
p2134
tp2135
(lp2136
S'All'
p2137
aS'We'
p2138
aS'We'
p2139
ag146
aS'Type'
p2140
aS'You'
p2141
aS'Think'
p2142
ag146
as(S'Move'
p2143
tp2144
(lp2145
S'to'
p2146
as(S'mouth'
p2147
tp2148
(lp2149
S'so'
p2150
as(S'Ha'
p2151
tp2152
(lp2153
S'ha'
p2154
as(S'genitalia'
p2155
tp2156
(lp2157
S'tallied'
p2158
as(S'perc'
p2159
tp2160
(lp2161
S'for'
p2162
as(S'goofies'
p2163
tp2164
(lp2165
S"can't"
p2166
as(S'modify'
p2167
tp2168
(lp2169
S'or'
p2170
as(S"savin'"
p2171
tp2172
(lp2173
S'like'
p2174
as(S'sending'
p2175
tp2176
(lp2177
S'him'
p2178
as(S'Fall'
p2179
tp2180
(lp2181
S'quarter'
p2182
as(S'Hope'
p2183
tp2184
(lp2185
S'there'
p2186
aS'your'
p2187
as(S'eating'
p2188
tp2189
(lp2190
S'is'
p2191
as(S'church'
p2192
tp2193
(lp2194
S'only'
p2195
as(S'since'
p2196
tp2197
(lp2198
g146
aS'the'
p2199
aS'the'
p2200
aS'my'
p2201
ag146
aS'Rod'
p2202
aS'pops'
p2203
as(S'Studious'
p2204
tp2205
(lp2206
S'Gluteus'
p2207
as(S'Benford'
p2208
tp2209
(lp2210
S'butlers'
p2211
as(S'Socks'
p2212
tp2213
(lp2214
S'on'
p2215
as(S'spurt'
p2216
tp2217
(lp2218
S'It'
p2219
as(S'smokin'
p2220
tp2221
(lp2222
S'in'
p2223
as(S'realized'
p2224
tp2225
(lp2226
S'what'
p2227
as(S'curse'
p2228
tp2229
(lp2230
S'of'
p2231
as(S'Maybe'
p2232
tp2233
(lp2234
g146
as(S"nigga's"
p2235
tp2236
(lp2237
S'shooting'
p2238
as(S'de'
p2239
tp2240
(lp2241
S'gallo'
p2242
aS'Mayo'
p2243
as(S'Rascal'
p2244
tp2245
(lp2246
S'Flatts'
p2247
as(S'told'
p2248
tp2249
(lp2250
S'we'
p2251
aS'me'
p2252
aS'prophetic'
p2253
aS'me'
p2254
aS'he'
p2255
as(S'Thanks'
p2256
tp2257
(lp2258
S'Justin'
p2259
as(S'popeye'
p2260
tp2261
(lp2262
S'She'
p2263
as(S'toe-tagging'
p2264
tp2265
(lp2266
S"I'll"
p2267
as(S"shoppin'"
p2268
tp2269
(lp2270
S'after'
p2271
as(S'dozen'
p2272
tp2273
(lp2274
S"'Til"
p2275
as(S'brother'
p2276
tp2277
(lp2278
S'foot'
p2279
aS'Better'
p2280
aS'All'
p2281
as(S'mixed'
p2282
tp2283
(lp2284
S'with'
p2285
as(S'hid'
p2286
tp2287
(lp2288
S'but'
p2289
as(S'Shut'
p2290
tp2291
(lp2292
S'up'
p2293
aS'up'
p2294
aS'up'
p2295
as(S'club'
p2296
tp2297
(lp2298
S"that's"
p2299
aS'Is'
p2300
aS"What's"
p2301
as(S'hooks'
p2302
tp2303
(lp2304
S'and'
p2305
as(S'leaf'
p2306
tp2307
(lp2308
S'Oh'
p2309
as(S'cruising'
p2310
tp2311
(lp2312
S'on'
p2313
as(S'First'
p2314
tp2315
(lp2316
S'day'
p2317
as(S'dick'
p2318
tp2319
(lp2320
S"won't"
p2321
aS'If'
p2322
as(S'Merge'
p2323
tp2324
(lp2325
S'the'
p2326
as(S'manager'
p2327
tp2328
(lp2329
S'backpack'
p2330
as(S'salon'
p2331
tp2332
(lp2333
S'doing'
p2334
as(S'candy'
p2335
tp2336
(lp2337
S'yum'
p2338
as(S'Stay'
p2339
tp2340
(lp2341
S'in'
p2342
aS'in'
p2343
as(S'yourself'
p2344
tp2345
(lp2346
S'in'
p2347
aS'in'
p2348
as(S'Pray'
p2349
tp2350
(lp2351
S'for'
p2352
as(S'fried'
p2353
tp2354
(lp2355
S'on'
p2356
as(S"couldn't"
p2357
tp2358
(lp2359
S'have'
p2360
aS'stand'
p2361
aS'stand'
p2362
aS'stand'
p2363
aS'stand'
p2364
as(S'Then'
p2365
tp2366
(lp2367
g146
aS'we'
p2368
as(S'hat'
p2369
tp2370
(lp2371
S'at'
p2372
ag146
as(S'jog'
p2373
tp2374
(lp2375
S'in'
p2376
as(S'kind'
p2377
tp2378
(lp2379
S'from'
p2380
as(S'taste'
p2381
tp2382
(lp2383
S'so'
p2384
as(S'His'
p2385
tp2386
(lp2387
S'side'
p2388
as(S'finesse'
p2389
tp2390
(lp2391
g146
as(S'bands'
p2392
tp2393
(lp2394
S'joint'
p2395
as(S'thing'
p2396
tp2397
(lp2398
S'This'
p2399
ag146
aS'for'
p2400
as(S'Accent'
p2401
tp2402
(lp2403
S'Husky'
p2404
as(S'hold'
p2405
tp2406
(lp2407
S'Like'
p2408
aS'hands'
p2409
as(S'gun'
p2410
tp2411
(lp2412
S'than'
p2413
as(S'satan'
p2414
tp2415
(lp2416
g249
as(S'saved'
p2417
tp2418
(lp2419
S'my'
p2420
as(S'old'
p2421
tp2422
(lp2423
g146
aS'folks'
p2424
aS'church'
p2425
aS'We'
p2426
aS'ways'
p2427
aS'me'
p2428
aS'man'
p2429
as(S"What's"
p2430
tp2431
(lp2432
S'good'
p2433
aS'better'
p2434
aS'better'
p2435
aS'better'
p2436
aS'better'
p2437
aS'better'
p2438
aS'better'
p2439
aS'better'
p2440
aS'better'
p2441
aS'better'
p2442
aS'better'
p2443
aS'better'
p2444
as(S'Mine'
p2445
tp2446
(lp2447
S'is'
p2448
as(S'demons'
p2449
tp2450
(lp2451
S'in'
p2452
aS'Its'
p2453
as(S'hitter'
p2454
tp2455
(lp2456
S'you'
p2457
as(S'keep'
p2458
tp2459
(lp2460
S'those'
p2461
aS'the'
p2462
aS'some'
p2463
aS'my'
p2464
aS'some'
p2465
aS'it'
p2466
as(S'GCI'
p2467
tp2468
(lp2469
S'1-0-7-5'
p2470
aS'1-0-7-5'
p2471
as(S'leaks'
p2472
tp2473
(lp2474
S'dusted'
p2475
as(S'back'
p2476
tp2477
(lp2478
S'and'
p2479
aS'then'
p2480
aS'here'
p2481
aS'up'
p2482
aS'up'
p2483
ag249
aS'when'
p2484
ag146
aS'the'
p2485
aS"I'm"
p2486
aS'on'
p2487
aS'said'
p2488
aS'and'
p2489
aS'to'
p2490
aS'Real'
p2491
aS'give'
p2492
aS'when'
p2493
aS'with'
p2494
aS'when'
p2495
aS'like'
p2496
aS'to'
p2497
aS'ass'
p2498
aS'cause'
p2499
aS'in'
p2500
as(S'marriage'
p2501
tp2502
(lp2503
S'on'
p2504
as(S'body'
p2505
tp2506
(lp2507
S"can't"
p2508
as(S'deuce'
p2509
tp2510
(lp2511
S'deuce'
p2512
aS"I'll"
p2513
as(S"'cid"
p2514
tp2515
(lp2516
S'And'
p2517
as(S'speed'
p2518
tp2519
(lp2520
S'dial'
p2521
as(S'Auntie'
p2522
tp2523
(lp2524
S'Yonc\xc3'
p2525
as(S'hacky'
p2526
tp2527
(lp2528
S'sacker'
p2529
as(S'snatch-less'
p2530
tp2531
(lp2532
S'necklace'
p2533
as(S'No'
p2534
tp2535
(lp2536
S'you'
p2537
aS"IOU's"
p2538
aS'Jordan'
p2539
aS'love'
p2540
aS'Drake'
p2541
as(S'young'
p2542
tp2543
(lp2544
S'before'
p2545
aS'before'
p2546
aS'angels'
p2547
aS'for'
p2548
aS'to'
p2549
aS'ass'
p2550
aS'Cletus'
p2551
aS'Sir'
p2552
aS'just'
p2553
aS'cause'
p2554
aS'You'
p2555
as(S'radio'
p2556
tp2557
(lp2558
S'And'
p2559
as(S"sleepin'"
p2560
tp2561
(lp2562
S'Buenas'
p2563
as(S'With'
p2564
tp2565
(lp2566
S'the'
p2567
aS'the'
p2568
aS'young'
p2569
aS'my'
p2570
aS'bad'
p2571
as(S'Packers'
p2572
tp2573
(lp2574
S'Cremate'
p2575
as(S'left'
p2576
tp2577
(lp2578
S'all'
p2579
aS'feet'
p2580
as(S'Lakers'
p2581
tp2582
(lp2583
S'And'
p2584
as(S'third'
p2585
tp2586
(lp2587
g146
aS'ayy'
p2588
aS'ayy'
p2589
aS'Drought'
p2590
aS'Carter'
p2591
aS'grade'
p2592
aS'Barbershop'
p2593
aS'when'
p2594
as(S'clock'
p2595
tp2596
(lp2597
S'Acid'
p2598
aS'Ya'
p2599
as(S'Flatts'
p2600
tp2601
(lp2602
S'-'
p2603
as(S'sword'
p2604
tp2605
(lp2606
S'with'
p2607
as(S'supplier'
p2608
tp2609
(lp2610
S'Lies'
p2611
as(S'find'
p2612
tp2613
(lp2614
S'another'
p2615
ag249
ag249
aS'Talent'
p2616
aS'yourself'
p2617
as(S'died'
p2618
tp2619
(lp2620
S'He'
p2621
aS'young'
p2622
as(S'liar'
p2623
tp2624
(lp2625
S'wonder'
p2626
as(S'swords'
p2627
tp2628
(lp2629
S'and'
p2630
as(S'Jams'
p2631
tp2632
(lp2633
S'nigga'
p2634
as(S'packing'
p2635
tp2636
(lp2637
S'the'
p2638
as(S'Levis'
p2639
tp2640
(lp2641
S'on'
p2642
as(S'blue'
p2643
tp2644
(lp2645
S'and'
p2646
aS'heels'
p2647
as(S'wanna'
p2648
tp2649
(lp2650
S'smile'
p2651
aS'lie'
p2652
aS'chill'
p2653
aS'build'
p2654
aS'laugh'
p2655
aS'ride'
p2656
aS'talk'
p2657
aS'bring'
p2658
aS'sip'
p2659
aS'bib'
p2660
aS'dip'
p2661
aS'die'
p2662
aS'go'
p2663
aS'hold'
p2664
as(S'hoes'
p2665
tp2666
(lp2667
g146
ag146
as(S'sin'
p2668
tp2669
(lp2670
S'My'
p2671
as(S'beat'
p2672
tp2673
(lp2674
S'that'
p2675
aS'one'
p2676
aS'Chris'
p2677
as(S'bottles'
p2678
tp2679
(lp2680
S'trying'
p2681
as(S'look'
p2682
tp2683
(lp2684
S'out'
p2685
aS'like'
p2686
aS'cooler'
p2687
aS'through'
p2688
aS'just'
p2689
aS'just'
p2690
as(S'stutter'
p2691
tp2692
(lp2693
S'Did'
p2694
as(S'dear'
p2695
tp2696
(lp2697
S'lord'
p2698
as(S'drank'
p2699
tp2700
(lp2701
S'with'
p2702
as(S'FAFSA'
p2703
tp2704
(lp2705
S'Jugo'
p2706
as(S'fool'
p2707
tp2708
(lp2709
S'But'
p2710
as(S'Spotify'
p2711
tp2712
(lp2713
S'to'
p2714
as(S'crack'
p2715
tp2716
(lp2717
S'of'
p2718
aS'in'
p2719
as(S'than'
p2720
tp2721
(lp2722
g249
aS'all'
p2723
aS'it'
p2724
aS'him'
p2725
aS'tripping'
p2726
aS'Letterman'
p2727
aS'popping'
p2728
aS'paper'
p2729
aS'followers'
p2730
aS'frolicking'
p2731
aS'eating'
p2732
aS'meetings'
p2733
aS'leaning'
p2734
aS'yelling'
p2735
aS'rhymes'
p2736
aS"fallin'"
p2737
aS'worthless'
p2738
ag146
as(S'letterman'
p2739
tp2740
(lp2741
S'no'
p2742
as(S'Laffy'
p2743
tp2744
(lp2745
S'Taffy'
p2746
as(S'sister'
p2747
tp2748
(lp2749
S'Juke'
p2750
as(S'truck'
p2751
tp2752
(lp2753
S'and'
p2754
as(S'murking'
p2755
tp2756
(lp2757
S'kids'
p2758
as(S'generation'
p2759
tp2760
(lp2761
S'above'
p2762
as(S'blog'
p2763
tp2764
(lp2765
S'get'
p2766
as(S'cigarillos'
p2767
tp2768
(lp2769
S'And'
p2770
as(S'forgetful'
p2771
tp2772
(lp2773
S'In'
p2774
as(S'fucked'
p2775
tp2776
(lp2777
S'all'
p2778
aS'since'
p2779
as(S'Jugo'
p2780
tp2781
(lp2782
S'you'
p2783
as(S'ton'
p2784
tp2785
(lp2786
S'of'
p2787
as(S'gates'
p2788
tp2789
(lp2790
S"It's"
p2791
as(S'leaning'
p2792
tp2793
(lp2794
S'and'
p2795
as(S'glad'
p2796
tp2797
(lp2798
S"I'm"
p2799
aS"I'm"
p2800
as(S'Hooks'
p2801
tp2802
(lp2803
S'and'
p2804
as(S'Leno'
p2805
tp2806
(lp2807
S'Fallon'
p2808
as(S'let'
p2809
tp2810
(lp2811
g249
ag249
aS'our'
p2812
aS'that'
p2813
aS'the'
p2814
aS'you'
p2815
aS'go'
p2816
aS'her'
p2817
aS'me'
p2818
as(S'discernment'
p2819
tp2820
(lp2821
S'Daddy'
p2822
as(S'promised'
p2823
tp2824
(lp2825
S'lands'
p2826
as(S'perfect'
p2827
tp2828
(lp2829
g146
aS'and'
p2830
as(S'banana'
p2831
tp2832
(lp2833
S'splits'
p2834
as(S'may'
p2835
tp2836
(lp2837
S'Cinco'
p2838
aS'change'
p2839
as(S'Right'
p2840
tp2841
(lp2842
S'IGH'
p2843
as(S'fuckin'
p2844
tp2845
(lp2846
S'hates'
p2847
as(S'higher'
p2848
tp2849
(lp2850
S'higher'
p2851
as(S'seventh'
p2852
tp2853
(lp2854
S'grade'
p2855
as(S'Ludacris'
p2856
tp2857
(lp2858
g146
as(S'steps'
p2859
tp2860
(lp2861
S'gave'
p2862
as(S'mumble'
p2863
tp2864
(lp2865
S"Wantin'"
p2866
as(S'Devil'
p2867
tp2868
(lp2869
S'will'
p2870
aS'with'
p2871
as(S'gethigher'
p2872
tp2873
(lp2874
S'Pardon'
p2875
as(S'fart'
p2876
tp2877
(lp2878
S'on'
p2879
as(S'rapper'
p2880
tp2881
(lp2882
S'jump'
p2883
aS'lose'
p2884
aS'practice'
p2885
aS'soccer'
p2886
aS'Bang'
p2887
as(S"don't"
p2888
tp2889
(lp2890
S'give'
p2891
aS'take'
p2892
aS'our'
p2893
aS'get'
p2894
aS'got'
p2895
aS'make'
p2896
aS'wait'
p2897
aS'we'
p2898
aS'do'
p2899
aS'know'
p2900
aS'know'
p2901
aS'know'
p2902
aS'even'
p2903
aS'have'
p2904
aS'even'
p2905
aS'trust'
p2906
aS'know'
p2907
aS'end'
p2908
aS'believe'
p2909
aS'got'
p2910
aS'got'
p2911
aS'got'
p2912
aS'be'
p2913
aS'have'
p2914
aS'be'
p2915
aS'have'
p2916
aS'have'
p2917
aS'get'
p2918
aS'get'
p2919
aS'even'
p2920
aS'worry'
p2921
aS'even'
p2922
aS'eat'
p2923
aS'pour'
p2924
aS'dance'
p2925
aS'stay'
p2926
aS'talk'
p2927
aS'know'
p2928
aS'do'
p2929
aS'get'
p2930
aS'get'
p2931
aS'get'
p2932
aS'rhyme'
p2933
aS'take'
p2934
aS'let'
p2935
as(S'stained'
p2936
tp2937
(lp2938
S'smile'
p2939
as(S'hey'
p2940
tp2941
(lp2942
S'Fuck'
p2943
aS'Ready'
p2944
aS'hey'
p2945
aS'good'
p2946
as(S'Kobe'
p2947
tp2948
(lp2949
S'when'
p2950
as(S'Black'
p2951
tp2952
(lp2953
S'queen'
p2954
as(S'gangsta'
p2955
tp2956
(lp2957
S'And'
p2958
as(S'bull'
p2959
tp2960
(lp2961
S'that'
p2962
as(S'cheat'
p2963
tp2964
(lp2965
S'you'
p2966
as(S'trending'
p2967
tp2968
(lp2969
S'more'
p2970
as(S'no'
p2971
tp2972
(lp2973
S'intro'
p2974
aS'dad'
p2975
aS'choice'
p2976
aS'shine'
p2977
aS'more'
p2978
aS'time'
p2979
aS'more'
p2980
aS'blood'
p2981
aS'Twitter'
p2982
aS"visitin'"
p2983
aS'more'
p2984
aS'Everybody'
p2985
aS'Oh'
p2986
aS'one'
p2987
aS'one'
p2988
aS'time'
p2989
aS'time'
p2990
aS'time'
p2991
aS'sex'
p2992
aS'time'
p2993
aS'hoes'
p2994
aS'cost'
p2995
aS'Last'
p2996
aS'practice'
p2997
aS'lacking'
p2998
aS'Jackson'
p2999
aS's\xc3'
p3000
aS'partners'
p3001
aS'knuckling'
p3002
as(S'hots'
p3003
tp3004
(lp3005
S'with'
p3006
as(S'Shabach'
p3007
tp3008
(lp3009
S'barak'
p3010
as(S'Churches'
p3011
tp3012
(lp3013
S"Everything's"
p3014
as(S'Blue'
p3015
tp3016
(lp3017
S'pill'
p3018
as(S'acid'
p3019
tp3020
(lp3021
S'made'
p3022
aS'rapper'
p3023
aS'head'
p3024
aS'in'
p3025
aS'burn'
p3026
as(S'hallway'
p3027
tp3028
(lp3029
S'So'
p3030
as(S'Where'
p3031
tp3032
(lp3033
S'did'
p3034
aS'did'
p3035
aS'the'
p3036
as(S'act'
p3037
tp3038
(lp3039
S'hard'
p3040
aS'humble'
p3041
as(S'his'
p3042
tp3043
(lp3044
S'daddy'
p3045
aS'stand-in'
p3046
aS'demons'
p3047
aS'face'
p3048
aS'face'
p3049
aS'son'
p3050
aS'son'
p3051
aS'shit'
p3052
as(S'card'
p3053
tp3054
(lp3055
S'when'
p3056
as(S'Look'
p3057
tp3058
(lp3059
S'it'
p3060
as(S'camp'
p3061
tp3062
(lp3063
S'at'
p3064
aS'Me'
p3065
as(S'thirsty'
p3066
tp3067
(lp3068
S'As'
p3069
aS"thievin'"
p3070
aS'creeping'
p3071
as(S'bring'
p3072
tp3073
(lp3074
S'my'
p3075
aS'my'
p3076
aS'me'
p3077
aS'guns'
p3078
as(S'pigeon'
p3079
tp3080
(lp3081
S'plane'
p3082
aS'toed'
p3083
as(S'lucy'
p3084
tp3085
(lp3086
S'Dreams'
p3087
aS'leaf'
p3088
as(S'growth'
p3089
tp3090
(lp3091
S'spurt'
p3092
as(S'Rapper'
p3093
tp3094
(lp3095
S'please'
p3096
aS'Magical'
p3097
aS'Un-saran'
p3098
aS'song'
p3099
as(S'Benjis'
p3100
tp3101
(lp3102
S'while'
p3103
as(S'how'
p3104
tp3105
(lp3106
g146
aS'to'
p3107
aS'to'
p3108
aS'to'
p3109
as(S'watch'
p3110
tp3111
(lp3112
S'me'
p3113
aS'out'
p3114
aS'out'
p3115
aS'with'
p3116
aS"Somebody'll"
p3117
aS'Pray'
p3118
aS'Captain'
p3119
aS'my'
p3120
aS'drugs'
p3121
as(S'spill'
p3122
tp3123
(lp3124
S'Pac'
p3125
aS'everybody'
p3126
as(S'Young'
p3127
tp3128
(lp3129
S'Rascal'
p3130
as(S'heels'
p3131
tp3132
(lp3133
S'yop'
p3134
as(S'smoking'
p3135
tp3136
(lp3137
g249
as(S'laugh'
p3138
tp3139
(lp3140
S'Oh'
p3141
aS'at'
p3142
as(S'percs'
p3143
tp3144
(lp3145
S'for'
p3146
as(S'pies'
p3147
tp3148
(lp3149
S'Lullabies'
p3150
as(S'square'
p3151
tp3152
(lp3153
S"that's"
p3154
as(S'Ashley'
p3155
tp3156
(lp3157
S'always'
p3158
as(S'Twitter'
p3159
tp3160
(lp3161
S'in'
p3162
aS'wonder'
p3163
as(S'trynna'
p3164
tp3165
(lp3166
S'chase'
p3167
as(S'Space'
p3168
tp3169
(lp3170
S'Jam'
p3171
as(S'synonyms'
p3172
tp3173
(lp3174
S'like'
p3175
as(S'threesome'
p3176
tp3177
(lp3178
S'time'
p3179
as(S'Till'
p3180
tp3181
(lp3182
S'you'
p3183
as(S'tattoo'
p3184
tp3185
(lp3186
S'She'
p3187
as(S'crest'
p3188
tp3189
(lp3190
S'And'
p3191
as(S'myself'
p3192
tp3193
(lp3194
g146
aS'oh'
p3195
aS'since'
p3196
as(S'Its'
p3197
tp3198
(lp3199
S'my'
p3200
as(S'perms'
p3201
tp3202
(lp3203
S'out'
p3204
as(S'holistic'
p3205
tp3206
(lp3207
S'discernment'
p3208
as(S'mean'
p3209
tp3210
(lp3211
S'This'
p3212
aS"it's"
p3213
aS'the'
p3214
aS'bitch'
p3215
aS'hit'
p3216
aS'shit'
p3217
aS'controversy'
p3218
aS'leaving'
p3219
as(S'hitting'
p3220
tp3221
(lp3222
S'your'
p3223
as(S'knew'
p3224
tp3225
(lp3226
S'when'
p3227
aS'too'
p3228
aS'it'
p3229
as(S'stranger'
p3230
tp3231
(lp3232
S"Don't"
p3233
as(S'nap'
p3234
tp3235
(lp3236
S'hey'
p3237
as(S'Got'
p3238
tp3239
(lp3240
S'the'
p3241
aS'the'
p3242
aS'us'
p3243
ag249
aS'neck'
p3244
ag249
as(S'parents'
p3245
tp3246
(lp3247
S'digging'
p3248
aS'was'
p3249
as(S'skating'
p3250
tp3251
(lp3252
S'To'
p3253
as(S'goes'
p3254
tp3255
(lp3256
S'out'
p3257
as(S'mortar'
p3258
tp3259
(lp3260
S'fall'
p3261
as(S'neighborhood'
p3262
tp3263
(lp3264
g146
aS'watch'
p3265
as(S'solstice'
p3266
tp3267
(lp3268
g146
as(S'slipped'
p3269
tp3270
(lp3271
S'on'
p3272
as(S'heard'
p3273
tp3274
(lp3275
S'college'
p3276
aS'this'
p3277
as(S'Ready'
p3278
tp3279
(lp3280
S'my'
p3281
as(S'ex'
p3282
tp3283
(lp3284
S'girl'
p3285
as(S'turn'
p3286
tp3287
(lp3288
S'my'
p3289
aS'my'
p3290
aS'into'
p3291
as(S'Them'
p3292
tp3293
(lp3294
S'squares'
p3295
as(S'grew'
p3296
tp3297
(lp3298
S'up'
p3299
as(S'talk'
p3300
tp3301
(lp3302
S'to'
p3303
aS'that'
p3304
aS'that'
p3305
aS'way'
p3306
ag146
aS'about'
p3307
aS'so'
p3308
aS'about'
p3309
aS'white'
p3310
aS'right'
p3311
as(S'Hit'
p3312
tp3313
(lp3314
S'that'
p3315
aS'Jericho'
p3316
aS'sensei'
p3317
as(S'brand'
p3318
tp3319
(lp3320
S'chinchilla'
p3321
as(S'Carter'
p3322
tp3323
(lp3324
S'drop'
p3325
as(S'leave'
p3326
tp3327
(lp3328
S'em'
p3329
as(S'their'
p3330
tp3331
(lp3332
S'hands'
p3333
as(S'wrap'
p3334
tp3335
(lp3336
S'weed'
p3337
aS'the'
p3338
aS'that'
p3339
as(S'ass'
p3340
tp3341
(lp3342
S'nigga'
p3343
aS'job'
p3344
aS'job'
p3345
aS'kid'
p3346
aS'could'
p3347
aS'get'
p3348
aS'is'
p3349
as(S"thinkin'"
p3350
tp3351
(lp3352
S'Fuck'
p3353
as(S'84'
p3354
tp3355
(lp3356
S'damn'
p3357
as(S'anti-label'
p3358
tp3359
(lp3360
S'Pro-famous'
p3361
as(S'reborn'
p3362
tp3363
(lp3364
g146
as(S'lacking'
p3365
tp3366
(lp3367
S'Still'
p3368
as(S'danger'
p3369
tp3370
(lp3371
S"Don't"
p3372
as(S'Va'
p3373
tp3374
(lp3375
S'htie'
p3376
as(S'believing'
p3377
tp3378
(lp3379
S'in'
p3380
as(S'white'
p3381
tp3382
(lp3383
S'collar'
p3384
aS'But'
p3385
aS'And'
p3386
as(S'lay'
p3387
tp3388
(lp3389
S'back'
p3390
aS'up'
p3391
as(S'earl'
p3392
tp3393
(lp3394
S'tea'
p3395
as(S'Andr\xc3'
p3396
tp3397
(lp3398
S'Tryna'
p3399
as(S'Any'
p3400
tp3401
(lp3402
S'petty'
p3403
as(S'feel'
p3404
tp3405
(lp3406
S'like'
p3407
aS'like'
p3408
aS'good'
p3409
aS'to'
p3410
aS'good'
p3411
aS'good'
p3412
as(S'Thriller'
p3413
tp3414
(lp3415
S'Remember'
p3416
as(S'Had'
p3417
tp3418
(lp3419
S'to'
p3420
as(S'space'
p3421
tp3422
(lp3423
S'and'
p3424
aS'Now'
p3425
as(S'front'
p3426
tp3427
(lp3428
S'flips'
p3429
as(S'pico'
p3430
tp3431
(lp3432
S'de'
p3433
as(S'shell'
p3434
tp3435
(lp3436
S'From'
p3437
as(S'Igh'
p3438
tp3439
(lp3440
S'Igh'
p3441
aS'Igh'
p3442
aS'Igh'
p3443
aS'for'
p3444
as(S'Alma'
p3445
tp3446
(lp3447
S'mater'
p3448
as(S'Our'
p3449
tp3450
(lp3451
S'summer'
p3452
aS'summer'
p3453
aS'summer'
p3454
as(S'wash'
p3455
tp3456
(lp3457
S'my'
p3458
as(S'Molly'
p3459
tp3460
(lp3461
S'Said'
p3462
as(S'qualify'
p3463
tp3464
(lp3465
g249
as(S'soul'
p3466
tp3467
(lp3468
S'search'
p3469
as(S'bosses'
p3470
tp3471
(lp3472
S'When'
p3473
aS'You'
p3474
as(S'Did'
p3475
tp3476
(lp3477
g249
as(S'win'
p3478
tp3479
(lp3480
S'employee'
p3481
aS'an'
p3482
as(S'bad'
p3483
tp3484
(lp3485
S'at'
p3486
aS'at'
p3487
aS'bitches'
p3488
as(S'plus'
p3489
tp3490
(lp3491
S'me'
p3492
as(S'praise'
p3493
tp3494
(lp3495
S'dance'
p3496
as(S'paperwork'
p3497
tp3498
(lp3499
S'They'
p3500
as(S'forget'
p3501
tp3502
(lp3503
S'the'
p3504
aS'how'
p3505
as(S'Owls'
p3506
tp3507
(lp3508
S'to'
p3509
as(S"shawdy's"
p3510
tp3511
(lp3512
S'with'
p3513
as(S'signed'
p3514
tp3515
(lp3516
S'me'
p3517
as(S'Call'
p3518
tp3519
(lp3520
S'me'
p3521
aS'me'
p3522
as(S'desktop'
p3523
tp3524
(lp3525
S'what'
p3526
as(S'baptized'
p3527
tp3528
(lp3529
S'like'
p3530
as(g249
tp3531
(lp3532
S'better'
p3533
aS'dream'
p3534
aS'swirlie'
p3535
aS'nap'
p3536
aS'lame'
p3537
aS'timeshare'
p3538
aS'lawn'
p3539
aS'friendship'
p3540
aS'blog'
p3541
aS'minute'
p3542
aS'friend'
p3543
aS'nigga'
p3544
aS'nigga'
p3545
aS'sword'
p3546
aS'crest'
p3547
aS'trumpet'
p3548
aS'force'
p3549
aS'four'
p3550
aS'horn'
p3551
aS'buzzer'
p3552
aS'quarter'
p3553
aS'hurry'
p3554
aS'link'
p3555
aS'real'
p3556
aS'deal'
p3557
aS'little'
p3558
aS'radio'
p3559
aS'rodeo'
p3560
aS'growth'
p3561
aS'nigga'
p3562
aS'cab'
p3563
aS'fan'
p3564
aS'pic'
p3565
aS'Uber'
p3566
aS'goofy'
p3567
aS'lyft'
p3568
aS'race'
p3569
aS'spot'
p3570
aS'child'
p3571
aS'day'
p3572
aS'pumpkin-seed-sized'
p3573
aS'bowl'
p3574
aS'whole'
p3575
aS'half'
p3576
aS'fit'
p3577
aS'child'
p3578
aS'smile'
p3579
aS'bowl'
p3580
aS'second'
p3581
aS'second'
p3582
aS'boss'
p3583
aS'whore'
p3584
aS'perc'
p3585
aS'queen'
p3586
aS'fool'
p3587
aS'prayer'
p3588
aS'long'
p3589
aS'day'
p3590
aS'marathon'
p3591
aS'marriage'
p3592
aS'baritone'
p3593
aS'queen'
p3594
aS'world'
p3595
aS'Black'
p3596
aS'vid'
p3597
aS'rapper'
p3598
aS'watch'
p3599
aS'stain-er'
p3600
aS'ton'
p3601
aS'joke'
p3602
aS'bed'
p3603
aS'good'
p3604
aS'good'
p3605
aS'lane'
p3606
aS'bird'
p3607
aS'word'
p3608
aS'shame'
p3609
aS'tab'
p3610
aS'niggas'
p3611
aS'red'
p3612
aS'blue'
p3613
aS'hand'
p3614
aS'lame'
p3615
aS'Reader'
p3616
aS'RedEye'
p3617
aS'fiend'
p3618
aS'Molly'
p3619
aS'safer'
p3620
aS'little-bitty'
p3621
aS'little'
p3622
aS'literary'
p3623
aS'little'
p3624
aS"fuckin'"
p3625
aS'lot'
p3626
aS'gun'
p3627
aS'fucking'
p3628
aS'cop'
p3629
aS'nose'
p3630
aS'song'
p3631
aS'suit'
p3632
aS'shell'
p3633
aS'bitch'
p3634
aS'kiwi'
p3635
aS"fuckin'"
p3636
aS'dick'
p3637
aS'coupon'
p3638
aS'cape'
p3639
aS'nigga'
p3640
aS'work'
p3641
aS'cape'
p3642
aS'cane'
p3643
aS'tall'
p3644
aS'beautiful'
p3645
aS'hoover'
p3646
aS'senior'
p3647
aS'huggy'
p3648
aS'dougie'
p3649
aS'senior'
p3650
aS'youth'
p3651
aS'genius'
p3652
aS'mothafuckin'
p3653
aS'Vega'
p3654
aS'verse'
p3655
aS'minute'
p3656
aS'Twitter'
p3657
aS'minimum'
p3658
aS'lot'
p3659
aS'lot'
p3660
aS'nigga'
p3661
aS'lost'
p3662
aS'submission'
p3663
aS'missing'
p3664
aS'mistletoe'
p3665
aS'club'
p3666
aS'Xan'
p3667
aS'dream'
p3668
aS'good'
p3669
aS'card'
p3670
aS'purchase'
p3671
aS'caterpillar'
p3672
aS'milla'
p3673
aS'gangsta'
p3674
aS'lot'
p3675
aS'sound'
p3676
aS'lie'
p3677
aS'liar'
p3678
aS'song'
p3679
aS'bang'
p3680
aS'lot'
p3681
aS'dance'
p3682
as(S'Trayvon'
p3683
tp3684
(lp3685
S"Shoppin'"
p3686
as(S'was'
p3687
tp3688
(lp3689
g249
aS'baptized'
p3690
aS'You'
p3691
aS'talking'
p3692
aS'America'
p3693
aS'working'
p3694
aS'good'
p3695
aS'so'
p3696
aS'so'
p3697
aS'too'
p3698
aS'too'
p3699
aS'Where'
p3700
aS'too'
p3701
aS'too'
p3702
aS"'Cause"
p3703
aS'only'
p3704
aS'real'
p3705
aS'the'
p3706
aS'too'
p3707
aS'cute'
p3708
ag249
aS'acting'
p3709
aS'one'
p3710
aS'two'
p3711
aS'work'
p3712
aS'still'
p3713
aS'just'
p3714
aS'dark'
p3715
aS'black'
p3716
aS'fly'
p3717
aS'just'
p3718
aS'the'
p3719
ag249
as(S'gallo'
p3720
tp3721
(lp3722
S'They'
p3723
as(S'literary'
p3724
tp3725
(lp3726
S'knack'
p3727
as(S'blisters'
p3728
tp3729
(lp3730
S'on'
p3731
as(S'Chews'
p3732
tp3733
(lp3734
S"'Til"
p3735
as(S'bit'
p3736
tp3737
(lp3738
S'of'
p3739
aS'of'
p3740
as(S'sick'
p3741
tp3742
(lp3743
S'Reclining'
p3744
aS'Making'
p3745
as(S'My'
p3746
tp3747
(lp3748
S'shooters'
p3749
aS'bitch'
p3750
aS'village'
p3751
aS'dream'
p3752
aS'dick'
p3753
aS'weed'
p3754
aS'big'
p3755
aS'afro'
p3756
aS'hard'
p3757
aS'manager'
p3758
as(S'just'
p3759
tp3760
(lp3761
S'might'
p3762
aS'might'
p3763
aS'had'
p3764
aS'go'
p3765
aS'hip'
p3766
aS'dancing'
p3767
aS'to'
p3768
aS'wanna'
p3769
aS'wanna'
p3770
aS'went'
p3771
aS'shrug'
p3772
aS'been'
p3773
aS'put'
p3774
aS'put'
p3775
aS'sit'
p3776
aS'trying'
p3777
aS'here'
p3778
aS'bring'
p3779
aS'make'
p3780
aS'made'
p3781
aS'made'
p3782
aS'came'
p3783
aS'me'
p3784
aS'them'
p3785
aS'us'
p3786
ag249
aS'got'
p3787
aS'might'
p3788
aS'turned'
p3789
ag249
aS'not'
p3790
aS'mean'
p3791
aS'might'
p3792
aS'opened'
p3793
aS'yelling'
p3794
aS'like'
p3795
aS'gotta'
p3796
aS'faced'
p3797
aS'the'
p3798
aS'aiming'
p3799
aS'not'
p3800
aS'for'
p3801
ag249
aS'alike'
p3802
as(S'days'
p3803
tp3804
(lp3805
S'stranger'
p3806
aS"Don't"
p3807
ag808
aS'And'
p3808
aS'is'
p3809
aS'but'
p3810
as(S'aight'
p3811
tp3812
(lp3813
S'lehgo'
p3814
aS'let'
p3815
as(S'air'
p3816
tp3817
(lp3818
S'Dying'
p3819
aS'You'
p3820
as(S"'92"
p3821
tp3822
(lp3823
S'Now'
p3824
as(S'Kingdom'
p3825
tp3826
(lp3827
S'Chisel'
p3828
as(S'squares'
p3829
tp3830
(lp3831
S'just'
p3832
as(S'neck'
p3833
tp3834
(lp3835
S'But'
p3836
aS'from'
p3837
as(S'jersey'
p3838
tp3839
(lp3840
S"Stressin'"
p3841
as(S'house'
p3842
tp3843
(lp3844
S'now'
p3845
aS'full'
p3846
as(S'igh'
p3847
tp3848
(lp3849
S'igh'
p3850
aS'It'
p3851
aS'But'
p3852
as(S'weak'
p3853
tp3854
(lp3855
S'since'
p3856
as(S'pedal'
p3857
tp3858
(lp3859
g146
as(S'too'
p3860
tp3861
(lp3862
S'late'
p3863
aS'late'
p3864
aS'late'
p3865
aS'late'
p3866
aS'many'
p3867
aS'much'
p3868
aS'Your'
p3869
aS'young'
p3870
aS'worried'
p3871
aS'young'
p3872
aS'sick'
p3873
aS'Building'
p3874
aS'it'
p3875
aS'many'
p3876
aS"Ain't"
p3877
as(S'sinus'
p3878
tp3879
(lp3880
S'Mine'
p3881
as(S'Dino'
p3882
tp3883
(lp3884
S"that's"
p3885
as(S'looser'
p3886
tp3887
(lp3888
S'and'
p3889
as(S'cousins'
p3890
tp3891
(lp3892
S'Shabach'
p3893
as(S'umbrella'
p3894
tp3895
(lp3896
S'as'
p3897
as(S'four'
p3898
tp3899
(lp3900
S'different'
p3901
aS'minute'
p3902
aS'hour'
p3903
aS'months'
p3904
as(S'cigarette'
p3905
tp3906
(lp3907
S'ashing'
p3908
as(S'show'
p3909
tp3910
(lp3911
S'for'
p3912
aS'his'
p3913
aS'his'
p3914
as(S'drawers'
p3915
tp3916
(lp3917
S'hid'
p3918
as(S'Tommy'
p3919
tp3920
(lp3921
S'and'
p3922
as(S'racing'
p3923
tp3924
(lp3925
S'up'
p3926
aS'yaself'
p3927
as(S'atom'
p3928
tp3929
(lp3930
S'with'
p3931
as(S'Good'
p3932
tp3933
(lp3934
S'God'
p3935
aS'God'
p3936
aS'See'
p3937
aS'But'
p3938
as(S'shorter'
p3939
tp3940
(lp3941
S'Fall'
p3942
as(S'confuse'
p3943
tp3944
(lp3945
S'Confucius'
p3946
as(S'Magical'
p3947
tp3948
(lp3949
S'word'
p3950
as(S'follow'
p3951
tp3952
(lp3953
S'him'
p3954
as(S"Harold's"
p3955
tp3956
(lp3957
S'again'
p3958
as(S'Everybody'
p3959
tp3960
(lp3961
S'outside'
p3962
aS'high'
p3963
aS'wanna'
p3964
aS'know'
p3965
as(S'Wide'
p3966
tp3967
(lp3968
S'eyed'
p3969
as(S'sporadicity'
p3970
tp3971
(lp3972
S'and'
p3973
as(S'Or'
p3974
tp3975
(lp3976
S"he'll"
p3977
as(S'BANG'
p3978
tp3979
(lp3980
S'Shoes'
p3981
as(S'cost'
p3982
tp3983
(lp3984
S'When'
p3985
as(S'gars'
p3986
tp3987
(lp3988
g146
as(S'putting'
p3989
tp3990
(lp3991
S'points'
p3992
as(S'perform'
p3993
tp3994
(lp3995
g146
as(S'Cheese'
p3996
tp3997
(lp3998
S'and'
p3999
as(S'\xe2'
p4000
tp4001
(lp4002
S'2'
p4003
aS'Stand'
p4004
as(S'replays'
p4005
tp4006
(lp4007
S'Green'
p4008
as(S'beef'
p4009
tp4010
(lp4011
S'This'
p4012
as(S"visitin'"
p4013
tp4014
(lp4015
S'Heaven'
p4016
as(S'Cocky'
p4017
tp4018
(lp4019
S'khaki'
p4020
as(S'yes'
p4021
tp4022
(lp4023
S'You'
p4024
aS'House'
p4025
aS'Poppy'
p4026
aS'Move'
p4027
as(S'hit'
p4028
tp4029
(lp4030
S'the'
p4031
aS'the'
p4032
aS'me'
p4033
ag249
aS'me'
p4034
as(S'snacks'
p4035
tp4036
(lp4037
S'And'
p4038
as(S'brokest'
p4039
tp4040
(lp4041
S'cold'
p4042
as(S"followin'"
p4043
tp4044
(lp4045
S'love'
p4046
as(S'nappy'
p4047
tp4048
(lp4049
S'headed'
p4050
as(S'faced'
p4051
tp4052
(lp4053
g249
as(S'Peter'
p4054
tp4055
(lp4056
S'Petigrew'
p4057
as(S"They'll"
p4058
tp4059
(lp4060
S'be'
p4061
as(S'Raws'
p4062
tp4063
(lp4064
S'We'
p4065
as(S'view'
p4066
tp4067
(lp4068
g146
as(S'Runnin'
p4069
tp4070
(lp4071
S'through'
p4072
as(S'Fox'
p4073
tp4074
(lp4075
S'News'
p4076
as(S'ha'
p4077
tp4078
(lp4079
S'ha'
p4080
aS'Shut'
p4081
as(S'friends'
p4082
tp4083
(lp4084
S'but'
p4085
aS'all'
p4086
aS'When'
p4087
aS'my'
p4088
aS'my'
p4089
aS'my'
p4090
aS'up'
p4091
aS'my'
p4092
aS'my'
p4093
aS'my'
p4094
aS'up'
p4095
aS'We'
p4096
aS'Labels'
p4097
ag146
aS'done'
p4098
as(S'Henny'
p4099
tp4100
(lp4101
S'my'
p4102
as(S'thinks'
p4103
tp4104
(lp4105
g146
aS"I'm"
p4106
as(S'Might'
p4107
tp4108
(lp4109
S'be'
p4110
as(S'Mayo'
p4111
tp4112
(lp4113
S'How'
p4114
as(S'Bennett'
p4115
tp4116
(lp4117
S'you'
p4118
aS'AK'
p4119
as(S'talking'
p4120
tp4121
(lp4122
S'back'
p4123
as(S'had'
p4124
tp4125
(lp4126
S'no'
p4127
aS'Steve'
p4128
ag249
ag249
aS'our'
p4129
aS'to'
p4130
ag249
aS'8'
p4131
ag249
aS'me'
p4132
as(S'burn'
p4133
tp4134
(lp4135
S'when'
p4136
as(S'rhombus'
p4137
tp4138
(lp4139
S"Who's"
p4140
as(S'my'
p4141
tp4142
(lp4143
S'baby'
p4144
aS'fianc\xc3'
p4145
aS'daughter'
p4146
aS'life'
p4147
aS'own'
p4148
aS'word'
p4149
aS'other'
p4150
aS'lap'
p4151
aS'niggas'
p4152
aS'niggas'
p4153
aS'ones'
p4154
aS'blessing'
p4155
aS'way'
p4156
aS'way'
p4157
aS'homegirls'
p4158
aS'friends'
p4159
aS'friends'
p4160
aS'gang'
p4161
aS'friends'
p4162
aS'friends'
p4163
aS'friends'
p4164
aS'friends'
p4165
aS'gang'
p4166
aS'friends'
p4167
aS'friends'
p4168
aS'friends'
p4169
aS'friends'
p4170
aS'steps'
p4171
aS'money'
p4172
aS'ex'
p4173
aS'everything'
p4174
aS'wrongs'
p4175
aS'women'
p4176
aS'hat'
p4177
aS'bio'
p4178
aS'momma'
p4179
aS'momma'
p4180
aS'city'
p4181
aS'daughter'
p4182
aS'real'
p4183
aS'new'
p4184
aS'next'
p4185
aS'number'
p4186
aS'day'
p4187
aS'BM'
p4188
aS'housewife'
p4189
aS'tippy'
p4190
aS'old'
p4191
aS'waist'
p4192
aS'arms'
p4193
aS'car'
p4194
aS'cousin'
p4195
aS'momma'
p4196
aS'city'
p4197
aS'jokes'
p4198
aS'back'
p4199
aS'time'
p4200
aS'mom'
p4201
aS'cars'
p4202
aS'head'
p4203
aS'body'
p4204
aS'name'
p4205
aS'chance'
p4206
aS'city'
p4207
aS'hat'
p4208
aS'dog'
p4209
aS'girl'
p4210
aS'face'
p4211
aS'friends'
p4212
aS'breath'
p4213
aS'rhymes'
p4214
aS'brother'
p4215
aS'mother'
p4216
aS'Alma'
p4217
aS'exes'
p4218
aS'tongue'
p4219
aS'work'
p4220
aS'lungs'
p4221
aS'stuff'
p4222
aS'weed'
p4223
aS'face'
p4224
aS'paper'
p4225
aS'clothes'
p4226
aS'bros'
p4227
aS'deal'
p4228
aS'back'
p4229
aS'hair'
p4230
aS'mucus'
p4231
aS'voice'
p4232
aS'palette'
p4233
aS'mishaps'
p4234
aS'Kit-Kat'
p4235
aS'car'
p4236
aS'hands'
p4237
aS'Trey'
p4238
aS'apron'
p4239
aS'shoes'
p4240
aS'jacket'
p4241
aS'umbrella'
p4242
aS'feelings'
p4243
aS'sleeveless'
p4244
aS'trees'
p4245
aS'diagonal'
p4246
aS'verses'
p4247
aS'words'
p4248
aS'back'
p4249
aS'hair'
p4250
aS'brother'
p4251
aS'belly'
p4252
aS'lucky'
p4253
aS'eyes'
p4254
aS'grandma'
p4255
aS'haters'
p4256
aS'Vagabond'
p4257
aS'BroBois'
p4258
aS'nigga'
p4259
aS'nigga'
p4260
aS'gums'
p4261
aS'Damn'
p4262
aS'room'
p4263
aS'grip'
p4264
aS'parents'
p4265
aS'drawers'
p4266
aS'name'
p4267
aS'maker'
p4268
aS'own'
p4269
aS'filter'
p4270
aS'life'
p4271
aS'lighter'
p4272
as(S"fuckin'"
p4273
tp4274
(lp4275
S'hurricane'
p4276
aS'rhombus'
p4277
as(S'came'
p4278
tp4279
(lp4280
S'off'
p4281
aS'to'
p4282
as(S"peelin'"
p4283
tp4284
(lp4285
S'banana'
p4286
as(S'based'
p4287
tp4288
(lp4289
S'on'
p4290
as(S'disbelief'
p4291
tp4292
(lp4293
S'they'
p4294
as(S'Chuck'
p4295
tp4296
(lp4297
S'E'
p4298
as(S"Wantin'"
p4299
tp4300
(lp4301
S'to'
p4302
as(S'nicest'
p4303
tp4304
(lp4305
S'hotels'
p4306
as(S'bike-stealing'
p4307
tp4308
(lp4309
S'Chatham'
p4310
as(S'Daddy'
p4311
tp4312
(lp4313
S'said'
p4314
aS"wouldn't"
p4315
as(S'wide'
p4316
tp4317
(lp4318
S'windows'
p4319
as(S"he'll"
p4320
tp4321
(lp4322
S'go'
p4323
as(S'could'
p4324
tp4325
(lp4326
S'merch'
p4327
aS'not'
p4328
aS'tell'
p4329
aS'remember'
p4330
aS'remember'
p4331
aS'get'
p4332
aS'happen'
p4333
aS'build'
p4334
aS'poke'
p4335
aS'rap'
p4336
aS'confuse'
p4337
aS'eat'
p4338
aS'do'
p4339
aS'win'
p4340
aS'mean'
p4341
aS'think'
p4342
as(S'future'
p4343
tp4344
(lp4345
S'hoopers'
p4346
as(S'medicine'
p4347
tp4348
(lp4349
S'in'
p4350
as(S'guns'
p4351
tp4352
(lp4353
S'to'
p4354
as(S'found'
p4355
tp4356
(lp4357
S'out'
p4358
aS'in'
p4359
as(S'BLAM'
p4360
tp4361
(lp4362
S'Chano'
p4363
as(S'buck'
p4364
tp4365
(lp4366
S'bang'
p4367
as(S'smell'
p4368
tp4369
(lp4370
S'the'
p4371
aS'the'
p4372
as(S'hands'
p4373
tp4374
(lp4375
S"Countin'"
p4376
aS'Running'
p4377
aS'With'
p4378
aS'stay'
p4379
aS'joint'
p4380
as(S'search'
p4381
tp4382
(lp4383
S"I'm"
p4384
aS'it'
p4385
as(S'timeshare'
p4386
tp4387
(lp4388
g146
as(S'color'
p4389
tp4390
(lp4391
S'out'
p4392
aS'out'
p4393
as(S'joy'
p4394
tp4395
(lp4396
S'Nightly'
p4397
as(S'bitches'
p4398
tp4399
(lp4400
S'How'
p4401
aS'in'
p4402
aS'put'
p4403
as(S'whistle'
p4404
tp4405
(lp4406
S'me'
p4407
as(S'Swallow'
p4408
tp4409
(lp4410
S'them'
p4411
as(S'Mom'
p4412
tp4413
(lp4414
S'still'
p4415
as(S'seven'
p4416
tp4417
(lp4418
S'days'
p4419
as(S'lived'
p4420
tp4421
(lp4422
S'The'
p4423
aS'to'
p4424
as(S'tallied'
p4425
tp4426
(lp4427
S'up'
p4428
as(S'bomb'
p4429
tp4430
(lp4431
S"I'm"
p4432
as(S'out'
p4433
tp4434
(lp4435
S'my'
p4436
aS'the'
p4437
aS'for'
p4438
aS"Don't"
p4439
aS'oh'
p4440
aS"Don't"
p4441
aS'oh'
p4442
aS'the'
p4443
aS'apples'
p4444
aS'all'
p4445
aS'on'
p4446
aS'all'
p4447
aS'music'
p4448
aS'music'
p4449
aS'for'
p4450
aS'for'
p4451
aS'in'
p4452
aS'to'
p4453
aS'the'
p4454
aS'hoping'
p4455
aS'the'
p4456
aS'working'
p4457
aS'with'
p4458
aS'at'
p4459
aS'at'
p4460
aS'the'
p4461
aS'standpoint'
p4462
as(S'mustard'
p4463
tp4464
(lp4465
S'seed'
p4466
as(S'changed'
p4467
tp4468
(lp4469
g249
aS'up'
p4470
ag249
aS'up'
p4471
as(S'deal'
p4472
tp4473
(lp4474
S'man'
p4475
aS'gotta'
p4476
aS'He'
p4477
as(S'Exalt'
p4478
tp4479
(lp4480
S'Exalt'
p4481
aS'glorify'
p4482
as(S'Oh'
p4483
tp4484
(lp4485
g146
aS'now'
p4486
aS'now'
p4487
aS'now'
p4488
aS'now'
p4489
aS'generation'
p4490
aS'oh'
p4491
as(S'Maxim'
p4492
tp4493
(lp4494
S'models'
p4495
as(S'necklace'
p4496
tp4497
(lp4498
S'Spineless'
p4499
as(S'pass'
p4500
tp4501
(lp4502
S'her'
p4503
aS'out'
p4504
aS'out'
p4505
as(S'events'
p4506
tp4507
(lp4508
S'High'
p4509
aS'Damn'
p4510
as(S'Use'
p4511
tp4512
(lp4513
g249
as(S'realize'
p4514
tp4515
(lp4516
S'everybody'
p4517
as(S'spleen'
p4518
tp4519
(lp4520
S'Balancing'
p4521
as(S'before'
p4522
tp4523
(lp4524
g146
ag146
aS'the'
p4525
as(S'Building'
p4526
tp4527
(lp4528
S'forts'
p4529
as(S'motherfucking'
p4530
tp4531
(lp4532
S'bitches'
p4533
aS'fucker'
p4534
as(S'eat'
p4535
tp4536
(lp4537
S'it'
p4538
aS'Young'
p4539
aS'it'
p4540
ag249
as(S'lick'
p4541
tp4542
(lp4543
S'Flame'
p4544
as(S'Namath'
p4545
tp4546
(lp4547
S"Kanye's"
p4548
as(S'shoes'
p4549
tp4550
(lp4551
S'and'
p4552
aS'tripped'
p4553
aS'with'
p4554
as(S'coyote'
p4555
tp4556
(lp4557
S'If'
p4558
as(S'Rod'
p4559
tp4560
(lp4561
S'passed'
p4562
as(S'employee'
p4563
tp4564
(lp4565
S'of'
p4566
as(S'Margiela'
p4567
tp4568
(lp4569
S'brand'
p4570
as(S'Saudi'
p4571
tp4572
(lp4573
S'Wiley'
p4574
as(S'Introduced'
p4575
tp4576
(lp4577
S'me'
p4578
as(S'big'
p4579
tp4580
(lp4581
S'shawtys'
p4582
aS'wide'
p4583
aS'brother'
p4584
aS'homie'
p4585
as(S"Shoppin'"
p4586
tp4587
(lp4588
S'like'
p4589
as(S'late'
p4590
tp4591
(lp4592
S'he'
p4593
ag146
ag808
ag146
ag808
aS'all'
p4594
as(S'fans'
p4595
tp4596
(lp4597
g146
ag146
as(S'weed'
p4598
tp4599
(lp4600
S'in'
p4601
aS'in'
p4602
aS'sometimes'
p4603
aS"I'm"
p4604
aS'in'
p4605
aS'seedless'
p4606
as(S'crucifix'
p4607
tp4608
(lp4609
g146
as(S'buzzer'
p4610
tp4611
(lp4612
S'beater'
p4613
as(S'pure'
p4614
tp4615
(lp4616
S'joy'
p4617
as(S"Can't"
p4618
tp4619
(lp4620
S'stop'
p4621
aS'no'
p4622
as(S"let's"
p4623
tp4624
(lp4625
S'eat'
p4626
as(S'lord'
p4627
tp4628
(lp4629
g146
aS'God'
p4630
as(S'though'
p4631
tp4632
(lp4633
S'bitch'
p4634
aS'Yeah'
p4635
aS'But'
p4636
aS'Damn'
p4637
aS'Oh'
p4638
aS'All'
p4639
ag146
as(S'dang'
p4640
tp4641
(lp4642
S'pick'
p4643
as(S'ringtone'
p4644
tp4645
(lp4646
S'She'
p4647
as(S'Green'
p4648
tp4649
(lp4650
S'Bay'
p4651
as(S'blow'
p4652
tp4653
(lp4654
S'the'
p4655
as(S'Held'
p4656
tp4657
(lp4658
S'back'
p4659
as(S'shake'
p4660
tp4661
(lp4662
S'my'
p4663
aS'up'
p4664
as(S'LSD'
p4665
tp4666
(lp4667
S'Asked'
p4668
as(S'war'
p4669
tp4670
(lp4671
S'with'
p4672
as(S'stock'
p4673
tp4674
(lp4675
S'broker'
p4676
as(S'Down'
p4677
tp4678
(lp4679
S'Chris'
p4680
aS'here'
p4681
as(S'Chatham'
p4682
tp4683
(lp4684
S'boys'
p4685
aS'Manor'
p4686
as(S'sneaking'
p4687
tp4688
(lp4689
S'in'
p4690
as(S'Making'
p4691
tp4692
(lp4693
S'all'
p4694
as(S'treat'
p4695
tp4696
(lp4697
S'the'
p4698
aS'my'
p4699
aS'my'
p4700
as(S'seedless'
p4701
tp4702
(lp4703
S'my'
p4704
as(S"'Cause"
p4705
tp4706
(lp4707
S'we'
p4708
as(S'singing'
p4709
tp4710
(lp4711
S'Gimme'
p4712
as(S'Youmedia'
p4713
tp4714
(lp4715
S'And'
p4716
as(S"wasn't"
p4717
tp4718
(lp4719
S'you'
p4720
as(S'persons'
p4721
tp4722
(lp4723
S'leave'
p4724
as(S'sentence'
p4725
tp4726
(lp4727
S'more'
p4728
as(S'mistletoe'
p4729
tp4730
(lp4731
S"What's"
p4732
as(S'cannot'
p4733
tp4734
(lp4735
S'modify'
p4736
aS'scrap'
p4737
as(S'meet'
p4738
tp4739
(lp4740
S'anyone'
p4741
aS'with'
p4742
aS'my'
p4743
as(S'champ'
p4744
tp4745
(lp4746
S'must'
p4747
as(S'greedier'
p4748
tp4749
(lp4750
S'And'
p4751
as(S'Wish'
p4752
tp4753
(lp4754
g146
aS'we'
p4755
as(S'Helping'
p4756
tp4757
(lp4758
S'him'
p4759
as(S'equals'
p4760
tp4761
(lp4762
S'threesome'
p4763
as(S'verse'
p4764
tp4765
(lp4766
S'of'
p4767
as(S'Sometime'
p4768
tp4769
(lp4770
S'the'
p4771
as(S'Ice'
p4772
tp4773
(lp4774
S'cream'
p4775
as(S'minty'
p4776
tp4777
(lp4778
S'Ooh'
p4779
as(S'Man'
p4780
tp4781
(lp4782
S'my'
p4783
ag146
as(S'your'
p4784
tp4785
(lp4786
S'way'
p4787
aS'head'
p4788
aS'family'
p4789
aS'marbles'
p4790
aS'hair'
p4791
aS'words'
p4792
aS'words'
p4793
aS'boss'
p4794
aS'hips'
p4795
aS'legs'
p4796
aS'phone'
p4797
aS'shorties'
p4798
aS'neck'
p4799
aS'teammates'
p4800
aS'favorite'
p4801
aS'bitch'
p4802
aS'pussy'
p4803
aS"bitch's"
p4804
aS'jersey'
p4805
aS'cubicle'
p4806
aS'team'
p4807
aS'mouth'
p4808
aS'mama'
p4809
aS'sinus'
p4810
aS'fam'
p4811
aS'fam'
p4812
aS'zan'
p4813
aS'darling'
p4814
aS'bank'
p4815
aS'supplier'
p4816
as(S"Leno's"
p4817
tp4818
(lp4819
S'hair'
p4820
as(S'breathing'
p4821
tp4822
(lp4823
S'in'
p4824
as(S'saving'
p4825
tp4826
(lp4827
S'no'
p4828
as(S'weekends'
p4829
tp4830
(lp4831
S'rehearsing'
p4832
as(S'Kosher'
p4833
tp4834
(lp4835
S'momma'
p4836
as(S'Chancelor'
p4837
tp4838
(lp4839
S'The'
p4840
as(S'taught'
p4841
tp4842
(lp4843
S'me'
p4844
as(S'orange'
p4845
tp4846
(lp4847
S'cassette'
p4848
as(S'Blues'
p4849
tp4850
(lp4851
S'We'
p4852
as(S'opposition'
p4853
tp4854
(lp4855
S'specifically'
p4856
as(S'petrified'
p4857
tp4858
(lp4859
S'Any'
p4860
as(S'prayer'
p4861
tp4862
(lp4863
S'whistle'
p4864
aS"I'm"
p4865
as(S'public'
p4866
tp4867
(lp4868
g146
aS'He'
p4869
as(S'juiced'
p4870
tp4871
(lp4872
S'me'
p4873
as(S'filter'
p4874
tp4875
(lp4876
S'when'
p4877
as(S'oh'
p4878
tp4879
(lp4880
S'Stay'
p4881
aS'Stay'
p4882
aS'now'
p4883
aS'now'
p4884
aS'you'
p4885
aS'no'
p4886
aS'you'
p4887
aS'oh'
p4888
aS'oh'
p4889
aS'ohh'
p4890
aS'lord'
p4891
aS'oh'
p4892
ag146
as(S'bogus'
p4893
tp4894
(lp4895
S'Yeah'
p4896
as(S'Traphouse'
p4897
tp4898
(lp4899
S'3'
p4900
as(S'Minus'
p4901
tp4902
(lp4903
S'all'
p4904
as(S'nigga'
p4905
tp4906
(lp4907
S'fall'
p4908
aS'never'
p4909
aS'never'
p4910
aS'famous'
p4911
ag146
aS'bang'
p4912
aS'no'
p4913
aS'with'
p4914
aS'Chano'
p4915
aS'had'
p4916
aS'Sosa'
p4917
aS'Fat'
p4918
aS'Joseph'
p4919
aS'punk'
p4920
aS'Hunnid'
p4921
aS'Stop'
p4922
aS'Everybody'
p4923
aS'Hows'
p4924
aS'said'
p4925
aS"Everything's"
p4926
as(S'Booyaka'
p4927
tp4928
(lp4929
S'buckle'
p4930
as(S'birthdays'
p4931
tp4932
(lp4933
S'even'
p4934
as(S'taxes'
p4935
tp4936
(lp4937
S'in'
p4938
as(S'shawty'
p4939
tp4940
(lp4941
S'and'
p4942
as(S'suspended'
p4943
tp4944
(lp4945
S'Mr'
p4946
aS'last'
p4947
aS'subpoena'
p4948
aS'more'
p4949
as(S'hog'
p4950
tp4951
(lp4952
S'tied'
p4953
as(S'none'
p4954
tp4955
(lp4956
S'of'
p4957
aS'of'
p4958
as(S'mucus'
p4959
tp4960
(lp4961
S'Hope'
p4962
as(S'feeding'
p4963
tp4964
(lp4965
S'your'
p4966
as(S"I've"
p4967
tp4968
(lp4969
S'been'
p4970
aS'been'
p4971
aS'got'
p4972
as(S'Back-to-back'
p4973
tp4974
(lp4975
S"packin'"
p4976
as(S'line'
p4977
tp4978
(lp4979
S'stay'
p4980
aS'Dandelion'
p4981
aS'stay'
p4982
aS'Dandelion'
p4983
as(S'closed'
p4984
tp4985
(lp4986
S'Wendy'
p4987
aS'seeing'
p4988
as(S'raunchy'
p4989
tp4990
(lp4991
S'rapper'
p4992
as(S'modesty'
p4993
tp4994
(lp4995
g146
as(S'used'
p4996
tp4997
(lp4998
S'to'
p4999
aS'to'
p5000
aS'to'
p5001
aS'to'
p5002
aS'to'
p5003
aS'to'
p5004
aS'to'
p5005
aS'to'
p5006
aS'to'
p5007
aS'to'
p5008
aS'to'
p5009
aS'to'
p5010
aS'to'
p5011
aS'to'
p5012
aS'to'
p5013
aS'to'
p5014
aS'to'
p5015
aS'to'
p5016
as(S'minute'
p5017
tp5018
(lp5019
S'since'
p5020
aS'songs'
p5021
aS'aight'
p5022
as(S'of'
p5023
tp5024
(lp5025
S'the'
p5026
aS'all'
p5027
aS'the'
p5028
aS'tank'
p5029
aS'my'
p5030
aS'my'
p5031
aS'my'
p5032
aS'the'
p5033
aS'breath'
p5034
aS'breath'
p5035
aS'what'
p5036
aS'what'
p5037
aS'your'
p5038
aS'your'
p5039
aS'these'
p5040
aS'the'
p5041
aS'freedom'
p5042
aS'worship'
p5043
ag249
aS'time'
p5044
aS'dawn'
p5045
aS'my'
p5046
aS'promised'
p5047
aS'daffodils'
p5048
aS'freedom'
p5049
aS'wondrous'
p5050
aS'me'
p5051
aS'some'
p5052
aS'drugs'
p5053
aS'the'
p5054
aS'sand'
p5055
aS'Advils'
p5056
aS'that'
p5057
aS'the'
p5058
aS'rap'
p5059
aS'all'
p5060
aS'Jack'
p5061
aS'weed'
p5062
aS'illusion'
p5063
aS'art'
p5064
aS'late'
p5065
aS'this'
p5066
aS'views'
p5067
aS'Vic'
p5068
aS'me'
p5069
aS'your'
p5070
aS'sour'
p5071
aS'the'
p5072
aS'the'
p5073
aS'the'
p5074
aS'them'
p5075
aS'they'
p5076
aS"'em"
p5077
aS'cigarillos'
p5078
aS'songs'
p5079
aS'songs'
p5080
aS'niggas'
p5081
aS'ideas'
p5082
aS'the'
p5083
as(S'Jackson'
p5084
tp5085
(lp5086
S'No'
p5087
aS'was'
p5088
as(S'work'
p5089
tp5090
(lp5091
S"can't"
p5092
aS"It's"
p5093
aS'Your'
p5094
aS'work'
p5095
aS'work'
p5096
aS'bang'
p5097
aS'out'
p5098
aS"I'd"
p5099
aS'of'
p5100
as(S'dog'
p5101
tp5102
(lp5103
S'died'
p5104
as(S'herpes'
p5105
tp5106
(lp5107
S'and'
p5108
as(S'poof'
p5109
tp5110
(lp5111
S'please'
p5112
as(S'rocks'
p5113
tp5114
(lp5115
S'the'
p5116
as(S'mom'
p5117
tp5118
(lp5119
S'was'
p5120
as(S'cop'
p5121
tp5122
(lp5123
S'position'
p5124
as(S'Reader'
p5125
tp5126
(lp5127
S'or'
p5128
as(S'God'
p5129
tp5130
(lp5131
S'When'
p5132
aS'split'
p5133
aS'the'
p5134
aS'Ducked'
p5135
aS'in'
p5136
aS'in'
p5137
aS"I'm"
p5138
aS'to'
p5139
aS'to'
p5140
aS'give'
p5141
aS'know'
p5142
as(S'Cremate'
p5143
tp5144
(lp5145
S'your'
p5146
as(S'Apple'
p5147
tp5148
(lp5149
S'with'
p5150
as(S'even'
p5151
tp5152
(lp5153
S'need'
p5154
aS'had'
p5155
aS'valet'
p5156
aS'matter'
p5157
aS'warn'
p5158
aS'fucking'
p5159
aS'call'
p5160
aS'really'
p5161
aS'speak'
p5162
aS'persons'
p5163
aS'if'
p5164
aS'Tuesdays'
p5165
as(S'start'
p5166
tp5167
(lp5168
S'to'
p5169
as(S'rodeo'
p5170
tp5171
(lp5172
S'Got'
p5173
as(S'carry'
p5174
tp5175
(lp5176
S'her'
p5177
ag249
as(S'clean'
p5178
tp5179
(lp5180
g146
aS'ya'
p5181
as(S'heart'
p5182
tp5183
(lp5184
S'like'
p5185
as(S'debit'
p5186
tp5187
(lp5188
S'cards'
p5189
as(S'popped'
p5190
tp5191
(lp5192
g249
aS'bitch'
p5193
as(S'hoping'
p5194
tp5195
(lp5196
g146
ag146
ag146
as(S'Grand'
p5197
tp5198
(lp5199
S'Crossing'
p5200
as(S'fired'
p5201
tp5202
(lp5203
S'Pad'
p5204
as(S'bro'
p5205
tp5206
(lp5207
S"it's"
p5208
aS'Or'
p5209
as(S'leafless'
p5210
tp5211
(lp5212
g146
as(S'fries'
p5213
tp5214
(lp5215
S'in'
p5216
as(S'fortify'
p5217
tp5218
(lp5219
S'the'
p5220
as(S'valet'
p5221
tp5222
(lp5223
S'Long'
p5224
as(S'hundreds'
p5225
tp5226
(lp5227
S'zan'
p5228
as(S"doesn't"
p5229
tp5230
(lp5231
S'My'
p5232
as(S'casa'
p5233
tp5234
(lp5235
S'yes'
p5236
as(S'Nightly'
p5237
tp5238
(lp5239
S'searches'
p5240
as(S'CPD'
p5241
tp5242
(lp5243
S'getting'
p5244
as(S'nation'
p5245
tp5246
(lp5247
S'correlating'
p5248
as(S'shortness'
p5249
tp5250
(lp5251
S'of'
p5252
aS'of'
p5253
as(S'aged'
p5254
tp5255
(lp5256
g146
as(S'classy'
p5257
tp5258
(lp5259
S'Ha'
p5260
as(S'Minto'
p5261
tp5262
(lp5263
S'The'
p5264
as(S'its'
p5265
tp5266
(lp5267
S'clean'
p5268
aS'just'
p5269
aS'lined'
p5270
as(S'thoughts'
p5271
tp5272
(lp5273
S'All'
p5274
aS'The'
p5275
as(S'caught'
p5276
tp5277
(lp5278
S'up'
p5279
as(S'High'
p5280
tp5281
(lp5282
S'schools'
p5283
as(S'ten'
p5284
tp5285
(lp5286
S'years'
p5287
aS'of'
p5288
as(S'bowl'
p5289
tp5290
(lp5291
S'We'
p5292
aS'She'
p5293
aS'She'
p5294
ag146
aS'We'
p5295
aS'She'
p5296
as(S'bitch-slapped'
p5297
tp5298
(lp5299
S'like'
p5300
as(S'got'
p5301
tp5302
(lp5303
S'no'
p5304
aS'lost'
p5305
aS'old'
p5306
ag249
aS'so'
p5307
aS'real'
p5308
aS'my'
p5309
aS'caught'
p5310
aS'the'
p5311
aS'the'
p5312
aS'shit'
p5313
aS'gas'
p5314
aS'no'
p5315
aS'time'
p5316
aS'no'
p5317
aS'to'
p5318
aS'to'
p5319
aS'designer'
p5320
aS'me'
p5321
aS'addicted'
p5322
aS'to'
p5323
aS'to'
p5324
aS'the'
p5325
ag249
aS'some'
p5326
aS'some'
p5327
aS'suspended'
p5328
aS'to'
p5329
aS'blisters'
p5330
aS'some'
p5331
aS'some'
p5332
aS'back'
p5333
ag249
ag249
ag249
ag249
aS'the'
p5334
aS'through'
p5335
as(S'cracking'
p5336
tp5337
(lp5338
g249
as(S'whole'
p5339
tp5340
(lp5341
S'song'
p5342
aS'Little'
p5343
as(S'year'
p5344
tp5345
(lp5346
S'got'
p5347
as(S'roll'
p5348
tp5349
(lp5350
S'at'
p5351
aS'at'
p5352
aS'at'
p5353
aS"I'm"
p5354
ag146
as(S'armchair'
p5355
tp5356
(lp5357
S'Dad'
p5358
as(S'gave'
p5359
tp5360
(lp5361
S'me'
p5362
aS'Donnie'
p5363
aS'her'
p5364
as(S'fit'
p5365
tp5366
(lp5367
S'We'
p5368
aS'that'
p5369
as(S'Well'
p5370
tp5371
(lp5372
g146
as(S'older'
p5373
tp5374
(lp5375
S'than'
p5376
as(S'discussions'
p5377
tp5378
(lp5379
S'oh'
p5380
as(S'oowops'
p5381
tp5382
(lp5383
S'We'
p5384
as(S'place'
p5385
tp5386
(lp5387
S'79'
p5388
aS'Some'
p5389
aS'But'
p5390
as(S'horn'
p5391
tp5392
(lp5393
S'Hit'
p5394
as(S'trumpet'
p5395
tp5396
(lp5397
S'in'
p5398
as(S'None'
p5399
tp5400
(lp5401
S'of'
p5402
aS'of'
p5403
as(S"yo'"
p5404
tp5405
(lp5406
S'ass'
p5407
as(S'cane'
p5408
tp5409
(lp5410
S'The'
p5411
as(S'literally'
p5412
tp5413
(lp5414
S'jack'
p5415
as(S'people'
p5416
tp5417
(lp5418
S"can't"
p5419
aS'And'
p5420
as(S'point'
p5421
tp5422
(lp5423
S'ballet'
p5424
as(S'actually'
p5425
tp5426
(lp5427
S'hit'
p5428
aS"fallin'"
p5429
as(S'falling'
p5430
tp5431
(lp5432
S'in'
p5433
as(S'knees'
p5434
tp5435
(lp5436
S"she's"
p5437
as(S"wanderin'"
p5438
tp5439
(lp5440
S"followin'"
p5441
as(S'Oooh'
p5442
tp5443
(lp5444
g146
as(S'Used'
p5445
tp5446
(lp5447
S'to'
p5448
as(S'winter'
p5449
tp5450
(lp5451
S'solstice'
p5452
as(S'Work'
p5453
tp5454
(lp5455
S'work'
p5456
as(S'gangstas'
p5457
tp5458
(lp5459
S'And'
p5460
as(S'call'
p5461
tp5462
(lp5463
S'themselves'
p5464
aS'the'
p5465
aS'it'
p5466
ag249
aS'it'
p5467
aS'her'
p5468
aS'on'
p5469
aS'them'
p5470
as(S'doors'
p5471
tp5472
(lp5473
S"Ain't"
p5474
as(S'somewhere'
p5475
tp5476
(lp5477
S'to'
p5478
as(S'DJ'
p5479
tp5480
(lp5481
S'still'
p5482
as(S'scrap'
p5483
tp5484
(lp5485
S'the'
p5486
as(S'cry'
p5487
tp5488
(lp5489
S'at'
p5490
as(S'we'
p5491
tp5492
(lp5493
S"meetin'"
p5494
aS"don't"
p5495
aS"don't"
p5496
aS'say'
p5497
aS'read'
p5498
aS'said'
p5499
aS'used'
p5500
aS'hit'
p5501
aS'cousins'
p5502
aS'have'
p5503
aS'used'
p5504
aS'were'
p5505
aS'be'
p5506
aS'could'
p5507
aS'in'
p5508
aS'mutual'
p5509
aS'toe-tagging'
p5510
aS'had'
p5511
aS"chillin'"
p5512
as(S'dusk'
p5513
tp5514
(lp5515
S'till'
p5516
as(S'overseas'
p5517
tp5518
(lp5519
g146
as(S'pencils'
p5520
tp5521
(lp5522
S'Mr'
p5523
as(S'sit'
p5524
tp5525
(lp5526
S'and'
p5527
as(S'merch'
p5528
tp5529
(lp5530
S'it'
p5531
aS'Grandma'
p5532
aS'and'
p5533
as(S'harmless'
p5534
tp5535
(lp5536
S'as'
p5537
as(S'nickels'
p5538
tp5539
(lp5540
S'dimes'
p5541
as(S'rage'
p5542
tp5543
(lp5544
S'Still'
p5545
as(S'Harolds'
p5546
tp5547
(lp5548
S'and'
p5549
as(S'salsa'
p5550
tp5551
(lp5552
S'like'
p5553
as(S'Noches'
p5554
tp5555
(lp5556
S'Wonder'
p5557
as(S"we're"
p5558
tp5559
(lp5560
S'gonna'
p5561
as(S'week'
p5562
tp5563
(lp5564
S'niggas'
p5565
aS'suspended'
p5566
as(S'anti-violence'
p5567
tp5568
(lp5569
S'shit'
p5570
as(S'class'
p5571
tp5572
(lp5573
g146
aS'the'
p5574
as(S'miss'
p5575
tp5576
(lp5577
S'the'
p5578
aS'the'
p5579
aS'the'
p5580
aS'my'
p5581
aS'being'
p5582
as(S'acrobat'
p5583
tp5584
(lp5585
S'Back-to-back'
p5586
as(S'this'
p5587
tp5588
(lp5589
S'the'
p5590
aS'many'
p5591
aS'since'
p5592
aS'from'
p5593
aS'money'
p5594
aS'budget'
p5595
aS'song'
p5596
aS'was'
p5597
aS'medicine'
p5598
aS'money'
p5599
aS'cause'
p5600
aS'in'
p5601
aS'trip'
p5602
aS'through'
p5603
aS'one'
p5604
as(S'own'
p5605
tp5606
(lp5607
S'service'
p5608
aS'You'
p5609
aS'my'
p5610
aS'Foolies'
p5611
aS'old'
p5612
as(S'chill'
p5613
tp5614
(lp5615
S'oh'
p5616
as(S'lungs'
p5617
tp5618
(lp5619
S'See'
p5620
aS'Call'
p5621
as(S"sittin'"
p5622
tp5623
(lp5624
S'in'
p5625
as(S'galore'
p5626
tp5627
(lp5628
g146
as(S'weeks'
p5629
tp5630
(lp5631
S"she'll"
p5632
as(S'Ruthless'
p5633
tp5634
(lp5635
S'trip'
p5636
as(S't'
p5637
tp5638
(lp5639
S'be'
p5640
aS'tryna'
p5641
as(S'Bunch'
p5642
tp5643
(lp5644
S'of'
p5645
as(S'Lies'
p5646
tp5647
(lp5648
S'Levis'
p5649
as(S'Up'
p5650
tp5651
(lp5652
S'shout'
p5653
as(S'earth'
p5654
tp5655
(lp5656
S'with'
p5657
as(S'signing'
p5658
tp5659
(lp5660
g146
as(S'good'
p5661
tp5662
(lp5663
S'friends'
p5664
aS"I'm"
p5665
aS'ass'
p5666
aS'ass'
p5667
aS'Work'
p5668
aS'swear'
p5669
aS'IGH'
p5670
aS'watch'
p5671
aS'watch'
p5672
aS'in'
p5673
aS'enough'
p5674
aS'enough'
p5675
aS'good'
p5676
aS'And'
p5677
aS'evil'
p5678
aS'gangstas'
p5679
aS'people'
p5680
aS"Rubbin'"
p5681
aS'My'
p5682
ag146
aS'at'
p5683
aS'guy'
p5684
aS'like'
p5685
ag146
aS'at'
p5686
aS'to'
p5687
aS'for'
p5688
aS'intro'
p5689
aS'Somebody'
p5690
as(S'remember'
p5691
tp5692
(lp5693
g146
ag146
aS'how'
p5694
aS'me'
p5695
as(S'House'
p5696
tp5697
(lp5698
S'safari'
p5699
as(S'daffodils'
p5700
tp5701
(lp5702
S'and'
p5703
as(S'least'
p5704
tp5705
(lp5706
S'You'
p5707
as(S'esteem'
p5708
tp5709
(lp5710
S"I'm"
p5711
as(S'rumbles'
p5712
tp5713
(lp5714
S'igh'
p5715
as(S"scoopin'"
p5716
tp5717
(lp5718
S'all'
p5719
as(S'sense'
p5720
tp5721
(lp5722
S'but'
p5723
as(S'Throw'
p5724
tp5725
(lp5726
S'bands'
p5727
as(S'hard'
p5728
tp5729
(lp5730
S'Okay'
p5731
aS'head'
p5732
as(S'working'
p5733
tp5734
(lp5735
S'late'
p5736
aS'evenings'
p5737
as(S'cold'
p5738
tp5739
(lp5740
S'Like'
p5741
aS'stock'
p5742
as(S"you're"
p5743
tp5744
(lp5745
S'empty'
p5746
as(S'Rink'
p5747
tp5748
(lp5749
S'we'
p5750
ag146
aS'was'
p5751
aS'We'
p5752
aS'You'
p5753
aS'You'
p5754
as(S'fix'
p5755
tp5756
(lp5757
S'you'
p5758
as(S'Nintendo'
p5759
tp5760
(lp5761
S'Nanana'
p5762
as(S'talked'
p5763
tp5764
(lp5765
S'to'
p5766
as(S'things'
p5767
tp5768
(lp5769
S'as'
p5770
as(S'trees'
p5771
tp5772
(lp5773
S'leafless'
p5774
as(S'straight'
p5775
tp5776
(lp5777
S'out'
p5778
as(S'honey'
p5779
tp5780
(lp5781
S"don't"
p5782
as(S'Vega'
p5783
tp5784
(lp5785
S'And'
p5786
as(S'Derek'
p5787
tp5788
(lp5789
S'and'
p5790
as(S'next'
p5791
tp5792
(lp5793
S'one'
p5794
as(S"you've"
p5795
tp5796
(lp5797
S'aged'
p5798
as(S'pumpkin-seed-sized'
p5799
tp5800
(lp5801
S'mustard'
p5802
as(S'order'
p5803
tp5804
(lp5805
S'And'
p5806
as(S'please'
p5807
tp5808
(lp5809
S'say'
p5810
aS'say'
p5811
as(S'clothes'
p5812
tp5813
(lp5814
S'She'
p5815
aS'Still'
p5816
as(S'Pardon'
p5817
tp5818
(lp5819
S'my'
p5820
as(S'standpoint'
p5821
tp5822
(lp5823
S'Throw'
p5824
as(S'gallon'
p5825
tp5826
(lp5827
S'lean'
p5828
as(S'cassette'
p5829
tp5830
(lp5831
S'tapes'
p5832
as(S'night'
p5833
tp5834
(lp5835
S'hey'
p5836
aS'no'
p5837
aS'kissed'
p5838
aS'In'
p5839
as(S'Matt'
p5840
tp5841
(lp5842
S'Lauer'
p5843
as(S"gon'"
p5844
tp5845
(lp5846
S'make'
p5847
aS'make'
p5848
aS'juke'
p5849
aS'juke'
p5850
aS'say'
p5851
aS'be'
p5852
aS'make'
p5853
aS'make'
p5854
aS'make'
p5855
as(S'bank'
p5856
tp5857
(lp5858
S'account'
p5859
as(S'involved'
p5860
tp5861
(lp5862
S'with'
p5863
as(S'specifically'
p5864
tp5865
(lp5866
g249
as(S'around'
p5867
tp5868
(lp5869
S'and'
p5870
as(S'Trey'
p5871
tp5872
(lp5873
S'on'
p5874
as(S'vid'
p5875
tp5876
(lp5877
S'with'
p5878
as(S'To'
p5879
tp5880
(lp5881
S'see'
p5882
as(S'Niggas'
p5883
tp5884
(lp5885
S'be'
p5886
as(S'worst'
p5887
tp5888
(lp5889
S"it's"
p5890
as(S"pullin'"
p5891
tp5892
(lp5893
S'my'
p5894
as(S'shirts'
p5895
tp5896
(lp5897
S'of'
p5898
as(S"meetin'"
p5899
tp5900
(lp5901
S'make'
p5902
as(S'This'
p5903
tp5904
(lp5905
S"ain't"
p5906
aS'is'
p5907
aS'for'
p5908
aS'is'
p5909
aS'is'
p5910
aS'is'
p5911
aS'is'
p5912
aS'is'
p5913
aS'what'
p5914
aS'for'
p5915
aS'your'
p5916
as(S'Kembe'
p5917
tp5918
(lp5919
S'Been'
p5920
as(S'He'
p5921
tp5922
(lp5923
S'has'
p5924
aS'lived'
p5925
aS"ain't"
p5926
aS'keep'
p5927
aS'think'
p5928
aS'looked'
p5929
aS'slipped'
p5930
aS'still'
p5931
as(S'pregnant'
p5932
tp5933
(lp5934
S'And'
p5935
as(S'feelings'
p5936
tp5937
(lp5938
S'on'
p5939
as(S'ship'
p5940
tp5941
(lp5942
g146
aS'it'
p5943
as(S"wouldn't"
p5944
tp5945
(lp5946
S'fuck'
p5947
aS'let'
p5948
as(S'grow'
p5949
tp5950
(lp5951
S'up'
p5952
as(S"Michael's"
p5953
tp5954
(lp5955
S'on'
p5956
as(S'lowkey'
p5957
tp5958
(lp5959
S'like'
p5960
aS'still'
p5961
as(S'classmates'
p5962
tp5963
(lp5964
S'that'
p5965
as(S'cool'
p5966
tp5967
(lp5968
S'though'
p5969
aS'just'
p5970
aS'Right'
p5971
as(S'industry'
p5972
tp5973
(lp5974
S'in'
p5975
as(S'introspective'
p5976
tp5977
(lp5978
S'drugged'
p5979
as(S'mi'
p5980
tp5981
(lp5982
S'casa'
p5983
as(S'master'
p5984
tp5985
(lp5986
S'stampedes'
p5987
aS'Jack'
p5988
as(S"ballin'"
p5989
tp5990
(lp5991
S'it'
p5992
as(S'jolly'
p5993
tp5994
(lp5995
S'rancher'
p5996
aS'raunchy'
p5997
as(S'choosing'
p5998
tp5999
(lp6000
S'classmates'
p6001
as(S'blunt'
p6002
tp6003
(lp6004
S'under'
p6005
as(S'swear'
p6006
tp6007
(lp6008
S'my'
p6009
ag146
as(S'Probably'
p6010
tp6011
(lp6012
S'scared'
p6013
aS'cause'
p6014
as(S'Jordan'
p6015
tp6016
(lp6017
S'and'
p6018
as(S'booties'
p6019
tp6020
(lp6021
S'can'
p6022
as(S'AK'
p6023
tp6024
(lp6025
S'Tony'
p6026
aS'hundred'
p6027
as(S'crazy'
p6028
tp6029
(lp6030
S'Them'
p6031
as(S'always'
p6032
tp6033
(lp6034
S'treat'
p6035
aS'bring'
p6036
aS'treat'
p6037
aS'bring'
p6038
aS'were'
p6039
aS'perfect'
p6040
aS'out'
p6041
aS'throwing'
p6042
aS'throwing'
p6043
aS'in'
p6044
aS'He'
p6045
aS'been'
p6046
aS'taste'
p6047
as(S'barely'
p6048
tp6049
(lp6050
S'could'
p6051
as(S'edify'
p6052
tp6053
(lp6054
S'Electrify'
p6055
as(S'when'
p6056
tp6057
(lp6058
g146
ag146
aS'everything'
p6059
aS'she'
p6060
aS'God'
p6061
aS'they'
p6062
aS'he'
p6063
aS'she'
p6064
ag146
ag146
aS'they'
p6065
aS'the'
p6066
ag146
aS'my'
p6067
aS'that'
p6068
ag146
ag146
aS'Mike'
p6069
aS'it'
p6070
aS'you'
p6071
aS'you'
p6072
ag146
ag146
aS'she'
p6073
as(S'up'
p6074
tp6075
(lp6076
S'and'
p6077
ag146
aS'When'
p6078
ag146
ag146
ag146
ag146
aS'right'
p6079
aS'the'
p6080
aS'with'
p6081
aS'Then'
p6082
aS'outside'
p6083
aS'Start'
p6084
aS'back'
p6085
ag146
aS'Start'
p6086
aS'slaves'
p6087
aS'at'
p6088
aS'It'
p6089
aS'leaving'
p6090
aS'there'
p6091
aS'the'
p6092
ag146
aS'Acid'
p6093
aS'off'
p6094
aS'off'
p6095
aS'inside'
p6096
aS'the'
p6097
aS'BO'
p6098
aS'Till'
p6099
aS'in'
p6100
aS'ten'
p6101
aS'mothafuck'
p6102
aS"'em"
p6103
aS'in'
p6104
aS"What's"
p6105
aS'your'
p6106
aS'It'
p6107
aS'Cause'
p6108
aS'Make'
p6109
as(S'seed'
p6110
tp6111
(lp6112
S'Hear'
p6113
as(S"Introducin'"
p6114
tp6115
(lp6116
S'Chance'
p6117
as(S"playin'"
p6118
tp6119
(lp6120
S'but'
p6121
aS'too'
p6122
as(S'eyes'
p6123
tp6124
(lp6125
S'closed'
p6126
aS'so'
p6127
as(S'paid'
p6128
tp6129
(lp6130
S'10'
p6131
as(S'world'
p6132
tp6133
(lp6134
S'tattoo'
p6135
aS'fuckin'
p6136
as(S'city'
p6137
tp6138
(lp6139
S'doing'
p6140
aS'they'
p6141
aS'bitch'
p6142
as(S'shottas'
p6143
tp6144
(lp6145
S'yes'
p6146
as(S'Texas'
p6147
tp6148
(lp6149
S"that's"
p6150
as(S'kid'
p6151
tp6152
(lp6153
S'ass'
p6154
as(S'beauty'
p6155
tp6156
(lp6157
S'supply'
p6158
as(S'momma'
p6159
tp6160
(lp6161
S'third'
p6162
aS'got'
p6163
aS'say'
p6164
aS'made'
p6165
as(S'chin'
p6166
tp6167
(lp6168
S'sippin'
p6169
as(S'crime'
p6170
tp6171
(lp6172
S'Good'
p6173
as(S'searches'
p6174
tp6175
(lp6176
S'for'
p6177
as(S'59th'
p6178
tp6179
(lp6180
S'floor'
p6181
as(S'am'
p6182
tp6183
(lp6184
S'his'
p6185
as(S'Crossing'
p6186
tp6187
(lp6188
S'First'
p6189
as(S'rest'
p6190
tp6191
(lp6192
S'in'
p6193
aS'of'
p6194
as(S'digging'
p6195
tp6196
(lp6197
S'deeper'
p6198
as(S"'shrooms"
p6199
tp6200
(lp6201
S'and'
p6202
as(S'Netflix'
p6203
tp6204
(lp6205
S'and'
p6206
as(S'faking'
p6207
tp6208
(lp6209
S'like'
p6210
as(S'Descend'
p6211
tp6212
(lp6213
S'upon'
p6214
as(S'Gates'
p6215
tp6216
(lp6217
S'And'
p6218
as(S'Tuesdays'
p6219
tp6220
(lp6221
S'Wednesdays'
p6222
as(S'seats'
p6223
tp6224
(lp6225
S'You'
p6226
as(S'mess'
p6227
tp6228
(lp6229
S'with'
p6230
as(S'three-peat'
p6231
tp6232
(lp6233
S'Chance'
p6234
as(S'tea'
p6235
tp6236
(lp6237
g146
as(S'post-language'
p6238
tp6239
(lp6240
S'anti-label'
p6241
as(S'yelling'
p6242
tp6243
(lp6244
S'fuck'
p6245
aS'fuck'
p6246
aS'Fuck'
p6247
aS'is'
p6248
aS'YOLO'
p6249
as(S'will'
p6250
tp6251
(lp6252
S'win'
p6253
aS'speak'
p6254
as(S'Spit'
p6255
tp6256
(lp6257
S'it'
p6258
as(S'Cinco'
p6259
tp6260
(lp6261
S'de'
p6262
as(S'outtin'
p6263
tp6264
(lp6265
S'Jams'
p6266
as(S'girl'
p6267
tp6268
(lp6269
S'getting'
p6270
aS"she'll"
p6271
aS'plan'
p6272
aS'Probably'
p6273
as(S'chinchilla'
p6274
tp6275
(lp6276
S"Everything's"
p6277
as(S'crescendo'
p6278
tp6279
(lp6280
S'Thanks'
p6281
as(S'Said'
p6282
tp6283
(lp6284
S'you'
p6285
aS'come'
p6286
as(S'ZooWap'
p6287
tp6288
(lp6289
S'Traphouse'
p6290
as(S'he'
p6291
tp6292
(lp6293
S'better'
p6294
aS'treat'
p6295
aS"doesn't"
p6296
aS'petrified'
p6297
aS'up'
p6298
aS'just'
p6299
aS'wait'
p6300
aS'proud'
p6301
aS'three-peat'
p6302
aS'ever'
p6303
aS'ever'
p6304
aS"gon'"
p6305
aS'be'
p6306
aS'juiced'
p6307
as(S'tasted'
p6308
tp6309
(lp6310
S'paper'
p6311
as(S'second'
p6312
tp6313
(lp6314
S'to'
p6315
aS'When'
p6316
as(S"I'd"
p6317
tp6318
(lp6319
S'be'
p6320
aS'take'
p6321
aS'gethigher'
p6322
aS'fight'
p6323
aS'make'
p6324
as(S'rhymed'
p6325
tp6326
(lp6327
S'Wide'
p6328
as(S'bourbon'
p6329
tp6330
(lp6331
S'mixed'
p6332
as(S'fly'
p6333
tp6334
(lp6335
S"Don't"
p6336
aS'when'
p6337
as(S'Nat'
p6338
tp6339
(lp6340
S'King'
p6341
as(S'chains'
p6342
tp6343
(lp6344
S'when'
p6345
as(S'lawn'
p6346
tp6347
(lp6348
S'chair'
p6349
as(S'mishaps'
p6350
tp6351
(lp6352
S'burp'
p6353
as(S'lit'
p6354
tp6355
(lp6356
S'her'
p6357
as(S'matter'
p6358
tp6359
(lp6360
g146
ag146
aS'matter'
p6361
aS'fact'
p6362
as(S'piggy'
p6363
tp6364
(lp6365
S'back'
p6366
as(S'noble'
p6367
tp6368
(lp6369
S'things'
p6370
as(S'screaming'
p6371
tp6372
(lp6373
g146
as(S'Shake'
p6374
tp6375
(lp6376
S'that'
p6377
as(S'Amin'
p6378
tp6379
(lp6380
S'Ya'
p6381
as(S'Juke'
p6382
tp6383
(lp6384
S'The'
p6385
as(S"Rubbin'"
p6386
tp6387
(lp6388
S'on'
p6389
as(S'skeet'
p6390
tp6391
(lp6392
S'skeet'
p6393
aS'skeet'
p6394
aS'She'
p6395
as(S"'Kadabra"
p6396
tp6397
(lp6398
S'Replay'
p6399
as(S'loudy'
p6400
tp6401
(lp6402
S'saudy'
p6403
as(S'But'
p6404
tp6405
(lp6406
S'the'
p6407
aS'now'
p6408
aS'every'
p6409
aS'in'
p6410
aS'when'
p6411
ag146
aS'who'
p6412
ag146
aS'God'
p6413
aS'if'
p6414
ag146
aS"I'd"
p6415
aS'they'
p6416
aS'gravity'
p6417
aS"it's"
p6418
ag146
ag146
as(S'correlating'
p6419
tp6420
(lp6421
S'you'
p6422
as(S'fiendin'
p6423
tp6424
(lp6425
S"I'mma"
p6426
as(S'Real'
p6427
tp6428
(lp6429
S'nigga'
p6430
as(S'buy'
p6431
tp6432
(lp6433
S'my'
p6434
aS'tokens'
p6435
as(S'inhaled'
p6436
tp6437
(lp6438
S'who'
p6439
as(S'wrote'
p6440
tp6441
(lp6442
S'this'
p6443
as(S'hide'
p6444
tp6445
(lp6446
S'from'
p6447
as(S'happy'
p6448
tp6449
(lp6450
S'thoughts'
p6451
aS'thoughts'
p6452
as(S'saudy'
p6453
tp6454
(lp6455
S'of'
p6456
as(S'service'
p6457
tp6458
(lp6459
S'igh'
p6460
as(S'faked'
p6461
tp6462
(lp6463
S'the'
p6464
as(S'wondrous'
p6465
tp6466
(lp6467
S'unfamiliar'
p6468
as(S'bite'
p6469
tp6470
(lp6471
S'and'
p6472
as(S'play'
p6473
tp6474
(lp6475
S'ball'
p6476
aS'ball'
p6477
aS"I'm"
p6478
aS'me'
p6479
aS'sister'
p6480
aS'Take'
p6481
as(S'wings'
p6482
tp6483
(lp6484
g146
as(S'might'
p6485
tp6486
(lp6487
S'make'
p6488
aS'give'
p6489
aS'really'
p6490
aS'share'
p6491
aS'just'
p6492
aS'boot'
p6493
aS'suit'
p6494
aS'be'
p6495
aS'be'
p6496
as(S'sermon'
p6497
tp6498
(lp6499
g146
as(S'dressed'
p6500
tp6501
(lp6502
S'like'
p6503
as(S'wait'
p6504
tp6505
(lp6506
S'Never'
p6507
aS'up'
p6508
aS"I'll"
p6509
as(S'cops'
p6510
tp6511
(lp6512
S'could'
p6513
aS'shot'
p6514
as(S'Ben-a-Baller'
p6515
tp6516
(lp6517
S'Benford'
p6518
as(S'lehgo'
p6519
tp6520
(lp6521
S'She'
p6522
as(S'fruit'
p6523
tp6524
(lp6525
S'snacks'
p6526
as(S'Malachi'
p6527
tp6528
(lp6529
S'Devil'
p6530
as(S'bangers'
p6531
tp6532
(lp6533
S'jam'
p6534
as(S'Funerals'
p6535
tp6536
(lp6537
S'for'
p6538
as(S'breath'
p6539
tp6540
(lp6541
S'They'
p6542
aS'so'
p6543
ag146
as(S'gift'
p6544
tp6545
(lp6546
S'of'
p6547
as(S'rules'
p6548
tp6549
(lp6550
S'She'
p6551
as(S'whatever'
p6552
tp6553
(lp6554
g146
as(S'boss'
p6555
tp6556
(lp6557
S'say'
p6558
aS'Please'
p6559
as(S'still'
p6560
tp6561
(lp6562
S'catching'
p6563
aS'play'
p6564
aS'at'
p6565
aS'Endless'
p6566
aS'pass'
p6567
aS'make'
p6568
aS'wash'
p6569
aS'watch'
p6570
aS'bang'
p6571
aS'Jesus'
p6572
aS'be'
p6573
aS'getting'
p6574
aS'miss'
p6575
aS'get'
p6576
aS'jealous'
p6577
aS'Mr'
p6578
aS"can't"
p6579
aS'choosing'
p6580
aS'thinks'
p6581
aS'thinks'
p6582
aS"don't"
p6583
aS'be'
p6584
aS'be'
p6585
aS'remember'
p6586
ag249
aS'shake'
p6587
aS'to'
p6588
as(S'above'
p6589
tp6590
(lp6591
S'me'
p6592
aS"What's"
p6593
as(S'kiddies'
p6594
tp6595
(lp6596
S'stop'
p6597
as(S'purest'
p6598
tp6599
(lp6600
S'and'
p6601
as(S'entree'
p6602
tp6603
(lp6604
S'Hit'
p6605
as(S'Soil'
p6606
tp6607
(lp6608
S'as'
p6609
as(S'make'
p6610
tp6611
(lp6612
S'me'
p6613
aS"'em"
p6614
ag249
aS'it'
p6615
aS'songs'
p6616
aS"'em"
p6617
aS'me'
p6618
aS'me'
p6619
aS'Jesus'
p6620
aS'songs'
p6621
aS'me'
p6622
aS'this'
p6623
aS'another'
p6624
aS'the'
p6625
aS'the'
p6626
ag249
aS'it'
p6627
ag249
aS'sure'
p6628
aS'up'
p6629
ag249
as(S'bill'
p6630
tp6631
(lp6632
S"that's"
p6633
as(S"Cookin'"
p6634
tp6635
(lp6636
S'crack'
p6637
as(S'ice'
p6638
tp6639
(lp6640
S'on'
p6641
as(S'standing'
p6642
tp6643
(lp6644
S'still'
p6645
as(S'boy'
p6646
tp6647
(lp6648
S'who'
p6649
aS'love'
p6650
aS'too'
p6651
aS'Still'
p6652
as(S'toss'
p6653
tp6654
(lp6655
S'they'
p6656
aS'my'
p6657
as(S'spot'
p6658
tp6659
(lp6660
S'on'
p6661
aS'No'
p6662
as(S'unfamiliar'
p6663
tp6664
(lp6665
S'lessons'
p6666
as(S'Husky'
p6667
tp6668
(lp6669
S'Acid'
p6670
as(S'put'
p6671
tp6672
(lp6673
S'the'
p6674
aS'my'
p6675
aS'milk'
p6676
aS'weed'
p6677
aS'some'
p6678
aS'this'
p6679
aS'them'
p6680
as(S'92'
p6681
tp6682
(lp6683
S'angel'
p6684
aS'angel'
p6685
as(S'jacker'
p6686
tp6687
(lp6688
S'Slap-happy'
p6689
as(S'cooler'
p6690
tp6691
(lp6692
g146
as(S'kills'
p6693
tp6694
(lp6695
S'us'
p6696
as(S"momma's"
p6697
tp6698
(lp6699
S'hands'
p6700
as(S'Put'
p6701
tp6702
(lp6703
S'Visine'
p6704
aS'that'
p6705
aS'money'
p6706
as(S'cooties'
p6707
tp6708
(lp6709
S'was'
p6710
as(S'pastures'
p6711
tp6712
(lp6713
S"wanderin'"
p6714
as(S'about'
p6715
tp6716
(lp6717
S'politics'
p6718
aS'it'
p6719
aS'my'
p6720
as(S"thievin'"
p6721
tp6722
(lp6723
S'Runnin'
p6724
as(S'once'
p6725
tp6726
(lp6727
S'was'
p6728
aS'was'
p6729
as(S"'fore"
p6730
tp6731
(lp6732
S'he'
p6733
as(S'wilding'
p6734
tp6735
(lp6736
S'like'
p6737
as(S'forts'
p6738
tp6739
(lp6740
S'from'
p6741
as(S'foot'
p6742
tp6743
(lp6744
S'work'
p6745
as(S'apples'
p6746
tp6747
(lp6748
S'for'
p6749
as(S'Pull'
p6750
tp6751
(lp6752
S'up'
p6753
as(S'In'
p6754
tp6755
(lp6756
g249
aS'Peace'
p6757
aS'two'
p6758
aS'the'
p6759
aS'the'
p6760
as(S'Deebo'
p6761
tp6762
(lp6763
S"Don't"
p6764
as(S'buckle'
p6765
tp6766
(lp6767
S'up'
p6768
as(S'kissing'
p6769
tp6770
(lp6771
g249
as(S'hugh'
p6772
tp6773
(lp6774
S'hugh'
p6775
aS'Now'
p6776
as(S'barak'
p6777
tp6778
(lp6779
S'edify'
p6780
as(S'push'
p6781
tp6782
(lp6783
S'the'
p6784
aS'it'
p6785
as(S'wake'
p6786
tp6787
(lp6788
S'up'
p6789
as(S'worthless'
p6790
tp6791
(lp6792
S'Now'
p6793
as(S'read'
p6794
tp6795
(lp6796
S'was'
p6797
aS'Sun-Times'
p6798
as(S'bet'
p6799
tp6800
(lp6801
S"I'd"
p6802
aS'they'
p6803
as(S'thought'
p6804
tp6805
(lp6806
S'it'
p6807
aS"you'd"
p6808
aS"you'd"
p6809
aS'damn'
p6810
as(S'Peace'
p6811
tp6812
(lp6813
S'to'
p6814
as(S'rain'
p6815
tp6816
(lp6817
S'Wore'
p6818
as(S'sex'
p6819
tp6820
(lp6821
g146
aS'Rastafari'
p6822
as(S'ring'
p6823
tp6824
(lp6825
g146
aS"that's"
p6826
as(S'Jack'
p6827
tp6828
(lp6829
S'and'
p6830
aS'and'
p6831
as(S'seeing'
p6832
tp6833
(lp6834
S'arenas'
p6835
as(S'under'
p6836
tp6837
(lp6838
S'the'
p6839
aS'black'
p6840
aS'after'
p6841
as(S'windows'
p6842
tp6843
(lp6844
S'with'
p6845
as(S'god'
p6846
tp6847
(lp6848
S'oh'
p6849
as(S'yum'
p6850
tp6851
(lp6852
S"that's"
p6853
as(S'us'
p6854
tp6855
(lp6856
S'scared'
p6857
aS'and'
p6858
aS'here'
p6859
aS'And'
p6860
aS'always'
p6861
as(S'Buck'
p6862
tp6863
(lp6864
S'buck'
p6865
as(S'Foolies'
p6866
tp6867
(lp6868
S'glad'
p6869
as(S'or'
p6870
tp6871
(lp6872
S'forfeited'
p6873
aS'to'
p6874
aS'is'
p6875
aS'debit'
p6876
aS'ratify'
p6877
ag249
aS'not'
p6878
aS'off'
p6879
as(S'Dreams'
p6880
tp6881
(lp6882
S'is'
p6883
as(S'Make'
p6884
tp6885
(lp6886
S'the'
p6887
aS'you'
p6888
ag249
ag249
aS'you'
p6889
aS'sense'
p6890
as(S'Dandelion'
p6891
tp6892
(lp6893
S"Don't"
p6894
aS'All'
p6895
as(S'acting'
p6896
tp6897
(lp6898
g249
as(S'ooh'
p6899
tp6900
(lp6901
g146
as(S'home'
p6902
tp6903
(lp6904
S'Even'
p6905
as(S'damn'
p6906
tp6907
(lp6908
S"that's"
p6909
aS'days'
p6910
aS'ad-lib'
p6911
aS"that's"
p6912
as(S'apron'
p6913
tp6914
(lp6915
S'dressed'
p6916
as(S'bleedin'
p6917
tp6918
(lp6919
g146
as(S'died-'
p6920
tp6921
(lp6922
S'yelling'
p6923
as(S"God's"
p6924
tp6925
(lp6926
S'phone'
p6927
as(S'light'
p6928
tp6929
(lp6930
S'or'
p6931
ag146
as(S'Remember'
p6932
tp6933
(lp6934
S'jacket'
p6935
aS'the'
p6936
as(S'rocket'
p6937
tp6938
(lp6939
S'ships'
p6940
aS'launcher'
p6941
as(S'culture'
p6942
tp6943
(lp6944
S'GCI'
p6945
as(S'abandon'
p6946
tp6947
(lp6948
S'the'
p6949
as(S'stampedes'
p6950
tp6951
(lp6952
S"Rap's"
p6953
as(S'same'
p6954
tp6955
(lp6956
S'way'
p6957
aS'damn'
p6958
aS'shit'
p6959
as(S'teaching'
p6960
tp6961
(lp6962
S'taxes'
p6963
as(S'performed'
p6964
tp6965
(lp6966
S'every'
p6967
as(S"Countin'"
p6968
tp6969
(lp6970
S'Benjis'
p6971
as(S'friendship'
p6972
tp6973
(lp6974
S'get'
p6975
as(S'warmth'
p6976
tp6977
(lp6978
S'in'
p6979
as(S'floor'
p6980
tp6981
(lp6982
S'With'
p6983
aS'All'
p6984
ag146
as(S'Guwop'
p6985
tp6986
(lp6987
g146
as(S'hallways'
p6988
tp6989
(lp6990
g146
as(S'window'
p6991
tp6992
(lp6993
S'cops'
p6994
aS'along'
p6995
as(S'but'
p6996
tp6997
(lp6998
g146
aS'it'
p6999
aS'you'
p7000
aS'he'
p7001
aS'they'
p7002
aS'she'
p7003
aS'better'
p7004
ag146
aS'let'
p7005
aS'it'
p7006
aS'My'
p7007
aS'they'
p7008
as(S'lighter'
p7009
tp7010
(lp7011
S'Bic'
p7012
as(S'cubicle'
p7013
tp7014
(lp7015
S'desktop'
p7016
as(S'by'
p7017
tp7018
(lp7019
S'the'
p7020
aS'to'
p7021
as(S'these'
p7022
tp7023
(lp7024
S'goofies'
p7025
aS'niggas'
p7026
aS'bales'
p7027
aS'thots'
p7028
as(S'dreaming'
p7029
tp7030
(lp7031
g249
as(S'two'
p7032
tp7033
(lp7034
S'times'
p7035
aS'plus'
p7036
aS'left'
p7037
aS'small'
p7038
aS'missing'
p7039
as(S'violations'
p7040
tp7041
(lp7042
S'for'
p7043
as(S'lined'
p7044
tp7045
(lp7046
S'with'
p7047
as(S'tassel'
p7048
tp7049
(lp7050
S'for'
p7051
as(S'OVO'
p7052
tp7053
(lp7054
S'Oooh'
p7055
as(S'friend'
p7056
tp7057
(lp7058
S'Fucked'
p7059
as(S'spilt'
p7060
tp7061
(lp7062
S'fries'
p7063
as(S'1-0-7-5'
p7064
tp7065
(lp7066
S'angel'
p7067
aS"goin'"
p7068
as(S'only'
p7069
tp7070
(lp7071
S'practice'
p7072
aS'ever'
p7073
aS'perform'
p7074
aS'beat'
p7075
aS'stop'
p7076
aS'getting'
p7077
as(S'baby'
p7078
tp7079
(lp7080
S'mama'
p7081
aS'boy'
p7082
as(S'Save'
p7083
tp7084
(lp7085
S'Money'
p7086
as(S'pick'
p7087
tp7088
(lp7089
g249
as(S'Little'
p7090
tp7091
(lp7092
S'bit'
p7093
as(S'declining'
p7094
tp7095
(lp7096
S'to'
p7097
as(S'love'
p7098
tp7099
(lp7100
S'her'
p7101
aS'Not'
p7102
aS'my'
p7103
aS'playing'
p7104
aS'with'
p7105
aS'for'
p7106
aS'is'
p7107
aS'me'
p7108
aS'it'
p7109
aS"y'all"
p7110
aS'being'
p7111
aS'it'
p7112
aS'it'
p7113
aS'like'
p7114
aS"What's"
p7115
aS"What's"
p7116
aS"What's"
p7117
aS"What's"
p7118
aS"'Member"
p7119
as(S'cream'
p7120
tp7121
(lp7122
S'truck'
p7123
as(S'Sun-Times'
p7124
tp7125
(lp7126
S'She'
p7127
as(S'forfeited'
p7128
tp7129
(lp7130
S"I'm"
p7131
as(S'Kanye'
p7132
tp7133
(lp7134
S'and'
p7135
as(S'rings'
p7136
tp7137
(lp7138
S"Y'all"
p7139
as(S'street'
p7140
tp7141
(lp7142
S'was'
p7143
as(S'party'
p7144
tp7145
(lp7146
S'she'
p7147
as(S'fan'
p7148
tp7149
(lp7150
S'asking'
p7151
as(S'prodigy'
p7152
tp7153
(lp7154
S'He'
p7155
as(S'members'
p7156
tp7157
(lp7158
S'Even'
p7159
aS'Even'
p7160
as(S'in'
p7161
tp7162
(lp7163
S'their'
p7164
aS'love'
p7165
aS'at'
p7166
aS'my'
p7167
aS'my'
p7168
aS'the'
p7169
aS'kings'
p7170
aS'the'
p7171
aS'case'
p7172
aS'Heaven'
p7173
aS'blessings'
p7174
aS'the'
p7175
aS'the'
p7176
aS'the'
p7177
aS'the'
p7178
aS'my'
p7179
aS'the'
p7180
aS'disbelief'
p7181
aS'peace'
p7182
aS'that'
p7183
aS'my'
p7184
aS'the'
p7185
aS'the'
p7186
aS'science'
p7187
aS'signs'
p7188
aS'signing'
p7189
aS'the'
p7190
aS'the'
p7191
aS'the'
p7192
aS'our'
p7193
aS'the'
p7194
aS'the'
p7195
aS'the'
p7196
aS'the'
p7197
aS'school'
p7198
aS'love'
p7199
aS'my'
p7200
ag249
ag249
ag249
aS'public'
p7201
aS'public'
p7202
aS'couplets'
p7203
aS'high'
p7204
aS'clutters'
p7205
aS'Texas'
p7206
aS'the'
p7207
aS'the'
p7208
aS'the'
p7209
aS'here'
p7210
aS'our'
p7211
aS'Vegas'
p7212
aS'the'
p7213
aS'my'
p7214
aS'low'
p7215
aS'c-note'
p7216
aS'the'
p7217
aS'the'
p7218
aS'my'
p7219
aS'the'
p7220
aS'backless'
p7221
aS'not'
p7222
aS'Yeah'
p7223
aS'me'
p7224
aS'Cigarette'
p7225
aS'sin'
p7226
aS'empty'
p7227
aS'me'
p7228
aS'school'
p7229
aS'an'
p7230
aS'the'
p7231
aS'the'
p7232
ag249
aS'the'
p7233
aS'so'
p7234
aS'your'
p7235
aS'my'
p7236
aS'love'
p7237
aS'my'
p7238
aS'my'
p7239
aS'the'
p7240
ag249
aS'love'
p7241
aS'the'
p7242
aS'love'
p7243
aS'mud'
p7244
aS'green'
p7245
aS'love'
p7246
aS'class'
p7247
aS'churches'
p7248
aS'your'
p7249
as(S'Montano'
p7250
tp7251
(lp7252
S"I've"
p7253
as(S'fire'
p7254
tp7255
(lp7256
S'Flyer'
p7257
as(S'clap'
p7258
tp7259
(lp7260
S'clap'
p7261
aS'collapsing'
p7262
as(S'more'
p7263
tp7264
(lp7265
S'Our'
p7266
aS'Oh'
p7267
aS'You'
p7268
aS'Maybe'
p7269
aS'Hash'
p7270
aS'And'
p7271
as(S'lucid'
p7272
tp7273
(lp7274
S'loosely'
p7275
as(S'name'
p7276
tp7277
(lp7278
S'and'
p7279
aS'when'
p7280
as(S'sleeveless'
p7281
tp7282
(lp7283
S'My'
p7284
as(S'bib'
p7285
tp7286
(lp7287
S'And'
p7288
as(S'See'
p7289
tp7290
(lp7291
S'them'
p7292
aS'my'
p7293
aS'my'
p7294
as(S'shots'
p7295
tp7296
(lp7297
g146
as(S'suit'
p7298
tp7299
(lp7300
S'might'
p7301
aS'cha'
p7302
as(S'other'
p7303
tp7304
(lp7305
S'hand'
p7306
as(S"Everything's"
p7307
tp7308
(lp7309
S'good'
p7310
aS'good'
p7311
aS'good'
p7312
aS'Good'
p7313
aS'Good'
p7314
aS'good'
p7315
as(S'ride'
p7316
tp7317
(lp7318
S'You'
p7319
aS'on'
p7320
ag146
as(S'Til'
p7321
tp7322
(lp7323
S'the'
p7324
as(S'power'
p7325
tp7326
(lp7327
g146
as(S'Some'
p7328
tp7329
(lp7330
S'of'
p7331
aS'of'
p7332
as(S'fell'
p7333
tp7334
(lp7335
S'in'
p7336
aS'apart'
p7337
as(S'think'
p7338
tp7339
(lp7340
g146
aS'the'
p7341
aS'they'
p7342
aS'the'
p7343
aS'we'
p7344
aS'they'
p7345
aS'love'
p7346
aS'up'
p7347
as(S'mentions'
p7348
tp7349
(lp7350
S'for'
p7351
as(S'Damn'
p7352
tp7353
(lp7354
S'man'
p7355
aS'queen'
p7356
aS'that'
p7357
aS"I'm"
p7358
aS'your'
p7359
ag146
aS'it'
p7360
as(S'Zan'
p7361
tp7362
(lp7363
S'with'
p7364
as(S'again'
p7365
tp7366
(lp7367
S'We'
p7368
as(S'spend'
p7369
tp7370
(lp7371
S'my'
p7372
as(S'Lot'
p7373
tp7374
(lp7375
S'of'
p7376
as(S'backpack'
p7377
tp7378
(lp7379
S'packed'
p7380
as(S'lucky'
p7381
tp7382
(lp7383
S'Tonight'
p7384
as(S'ask'
p7385
tp7386
(lp7387
S'if'
p7388
as(S'sour'
p7389
tp7390
(lp7391
S'Saudi'
p7392
as(S'Balancing'
p7393
tp7394
(lp7395
S'on'
p7396
as(S'tryna'
p7397
tp7398
(lp7399
S'crown'
p7400
aS'introduce'
p7401
aS'go'
p7402
aS'go'
p7403
as(S'rock'
p7404
tp7405
(lp7406
S'and'
p7407
aS'before'
p7408
as(S"There's"
p7409
tp7410
(lp7411
S"gon'"
p7412
as(S'Wha'
p7413
tp7414
(lp7415
S'Mean'
p7416
as(S'many'
p7417
tp7418
(lp7419
S'rings'
p7420
aS'bosses'
p7421
aS'young'
p7422
aS'lab'
p7423
aS'pain-kills'
p7424
as(S'water'
p7425
tp7426
(lp7427
S'ugh'
p7428
aS'gimme'
p7429
ag146
aS'standing'
p7430
as(S"'Member"
p7431
tp7432
(lp7433
S"sittin'"
p7434
as(S'sky'
p7435
tp7436
(lp7437
g146
as(S'missing'
p7438
tp7439
(lp7440
S'my'
p7441
aS'sole'
p7442
aS'toes'
p7443
aS'meetings'
p7444
as(S'Scars'
p7445
tp7446
(lp7447
S'on'
p7448
as(S'grilled'
p7449
tp7450
(lp7451
S'cheeses'
p7452
as(S'Smoking'
p7453
tp7454
(lp7455
S'cigarettes'
p7456
as(S'Dilla'
p7457
tp7458
(lp7459
S"Everything's"
p7460
as(S"'til"
p7461
tp7462
(lp7463
S'my'
p7464
aS'you'
p7465
as(S'Vic'
p7466
tp7467
(lp7468
S'And'
p7469
as(S'Day'
p7470
tp7471
(lp7472
S'been'
p7473
as(S'fact'
p7474
tp7475
(lp7476
S'it'
p7477
as(S'joints'
p7478
tp7479
(lp7480
S'to'
p7481
as(S'shows'
p7482
tp7483
(lp7484
S'and'
p7485
as(S'outside'
p7486
tp7487
(lp7488
S'You'
p7489
aS'everybody'
p7490
aS'When'
p7491
aS'all'
p7492
as(S'sniffing'
p7493
tp7494
(lp7495
S'glue'
p7496
as(S'ad-lib'
p7497
tp7498
(lp7499
S'IGH'
p7500
as(S'sing'
p7501
tp7502
(lp7503
S'ZooWap'
p7504
aS'songs'
p7505
aS'Jesus'
p7506
as(S'stories'
p7507
tp7508
(lp7509
S'of'
p7510
as(S'foams'
p7511
tp7512
(lp7513
S'Sometimes'
p7514
as(S'beater'
p7515
tp7516
(lp7517
S'to'
p7518
as(S'head'
p7519
tp7520
(lp7521
S'like'
p7522
aS"I'm"
p7523
aS"I'm"
p7524
aS'cruising'
p7525
aS'stayed'
p7526
as(S'collar'
p7527
tp7528
(lp7529
S'crime'
p7530
as(S'Bic'
p7531
tp7532
(lp7533
S'flick'
p7534
as(S'music'
p7535
tp7536
(lp7537
S'she'
p7538
ag146
aS'The'
p7539
aS'swallow'
p7540
as(S'sleep'
p7541
tp7542
(lp7543
S'in'
p7544
as(S'plan'
p7545
tp7546
(lp7547
S'to'
p7548
as(S'cha'
p7549
tp7550
(lp7551
S'and'
p7552
aS'They'
p7553
as(S'creeping'
p7554
tp7555
(lp7556
S'Now'
p7557
as(S'afraid'
p7558
tp7559
(lp7560
S'that'
p7561
as(S'match'
p7562
tp7563
(lp7564
g146
aS'She'
p7565
aS'she'
p7566
as(S'Long'
p7567
tp7568
(lp7569
S'discussions'
p7570
as(S'They'
p7571
tp7572
(lp7573
S"don't"
p7574
aS'was'
p7575
aS'booked'
p7576
aS'want'
p7577
aS'gotta'
p7578
aS"ain't"
p7579
aS'never'
p7580
aS'murking'
p7581
aS'deserted'
p7582
aS'be'
p7583
aS'use'
p7584
as(S'choice'
p7585
tp7586
(lp7587
S'JJ'
p7588
as(S'pretty'
p7589
tp7590
(lp7591
S'dark'
p7592
as(S'time'
p7593
tp7594
(lp7595
S"don't"
p7596
aS'no'
p7597
aS'all'
p7598
aS'every'
p7599
aS'Way'
p7600
ag146
aS'to'
p7601
aS'for'
p7602
aS'that'
p7603
aS'to'
p7604
aS'for'
p7605
aS'for'
p7606
aS'at'
p7607
aS'to'
p7608
aS'on'
p7609
aS'to'
p7610
aS'One'
p7611
aS'it'
p7612
aS'Shouts'
p7613
aS'that'
p7614
aS'listening'
p7615
aS'crescendo'
p7616
ag146
aS'you'
p7617
aS'that'
p7618
as(S'xans'
p7619
tp7620
(lp7621
S'Started'
p7622
as(S'really'
p7623
tp7624
(lp7625
S'play'
p7626
aS'play'
p7627
aS'hear'
p7628
aS"don't"
p7629
aS'been'
p7630
aS'need'
p7631
aS'been'
p7632
aS'that'
p7633
aS'that'
p7634
aS'always'
p7635
aS'help'
p7636
aS'that'
p7637
aS'that'
p7638
as(S'break'
p7639
tp7640
(lp7641
S'these'
p7642
aS'the'
p7643
aS'down'
p7644
aS'me'
p7645
as(S'new'
p7646
tp7647
(lp7648
S'recruitment'
p7649
aS'shit'
p7650
aS'rules'
p7651
aS'shit'
p7652
aS'Nitty'
p7653
aS'nigga'
p7654
as(S'hear'
p7655
tp7656
(lp7657
S'is'
p7658
aS'is'
p7659
aS'what'
p7660
aS'the'
p7661
as(S'alky'
p7662
tp7663
(lp7664
S'keep'
p7665
as(S'legs'
p7666
tp7667
(lp7668
S'and'
p7669
as(S'Couric'
p7670
tp7671
(lp7672
S'in'
p7673
as(S'smash'
p7674
tp7675
(lp7676
S'Hit'
p7677
as(S'bunny'
p7678
tp7679
(lp7680
S'hopping'
p7681
as(S'stop'
p7682
tp7683
(lp7684
S'What'
p7685
aS'me'
p7686
aS'skating'
p7687
aS'by'
p7688
as(S'lingo'
p7689
tp7690
(lp7691
S"Flamin'"
p7692
as(S'end'
p7693
tp7694
(lp7695
S'of'
p7696
ag249
aS'up'
p7697
aS'with'
p7698
aS'up'
p7699
aS'Hope'
p7700
ag146
as(S'Brantleys'
p7701
tp7702
(lp7703
S'You'
p7704
as(S'everything'
p7705
tp7706
(lp7707
S"I'm"
p7708
aS'we'
p7709
aS'we'
p7710
aS'You'
p7711
aS'the'
p7712
as(S'blonde'
p7713
tp7714
(lp7715
S'hair'
p7716
as(S"'Til"
p7717
tp7718
(lp7719
S'they'
p7720
ag146
aS'one'
p7721
as(S'away'
p7722
tp7723
(lp7724
S'You'
p7725
aS'Cause'
p7726
as(S'man'
p7727
tp7728
(lp7729
S'of'
p7730
aS'Some'
p7731
ag146
ag146
aS'no'
p7732
aS'rocks'
p7733
aS'joint'
p7734
as(S'hinges'
p7735
tp7736
(lp7737
S'in'
p7738
as(S'jump'
p7739
tp7740
(lp7741
S'ship'
p7742
aS'dude'
p7743
as(S'sensei'
p7744
tp7745
(lp7746
S'master'
p7747
as(S'favorite'
p7748
tp7749
(lp7750
S'fucking'
p7751
as(S'habit'
p7752
tp7753
(lp7754
S'and'
p7755
as(S'roof'
p7756
tp7757
(lp7758
g146
as(S'angels'
p7759
tp7760
(lp7761
S'on'
p7762
as(S'maker'
p7763
tp7764
(lp7765
S'he'
p7766
as(S'Hang'
p7767
tp7768
(lp7769
S'with'
p7770
as(S'kick'
p7771
tp7772
(lp7773
S'the'
p7774
as(S'never'
p7775
tp7776
(lp7777
S'took'
p7778
aS'sweet'
p7779
aS'changed'
p7780
aS'changed'
p7781
aS'forged'
p7782
aS'grow'
p7783
aS'Window'
p7784
aS'tired'
p7785
aS'rolled'
p7786
aS'come'
p7787
aS'seen'
p7788
aS'practice'
p7789
aS'been'
p7790
aS'been'
p7791
aS'tasted'
p7792
aS'make'
p7793
aS"gon'"
p7794
as(g4900
tp7795
(lp7796
S'Guwop'
p7797
as(S'took'
p7798
tp7799
(lp7800
g249
aS'so'
p7801
as(S'stuff'
p7802
tp7803
(lp7804
S'the'
p7805
as(S'hand'
p7806
tp7807
(lp7808
S'Milly'
p7809
aS'full'
p7810
as(S'ashy'
p7811
tp7812
(lp7813
S'cigarette'
p7814
as(S'do'
p7815
tp7816
(lp7817
S'not'
p7818
aS'whatever'
p7819
aS'what'
p7820
aS'to'
p7821
aS'the'
p7822
aS'We'
p7823
aS'what'
p7824
aS'When'
p7825
aS'is'
p7826
aS'that'
p7827
aS'shit'
p7828
aS'For'
p7829
aS'good'
p7830
aS'is'
p7831
as(S'khaki'
p7832
tp7833
(lp7834
S'jacket'
p7835
as(S'caveman'
p7836
tp7837
(lp7838
S'pops'
p7839
as(S'cards'
p7840
tp7841
(lp7842
g146
as(S'covered'
p7843
tp7844
(lp7845
S'in'
p7846
as(S'toed'
p7847
tp7848
(lp7849
S'In'
p7850
as(S'where'
p7851
tp7852
(lp7853
g146
aS'your'
p7854
aS'we'
p7855
aS'the'
p7856
as(S'road'
p7857
tp7858
(lp7859
S'She'
p7860
aS'Super'
p7861
aS'rage'
p7862
as(S'sleepin'
p7863
tp7864
(lp7865
S'With'
p7866
as(S'to'
p7867
tp7868
(lp7869
S'my'
p7870
aS'the'
p7871
aS'cheat'
p7872
aS'come'
p7873
aS'losing'
p7874
aS'kill'
p7875
aS'his'
p7876
aS'be'
p7877
aS'end'
p7878
aS'your'
p7879
aS'end'
p7880
aS'forget'
p7881
aS'fly'
p7882
aS'play'
p7883
ag249
aS'hell'
p7884
aS'Hillman'
p7885
aS'OVO'
p7886
aS'let'
p7887
aS'my'
p7888
aS'soul'
p7889
aS'roll'
p7890
aS'roll'
p7891
aS'talk'
p7892
aS'know'
p7893
aS'the'
p7894
aS'harness'
p7895
aS'say'
p7896
aS'slow'
p7897
aS'qualify'
p7898
aS'Chatham'
p7899
aS'see'
p7900
aS'hide'
p7901
aS'roll'
p7902
aS'purchase'
p7903
aS'smoke'
p7904
aS'movies'
p7905
aS'Netflix'
p7906
aS'pass'
p7907
aS'laugh'
p7908
aS'get'
p7909
aS'Fetty'
p7910
aS'Raws'
p7911
ag249
aS'breathe'
p7912
aS'finesse'
p7913
aS'patrol'
p7914
aS'lay'
p7915
aS'break'
p7916
aS'the'
p7917
aS'you'
p7918
aS'help'
p7919
aS'my'
p7920
aS'xans'
p7921
aS'84'
p7922
aS'the'
p7923
aS'day'
p7924
aS'stay'
p7925
aS'the'
p7926
aS'make'
p7927
aS'my'
p7928
aS'pray'
p7929
aS'pray'
p7930
aS'catch'
p7931
aS'smile'
p7932
aS'God'
p7933
aS'God'
p7934
aS'dance'
p7935
aS'Michael'
p7936
aS'dance'
p7937
aS'pass'
p7938
aS'master'
p7939
aS'gas'
p7940
aS'show'
p7941
aS'land'
p7942
aS'Nate'
p7943
aS'party'
p7944
aS'papa'
p7945
aS'the'
p7946
aS'find'
p7947
aS'find'
p7948
aS'pack'
p7949
aS'pat'
p7950
aS'rap'
p7951
aS'watch'
p7952
aS'make'
p7953
aS'you'
p7954
aS'look'
p7955
aS'look'
p7956
aS'school'
p7957
aS'show'
p7958
aS'show'
p7959
aS'like'
p7960
aS'go'
p7961
aS'my'
p7962
aS'jump'
p7963
aS'the'
p7964
aS'pop'
p7965
aS'be'
p7966
ag249
aS'tell'
p7967
aS'ball'
p7968
aS'meet'
p7969
aS'Dilla'
p7970
aS'be'
p7971
aS'be'
p7972
aS'be'
p7973
aS'be'
p7974
aS'thank'
p7975
aS'Thriller'
p7976
aS'his'
p7977
aS'throw'
p7978
aS'the'
p7979
aS'the'
p7980
as(S'dripping'
p7981
tp7982
(lp7983
S'water'
p7984
as(S'aiming'
p7985
tp7986
(lp7987
S'back'
p7988
as(S'Grandma'
p7989
tp7990
(lp7991
S'say'
p7992
as(S'refugees'
p7993
tp7994
(lp7995
S'look'
p7996
as(S'ratify'
p7997
tp7998
(lp7999
S'my'
p8000
as(S'see'
p8001
tp8002
(lp8003
S'what'
p8004
aS'grown'
p8005
aS'another'
p8006
aS'Make'
p8007
aS'it'
p8008
aS'his'
p8009
as(S'Nasty'
p8010
tp8011
(lp8012
S'ashy'
p8013
as(S'burp'
p8014
tp8015
(lp8016
S'and'
p8017
as(S'And'
p8018
tp8019
(lp8020
S'that'
p8021
aS'gave'
p8022
aS'her'
p8023
aS'everything'
p8024
aS'yeah'
p8025
aS'my'
p8026
aS'if'
p8027
aS'realized'
p8028
aS'your'
p8029
aS'told'
p8030
ag146
aS"I'm"
p8031
aS'all'
p8032
aS'the'
p8033
aS'the'
p8034
ag249
aS'back'
p8035
aS"I'm"
p8036
aS'all'
p8037
aS'performing'
p8038
ag146
aS"Vic's"
p8039
aS'the'
p8040
aS"I'm"
p8041
aS"I'm"
p8042
ag146
aS"I'm"
p8043
aS'Justin'
p8044
aS'Mama'
p8045
ag146
ag146
aS'Chuck'
p8046
ag146
aS'then'
p8047
aS'you'
p8048
aS'then'
p8049
aS'then'
p8050
aS'the'
p8051
aS'put'
p8052
aS'lose'
p8053
aS'find'
p8054
aS"what's"
p8055
aS"what's"
p8056
aS"what's"
p8057
aS'whys'
p8058
aS'both'
p8059
aS'two'
p8060
aS'some'
p8061
aS'some'
p8062
aS"everything's"
p8063
aS'it'
p8064
aS'sniffing'
p8065
aS'you'
p8066
aS"I'm"
p8067
as(S'Super'
p8068
tp8069
(lp8070
S"ain't"
p8071
as(S'dance'
p8072
tp8073
(lp8074
S'performed'
p8075
aS'to'
p8076
aS'in'
p8077
aS'hundreds'
p8078
aS'And'
p8079
aS'for'
p8080
aS'joint'
p8081
as(S"chillin'"
p8082
tp8083
(lp8084
S'And'
p8085
as(S'crisp'
p8086
tp8087
(lp8088
S'The'
p8089
as(S'zan'
p8090
tp8091
(lp8092
S'gallon'
p8093
aS'with'
p8094
aS'dreaming'
p8095
as(S'practice'
p8096
tp8097
(lp8098
S"Don't"
p8099
aS'modesty'
p8100
ag146
aS'Still'
p8101
as(S'shout'
p8102
tp8103
(lp8104
S'that'
p8105
aS'my'
p8106
as(S'deep'
p8107
tp8108
(lp8109
S'girl'
p8110
as(S'showing'
p8111
tp8112
(lp8113
S'they'
p8114
as(S'teeth'
p8115
tp8116
(lp8117
S"that's"
p8118
as(S'downtown'
p8119
tp8120
(lp8121
S'You'
p8122
as(S'lean'
p8123
tp8124
(lp8125
S'Make'
p8126
aS'bitch'
p8127
aS'bitch'
p8128
as(S'packs'
p8129
tp8130
(lp8131
S'of'
p8132
as(S'books'
p8133
tp8134
(lp8135
S'in'
p8136
as(S'controversy'
p8137
tp8138
(lp8139
S'Took'
p8140
as(S'Hammer'
p8141
tp8142
(lp8143
S'after'
p8144
as(S'BM'
p8145
tp8146
(lp8147
S'to'
p8148
as(S'baritone'
p8149
tp8150
(lp8151
S"I've"
p8152
as(S'reconciled'
p8153
tp8154
(lp8155
S'They'
p8156
as(S'streets'
p8157
tp8158
(lp8159
S'so'
p8160
aS'say'
p8161
aS'in'
p8162
as(S'number'
p8163
tp8164
(lp8165
S'since'
p8166
as(S'free'
p8167
tp8168
(lp8169
S'so'
p8170
ag146
ag146
as(S'chair'
p8171
tp8172
(lp8173
S'hugh'
p8174
as(S'shoot'
p8175
tp8176
(lp8177
S'ya'
p8178
as(S'day'
p8179
tp8180
(lp8181
S'Ooh'
p8182
aS'camp'
p8183
aS"nigga's"
p8184
aS'one'
p8185
aS'early'
p8186
aS'camp'
p8187
aS'where'
p8188
as(S'google'
p8189
tp8190
(lp8191
S'search'
p8192
as(S'custody'
p8193
tp8194
(lp8195
S'Exalt'
p8196
as(S'Mensa'
p8197
tp8198
(lp8199
S'Chris'
p8200
as(S'Took'
p8201
tp8202
(lp8203
S'the'
p8204
as(S'plane'
p8205
tp8206
(lp8207
S"it's"
p8208
as(S'fight'
p8209
tp8210
(lp8211
S'for'
p8212
aS'if'
p8213
as(S'Drought'
p8214
tp8215
(lp8216
S'third'
p8217
as(S'raps'
p8218
tp8219
(lp8220
S'would'
p8221
aS'but'
p8222
as(S'another'
p8223
tp8224
(lp8225
S'he'
p8226
aS'rapper'
p8227
aS'If'
p8228
as(S'Kicked'
p8229
tp8230
(lp8231
S'off'
p8232
as(S'Before'
p8233
tp8234
(lp8235
g146
as(S'meetings'
p8236
tp8237
(lp8238
S'is'
p8239
aS'to'
p8240
as(S'crown'
p8241
tp8242
(lp8243
S'me'
p8244
as(S'Get'
p8245
tp8246
(lp8247
S'this'
p8248
ag249
as(S'subpoena'
p8249
tp8250
(lp8251
S'For'
p8252
as(S'glue'
p8253
tp8254
(lp8255
S'and'
p8256
as(S'lap'
p8257
tp8258
(lp8259
S'Bitch'
p8260
as(S'smashed'
p8261
tp8262
(lp8263
S"I'm"
p8264
as(S'churches'
p8265
tp8266
(lp8267
S'Harolds'
p8268
as(S'father'
p8269
tp8270
(lp8271
S'mayor'
p8272
as(S'thirst'
p8273
tp8274
(lp8275
S'just'
p8276
as(S'murdering'
p8277
tp8278
(lp8279
S'merch'
p8280
as(S'listening'
p8281
tp8282
(lp8283
S'to'
p8284
aS'to'
p8285
as(S'easier'
p8286
tp8287
(lp8288
S'to'
p8289
as(S'made'
p8290
tp8291
(lp8292
S'me'
p8293
aS'me'
p8294
aS'me'
p8295
aS'me'
p8296
aS'of'
p8297
aS'it'
p8298
aS'her'
p8299
as(S'stuck'
p8300
tp8301
(lp8302
S'in'
p8303
aS'together'
p8304
as(S'upon'
p8305
tp8306
(lp8307
S'the'
p8308
as(S"Don't"
p8309
tp8310
(lp8311
S'tweak'
p8312
aS'believe'
p8313
aS'you'
p8314
aS'you'
p8315
aS'you'
p8316
aS'forget'
p8317
aS'you'
p8318
aS'you'
p8319
aS'you'
p8320
aS'you'
p8321
aS'believe'
p8322
aS'matter'
p8323
aS'break'
p8324
as(S'Visine'
p8325
tp8326
(lp8327
S'inside'
p8328
as(S'retweets'
p8329
tp8330
(lp8331
S'The'
p8332
as(S'slaves'
p8333
tp8334
(lp8335
S'from'
p8336
as(S"it's"
p8337
tp8338
(lp8339
S'ready'
p8340
aS'ready'
p8341
aS'never'
p8342
ag249
aS'just'
p8343
aS'not'
p8344
aS"bustin'"
p8345
aS'yours'
p8346
ag249
ag249
aS'dark'
p8347
aS'easier'
p8348
aS'that'
p8349
aS'so'
p8350
aS'the'
p8351
aS'love'
p8352
as(S'pop'
p8353
tp8354
(lp8355
S"'til"
p8356
aS'The'
p8357
aS'smash'
p8358
as(S'pops'
p8359
tp8360
(lp8361
S'smashed'
p8362
aS'with'
p8363
as(S'Never'
p8364
tp8365
(lp8366
S'let'
p8367
aS'let'
p8368
as(S'yo'
p8369
tp8370
(lp8371
S'chin'
p8372
as(S'bucket'
p8373
tp8374
(lp8375
S'fuck'
p8376
as(S'lake'
p8377
tp8378
(lp8379
S'made'
p8380
as(S'slapper'
p8381
tp8382
(lp8383
S'Iraqi'
p8384
as(S'Shoulda'
p8385
tp8386
(lp8387
S'died-'
p8388
as(S"won't"
p8389
tp8390
(lp8391
S'be'
p8392
aS'even'
p8393
as(S'Stones'
p8394
tp8395
(lp8396
S'got'
p8397
as(S'Still'
p8398
tp8399
(lp8400
S'the'
p8401
aS'gotta'
p8402
aS'gotta'
p8403
aS'outtin'
p8404
aS'getting'
p8405
aS'with'
p8406
as(S'southside'
p8407
tp8408
(lp8409
S'Got'
p8410
as(S'tank'
p8411
tp8412
(lp8413
S'top'
p8414
as(S'sayin'
p8415
tp8416
(lp8417
S"What's"
p8418
as(S'merge'
p8419
tp8420
(lp8421
S'swerve'
p8422
as(S'dollar'
p8423
tp8424
(lp8425
S'signs'
p8426
as(S'twerk'
p8427
tp8428
(lp8429
S'merge'
p8430
as(S'safer'
p8431
tp8432
(lp8433
S'hood'
p8434
as(S'herself'
p8435
tp8436
(lp8437
S'She'
p8438
as(S'worship'
p8439
tp8440
(lp8441
S'make'
p8442
as(S'drugged'
p8443
tp8444
(lp8445
S'out'
p8446
as(S'wonder'
p8447
tp8448
(lp8449
S'if'
p8450
aS'what'
p8451
aS'why'
p8452
as(S'top'
p8453
tp8454
(lp8455
S'nappy'
p8456
as(S'needing'
p8457
tp8458
(lp8459
g249
as(S'Stop'
p8460
tp8461
(lp8462
S'with'
p8463
as(S'murdered'
p8464
tp8465
(lp8466
S'Fart'
p8467
as(S'budget'
p8468
tp8469
(lp8470
S'KOK'
p8471
as(S'homie'
p8472
tp8473
(lp8474
S'died'
p8475
as(S'So'
p8476
tp8477
(lp8478
S'back'
p8479
aS'when'
p8480
aS'Ima'
p8481
ag146
aS'dance'
p8482
ag146
as(S'meds'
p8483
tp8484
(lp8485
S'And'
p8486
as(S'use'
p8487
tp8488
(lp8489
S'your'
p8490
aS'of'
p8491
as(S'illusion'
p8492
tp8493
(lp8494
S'could'
p8495
as(S'food'
p8496
tp8497
(lp8498
g146
as(S'sold'
p8499
tp8500
(lp8501
S'merch'
p8502
as(S'Cause'
p8503
tp8504
(lp8505
S'at'
p8506
aS'if'
p8507
aS"they've"
p8508
aS'niggas'
p8509
ag249
as(S'fiend'
p8510
tp8511
(lp8512
S'for'
p8513
as(S'Color'
p8514
tp8515
(lp8516
S'white'
p8517
as(S'Parleyed'
p8518
tp8519
(lp8520
S'with'
p8521
as(S'Mean'
p8522
tp8523
(lp8524
g146
as(S'kite'
p8525
tp8526
(lp8527
S'But'
p8528
as(S'ideas'
p8529
tp8530
(lp8531
S'that'
p8532
aS'still'
p8533
as(S'Lindsey'
p8534
tp8535
(lp8536
S'Wiley'
p8537
as(S'bed'
p8538
tp8539
(lp8540
S'time'
p8541
ag146
aS'and'
p8542
as(S"bustin'"
p8543
tp8544
(lp8545
S'You'
p8546
as(S'actual'
p8547
tp8548
(lp8549
S'smoke'
p8550
as(S'pack'
p8551
tp8552
(lp8553
S'on'
p8554
aS'in'
p8555
as(S'grip'
p8556
tp8557
(lp8558
S"I'm"
p8559
as(S'hour'
p8560
tp8561
(lp8562
S'praise'
p8563
aS"I'll"
p8564
as(S'nothing'
p8565
tp8566
(lp8567
S'away'
p8568
aS'away'
p8569
aS'better'
p8570
as(S'stay'
p8571
tp8572
(lp8573
S'at'
p8574
aS'You'
p8575
aS'in'
p8576
aS'in'
p8577
aS'Clean'
p8578
aS'to'
p8579
aS'for'
p8580
aS'on'
p8581
aS'ready'
p8582
as(S'Katie'
p8583
tp8584
(lp8585
S'Couric'
p8586
as(S'cinnamon'
p8587
tp8588
(lp8589
S'Cinnabon'
p8590
as(S'trust'
p8591
tp8592
(lp8593
S'no'
p8594
aS'ya'
p8595
as(S'Santa'
p8596
tp8597
(lp8598
S'invoked'
p8599
as(S'were'
p8600
tp8601
(lp8602
S"thinkin'"
p8603
aS'so'
p8604
aS'always'
p8605
aS'for'
p8606
aS'stuck'
p8607
as(S'trip'
p8608
tp8609
(lp8610
S"'shrooms"
p8611
aS'to'
p8612
aS'And'
p8613
as(S'full'
p8614
tp8615
(lp8616
S'of'
p8617
aS'of'
p8618
as(S'bodied'
p8619
tp8620
(lp8621
S'for'
p8622
as(S'Rollie'
p8623
tp8624
(lp8625
S'call'
p8626
as(S'write'
p8627
tp8628
(lp8629
g249
as(S'recruitment'
p8630
tp8631
(lp8632
S'Our'
p8633
as(S'Gimme'
p8634
tp8635
(lp8636
S'the'
p8637
as(S'stayed'
p8638
tp8639
(lp8640
S'in'
p8641
as(g4131
tp8642
(lp8643
S'proms'
p8644
as(S'Kit-Kat'
p8645
tp8646
(lp8647
S"Don't"
p8648
as(S'dating'
p8649
tp8650
(lp8651
S'Everybody'
p8652
as(S'Rastafari'
p8653
tp8654
(lp8655
S'them'
p8656
as(S'Shoes'
p8657
tp8658
(lp8659
S'might'
p8660
as(S'students'
p8661
tp8662
(lp8663
S'But'
p8664
as(S'YOLO'
p8665
tp8666
(lp8667
S'was'
p8668
as(S'Manor'
p8669
tp8670
(lp8671
S'My'
p8672
as(S'helpless'
p8673
tp8674
(lp8675
g146
as(S'low'
p8676
tp8677
(lp8678
S'end'
p8679
as(S'Southampton'
p8680
tp8681
(lp8682
S'to'
p8683
as(S'open'
p8684
tp8685
(lp8686
S'mic'
p8687
as(S'bleed'
p8688
tp8689
(lp8690
S'on'
p8691
aS'on'
p8692
as(S'worry'
p8693
tp8694
(lp8695
S'little'
p8696
as(S"That's"
p8697
tp8698
(lp8699
S'the'
p8700
aS'not'
p8701
aS'why'
p8702
as(S'loosely'
p8703
tp8704
(lp8705
S'based'
p8706
as(S'three'
p8707
tp8708
(lp8709
S'years'
p8710
aS'retweets'
p8711
as(S'Rolling'
p8712
tp8713
(lp8714
S'in'
p8715
as(S"I'll"
p8716
tp8717
(lp8718
S'prolly'
p8719
aS'be'
p8720
aS'take'
p8721
aS'shoot'
p8722
aS'ash'
p8723
as(S'rap'
p8724
tp8725
(lp8726
S'That'
p8727
aS'Fuck'
p8728
aS'them'
p8729
aS'raps'
p8730
as(S"everything's"
p8731
tp8732
(lp8733
S'good'
p8734
as(S'poke'
p8735
tp8736
(lp8737
S'Lucifer'
p8738
as(S'clouds'
p8739
tp8740
(lp8741
S'like'
p8742
as(S'monkey'
p8743
tp8744
(lp8745
S'guerillas'
p8746
as(S'movies'
p8747
tp8748
(lp8749
S'and'
p8750
aS'and'
p8751
as(S'points'
p8752
tp8753
(lp8754
S'on'
p8755
as(S'sacker'
p8756
tp8757
(lp8758
S'Cocky'
p8759
as(S'tokens'
p8760
tp8761
(lp8762
S'no'
p8763
as(S"they've"
p8764
tp8765
(lp8766
S'never'
p8767
as(S'gate'
p8768
tp8769
(lp8770
S'singing'
p8771
as(S'times'
p8772
tp8773
(lp8774
S'It'
p8775
as(S'Fart'
p8776
tp8777
(lp8778
S'and'
p8779
as(S'shine'
p8780
tp8781
(lp8782
S'no'
p8783
as(S'We'
p8784
tp8785
(lp8786
S'still'
p8787
aS"don't"
p8788
aS"don't"
p8789
aS'used'
p8790
aS'never'
p8791
aS'would'
p8792
aS'just'
p8793
aS"don't"
p8794
aS'used'
p8795
aS"don't"
p8796
aS'used'
p8797
aS'way'
p8798
aS'stuck'
p8799
aS'smoke'
p8800
aS'went'
p8801
aS'went'
p8802
aS'need'
p8803
aS'in'
p8804
aS'invented'
p8805
aS'just'
p8806
as(S'started'
p8807
tp8808
(lp8809
S'missing'
p8810
as(S"isn't"
p8811
tp8812
(lp8813
S'close'
p8814
as(S'change'
p8815
tp8816
(lp8817
S'Wendy'
p8818
aS'my'
p8819
aS'and'
p8820
as(S'threw'
p8821
tp8822
(lp8823
S'him'
p8824
as(S'like'
p8825
tp8826
(lp8827
S'Andr\xc3'
p8828
aS'music'
p8829
aS'Auntie'
p8830
aS'this'
p8831
aS'what'
p8832
aS'real'
p8833
aS'Craig'
p8834
aS"it's"
p8835
ag249
aS'family'
p8836
aS'family'
p8837
aS'dripping'
p8838
aS'pico'
p8839
aS'this'
p8840
ag249
aS'when'
p8841
ag249
aS'Hedwig'
p8842
aS"I'm"
p8843
aS'shhh'
p8844
aS'oowops'
p8845
aS'this'
p8846
aS'Hammer'
p8847
aS"I'm"
p8848
aS'the'
p8849
aS'literally'
p8850
aS'we'
p8851
aS"'92"
p8852
aS"Introducin'"
p8853
aS'bourbon'
p8854
aS'Idi'
p8855
aS'when'
p8856
aS'Trayvon'
p8857
ag146
ag146
ag249
aS"That's"
p8858
aS'Thor'
p8859
aS'that'
p8860
aS'orange'
p8861
aS"daddy's"
p8862
aS'me'
p8863
aS'fuck'
p8864
aS'Gator'
p8865
aS'cinnamon'
p8866
ag249
aS'Cupid'
p8867
aS'books'
p8868
as(S'Steve'
p8869
tp8870
(lp8871
S'giving'
p8872
as(S'would'
p8873
tp8874
(lp8875
S'mow'
p8876
aS'always'
p8877
aS'always'
p8878
aS'you'
p8879
aS'just'
p8880
aS'be'
p8881
aS'think'
p8882
aS'turn'
p8883
aS'fucking'
p8884
aS'follow'
p8885
as(S'so'
p8886
tp8887
(lp8888
S'determined'
p8889
aS'Socks'
p8890
aS'young'
p8891
aS'young'
p8892
aS'Nico'
p8893
aS'forgetful'
p8894
aS'many'
p8895
aS'my'
p8896
aS'long'
p8897
aS'much'
p8898
aS'verse-y'
p8899
aS'my'
p8900
aS'crisp'
p8901
aS'deep'
p8902
aS'minty'
p8903
aS'young'
p8904
aS'right'
p8905
as(S'an'
p8906
tp8907
(lp8908
S'atom'
p8909
aS'actual'
p8910
aS'Uber'
p8911
aS'alley-oop'
p8912
aS'hour'
p8913
aS'Oscar'
p8914
aS'introspective'
p8915
as(S'knack'
p8916
tp8917
(lp8918
S'and'
p8919
as(S'summer'
p8920
tp8921
(lp8922
S"don't"
p8923
aS'Our'
p8924
aS"don't"
p8925
aS'die'
p8926
aS'time'
p8927
as(S'him'
p8928
tp8929
(lp8930
S'But'
p8931
ag146
aS'an'
p8932
aS'do'
p8933
aS'Swallow'
p8934
aS'Pics'
p8935
as(S'high'
p8936
tp8937
(lp8938
S'five'
p8939
aS'Spit'
p8940
aS'school'
p8941
as(S'played'
p8942
tp8943
(lp8944
S'under'
p8945
as(S'scratchin'
p8946
tp8947
(lp8948
S'you'
p8949
as(S'She'
p8950
tp8951
(lp8952
S'like'
p8953
aS"don't"
p8954
aS'always'
p8955
aS"don't"
p8956
aS'just'
p8957
aS"don't"
p8958
aS'putting'
p8959
aS'wake'
p8960
aS"don't"
p8961
aS'used'
p8962
aS'need'
p8963
aS"can't"
p8964
aS'been'
p8965
aS'said'
p8966
aS'got'
p8967
aS'came'
p8968
aS'do'
p8969
aS'like'
p8970
aS'fell'
p8971
aS'met'
p8972
aS'lit'
p8973
as(S'dry'
p8974
tp8975
(lp8976
S"snitchin'"
p8977
as(S'daddy'
p8978
tp8979
(lp8980
S'Said'
p8981
aS'like'
p8982
as(S'worldly'
p8983
tp8984
(lp8985
S'possessions'
p8986
as(S'lie'
p8987
tp8988
(lp8989
S"that's"
p8990
aS'on'
p8991
ag146
aS'And'
p8992
as(S'pre-currency'
p8993
tp8994
(lp8995
S'post-language'
p8996
as(S'milla'
p8997
tp8998
(lp8999
S'When'
p9000
as(S'dimes'
p9001
tp9002
(lp9003
S'and'
p9004
as(S'anyone'
p9005
tp9006
(lp9007
S'from'
p9008
as(S'after'
p9009
tp9010
(lp9011
g4000
aS'Smoke'
p9012
aS'listening'
p9013
as(S'Fold'
p9014
tp9015
(lp9016
S'my'
p9017
as(S'bombest'
p9018
tp9019
(lp9020
S'Lean'
p9021
as(S'Douches'
p9022
tp9023
(lp9024
S'deuce'
p9025
as(S'losing'
p9026
tp9027
(lp9028
S'students'
p9029
as(S'black'
p9030
tp9031
(lp9032
S'life'
p9033
aS'beans'
p9034
aS'But'
p9035
as(S'lose'
p9036
tp9037
(lp9038
S'custody'
p9039
aS'yourself'
p9040
as(S"Rap's"
p9041
tp9042
(lp9043
S'just'
p9044
as(S'D'
p9045
tp9046
(lp9047
S'You'
p9048
aS'Even'
p9049
as(S'How'
p9050
tp9051
(lp9052
S'can'
p9053
aS'many'
p9054
as(S'Asked'
p9055
tp9056
(lp9057
S'Joseph'
p9058
as(S'faith'
p9059
tp9060
(lp9061
S'of'
p9062
as(S'popping'
p9063
tp9064
(lp9065
S'bottles'
p9066
as(S"what's"
p9067
tp9068
(lp9069
S'good'
p9070
aS'good'
p9071
aS'good'
p9072
as(S'queen'
p9073
tp9074
(lp9075
S'You'
p9076
aS'said'
p9077
aS'bed'
p9078
aS'for'
p9079
as(S'papa'
p9080
tp9081
(lp9082
S'she'
p9083
aS'yes'
p9084
as(S'rehearsing'
p9085
tp9086
(lp9087
S'verses'
p9088
as(S'flame'
p9089
tp9090
(lp9091
S'on'
p9092
as(S'Me'
p9093
tp9094
(lp9095
S'and'
p9096
as(S'trying'
p9097
tp9098
(lp9099
S'to'
p9100
aS'to'
p9101
as(S'stupid'
p9102
tp9103
(lp9104
S'shit'
p9105
as(S'goodbyes'
p9106
tp9107
(lp9108
g146
as(S'dollars'
p9109
tp9110
(lp9111
S'and'
p9112
as(S'feet'
p9113
tp9114
(lp9115
S'and'
p9116
as(S'Who'
p9117
tp9118
(lp9119
S'smokin'
p9120
as(S'dreamer'
p9121
tp9122
(lp9123
S'Held'
p9124
as(S'Advils'
p9125
tp9126
(lp9127
S"I'm"
p9128
as(S'lift'
p9129
tp9130
(lp9131
S'it'
p9132
as(S'Tryna'
p9133
tp9134
(lp9135
S'turn'
p9136
as(S'Cinnabon'
p9137
tp9138
(lp9139
S'Keep'
p9140
as(S'thots'
p9141
tp9142
(lp9143
g146
as(S'Replay'
p9144
tp9145
(lp9146
S'the'
p9147
as(S'sentiments'
p9148
tp9149
(lp9150
S'down'
p9151
as(S'Keep'
p9152
tp9153
(lp9154
g249
aS'my'
p9155
aS'all'
p9156
as(S'can'
p9157
tp9158
(lp9159
S'keep'
p9160
aS'hear'
p9161
aS'hear'
p9162
aS'really'
p9163
aS'they'
p9164
aS'have'
p9165
aS'keep'
p9166
aS'do'
p9167
aS'They'
p9168
aS'be'
p9169
aS'sang'
p9170
aS'do'
p9171
as(S'tripped'
p9172
tp9173
(lp9174
S'acid'
p9175
as(S'boot'
p9176
tp9177
(lp9178
S'cha'
p9179
as(S'Pac'
p9180
tp9181
(lp9182
S'Blue'
p9183
as(S'Fat'
p9184
tp9185
(lp9186
S'Trel'
p9187
as(S'Clean'
p9188
tp9189
(lp9190
S'up'
p9191
as(S'guess'
p9192
tp9193
(lp9194
S"that's"
p9195
as(S'Why'
p9196
tp9197
(lp9198
S'would'
p9199
aS'did'
p9200
aS'you'
p9201
aS'toss'
p9202
as(S'pussy'
p9203
tp9204
(lp9205
S'get'
p9206
aS'like'
p9207
as(S'looked'
p9208
tp9209
(lp9210
S'back'
p9211
as(S'cape'
p9212
tp9213
(lp9214
S'on'
p9215
aS'and'
p9216
as(S'homegirls'
p9217
tp9218
(lp9219
S'got'
p9220
as(S'AKA'
p9221
tp9222
(lp9223
S'Mr'
p9224
as(S'save'
p9225
tp9226
(lp9227
S'monkey'
p9228
as(S'invented'
p9229
tp9230
(lp9231
S'rock'
p9232
as(S'saw'
p9233
tp9234
(lp9235
S'it'
p9236
as(S'lazy'
p9237
tp9238
(lp9239
S'And'
p9240
as(S"Chatham's"
p9241
tp9242
(lp9243
S'own'
p9244
as(S'Fetty'
p9245
tp9246
(lp9247
S'sing'
p9248
as(S'fam'
p9249
tp9250
(lp9251
S"What's"
p9252
aS"What's"
p9253
as(S'joint'
p9254
tp9255
(lp9256
S'gotta'
p9257
aS'From'
p9258
aS'wanna'
p9259
aS'Old'
p9260
aS'Why'
p9261
as(S'Not'
p9262
tp9263
(lp9264
S'me'
p9265
as(S'quarter'
p9266
tp9267
(lp9268
S'Watch'
p9269
aS'was'
p9270
as(S'Buenos'
p9271
tp9272
(lp9273
S'Aires'
p9274
as(S'White'
p9275
tp9276
(lp9277
S'Owls'
p9278
as(S'exes'
p9279
tp9280
(lp9281
S'keep'
p9282
as(S'dresses'
p9283
tp9284
(lp9285
S'Wore'
p9286
as(S'peyote'
p9287
tp9288
(lp9289
S'wilding'
p9290
as(S'sole'
p9291
tp9292
(lp9293
S'And'
p9294
as(S'cigarettes'
p9295
tp9296
(lp9297
S'to'
p9298
as(S'Donnie'
p9299
tp9300
(lp9301
g249
as(S'Nanana'
p9302
tp9303
(lp9304
S'hey'
p9305
as(S'dude'
p9306
tp9307
(lp9308
S'mumble'
p9309
aS'but'
p9310
aS'you'
p9311
as(S'bang'
p9312
tp9313
(lp9314
S'nigga'
p9315
aS'Twerk'
p9316
aS'bang'
p9317
ag2603
aS'with'
p9318
aS'bang'
p9319
aS'yelling'
p9320
aS'But'
p9321
as(S'Vagabond'
p9322
tp9323
(lp9324
S'Rapper'
p9325
as(S'Arguments'
p9326
tp9327
(lp9328
S'as'
p9329
as(S'Houston'
p9330
tp9331
(lp9332
S'like'
p9333
as(S'palette'
p9334
tp9335
(lp9336
S"talkin'"
p9337
as(S'enough'
p9338
tp9339
(lp9340
S'And'
p9341
aS'to'
p9342
as(S'tippy'
p9343
tp9344
(lp9345
S'toes'
p9346
as(S'molly'
p9347
tp9348
(lp9349
S'its'
p9350
as(S'shorties'
p9351
tp9352
(lp9353
S'lie'
p9354
as(S'As'
p9355
tp9356
(lp9357
S'you'
p9358
aS'long'
p9359
aS'of'
p9360
as(S'asking'
p9361
tp9362
(lp9363
S'for'
p9364
aS'for'
p9365
aS'God'
p9366
aS'God'
p9367
as(S'dawn'
p9368
tp9369
(lp9370
S'She'
p9371
aS"It's"
p9372
as(S'shit'
p9373
tp9374
(lp9375
S'sound'
p9376
aS'to'
p9377
aS'and'
p9378
ag146
aS'jam'
p9379
aS'They'
p9380
aS'batch'
p9381
aS'Who'
p9382
aS'to'
p9383
aS'goes'
p9384
aS'behind'
p9385
aS'its'
p9386
aS"Rappin'"
p9387
aS'that'
p9388
as(S'Been'
p9389
tp9390
(lp9391
S'paid'
p9392
as(S'Is'
p9393
tp9394
(lp9395
S'you'
p9396
aS'the'
p9397
aS'hitting'
p9398
aS'dialing'
p9399
as(S'napalm'
p9400
tp9401
(lp9402
S'Trippy'
p9403
as(S'verses'
p9404
tp9405
(lp9406
S'seem'
p9407
aS"I'm"
p9408
aS'murdering'
p9409
as(S"packin'"
p9410
tp9411
(lp9412
S'bags'
p9413
as(S"hurtin'"
p9414
tp9415
(lp9416
S'bleedin'
p9417
as(S'Stand'
p9418
tp9419
(lp9420
S'Up\xe2'
p9421
as(S'me'
p9422
tp9423
(lp9424
S'these'
p9425
ag146
aS'some'
p9426
aS'come'
p9427
aS'though'
p9428
aS'into'
p9429
aS'into'
p9430
ag249
aS'but'
p9431
aS'though'
p9432
aS'though'
p9433
aS'though'
p9434
aS'to'
p9435
ag146
aS'take'
p9436
aS'turn'
p9437
ag146
aS'too'
p9438
aS'apple'
p9439
aS'feel'
p9440
aS'Only'
p9441
aS'break'
p9442
aS'my'
p9443
ag249
aS'twisted'
p9444
aS'to'
p9445
aS'some'
p9446
aS'but'
p9447
ag146
aS'Mister'
p9448
aS'anxious'
p9449
aS'crazy'
p9450
aS'looser'
p9451
aS'lazy'
p9452
aS'better'
p9453
aS'flexing'
p9454
aS'Chancelor'
p9455
aS'So'
p9456
aS'You'
p9457
aS'equals'
p9458
aS'my'
p9459
aS'off'
p9460
aS'back'
p9461
aS'not'
p9462
aS'hoping'
p9463
aS'But'
p9464
aS'Two'
p9465
aS'Used'
p9466
aS'Put'
p9467
aS'Oh'
p9468
ag146
aS'My'
p9469
aS'how'
p9470
aS'one'
p9471
aS'Daddy'
p9472
aS'If'
p9473
aS'smoke'
p9474
aS'mad'
p9475
aS'bogus'
p9476
aS'know'
p9477
aS'her'
p9478
aS'up'
p9479
aS'to'
p9480
aS'Introduced'
p9481
aS'to'
p9482
as(S'Brown'
p9483
tp9484
(lp9485
g146
as(S'singer'
p9486
tp9487
(lp9488
S'suspended'
p9489
as(S'today'
p9490
tp9491
(lp9492
S'They'
p9493
as(S'Swishers'
p9494
tp9495
(lp9496
S'Mama'
p9497
as(S'Wonder'
p9498
tp9499
(lp9500
S'if'
p9501
as(S'scared'
p9502
tp9503
(lp9504
S'to'
p9505
aS'of'
p9506
aS'of'
p9507
as(S'kissed'
p9508
tp9509
(lp9510
S'Va'
p9511
as(S'Flip'
p9512
tp9513
(lp9514
g249
aS'the'
p9515
as(S'she'
p9516
tp9517
(lp9518
S'from'
p9519
aS'ever'
p9520
aS'heard'
p9521
aS'jog'
p9522
aS'carry'
p9523
aS'carry'
p9524
aS'packing'
p9525
aS'involved'
p9526
aS'popped'
p9527
aS'said'
p9528
aS'know'
p9529
aS'left'
p9530
aS'just'
p9531
aS'let'
p9532
aS'knew'
p9533
aS'saved'
p9534
as(S'Rice'
p9535
tp9536
(lp9537
S'under'
p9538
as(S'lot'
p9539
tp9540
(lp9541
S'Down'
p9542
ag146
aS'off'
p9543
aS'of'
p9544
aS'of'
p9545
as(S'mixture'
p9546
tp9547
(lp9548
S'with'
p9549
as(S'science'
p9550
tp9551
(lp9552
g146
as(S'sometimes'
p9553
tp9554
(lp9555
S'See'
p9556
as(S'chance'
p9557
tp9558
(lp9559
S'LA'
p9560
aS'joint'
p9561
as(S'holiest'
p9562
tp9563
(lp9564
S'thing'
p9565
as(S'been'
p9566
tp9567
(lp9568
g249
aS'smoking'
p9569
aS'like'
p9570
aS'lying'
p9571
aS'getting'
p9572
aS'in'
p9573
aS'classy'
p9574
aS'myself'
p9575
aS'weak'
p9576
aS'they'
p9577
aS'scratchin'
p9578
aS'fiendin'
p9579
ag249
as(S'five'
p9580
tp9581
(lp9582
S'everybody'
p9583
as(S'gums'
p9584
tp9585
(lp9586
S'If'
p9587
aS'Minus'
p9588
as(S'pieces'
p9589
tp9590
(lp9591
S'sing'
p9592
as(S'Nitty'
p9593
tp9594
(lp9595
S'fuck'
p9596
aS'the'
p9597
aS'told'
p9598
as(S'inside'
p9599
tp9600
(lp9601
g249
aS'my'
p9602
as(S'Timmy'
p9603
tp9604
(lp9605
S'Tommy'
p9606
as(S'dumb'
p9607
tp9608
(lp9609
S'This'
p9610
as(S'plastic'
p9611
tp9612
(lp9613
g146
as(S'Ducked'
p9614
tp9615
(lp9616
S'down'
p9617
as(S'bags'
p9618
tp9619
(lp9620
S'back'
p9621
as(S'slow'
p9622
tp9623
(lp9624
S'me'
p9625
aS'down'
p9626
as(S'Early'
p9627
tp9628
(lp9629
S'The'
p9630
as(S'who'
p9631
tp9632
(lp9633
S'would'
p9634
aS'lived'
p9635
aS'believed'
p9636
aS'he'
p9637
as(S'lost'
p9638
tp9639
(lp9640
S'in'
p9641
aS'your'
p9642
aS'in'
p9643
aS'in'
p9644
aS'kite'
p9645
aS'my'
p9646
as(S'Chano'
p9647
tp9648
(lp9649
S'AKA'
p9650
aS"Chatham's"
p9651
as(S'Running'
p9652
tp9653
(lp9654
S'water'
p9655
as(S"snitchin'"
p9656
tp9657
(lp9658
S'Chance'
p9659
as(S'seen'
p9660
tp9661
(lp9662
S'dollar'
p9663
ag249
aS'Casino'
p9664
aS'it'
p9665
aS'it'
p9666
aS'the'
p9667
as(S'team'
p9668
tp9669
(lp9670
S'up'
p9671
aS'Smoking'
p9672
as(S'Money'
p9673
tp9674
(lp9675
S'militia'
p9676
as(S'force'
p9677
tp9678
(lp9679
S'to'
p9680
as(S'worse'
p9681
tp9682
(lp9683
S'than'
p9684
as(S'dial'
p9685
tp9686
(lp9687
S'call'
p9688
as(S'dirt'
p9689
tp9690
(lp9691
S'on'
p9692
aS"that's"
p9693
as(S'Yeah'
p9694
tp9695
(lp9696
S'nigga'
p9697
ag146
aS'me'
p9698
aS'me'
p9699
aS'yeah'
p9700
aS'she'
p9701
as(S'addicted'
p9702
tp9703
(lp9704
S'to'
p9705
as(S'frolicking'
p9706
tp9707
(lp9708
S'follies'
p9709
as(S'lightning'
p9710
tp9711
(lp9712
S'bugs'
p9713
as(S'safari'
p9714
tp9715
(lp9716
S'mi'
p9717
as(S'Hash'
p9718
tp9719
(lp9720
S'tag'
p9721
as(S'Confucius'
p9722
tp9723
(lp9724
S'Nasty'
p9725
as(S'anxious'
p9726
tp9727
(lp9728
S'and'
p9729
as(S'BO'
p9730
tp9731
(lp9732
S'Squad'
p9733
as(S'verse-y'
p9734
tp9735
(lp9736
S'And'
p9737
as(S'City'
p9738
tp9739
(lp9740
S'on'
p9741
as(S'life'
p9742
tp9743
(lp9744
S'is'
p9745
aS"ain't"
p9746
aS'The'
p9747
as(S'why'
p9748
tp9749
(lp9750
S'they'
p9751
aS'we'
p9752
ag146
aS'my'
p9753
aS'you'
p9754
ag146
as(S'ugh'
p9755
tp9756
(lp9757
S'Good'
p9758
as(g4298
tp9759
(lp9760
S"Cheese's"
p9761
as(S'often'
p9762
tp9763
(lp9764
S'that'
p9765
as(S'as'
p9766
tp9767
(lp9768
S'fuck'
p9769
aS'entrusted'
p9770
aS'friends'
p9771
aS'parents'
p9772
aS'soft'
p9773
aS"momma's"
p9774
ag146
ag249
ag249
as(S'kill'
p9775
tp9776
(lp9777
S"'em"
p9778
as(S'blood'
p9779
tp9780
(lp9781
S'on'
p9782
as(S'entrusted'
p9783
tp9784
(lp9785
S'me'
p9786
as(S"I'mma"
p9787
tp9788
(lp9789
S'get'
p9790
aS'make'
p9791
aS'still'
p9792
aS'fix'
p9793
aS'fuck'
p9794
aS'get'
p9795
as(S'fall'
p9796
tp9797
(lp9798
S'in'
p9799
aS'like'
p9800
aS'shorter'
p9801
as(S'grade'
p9802
tp9803
(lp9804
S"I'd"
p9805
aS'This'
p9806
as(S'sip'
p9807
tp9808
(lp9809
S'drank'
p9810
aS'any'
p9811
aS'Til'
p9812
as(S'is'
p9813
tp9814
(lp9815
S'perfect'
p9816
aS'like'
p9817
aS'the'
p9818
aS'the'
p9819
aS'the'
p9820
aS'officially'
p9821
aS'the'
p9822
aS'happy'
p9823
aS'the'
p9824
aS'the'
p9825
aS'talk'
p9826
aS'or'
p9827
aS'you'
p9828
aS'shoes'
p9829
aS'Matt'
p9830
aS'pretty'
p9831
aS'to'
p9832
aS'lucid'
p9833
aS'you'
p9834
aS'that'
p9835
aS'beautiful'
p9836
aS'lowkey'
p9837
aS'spit'
p9838
aS'all'
p9839
aS'sending'
p9840
aS'falling'
p9841
aS"ballin'"
p9842
aS'actually'
p9843
aS'feeding'
p9844
aS'missing'
p9845
aS"hollerin'"
p9846
as(S'Casino'
p9847
tp9848
(lp9849
g146
as(S"It's"
p9850
tp9851
(lp9852
S'been'
p9853
aS'too'
p9854
aS'harmless'
p9855
aS'fried'
p9856
aS'just'
p9857
as(S'not'
p9858
tp9859
(lp9860
S'mess'
p9861
aS'talk'
p9862
ag249
ag146
aS'believing'
p9863
aS'breathing'
p9864
aS'that'
p9865
aS'so'
p9866
aS'your'
p9867
aS'cool'
p9868
as(S'dead'
p9869
tp9870
(lp9871
S'from'
p9872
as(S'kings'
p9873
tp9874
(lp9875
S'This'
p9876
aS'believe'
p9877
as(S'Thor'
p9878
tp9879
(lp9880
S'lil'
p9881
as(S'shooting'
p9882
tp9883
(lp9884
S'Summer'
p9885
aS'whether'
p9886
as(S'with'
p9887
tp9888
(lp9889
S'Kanye'
p9890
aS'the'
p9891
aS'you'
p9892
aS'the'
p9893
aS'Krillin'
p9894
ag249
aS'the'
p9895
aS'my'
p9896
ag249
ag249
aS'Keef'
p9897
aS'me'
p9898
aS'cooties'
p9899
aS'Malachi'
p9900
aS'swords'
p9901
ag249
aS'the'
p9902
aS'my'
p9903
aS'friends'
p9904
aS'crucifix'
p9905
aS'cracked'
p9906
aS'shawty'
p9907
aS'all'
p9908
aS'Troy'
p9909
aS'road'
p9910
aS'the'
p9911
ag249
ag249
aS'fifths'
p9912
ag249
aS'you'
p9913
aS'you'
p9914
aS'you'
p9915
aS'you'
p9916
aS'Ashley'
p9917
aS'jack'
p9918
aS'that'
p9919
aS'that'
p9920
aS'that'
p9921
aS"'Bino"
p9922
aS'Cheese'
p9923
aS'you'
p9924
aS'Timmy'
p9925
aS'all'
p9926
aS'the'
p9927
ag146
aS'the'
p9928
aS'two'
p9929
ag249
aS'his'
p9930
aS'your'
p9931
aS'packs'
p9932
ag249
as(S'mother'
p9933
tp9934
(lp9935
S'If'
p9936
aS'Get'
p9937
as(S'hug'
p9938
tp9939
(lp9940
S'me'
p9941
as(S'fields'
p9942
tp9943
(lp9944
S'of'
p9945
aS'of'
p9946
as(S'months'
p9947
tp9948
(lp9949
S'end'
p9950
as(S'get'
p9951
tp9952
(lp9953
S'my'
p9954
aS'to'
p9955
aS'no'
p9956
aS'in'
p9957
aS'in'
p9958
aS'shortness'
p9959
aS'it'
p9960
aS'in'
p9961
aS'the'
p9962
aS'old'
p9963
aS'lost'
p9964
aS'lost'
p9965
aS'to'
p9966
aS'this'
p9967
aS'cold'
p9968
aS'Katie'
p9969
aS'herpes'
p9970
aS'lupus'
p9971
aS'raspy'
p9972
aS'it'
p9973
aS'murdered'
p9974
aS'bitch-slapped'
p9975
aS'my'
p9976
aS'picked'
p9977
aS'sick'
p9978
aS'rich'
p9979
aS'millions'
p9980
aS'jealous'
p9981
aS'suspended'
p9982
aS'mentions'
p9983
aS'it'
p9984
aS'found'
p9985
aS'rid'
p9986
aS'higher'
p9987
as(S'face'
p9988
tp9989
(lp9990
S'that'
p9991
aS'in'
p9992
aS"that's"
p9993
aS'And'
p9994
aS'Okie'
p9995
as(S'album'
p9996
tp9997
(lp9998
g146
aS'feel'
p9999
as(S'Summer'
p10000
tp10001
(lp10002
S'school'
p10003
as(S'stand-in'
p10004
tp10005
(lp10006
g146
as(S'tweak'
p10007
tp10008
(lp10009
S'bro'
p10010
as(S'sound'
p10011
tp10012
(lp10013
S'like'
p10014
aS'like'
p10015
aS'like'
p10016
aS"I'm"
p10017
as(S'mud'
p10018
tp10019
(lp10020
S'Rolling'
p10021
as(S'flips'
p10022
tp10023
(lp10024
S'When'
p10025
as(S'fucker'
p10026
tp10027
(lp10028
S'fuck'
p10029
as(S'beans'
p10030
tp10031
(lp10032
S'Walked'
p10033
as(S'seat'
p10034
tp10035
(lp10036
S"It's"
p10037
aS'come'
p10038
aS'ay'
p10039
aS"she'll"
p10040
aS'Now'
p10041
as(S'ash'
p10042
tp10043
(lp10044
S'my'
p10045
as(S'dialing'
p10046
tp10047
(lp10048
S'up'
p10049
as(S'forth'
p10050
tp10051
(lp10052
S'with'
p10053
as(S'hoopers'
p10054
tp10055
(lp10056
S'dead'
p10057
as(S'door'
p10058
tp10059
(lp10060
S'Told'
p10061
aS'Last'
p10062
as(S'shitty'
p10063
tp10064
(lp10065
S'Mac'
p10066
as(S'Fucked'
p10067
tp10068
(lp10069
S'up'
p10070
as(S'family'
p10071
tp10072
(lp10073
S'members'
p10074
aS'members'
p10075
aS'He'
p10076
as(S"killin'"
p10077
tp10078
(lp10079
S'in'
p10080
as(S'eyed'
p10081
tp10082
(lp10083
S'kids'
p10084
as(S"killer's"
p10085
tp10086
(lp10087
S'Phone'
p10088
as(S'cheeses'
p10089
tp10090
(lp10091
S'And'
p10092
as(S'Come'
p10093
tp10094
(lp10095
S'Up'
p10096
as(S'school'
p10097
tp10098
(lp10099
S'get'
p10100
aS'It'
p10101
ag146
aS'Damn'
p10102
aS'And'
p10103
aS'for'
p10104
as(S'empty'
p10105
tp10106
(lp10107
S'hallways'
p10108
aS'alley'
p10109
aS'You'
p10110
as(S'proof'
p10111
tp10112
(lp10113
S'get'
p10114
as(S'share'
p10115
tp10116
(lp10117
S'my'
p10118
as(S'Kna'
p10119
tp10120
(lp10121
S'Wha'
p10122
as(S'shadow'
p10123
tp10124
(lp10125
S'of'
p10126
aS'of'
p10127
as(S'small'
p10128
tp10129
(lp10130
S'point'
p10131
as(S'then'
p10132
tp10133
(lp10134
S'Ice'
p10135
aS'when'
p10136
aS'piggy'
p10137
aS'act'
p10138
aS'everybody'
p10139
aS'everybody'
p10140
as(S'any'
p10141
tp10142
(lp10143
S'Henny'
p10144
as(S'ordered'
p10145
tp10146
(lp10147
S'my'
p10148
as(S'blocked'
p10149
tp10150
(lp10151
S'just'
p10152
as(S'Labels'
p10153
tp10154
(lp10155
S'told'
p10156
as(S'girls'
p10157
tp10158
(lp10159
S'is'
p10160
as(S'bean'
p10161
tp10162
(lp10163
S'head'
p10164
as(S'believed'
p10165
tp10166
(lp10167
S'in'
p10168
aS'in'
p10169
as(S'harness'
p10170
tp10171
(lp10172
S'you'
p10173
as(S'senior'
p10174
tp10175
(lp10176
S'And'
p10177
aS'And'
p10178
as(S'lessons'
p10179
tp10180
(lp10181
S'from'
p10182
as(S"can't"
p10183
tp10184
(lp10185
S'hurt'
p10186
aS'make'
p10187
aS'really'
p10188
aS'be'
p10189
aS'rely'
p10190
aS'be'
p10191
aS'complain'
p10192
aS'find'
p10193
aS'even'
p10194
as(S'from'
p10195
tp10196
(lp10197
S'Houston'
p10198
aS'the'
p10199
aS'the'
p10200
aS'my'
p10201
aS'Southampton'
p10202
aS'God'
p10203
aS'White'
p10204
aS'joints'
p10205
aS'the'
p10206
aS'Space'
p10207
aS'childhood'
p10208
aS'all'
p10209
aS'broken'
p10210
aS'Rugers'
p10211
as(S'flirt'
p10212
tp10213
(lp10214
S'Cause'
p10215
as(S'butlers'
p10216
tp10217
(lp10218
S'chauffeurs'
p10219
as(S'Playing'
p10220
tp10221
(lp10222
S'Buenos'
p10223
as(S'launcher'
p10224
tp10225
(lp10226
S'Shake'
p10227
as(S'must'
p10228
tp10229
(lp10230
S'have'
p10231
aS'be'
p10232
aS'be'
p10233
as(S've'
p10234
tp10235
(lp10236
S'missed'
p10237
as(S'Wiley'
p10238
tp10239
(lp10240
S'up'
p10241
aS'Kembe'
p10242
as(S"talkin'"
p10243
tp10244
(lp10245
S'paper'
p10246
as(S'ever'
p10247
tp10248
(lp10249
S'find'
p10250
aS'sold'
p10251
aS'since'
p10252
aS'actually'
p10253
aS'seen'
p10254
aS'met'
p10255
aS'met'
p10256
as(S'lupus'
p10257
tp10258
(lp10259
S'Deuces'
p10260
as(S'invoked'
p10261
tp10262
(lp10263
S'and'
p10264
as(S'forgetting'
p10265
tp10266
(lp10267
S'my'
p10268
as(S'LA'
p10269
tp10270
(lp10271
S'for'
p10272
as(S'diagonal'
p10273
tp10274
(lp10275
S'grilled'
p10276
as(S'bros'
p10277
tp10278
(lp10279
S'Trapped'
p10280
as(S'Let'
p10281
tp10282
(lp10283
S'me'
p10284
as(S'Deuces'
p10285
tp10286
(lp10287
S'Douches'
p10288
as(S'The'
p10289
tp10290
(lp10291
S'past'
p10292
aS'Rink'
p10293
aS'book'
p10294
aS'type'
p10295
aS'boy'
p10296
aS"people's"
p10297
aS'Rapper'
p10298
aS'Rapper'
p10299
aS'album'
p10300
aS'richest'
p10301
aS'most'
p10302
aS'popped'
p10303
aS'time'
p10304
aS'same'
p10305
as(S'tobacco-packing'
p10306
tp10307
(lp10308
S'acrobat'
p10309
as(S'Vagabonds'
p10310
tp10311
(lp10312
S'Sang'
p10313
as(S'Dying'
p10314
tp10315
(lp10316
S'laughing'
p10317
as(S'Pad'
p10318
tp10319
(lp10320
S'my'
p10321
as(S'cracked'
p10322
tp10323
(lp10324
S'screens'
p10325
as(S'bitch'
p10326
tp10327
(lp10328
S'you'
p10329
aS'do'
p10330
ag146
aS'my'
p10331
aS'break'
p10332
aS'Zan'
p10333
aS'zan'
p10334
aS'Zen'
p10335
aS'but'
p10336
aS'niggas'
p10337
aS'in'
p10338
as(S'prolly'
p10339
tp10340
(lp10341
S'cry'
p10342
as(S'Endless'
p10343
tp10344
(lp10345
S'fields'
p10346
as(S'Pro-famous'
p10347
tp10348
(lp10349
S"I'm"
p10350
as(S'mow'
p10351
tp10352
(lp10353
S'some'
p10354
as(S'appealing'
p10355
tp10356
(lp10357
S'to'
p10358
as(S'here'
p10359
tp10360
(lp10361
S'When'
p10362
aS'to'
p10363
aS'Why'
p10364
aS'Where'
p10365
aS'Probably'
p10366
aS"They'll"
p10367
aS"it's"
p10368
aS'to'
p10369
aS'Might'
p10370
as(S'flexing'
p10371
tp10372
(lp10373
S'my'
p10374
as(S'kiwi'
p10375
tp10376
(lp10377
S'Mistic'
p10378
as(S'bales'
p10379
tp10380
(lp10381
S'right'
p10382
as(S"'em"
p10383
tp10384
(lp10385
S'shake'
p10386
aS'with'
p10387
aS'for'
p10388
ag249
ag146
aS'young'
p10389
as(S'Drake'
p10390
tp10391
(lp10392
S'but'
p10393
as(S'Better'
p10394
tp10395
(lp10396
S'bet'
p10397
as(S'snapping'
p10398
tp10399
(lp10400
S'clap'
p10401
as(S'Twerk'
p10402
tp10403
(lp10404
S'twerk'
p10405
as(S'know'
p10406
tp10407
(lp10408
S"wha'"
p10409
aS'you'
p10410
ag146
aS'them'
p10411
aS'the'
p10412
aS'none'
p10413
aS'none'
p10414
aS'me'
p10415
aS'everything'
p10416
aS'you'
p10417
aS'she'
p10418
aS'she'
p10419
aS'he'
p10420
aS'some'
p10421
aS'What'
p10422
aS'Her'
p10423
aS'that'
p10424
aS'you'
p10425
aS'you'
p10426
aS'Yeah'
p10427
aS'who'
p10428
as(S'hurricane'
p10429
tp10430
(lp10431
S'here'
p10432
as(S'over'
p10433
tp10434
(lp10435
S'time'
p10436
as(S'Just'
p10437
tp10438
(lp10439
S'here'
p10440
as(S'chewing'
p10441
tp10442
(lp10443
S'Vicodin'
p10444
as(S'hoover'
p10445
tp10446
(lp10447
S'could'
p10448
as(S'From'
p10449
tp10450
(lp10451
S"peelin'"
p10452
aS'your'
p10453
aS'an'
p10454
as(S'Her'
p10455
tp10456
(lp10457
S'friends'
p10458
aS'pussy'
p10459
as(S'juice'
p10460
tp10461
(lp10462
S'spill'
p10463
aS'nigga'
p10464
aS'spill'
p10465
aS'Damn'
p10466
as(S'paper'
p10467
tp10468
(lp10469
S'good'
p10470
aS'if'
p10471
aS'Tripped'
p10472
ag146
aS'is'
p10473
as(S'tongue'
p10474
tp10475
(lp10476
S'Keep'
p10477
as(S'sheep'
p10478
tp10479
(lp10480
S'that'
p10481
as(S'Do-si-do'
p10482
tp10483
(lp10484
S"'Til"
p10485
as(S'worth'
p10486
tp10487
(lp10488
S'hooks'
p10489
as(S'lying'
p10490
tp10491
(lp10492
S'to'
p10493
as(S'dubs'
p10494
tp10495
(lp10496
S'Is'
p10497
as(S'has'
p10498
tp10499
(lp10500
S'ordered'
p10501
as(S'yeah'
p10502
tp10503
(lp10504
S'my'
p10505
aS"let's"
p10506
aS'yeah'
p10507
aS'yeah'
p10508
aS'yeah'
p10509
aS'me'
p10510
as(S'seem'
p10511
tp10512
(lp10513
S'not'
p10514
as(S'board'
p10515
tp10516
(lp10517
S'yes'
p10518
as(S'believe'
p10519
tp10520
(lp10521
S'in'
p10522
aS'in'
p10523
aS'in'
p10524
aS'in'
p10525
aS'in'
p10526
as(S'did'
p10527
tp10528
(lp10529
S'Deebo'
p10530
aS'you'
p10531
aS'you'
p10532
aS'you'
p10533
aS'you'
p10534
aS'you'
p10535
aS'you'
p10536
ag146
aS'better'
p10537
aS'it'
p10538
aS'it'
p10539
aS'it'
p10540
ag249
ag249
aS'the'
p10541
as(S'best'
p10542
tp10543
(lp10544
S'prodigy'
p10545
as(S'collapsing'
p10546
tp10547
(lp10548
S'they'
p10549
as(S'down'
p10550
tp10551
(lp10552
S"it's"
p10553
aS'in'
p10554
aS'for'
p10555
aS'ooh'
p10556
aS'to'
p10557
aS'my'
p10558
aS'to'
p10559
aS"I'm"
p10560
as(S'drown'
p10561
tp10562
(lp10563
S'in'
p10564
as(S'brick'
p10565
tp10566
(lp10567
S'and'
p10568
as(S'Wendy'
p10569
tp10570
(lp10571
S"you've"
p10572
aS'got'
p10573
as(S'half'
p10574
tp10575
(lp10576
S"There's"
p10577
as(S'wall'
p10578
tp10579
(lp10580
S"I'm"
p10581
as(S'hates'
p10582
tp10583
(lp10584
S'the'
p10585
as(S'dinero'
p10586
tp10587
(lp10588
S'you'
p10589
as(S'hopping'
p10590
tp10591
(lp10592
S"heaven's"
p10593
as(S"ID'd"
p10594
tp10595
(lp10596
S'for'
p10597
as(S'followers'
p10598
tp10599
(lp10600
S'is'
p10601
as(S'Ima'
p10602
tp10603
(lp10604
S'tell'
p10605
as(S'milk'
p10606
tp10607
(lp10608
S'in'
p10609
aS"don't"
p10610
as(S'htie'
p10611
tp10612
(lp10613
S'Parleyed'
p10614
as(g2603
tp10615
(lp10616
S'skeet'
p10617
aS'young'
p10618
as(S'job'
p10619
tp10620
(lp10621
S'you'
p10622
aS'And'
p10623
as(S'intro'
p10624
tp10625
(lp10626
S'this'
p10627
aS'with'
p10628
aS'Remember'
p10629
as(S'plague'
p10630
tp10631
(lp10632
S'hit'
p10633
as(S'kna'
p10634
tp10635
(lp10636
S"wha'"
p10637
as(S'guy'
p10638
tp10639
(lp10640
g146
as(S'Legit\xe2'
p10641
tp10642
(lp10643
g146
as(S'Cigarette'
p10644
tp10645
(lp10646
S'stained'
p10647
as(S'enemy'
p10648
tp10649
(lp10650
S'like'
p10651
as(S'rely'
p10652
tp10653
(lp10654
S'on'
p10655
as(S'Magnify'
p10656
tp10657
(lp10658
S'magnify'
p10659
as(S'gas'
p10660
tp10661
(lp10662
S'oh'
p10663
aS'money'
p10664
aS'leaks'
p10665
as(S'gimme'
p10666
tp10667
(lp10668
S'the'
p10669
as(S'build'
p10670
tp10671
(lp10672
S'Oh'
p10673
ag249
as(S'Reclining'
p10674
tp10675
(lp10676
S'on'
p10677
as(S'artsy-fartsy'
p10678
tp10679
(lp10680
S'house'
p10681
as(S'past'
p10682
tp10683
(lp10684
S'tense'
p10685
aS'bed'
p10686
as(S'pour'
p10687
tp10688
(lp10689
S'and'
p10690
as(S'JJ'
p10691
tp10692
(lp10693
S'Mikey'
p10694
as(S'type'
p10695
tp10696
(lp10697
S'of'
p10698
as(S'Idi'
p10699
tp10700
(lp10701
S'Amin'
p10702
as(S'fucking'
p10703
tp10704
(lp10705
S'pure'
p10706
aS'bomb'
p10707
aS'dumb'
p10708
aS'album'
p10709
aS'done'
p10710
aS'parking'
p10711
aS'bombest'
p10712
aS'hug'
p10713
as(S'James'
p10714
tp10715
(lp10716
S'Early'
p10717
as(S'lending'
p10718
tp10719
(lp10720
S'them'
p10721
as(S'better'
p10722
tp10723
(lp10724
S'mother'
p10725
aS'love'
p10726
aS'as'
p10727
aS'watch'
p10728
aS'than'
p10729
aS'Kicking'
p10730
aS'when'
p10731
aS'than'
p10732
aS'than'
p10733
aS'than'
p10734
aS'than'
p10735
aS'than'
p10736
aS'than'
p10737
aS'than'
p10738
aS'than'
p10739
aS'than'
p10740
aS'than'
p10741
aS'than'
p10742
aS'than'
p10743
aS'than'
p10744
as(S'Ten'
p10745
tp10746
(lp10747
S'damn'
p10748
as(S'concrete'
p10749
tp10750
(lp10751
S'jolly'
p10752
as(S'turned'
p10753
tp10754
(lp10755
S'older'
p10756
as(S'shorty'
p10757
tp10758
(lp10759
g146
as(S"I'm"
p10760
tp10761
(lp10762
S'so'
p10763
aS'at'
p10764
aS'the'
p10765
aS'ready'
p10766
aS'at'
p10767
aS'writing'
p10768
ag249
aS'feeling'
p10769
aS'the'
p10770
aS'still'
p10771
aS'Kosher'
p10772
aS'culture'
p10773
aS'steady'
p10774
aS'James'
p10775
aS'always'
p10776
aS'always'
p10777
aS'tryna'
p10778
aS'the'
p10779
aS'declining'
p10780
aS'in'
p10781
aS'Ludacris'
p10782
aS'just'
p10783
aS'doing'
p10784
aS'pre-currency'
p10785
aS'Broadway'
p10786
aS'getting'
p10787
aS'good'
p10788
aS'good'
p10789
aS'snapping'
p10790
aS'the'
p10791
aS'good'
p10792
aS'the'
p10793
aS'back'
p10794
aS'your'
p10795
aS'hungry'
p10796
aS'just'
p10797
aS'only'
p10798
aS'still'
p10799
aS'still'
p10800
aS'good'
p10801
aS'home'
p10802
aS'on'
p10803
ag249
aS'in'
p10804
aS'sayin'
p10805
aS'off'
p10806
aS'off'
p10807
aS'dancing'
p10808
aS'pigeon'
p10809
aS'worth'
p10810
aS'good'
p10811
aS'out'
p10812
aS'better'
p10813
aS'afraid'
p10814
aS'brighter'
p10815
as(S"y'all"
p10816
tp10817
(lp10818
S'taught'
p10819
aS'souls'
p10820
as(S'Tell'
p10821
tp10822
(lp10823
S'you'
p10824
aS'shorty'
p10825
as(S'Heaven'
p10826
tp10827
(lp10828
g146
ag146
as(S'caterpillar'
p10829
tp10830
(lp10831
S'That'
p10832
as(S'drop'
p10833
tp10834
(lp10835
S'Told'
p10836
aS'But'
p10837
as(S'grandmommas'
p10838
tp10839
(lp10840
S'outside'
p10841
as(S'bullshit'
p10842
tp10843
(lp10844
S'but'
p10845
as(S'the'
p10846
tp10847
(lp10848
S'entree'
p10849
aS'Beam'
p10850
aS'kids'
p10851
aS'king'
p10852
aS'holiest'
p10853
aS'beat'
p10854
aS'Word'
p10855
aS'sheep'
p10856
aS'third'
p10857
aS'sermon'
p10858
aS'serpent'
p10859
aS'holistic'
p10860
aS'end'
p10861
aS'day'
p10862
aS'hinges'
p10863
aS'blessings'
p10864
aS'beauty'
p10865
aS'plague'
p10866
aS'backyard'
p10867
aS'big'
p10868
aS'CPD'
p10869
aS'long'
p10870
aS'armchair'
p10871
aS'crib'
p10872
aS'same'
p10873
aS'time'
p10874
aS'whole'
p10875
aS'paperwork'
p10876
aS'flirt'
p10877
aS'Kingdom'
p10878
aS'man'
p10879
aS'house'
p10880
aS'nicest'
p10881
aS'59th'
p10882
aS'big'
p10883
aS'suicide'
p10884
aS'difference'
p10885
aS'days'
p10886
aS'days'
p10887
aS'danger'
p10888
aS'happy'
p10889
aS'line'
p10890
aS'line'
p10891
aS'line'
p10892
aS'line'
p10893
aS'third'
p10894
aS'third'
p10895
aS'park'
p10896
aS'salsa'
p10897
aS'faucet'
p10898
aS'third'
p10899
aS'third'
p10900
aS'shots'
p10901
aS'streets'
p10902
aS'blueprint'
p10903
aS'old'
p10904
aS'Do-si-do'
p10905
aS'industry'
p10906
aS'seventh'
p10907
aS'southside'
p10908
aS'campers'
p10909
aS'nose'
p10910
aS'Rink'
p10911
aS'Rink'
p10912
aS'place'
p10913
aS"shawdy's"
p10914
aS'Rink'
p10915
aS'Rink'
p10916
aS'Rink'
p10917
aS'floor'
p10918
aS'kiddies'
p10919
aS'bill'
p10920
aS'gas'
p10921
aS'seat'
p10922
aS'seat'
p10923
aS'seat'
p10924
aS'seat'
p10925
aS'seat'
p10926
aS'streets'
p10927
aS'month'
p10928
aS'dozen'
p10929
aS'third'
p10930
aS'crib'
p10931
aS'enemy'
p10932
aS'pesticide'
p10933
aS'gift'
p10934
aS'faith'
p10935
aS'skullduggery'
p10936
aS'earth'
p10937
aS'borders'
p10938
aS'slums'
p10939
aS'road'
p10940
aS'bowl'
p10941
aS'bowl'
p10942
aS'board'
p10943
aS'bowl'
p10944
aS'smoke'
p10945
aS'road'
p10946
aS'roof'
p10947
aS'new'
p10948
aS'sauce'
p10949
aS'sauce'
p10950
aS'door'
p10951
aS'chains'
p10952
aS'molly'
p10953
aS'whip'
p10954
aS'wings'
p10955
aS'pedal'
p10956
aS'floor'
p10957
aS'weed'
p10958
aS'air'
p10959
aS'smoke'
p10960
aS'seats'
p10961
ag9045
aS'raps'
p10962
aS'boy'
p10963
aS'boy'
p10964
aS'stairs'
p10965
aS'gate'
p10966
aS'water'
p10967
aS'water'
p10968
aS'kind'
p10969
aS'end'
p10970
aS'power'
p10971
aS'stupid'
p10972
aS'dad'
p10973
aS'Odyssey'
p10974
aS'new'
p10975
aS'people'
p10976
aS'come'
p10977
aS'shirts'
p10978
aS'lames'
p10979
aS'replays'
p10980
aS'Packers'
p10981
aS'ashes'
p10982
aS'fucking'
p10983
aS'motherfucking'
p10984
aS'same'
p10985
aS'lake'
p10986
aS'milk'
p10987
aS'honey'
p10988
aS'money'
p10989
aS'new'
p10990
aS'old'
p10991
aS'buyer'
p10992
aS'streets'
p10993
aS'tweets'
p10994
ag9045
aS'neighborhood'
p10995
aS'neighborhood'
p10996
aS'Save'
p10997
aS'middle'
p10998
aS'map'
p10999
aS'fuck'
p11000
aS'refugees'
p11001
aS'days'
p11002
aS'opposition'
p11003
aS'nation'
p11004
aS'faculty'
p11005
aS'Ruthless'
p11006
aS'hallway'
p11007
aS'Dino'
p11008
aS'candy'
p11009
aS'fucking'
p11010
aS'square'
p11011
aS'club'
p11012
aS'purple'
p11013
aS'window'
p11014
aS'hitter'
p11015
aS'lick'
p11016
aS'hood'
p11017
aS'clock'
p11018
aS'face'
p11019
aS'rain'
p11020
aS'snatch-less'
p11021
aS'fall'
p11022
aS'team'
p11023
aS'truth'
p11024
aS'lies'
p11025
aS'empty'
p11026
aS'window'
p11027
aS'rest'
p11028
aS'loudy'
p11029
aS'pack'
p11030
aS'Come'
p11031
aS'rumbles'
p11032
aS'juice'
p11033
aS'blue'
p11034
aS'juice'
p11035
aS'tryna'
p11036
aS'new'
p11037
aS'paper'
p11038
aS'lay'
p11039
aS'world'
p11040
aS'Lakers'
p11041
aS'juice'
p11042
aS'booth'
p11043
aS'truth'
p11044
aS'mixture'
p11045
aS'purest'
p11046
aS'fruits'
p11047
aS'thirst'
p11048
aS'worst'
p11049
aS'curse'
p11050
aS'juice'
p11051
aS'clock'
p11052
aS'Chicago'
p11053
aS'Stones'
p11054
aS'cops'
p11055
aS'clouds'
p11056
aS'Devil'
p11057
aS'above'
p11058
aS'club'
p11059
aS'first'
p11060
aS'land'
p11061
aS'first'
p11062
aS'helpless'
p11063
aS'last'
p11064
aS'first'
p11065
aS'god'
p11066
aS'door'
p11067
aS'dear'
p11068
aS'lucy'
p11069
aS'light'
p11070
aS'habit'
p11071
aS'bucket'
p11072
aS'wall'
p11073
aS'darkness'
p11074
aS'night'
p11075
aS'sky'
p11076
as(S'purchase'
p11077
tp11078
(lp11079
g249
aS"Everything's"
p11080
as(S'steal'
p11081
tp11082
(lp11083
S"daddy's"
p11084
as(S'what'
p11085
tp11086
(lp11087
S'it'
p11088
ag146
ag146
aS'we'
p11089
aS'your'
p11090
aS'it'
p11091
aS'booties'
p11092
aS'grown'
p11093
aS'you'
p11094
aS'Nitty'
p11095
ag249
ag249
aS"Michael's"
p11096
as(g146
tp11097
(lp11098
S'swear'
p11099
aS'could'
p11100
aS'die'
p11101
aS'get'
p11102
aS'do'
p11103
aS'just'
p11104
aS'was'
p11105
aS'might'
p11106
aS'could'
p11107
aS'know'
p11108
aS'was'
p11109
aS'gotta'
p11110
aS'used'
p11111
aS'would'
p11112
aS'wait'
p11113
aS'say'
p11114
aS'faked'
p11115
aS'called'
p11116
aS'was'
p11117
aS'could'
p11118
aS'would'
p11119
aS'changed'
p11120
aS'always'
p11121
aS'was'
p11122
aS'could'
p11123
aS'would'
p11124
aS'changed'
p11125
aS'always'
p11126
aS"don't"
p11127
aS'make'
p11128
aS'know'
p11129
aS'talked'
p11130
aS'get'
p11131
aS'know'
p11132
aS'know'
p11133
aS'never'
p11134
aS'thought'
p11135
aS'thought'
p11136
aS'was'
p11137
aS'was'
p11138
aS'once'
p11139
aS'was'
p11140
aS'was'
p11141
aS'once'
p11142
aS'was'
p11143
aS'can'
p11144
aS'can'
p11145
aS'love'
p11146
aS'might'
p11147
aS'got'
p11148
aS'get'
p11149
aS"ain't"
p11150
aS'call'
p11151
aS'got'
p11152
aS'guess'
p11153
aS'stay'
p11154
aS"ain't"
p11155
aS'got'
p11156
aS"don't"
p11157
aS'just'
p11158
aS'even'
p11159
aS"ain't"
p11160
aS'just'
p11161
aS"don't"
p11162
aS'used'
p11163
aS"couldn't"
p11164
aS'was'
p11165
aS'found'
p11166
aS"couldn't"
p11167
aS'am'
p11168
aS'mean'
p11169
aS'put'
p11170
aS'pull'
p11171
aS"ain't"
p11172
aS"don't"
p11173
aS"don't"
p11174
aS"don't"
p11175
aS'need'
p11176
aS'need'
p11177
aS'need'
p11178
aS"can't"
p11179
aS'cannot'
p11180
aS"don't"
p11181
aS'believe'
p11182
aS'seen'
p11183
aS'will'
p11184
aS'might'
p11185
aS"couldn't"
p11186
aS'used'
p11187
aS'just'
p11188
aS'grab'
p11189
aS'tell'
p11190
aS'used'
p11191
aS'choke'
p11192
aS'shoulda'
p11193
aS'grew'
p11194
aS"don't"
p11195
aS'put'
p11196
aS"ain't"
p11197
aS'spend'
p11198
aS"don't"
p11199
aS'got'
p11200
aS'got'
p11201
aS'gave'
p11202
aS'give'
p11203
aS'take'
p11204
aS'push'
p11205
aS'gotta'
p11206
aS'gotta'
p11207
aS'push'
p11208
aS'got'
p11209
aS'keep'
p11210
aS'smoke'
p11211
aS'was'
p11212
aS'sleep'
p11213
aS'felt'
p11214
aS'know'
p11215
aS'need'
p11216
aS'got'
p11217
aS'got'
p11218
aS'got'
p11219
aS'could'
p11220
aS'cannot'
p11221
ag4000
aS'know'
p11222
aS'said'
p11223
aS'got'
p11224
aS'speak'
p11225
aS'get'
p11226
aS'speak'
p11227
aS'got'
p11228
aS'never'
p11229
aS'only'
p11230
aS"don't"
p11231
aS"don't"
p11232
aS"won't"
p11233
aS'speak'
p11234
aS'speak'
p11235
aS'think'
p11236
aS'used'
p11237
aS'used'
p11238
aS'used'
p11239
aS'still'
p11240
aS'must'
p11241
aS'can'
p11242
aS'had'
p11243
aS'still'
p11244
aS'stutter'
p11245
aS'just'
p11246
aS"can't"
p11247
aS'got'
p11248
aS'fucked'
p11249
aS'got'
p11250
aS'couldn\xe2'
p11251
aS"ain't"
p11252
aS'got'
p11253
aS'only'
p11254
aS'jackball'
p11255
aS'bop'
p11256
aS'flex'
p11257
aS'sex'
p11258
aS'bet'
p11259
aS'mean'
p11260
aS'still'
p11261
aS'can'
p11262
aS'never'
p11263
aS'spit'
p11264
aS'eat'
p11265
aS'got'
p11266
aS'just'
p11267
aS'got'
p11268
aS'stay'
p11269
aS'know'
p11270
aS'rap'
p11271
aS'sing'
p11272
aS'get'
p11273
aS'got'
p11274
aS'got'
p11275
aS'may'
p11276
aS'made'
p11277
aS'napalm'
p11278
aS'miss'
p11279
aS'believed'
p11280
aS'inhaled'
p11281
aS'seen'
p11282
aS'seen'
p11283
aS'see'
p11284
aS'see'
p11285
aS'trip'
p11286
aS"don't"
p11287
aS"don't"
p11288
aS"don't"
p11289
aS'think'
p11290
aS'still'
p11291
aS'still'
p11292
aS'only'
p11293
aS'still'
p11294
aS'should'
p11295
aS'still'
p11296
aS'still'
p11297
aS'sip'
p11298
aS'just'
p11299
aS'know'
p11300
aS'still'
p11301
aS'wrote'
p11302
aS'could'
p11303
aS'just'
p11304
aS'love'
p11305
aS"ain't"
p11306
aS"ain't"
p11307
aS"ain't"
p11308
aS'just'
p11309
aS"ain't"
p11310
aS"ain't"
p11311
aS'say'
p11312
aS'need'
p11313
aS'let'
p11314
aS'call'
p11315
aS'would'
p11316
aS'slurped'
p11317
aS'got'
p11318
aS'got'
p11319
aS'used'
p11320
aS'was'
p11321
aS'talk'
p11322
aS'talk'
p11323
aS"ain't"
p11324
aS"ain't"
p11325
aS"ain't"
p11326
aS'used'
p11327
aS"ain't"
p11328
aS'used'
p11329
aS'make'
p11330
aS'knew'
p11331
aS'was'
p11332
aS'never'
p11333
aS'meet'
p11334
aS"ain't"
p11335
aS"ain't"
p11336
aS'used'
p11337
aS'barely'
p11338
aS'was'
p11339
aS'beat'
p11340
aS'wonder'
p11341
aS'look'
p11342
aS'write'
p11343
aS"ain't"
p11344
aS'ain\xe2'
p11345
aS'pray'
p11346
aS'seen'
p11347
aS'lost'
p11348
aS'get'
p11349
as(S'numbers'
p11350
tp11351
(lp11352
S'on'
p11353
as(S'Okay'
p11354
tp11355
(lp11356
S'now'
p11357
as(S'Up\xe2'
p11358
tp11359
(lp11360
S'like'
p11361
as(S'month'
p11362
tp11363
(lp11364
S'by'
p11365
as(S'evenings'
p11366
tp11367
(lp11368
S'birthdays'
p11369
as(S'them'
p11370
tp11371
(lp11372
S'79th'
p11373
aS'drugs'
p11374
aS'showing'
p11375
aS'flapping'
p11376
aS'shottas'
p11377
aS'songs'
p11378
aS'demons'
p11379
aS'synonyms'
p11380
aS'sentiments'
p11381
aS'save'
p11382
aS'aside'
p11383
aS'pencils'
p11384
as(S'whether'
p11385
tp11386
(lp11387
S"it's"
p11388
as(S'marathon'
p11389
tp11390
(lp11391
S'we'
p11392
as(S'Jan'
p11393
tp11394
(lp11395
S'still'
p11396
as(S'cooking'
p11397
tp11398
(lp11399
S'at'
p11400
as(S'Un-saran'
p11401
tp11402
(lp11403
S'wrap'
p11404
as(S'twisted'
p11405
tp11406
(lp11407
S'at'
p11408
as(S'ones'
p11409
tp11410
(lp11411
S'like'
p11412
as(S'cab'
p11413
tp11414
(lp11415
S"that's"
p11416
as(S"Could've"
p11417
tp11418
(lp11419
S'threw'
p11420
as(S'want'
p11421
tp11422
(lp11423
S'four'
p11424
as(S'cause'
p11425
tp11426
(lp11427
S'the'
p11428
aS'she'
p11429
aS"it's"
p11430
aS"you're"
p11431
aS'the'
p11432
aS'it'
p11433
as(S'lane'
p11434
tp11435
(lp11436
S'Flip'
p11437
as(S"daddy's"
p11438
tp11439
(lp11440
S'Rollie'
p11441
aS"y'all"
p11442
as(S'yaself'
p11443
tp11444
(lp11445
S'trynna'
p11446
as(S'slums'
p11447
tp11448
(lp11449
S'like'
p11450
as(S'yop'
p11451
tp11452
(lp11453
S'That'
p11454
as(S'passed'
p11455
tp11456
(lp11457
g146
as(S'map'
p11458
tp11459
(lp11460
S'with'
p11461
as(S'Gluteus'
p11462
tp11463
(lp11464
S'Maxim'
p11465
as(S'warn'
p11466
tp11467
(lp11468
g146
as(S'KOK'
p11469
tp11470
(lp11471
S'to'
p11472
as(S'Joseph'
p11473
tp11474
(lp11475
S'about'
p11476
aS'Playing'
p11477
as(S'leaving'
p11478
tp11479
(lp11480
S'right'
p11481
aS'the'
p11482
ag146
as(S'faggot'
p11483
tp11484
(lp11485
S'slapper'
p11486
as(S'dream'
p11487
tp11488
(lp11489
S'you'
p11490
aS"girl's"
p11491
aS'could'
p11492
as(S'lipstick'
p11493
tp11494
(lp11495
S'Niggas'
p11496
as(S'avid'
p11497
tp11498
(lp11499
S'Actor'
p11500
as(S"Y'all"
p11501
tp11502
(lp11503
S'know'
p11504
as(S'her'
p11505
tp11506
(lp11507
S'Man'
p11508
aS'becoming'
p11509
aS'own'
p11510
ag146
aS'Truth'
p11511
aS'the'
p11512
aS'percs'
p11513
ag249
aS'knees'
p11514
aS'cause'
p11515
aS'meds'
p11516
aS'match'
p11517
aS'match'
p11518
aS'match'
p11519
aS'love'
p11520
aS'heart'
p11521
aS'up'
p11522
as(S'rhyme'
p11523
tp11524
(lp11525
S'Sometime'
p11526
as(S'getting'
p11527
tp11528
(lp11529
S'new'
p11530
aS'pregnant'
p11531
aS'blocked'
p11532
aS'artsy-fartsy'
p11533
aS"ID'd"
p11534
aS'bodied'
p11535
aS'greedier'
p11536
as(S'while'
p11537
tp11538
(lp11539
S'we'
p11540
aS'on'
p11541
aS'they'
p11542
as(S'Hillman'
p11543
tp11544
(lp11545
S'Igh'
p11546
as(S'Found'
p11547
tp11548
(lp11549
S'warmth'
p11550
as(S'Type'
p11551
tp11552
(lp11553
S'that'
p11554
as(S'complain'
p11555
tp11556
(lp11557
g146
as(S'bop'
p11558
tp11559
(lp11560
g146
as(S'Yonc\xc3'
p11561
tp11562
(lp11563
S'Man'
p11564
as(S'Fourths'
p11565
tp11566
(lp11567
S'of'
p11568
as(S'gotta'
p11569
tp11570
(lp11571
S'fight'
p11572
aS'stay'
p11573
aS'ask'
p11574
aS'see'
p11575
aS'say'
p11576
aS'be'
p11577
aS'be'
p11578
aS'see'
p11579
aS'watch'
p11580
aS'letterman'
p11581
aS'burner'
p11582
aS'get'
p11583
aS'be'
p11584
as(S'dark'
p11585
tp11586
(lp11587
S'cause'
p11588
aS'or'
p11589
ag249
aS'light'
p11590
as(S"Who's"
p11591
tp11592
(lp11593
S'sneaking'
p11594
as(S'boys'
p11595
tp11596
(lp11597
S'None'
p11598
as(S'Chicago'
p11599
tp11600
(lp11601
S'shit'
p11602
aS'lingo'
p11603
aS'Blues'
p11604
as(S'mama'
p11605
tp11606
(lp11607
S'to'
p11608
aS'hate'
p11609
as(S'alley-oop'
p11610
tp11611
(lp11612
S'Helping'
p11613
as(S'voice'
p11614
tp11615
(lp11616
S'get'
p11617
as(S'grandma'
p11618
tp11619
(lp11620
S'would'
p11621
as(S'pesticide'
p11622
tp11623
(lp11624
S'79th'
p11625
as(S'misdemeanors'
p11626
tp11627
(lp11628
S'dreamer'
p11629
as(S'missed'
p11630
tp11631
(lp11632
S'the'
p11633
as(S'wrongs'
p11634
tp11635
(lp11636
S"I'm"
p11637
as(S'Mikey'
p11638
tp11639
(lp11640
S'Lil'
p11641
as(S'Mistic'
p11642
tp11643
(lp11644
S'My'
p11645
as(S'herd'
p11646
tp11647
(lp11648
S'This'
p11649
as(S'praying'
p11650
tp11651
(lp11652
S'for'
p11653
as(S'ain\xe2'
p11654
tp11655
(lp11656
g5637
as(S'alibis'
p11657
tp11658
(lp11659
S'The'
p11660
as(S'What'
p11661
tp11662
(lp11663
S'you'
p11664
aS'did'
p11665
aS'Well'
p11666
as(S'slurped'
p11667
tp11668
(lp11669
S'too'
p11670
as(S'freedom'
p11671
tp11672
(lp11673
S"Don't"
p11674
aS'Hosanna'
p11675
aS'Found'
p11676
as(S'art'
p11677
tp11678
(lp11679
S'Kicked'
p11680
as(S'millions'
p11681
tp11682
(lp11683
S'of'
p11684
as(S'jackball'
p11685
tp11686
(lp11687
S'and'
p11688
as(S'middle'
p11689
tp11690
(lp11691
S'of'
p11692
as(S'Watch'
p11693
tp11694
(lp11695
S'brick'
p11696
as(S'throw'
p11697
tp11698
(lp11699
S'out'
p11700
as(S"fallin'"
p11701
tp11702
(lp11703
S'in'
p11704
aS'in'
p11705
aS'in'
p11706
as(S'Vicodin'
p11707
tp11708
(lp11709
S'Shoulda'
p11710
as(S'Lauer'
p11711
tp11712
(lp11713
S'at'
p11714
as(S'both'
p11715
tp11716
(lp11717
S'my'
p11718
as(S'Petigrew'
p11719
tp11720
(lp11721
S'could'
p11722
as(S'waist'
p11723
tp11724
(lp11725
S'through'
p11726
as(S"Fallon's"
p11727
tp11728
(lp11729
S'spleen'
p11730
as(S'fianc\xc3'
p11731
tp11732
(lp11733
g344
as(S'son'
p11734
tp11735
(lp11736
S'had'
p11737
aS'ball'
p11738
as(S'You'
p11739
tp11740
(lp11741
S'gotta'
p11742
aS'talk'
p11743
aS'need'
p11744
aS'must'
p11745
aS'always'
p11746
aS'were'
p11747
aS'buy'
p11748
aS'gotta'
p11749
aS"gon'"
p11750
aS"gon'"
p11751
aS'can'
p11752
aS"couldn't"
p11753
aS'said'
p11754
aS"ain't"
p11755
aS'just'
p11756
aS'had'
p11757
aS'Down'
p11758
aS'just'
p11759
aS'just'
p11760
aS'should'
p11761
ag249
aS'meet'
p11762
aS'know'
p11763
aS'know'
p11764
aS'pat'
p11765
aS'hear'
p11766
aS'smell'
p11767
aS'smell'
p11768
aS'went'
p11769
aS"didn't"
p11770
aS'got'
p11771
aS'can'
p11772
aS'must\xe2'
p11773
aS'did'
p11774
ag249
aS"can't"
p11775
aS'been'
p11776
aS'and'
p11777
as(S"Somebody'll"
p11778
tp11779
(lp11780
S'steal'
p11781
as(S'dams'
p11782
tp11783
(lp11784
S'what'
p11785
as(S'Off'
p11786
tp11787
(lp11788
S'of'
p11789
as(S'screens'
p11790
tp11791
(lp11792
S'And'
p11793
as(S'peace'
p11794
tp11795
(lp11796
S'they'
p11797
as(S'Knowin'
p11798
tp11799
(lp11800
S'bitch'
p11801
as(S'met'
p11802
tp11803
(lp11804
S'me'
p11805
aS'you'
p11806
aS'her'
p11807
as(S'Window'
p11808
tp11809
(lp11810
S'closed'
p11811
as(S'Broadway'
p11812
tp11813
(lp11814
S'Joe'
p11815
as(S'through'
p11816
tp11817
(lp11818
S'your'
p11819
aS'the'
p11820
aS'plastic'
p11821
aS'the'
p11822
aS'ya'
p11823
aS'We'
p11824
aS'purses'
p11825
aS'and'
p11826
as(S'most'
p11827
tp11828
(lp11829
S'brokest'
p11830
as(S'militia'
p11831
tp11832
(lp11833
S"I'mma"
p11834
as(S'backless'
p11835
tp11836
(lp11837
S'dresses'
p11838
as(S'Your'
p11839
tp11840
(lp11841
S'big'
p11842
aS'play'
p11843
as(S'sippin'
p11844
tp11845
(lp11846
S'gin'
p11847
as(S'ashes'
p11848
tp11849
(lp11850
S'Matches'
p11851
as(S'Chance'
p11852
tp11853
(lp11854
S'acid'
p11855
aS'ho'
p11856
aS'the'
p11857
as(S'stairs'
p11858
tp11859
(lp11860
S"I'mma"
p11861
as(S'mayor'
p11862
tp11863
(lp11864
S'rapper'
p11865
as(S'giving'
p11866
tp11867
(lp11868
S'out'
p11869
as(S'prophetic'
p11870
tp11871
(lp11872
S'stories'
p11873
as(S'die'
p11874
tp11875
(lp11876
S"I'll"
p11877
aS'our'
p11878
aS'every'
p11879
aS'so'
p11880
as(S'tried'
p11881
tp11882
(lp11883
S'to'
p11884
as(S'ashing'
p11885
tp11886
(lp11887
S"'til"
p11888
as(S'lies'
p11889
tp11890
(lp11891
S'get'
p11892
as(S'song'
p11893
tp11894
(lp11895
S'do'
p11896
aS'air'
p11897
aS'and'
p11898
aS'oh'
p11899
aS'singer'
p11900
aS'Lot'
p11901
as(S'cash'
p11902
tp11903
(lp11904
S'money'
p11905
as(S'tag'
p11906
tp11907
(lp11908
S'it'
p11909
as(S'went'
p11910
tp11911
(lp11912
S'and'
p11913
aS'from'
p11914
aS'from'
p11915
aS'and'
p11916
as(S'gang'
p11917
tp11918
(lp11919
S'like'
p11920
aS'like'
p11921
as(S'shrug'
p11922
tp11923
(lp11924
S'at'
p11925
as(S'kids'
p11926
tp11927
(lp11928
S'of'
p11929
ag146
aS'being'
p11930
aS'Why'
p11931
aS'they'
p11932
aS'here'
p11933
as(S'pic'
p11934
tp11935
(lp11936
S'You'
p11937
as(S'possessions'
p11938
tp11939
(lp11940
S'Like'
p11941
as(S'Gator'
p11942
tp11943
(lp11944
S"Ain't"
p11945
as(S'Mama'
p11946
tp11947
(lp11948
S'still'
p11949
aS'Jan'
p11950
as(g4003
tp11951
(lp11952
S'Legit\xe2'
p11953
as(S'lab'
p11954
tp11955
(lp11956
S'partners'
p11957
as(S'officially'
p11958
tp11959
(lp11960
S'first'
p11961
as(S'lames'
p11962
tp11963
(lp11964
S'Keep'
p11965
as(S'tall'
p11966
tp11967
(lp11968
S'ayy'
p11969
aS'order'
p11970
as(S'writing'
p11971
tp11972
(lp11973
S'four'
p11974
as(S'ho'
p11975
tp11976
(lp11977
S'My'
p11978
aS'You'
p11979
aS'Magnify'
p11980
aS'acid'
p11981
as(S'faculty'
p11982
tp11983
(lp11984
S'tobacco-packing'
p11985
as(S'childhood'
p11986
tp11987
(lp11988
S'Make'
p11989
as(S'pain-kills'
p11990
tp11991
(lp11992
S'down'
p11993
as(S'Fuck'
p11994
tp11995
(lp11996
S'wrong'
p11997
aS'you'
p11998
aS'all'
p11999
aS'Fox'
p12000
as(S'our'
p12001
tp12002
(lp12003
S'summer'
p12004
aS'summer'
p12005
aS'grandmommas'
p12006
aS'ways'
p12007
aS'child'
p12008
aS'position'
p12009
as(S'morn'
p12010
tp12011
(lp12012
S"I'm"
p12013
as(S'bio'
p12014
tp12015
(lp12016
S'My'
p12017
as(S'come'
p12018
tp12019
(lp12020
S'and'
p12021
aS'for'
p12022
aS'in'
p12023
aS'ride'
p12024
aS'through'
p12025
aS'back'
p12026
ag249
aS'up'
p12027
aS'in'
p12028
aS'to'
p12029
as(S'pray'
p12030
tp12031
(lp12032
g146
aS'like'
p12033
aS'for'
p12034
aS'to'
p12035
as(S'choke'
p12036
tp12037
(lp12038
S'Wish'
p12039
as(S'Goyard'
p12040
tp12041
(lp12042
S'and'
p12043
as(S'Barbershop'
p12044
tp12045
(lp12046
S'And'
p12047
as(S'Dad'
p12048
tp12049
(lp12050
S'was'
p12051
as(S'fack'
p12052
tp12053
(lp12054
S'is'
p12055
as(S'soft'
p12056
tp12057
(lp12058
S'as'
p12059
as(S"IOU's"
p12060
tp12061
(lp12062
S'or'
p12063
as(S'tell'
p12064
tp12065
(lp12066
S'you'
p12067
aS'her'
p12068
aS'the'
p12069
aS'hoes'
p12070
as(S'models'
p12071
tp12072
(lp12073
S'is'
p12074
as(S'freebase'
p12075
tp12076
(lp12077
S'the'
p12078
as(S'youth'
p12079
tp12080
(lp12081
S'nigga'
p12082
as(S'79th'
p12083
tp12084
(lp12085
S'street'
p12086
aS'79th'
p12087
ag146
as(S"Cheese's"
p12088
tp12089
(lp12090
S'pizzas'
p12091
as(S'touch'
p12092
tp12093
(lp12094
S'down'
p12095
aS'my'
p12096
as(S'score'
p12097
tp12098
(lp12099
S'and'
p12100
as(S'dokie'
p12101
tp12102
(lp12103
S'alky'
p12104
as(S'backyard'
p12105
tp12106
(lp12107
S'Had'
p12108
as(S'years'
p12109
tp12110
(lp12111
S'seven'
p12112
aS'from'
p12113
as(S'difference'
p12114
tp12115
(lp12116
S'in'
p12117
as(S'lands'
p12118
tp12119
(lp12120
S'Soil'
p12121
as(S'richest'
p12122
tp12123
(lp12124
S'man'
p12125
as(S'Motherfucker'
p12126
tp12127
(lp12128
S'money'
p12129
as(S'swirlie'
p12130
tp12131
(lp12132
S'Wish'
p12133
as(S'Him'
p12134
tp12135
(lp12136
S'If'
p12137
as(S'bout'
p12138
tp12139
(lp12140
S"Leno's"
p12141
as(S'have'
p12142
tp12143
(lp12144
g249
aS'no'
p12145
aS'lost'
p12146
aS'somewhere'
p12147
aS'to'
p12148
aS'We'
p12149
aS'time'
p12150
aS'time'
p12151
aS'time'
p12152
ag146
as(S'All'
p12153
tp12154
(lp12155
S'you'
p12156
ag146
ag146
aS'the'
p12157
aS'you'
p12158
aS'this'
p12159
aS'that'
p12160
aS'you'
p12161
as(S'shop'
p12162
tp12163
(lp12164
S'class'
p12165
as(S'dusted'
p12166
tp12167
(lp12168
S'dusk'
p12169
as(S'broker'
p12170
tp12171
(lp12172
S'winter'
p12173
as(S'catch'
p12174
tp12175
(lp12176
S'my'
p12177
as(S'hurt'
p12178
tp12179
(lp12180
S'me'
p12181
aS'You'
p12182
as(S'glorify'
p12183
tp12184
(lp12185
S'Descend'
p12186
as(S'Trel'
p12187
tp12188
(lp12189
S'shout'
p12190
as(S'Lucifer'
p12191
tp12192
(lp12193
S'with'
p12194
as(S'Costner'
p12195
tp12196
(lp12197
S'God'
p12198
as(S"callin'"
p12199
tp12200
(lp12201
S'her'
p12202
as(S'grown'
p12203
tp12204
(lp12205
S'folks'
p12206
aS'folks'
p12207
aS'and'
p12208
as(S'Now'
p12209
tp12210
(lp12211
S"I'm"
p12212
aS'she'
p12213
ag146
ag146
aS'its'
p12214
aS'take'
p12215
aS"I'm"
p12216
aS"I'm"
p12217
as(S'land'
p12218
tp12219
(lp12220
S'where'
p12221
aS"What's"
p12222
as(S'Michael'
p12223
tp12224
(lp12225
g146
as(S'need'
p12226
tp12227
(lp12228
g249
aS'is'
p12229
ag249
ag249
ag249
aS'cash'
p12230
aS'space'
p12231
aS'you'
p12232
ag249
aS'an'
p12233
aS'the'
p12234
aS'that'
p12235
ag249
as(S'green'
p12236
tp12237
(lp12238
S'pastures'
p12239
as(S'blueprint'
p12240
tp12241
(lp12242
S'to'
p12243
as(S'Sosa'
p12244
tp12245
(lp12246
S'Shout'
p12247
as(S'Flyer'
p12248
tp12249
(lp12250
S'on'
p12251
as(S'raspy'
p12252
tp12253
(lp12254
S'Last'
p12255
as(S'phone'
p12256
tp12257
(lp12258
S'call'
p12259
aS'die'
p12260
as(S'Jesus'
p12261
tp12262
(lp12263
S'come'
p12264
aS'Before'
p12265
aS'pieces'
p12266
aS'love'
p12267
as(S'rancher'
p12268
tp12269
(lp12270
S'kids'
p12271
as(S'you'
p12272
tp12273
(lp12274
S'could'
p12275
aS"it's"
p12276
aS"it's"
p12277
aS'tried'
p12278
aS'shoulda'
p12279
aS'What'
p12280
aS'were'
p12281
aS'thought'
p12282
aS'can'
p12283
aS'the'
p12284
ag249
aS'change'
p12285
aS'go'
p12286
aS'stay'
p12287
aS'miss'
p12288
aS'miss'
p12289
aS'miss'
p12290
aS'need'
p12291
aS'stop'
p12292
aS'do'
p12293
aS'go'
p12294
aS'start'
p12295
aS'color'
p12296
aS'bleed'
p12297
aS'color'
p12298
aS'bleed'
p12299
aS"don't"
p12300
aS'used'
p12301
aS'You'
p12302
aS'steady'
p12303
aS'As'
p12304
aS'were'
p12305
aS'up'
p12306
aS'wanna'
p12307
aS'wanna'
p12308
aS'got'
p12309
aS'got'
p12310
aS'wanna'
p12311
aS'need'
p12312
aS'do'
p12313
aS'my'
p12314
aS"wasn't"
p12315
aS'just'
p12316
aS'think'
p12317
aS'need'
p12318
aS'is'
p12319
aS"ain't"
p12320
aS'to'
p12321
aS'gotta'
p12322
aS'back'
p12323
aS'Scars'
p12324
aS'remember'
p12325
aS'gotta'
p12326
aS'ever'
p12327
aS'done'
p12328
aS'did'
p12329
aS'did'
p12330
aS'did'
p12331
aS'to'
p12332
aS'read'
p12333
aS'think'
p12334
aS'dry'
p12335
aS"don't"
p12336
aS'Hang'
p12337
aS'sip'
p12338
aS'As'
p12339
aS'like'
p12340
aS'mean'
p12341
aS'ever'
p12342
aS"ain't"
p12343
aS'just'
p12344
aS'From'
p12345
aS'touch'
p12346
aS'And'
p12347
aS'still'
p12348
aS'love'
p12349
aS'Knowin'
p12350
aS'feel'
p12351
aS'dude'
p12352
aS'the'
p12353
aS'Yo'
p12354
aS'never'
p12355
aS'love'
p12356
aS'make'
p12357
aS'realize'
p12358
ag146
aS'can'
p12359
aS'if'
p12360
aS'Put'
p12361
aS'been'
p12362
aS"I'mma"
p12363
aS"I'mma"
p12364
aS'Buck'
p12365
aS'google'
p12366
aS'Put'
p12367
aS'heard'
p12368
ag249
aS'wanna'
p12369
as(S'Way'
p12370
tp12371
(lp12372
S'back'
p12373
as(S'rid'
p12374
tp12375
(lp12376
S'of'
p12377
as(S'playing'
p12378
tp12379
(lp12380
S'when'
p12381
as(S'off'
p12382
tp12383
(lp12384
S'tour'
p12385
aS'shit'
p12386
aS'my'
p12387
aS'my'
p12388
aS'peyote'
p12389
ag249
aS'days'
p12390
aS'the'
p12391
aS'white'
p12392
as(S'crib'
p12393
tp12394
(lp12395
S'Bunch'
p12396
aS'like'
p12397
aS'and'
p12398
as(S'Bitch'
p12399
tp12400
(lp12401
g146
as(S'speak'
p12402
tp12403
(lp12404
S'noble'
p12405
aS'of'
p12406
aS'of'
p12407
aS'to'
p12408
aS'to'
p12409
aS'Damn'
p12410
as(S'mic'
p12411
tp12412
(lp12413
S'events'
p12414
as(S'ships'
p12415
tp12416
(lp12417
S'Shut'
p12418
as(S'It'
p12419
tp12420
(lp12421
S'was'
p12422
aS'done'
p12423
aS'would'
p12424
aS"don't"
p12425
aS'was'
p12426
aS"ain't"
p12427
as(S'Buenas'
p12428
tp12429
(lp12430
S'Noches'
p12431
as(S'purses'
p12432
tp12433
(lp12434
S'even'
p12435
as(S'outie'
p12436
tp12437
(lp12438
S'Pull'
p12439
as(S'worried'
p12440
tp12441
(lp12442
S'when'
p12443
aS"'bout"
p12444
ag146
as(S'booth'
p12445
tp12446
(lp12447
S'All'
p12448
as(S'on'
p12449
tp12450
(lp12451
S'concrete'
p12452
ag249
aS'the'
p12453
aS'my'
p12454
aS'out'
p12455
aS'out'
p12456
aS'they'
p12457
aS'the'
p12458
aS'the'
p12459
aS'the'
p12460
aS'the'
p12461
aS'the'
p12462
aS'high'
p12463
aS'His'
p12464
aS'the'
p12465
aS'clothes'
p12466
aS'the'
p12467
aS'your'
p12468
aS'the'
p12469
aS'the'
p12470
aS'my'
p12471
ag249
aS'myself'
p12472
aS'Arguments'
p12473
aS"Fallon's"
p12474
aS'sporadicity'
p12475
aS'the'
p12476
aS'my'
p12477
aS'my'
p12478
aS'her'
p12479
aS'that'
p12480
aS'hands'
p12481
aS'my'
p12482
aS'music'
p12483
aS'bullshit'
p12484
ag249
aS'dirt'
p12485
aS'petty'
p12486
aS'the'
p12487
aS'flame'
p12488
aS"I'm"
p12489
aS"killin'"
p12490
aS"Cookin'"
p12491
aS'the'
p12492
aS'the'
p12493
aS'my'
p12494
aS'Rest'
p12495
aS'the'
p12496
aS'this'
p12497
aS'Him'
p12498
aS'yo'
p12499
aS'speed'
p12500
aS'Nintendo'
p12501
aS'Son'
p12502
aS'fire'
p12503
aS'the'
p12504
as(S'shooters'
p12505
tp12506
(lp12507
S'come'
p12508
as(S'gonna'
p12509
tp12510
(lp12511
S'You'
p12512
as(S'cousin'
p12513
tp12514
(lp12515
S'No'
p12516
as(S'afro'
p12517
tp12518
(lp12519
S'look'
p12520
as(S'racks'
p12521
tp12522
(lp12523
S"Don't"
p12524
as(S'Thursdays'
p12525
tp12526
(lp12527
S'weekends'
p12528
as(S'Chris'
p12529
tp12530
(lp12531
S'Brown'
p12532
aS'Minto'
p12533
aS'on'
p12534
as(S'themselves'
p12535
tp12536
(lp12537
S'bosses'
p12538
as(S'Electrify'
p12539
tp12540
(lp12541
S'the'
p12542
as(S'mothafuckin'
p12543
tp12544
(lp12545
S'pop'
p12546
as(S'If'
p12547
tp12548
(lp12549
S'she'
p12550
ag146
aS'you'
p12551
aS'they'
p12552
aS'you'
p12553
ag146
aS'he'
p12554
aS'his'
p12555
as(S'supply'
p12556
tp12557
(lp12558
S'Blockbuster'
p12559
as(S'fifths'
p12560
tp12561
(lp12562
S'of'
p12563
as(S'flick'
p12564
tp12565
(lp12566
S'kick'
p12567
as(S'jokes'
p12568
tp12569
(lp12570
S'You'
p12571
as(S'say'
p12572
tp12573
(lp12574
S'79'
p12575
aS"we're"
p12576
ag146
aS"I'm"
p12577
aS"I'm"
p12578
aS"Can't"
p12579
ag146
aS'now'
p12580
aS'that'
p12581
aS'The'
p12582
aS"'Kadabra"
p12583
aS'oh'
p12584
as(S'must\xe2'
p12585
tp12586
(lp12587
S've'
p12588
as(S'be'
p12589
tp12590
(lp12591
S'reconciled'
p12592
aS'in'
p12593
aS'asking'
p12594
aS'no'
p12595
aS'cooking'
p12596
aS'cracking'
p12597
aS'no'
p12598
aS'taking'
p12599
aS'overseas'
p12600
aS'on'
p12601
aS'racing'
p12602
aS'better'
p12603
aS'reborn'
p12604
aS'everything'
p12605
aS"I'm"
p12606
aS'all'
p12607
aS'Call'
p12608
aS'better'
p12609
aS'shooting'
p12610
aS'on'
p12611
aS'on'
p12612
aS'the'
p12613
aS'screaming'
p12614
aS'asking'
p12615
aS'asking'
p12616
aS'outie'
p12617
aS'yelling'
p12618
aS'you'
p12619
aS'thirsty'
p12620
aS'worse'
p12621
aS'thirsty'
p12622
ag249
aS'last'
p12623
ag249
aS'Truth'
p12624
aS'told'
p12625
as(S'early'
p12626
tp12627
(lp12628
g146
aS'With'
p12629
as(S'Milly'
p12630
tp12631
(lp12632
S"rockin'"
p12633
as(S'views'
p12634
tp12635
(lp12636
S'Funerals'
p12637
as(S'whys'
p12638
tp12639
(lp12640
S"God's"
p12641
as(S'One'
p12642
tp12643
(lp12644
S'time'
p12645
as(S'grab'
p12646
tp12647
(lp12648
S'you'
p12649
aS'her'
p12650
as(S'little'
p12651
tp12652
(lp12653
S'Xan'
p12654
aS'bean'
p12655
aS'bit'
p12656
aS'shitty'
p12657
aS'girls'
p12658
as(S'Save-a-Hood'
p12659
tp12660
(lp12661
S'hood'
p12662
as(S'pat'
p12663
tp12664
(lp12665
S'my'
p12666
aS'my'
p12667
as(S'splits'
p12668
tp12669
(lp12670
S'back'
p12671
as(S'Menzies'
p12672
tp12673
(lp12674
S'Mensa'
p12675
as(S'guerillas'
p12676
tp12677
(lp12678
S"Everything's"
p12679
as(S'souls'
p12680
tp12681
(lp12682
S"don't"
p12683
as(S'much'
p12684
tp12685
(lp12686
S'you'
p12687
aS"you'd"
p12688
as(S'dad'
p12689
tp12690
(lp12691
S'None'
p12692
aS'thing'
p12693
as(S'Talent'
p12694
tp12695
(lp12696
S'And'
p12697
as(S'Shouts'
p12698
tp12699
(lp12700
S'out'
p12701
as(S'famous'
p12702
tp12703
(lp12704
S'you'
p12705
as(S'punk'
p12706
tp12707
(lp12708
S'you'
p12709
as(S'tired'
p12710
tp12711
(lp12712
S'on'
p12713
as(S'rhymes'
p12714
tp12715
(lp12716
S'in'
p12717
aS'nickels'
p12718
as(S'should'
p12719
tp12720
(lp12721
S'use'
p12722
aS'go'
p12723
as(S'darling'
p12724
tp12725
(lp12726
S'just'
p12727
as(S'flapping'
p12728
tp12729
(lp12730
S'they'
p12731
as(S'doing'
p12732
tp12733
(lp12734
S'perms'
p12735
aS'front'
p12736
aS'the'
p12737
as(S'daughter'
p12738
tp12739
(lp12740
S"couldn't"
p12741
aS'can'
p12742
as(S'couplets'
p12743
tp12744
(lp12745
S'He'
p12746
as(S'couldn\xe2'
p12747
tp12748
(lp12749
g5637
as(S'jealous'
p12750
tp12751
(lp12752
S'of'
p12753
aS'of'
p12754
as(S'race'
p12755
tp12756
(lp12757
S'Now'
p12758
as(S'Cupid'
p12759
tp12760
(lp12761
S'kissing'
p12762
as(S'close'
p12763
tp12764
(lp12765
S"ain't"
p12766
as(S'Tony'
p12767
tp12768
(lp12769
S'Montano'
p12770
as(S'clutters'
p12771
tp12772
(lp12773
S'different'
p12774
as(S'deeper'
p12775
tp12776
(lp12777
S'than'
p12778
as(S'News'
p12779
tp12780
(lp12781
S'Booyaka'
p12782
as.