ccollections
defaultdict
p0
(c__builtin__
list
p1
tp2
Rp3
(S'at'
p4
tp5
(lp6
S'my'
p7
aS'the'
p8
aS'your'
p9
aS"grandma's"
p10
aS'dark'
p11
aS'Grand'
p12
aS'you'
p13
aS'you'
p14
aS'war'
p15
aS'the'
p16
aS'me'
p17
aS'my'
p18
aS'my'
p19
aS'the'
p20
aS'the'
p21
aS'the'
p22
aS'the'
p23
aS'the'
p24
aS'all'
p25
aS'crack'
p26
aS'my'
p27
aS'all'
p28
aS'least'
p29
aS'the'
p30
as(S'America'
p31
tp32
(lp33
S'then'
p34
as(S'trick'
p35
tp36
(lp37
S'Please'
p38
as(S'niggas'
p39
tp40
(lp41
S'in'
p42
aS'in'
p43
aS"chasin'"
p44
aS'need'
p45
aS"ain't"
p46
aS"ain't"
p47
aS'toss'
p48
aS'never'
p49
as(S'it'
p50
tp51
(lp52
S'If'
p53
aS'herd'
p54
aS'all'
p55
aS'all'
p56
aS'all'
p57
aS'We'
p58
aS'We'
p59
aS'We'
p60
aS'Music'
p61
aS'We'
p62
aS'We'
p63
aS'We'
p64
aS'Music'
p65
aS'was'
p66
aS'came'
p67
aS'was'
p68
aS"ain't"
p69
aS'work'
p70
aS'or'
p71
aS'around'
p72
aS'straight'
p73
aS'Obama'
p74
aS'racks'
p75
aS'Just'
p76
aS'where'
p77
aS'slow'
p78
aS'sound'
p79
aS"poppin'"
p80
aS"Jukin'"
p81
aS"poppin'"
p82
aS"Jukin'"
p83
aS'all'
p84
aS'on'
p85
aS'Spotify'
p86
aS'seemed'
p87
aS"O'"
p88
aS'Old'
p89
aS'down'
p90
aS'down'
p91
aS'down'
p92
aS'down'
p93
aS'down'
p94
aS'down'
p95
aS'down'
p96
aS'touch'
p97
aS'down'
p98
aS'down'
p99
aS'could'
p100
aS'like'
p101
aS'warm'
p102
aS'through'
p103
aS'through'
p104
aS'through'
p105
aS'you'
p106
aS'you'
p107
aS"it's"
p108
as(S'go'
p109
tp110
(lp111
S'Chano'
p112
aS'You'
p113
aS'Chano'
p114
aS'Ooh'
p115
aS'You'
p116
aS'I'
p117
aS'Chano'
p118
aS'You'
p119
aS'Chano'
p120
aS'You'
p121
aS'Oh'
p122
aS'up'
p123
aS'up'
p124
aS'up'
p125
aS'up'
p126
aS'up'
p127
aS'up'
p128
aS'up'
p129
aS'up'
p130
aS'up'
p131
aS'up'
p132
aS'up'
p133
aS'Why'
p134
aS'to'
p135
aS"'Cause"
p136
aS'to'
p137
aS'Where'
p138
as(S'now'
p139
tp140
(lp141
g117
aS'day'
p142
aS"I'm"
p143
aS'look'
p144
ag117
aS'you'
p145
aS'you'
p146
aS'you'
p147
aS'you'
p148
aS'you'
p149
aS'you'
p150
aS'you'
p151
aS'Shut'
p152
ag117
ag117
ag117
ag117
as(S'smoke'
p153
tp154
(lp155
S'tobacco'
p156
aS'puff'
p157
aS"I'm"
p158
aS'break'
p159
aS'break'
p160
aS'She'
p161
aS'to'
p162
aS'sesh'
p163
aS'break'
p164
aS'break'
p165
aS'out'
p166
aS'in'
p167
aS'break'
p168
aS'break'
p169
as(S'zero'
p170
tp171
(lp172
S'problems'
p173
as(S'Ooh'
p174
tp175
(lp176
S'watch'
p177
as(S'done'
p178
tp179
(lp180
S'took'
p181
as(S'child'
p182
tp183
(lp184
S'come'
p185
aS'She'
p186
aS'You'
p187
ag117
as(S'When'
p188
tp189
(lp190
S'the'
p191
ag117
ag117
ag117
ag117
aS'the'
p192
aS'the'
p193
aS'the'
p194
aS'the'
p195
aS'the'
p196
aS'the'
p197
aS'the'
p198
aS'the'
p199
aS'the'
p200
aS'the'
p201
aS'the'
p202
aS'did'
p203
aS'did'
p204
aS'they'
p205
aS'every'
p206
aS'they'
p207
ag117
aS'did'
p208
aS'it'
p209
aS'she'
p210
as(S'kidnap'
p211
tp212
(lp213
S'newborns'
p214
as(S'way'
p215
tp216
(lp217
S'And'
p218
aS'over'
p219
aS'Never'
p220
aS'Make'
p221
aS'no'
p222
aS'downtown'
p223
aS'too'
p224
aS'too'
p225
as(S'car'
p226
tp227
(lp228
g117
as(S'if'
p229
tp230
(lp231
S'that'
p232
aS'it'
p233
aS'they'
p234
aS'they'
p235
aS'you'
p236
as(S'proud'
p237
tp238
(lp239
S'of'
p240
as(S'serpent'
p241
tp242
(lp243
S"That's"
p244
as(S'Nico'
p245
tp246
(lp247
S'grab'
p248
as(S'pull'
p249
tp250
(lp251
S'up'
p252
as(S'Bruh'
p253
tp254
(lp255
S"I'm"
p256
as(S'till'
p257
tp258
(lp259
S"I'm"
p260
aS"I'm"
p261
aS'he'
p262
as(S'Two'
p263
tp264
(lp265
S'sips'
p266
as(S'ready'
p267
tp268
(lp269
S'Tell'
p270
aS'today'
p271
aS'how'
p272
aS'for'
p273
aS'for'
p274
aS'are'
p275
aS'Are'
p276
aS'are'
p277
aS'Are'
p278
aS'are'
p279
aS'Are'
p280
aS'are'
p281
aS'Are'
p282
aS'are'
p283
aS'It'
p284
aS'Are'
p285
aS'Are'
p286
aS'for'
p287
aS'for'
p288
aS'for'
p289
aS'for'
p290
aS'for'
p291
aS'for'
p292
aS'for'
p293
aS'for'
p294
aS'for'
p295
aS'for'
p296
aS'for'
p297
aS'for'
p298
aS'for'
p299
aS'for'
p300
aS'are'
p301
aS'Are'
p302
aS'for'
p303
aS'for'
p304
aS'for'
p305
aS'for'
p306
aS'for'
p307
aS'for'
p308
aS'for'
p309
aS'for'
p310
aS'for'
p311
aS'for'
p312
aS'big'
p313
as(S'Joe'
p314
tp315
(lp316
S'Namath'
p317
as(S'breathe'
p318
tp319
(lp320
S'We'
p321
as(S"girl's"
p322
tp323
(lp324
S'behind'
p325
as(S'deserve'
p326
tp327
(lp328
S'we'
p329
aS'We'
p330
aS'a'
p331
aS'we'
p332
aS'We'
p333
ag331
aS'you'
p334
aS'We'
p335
aS'we'
p336
aS'We'
p337
ag331
aS'we'
p338
aS'We'
p339
ag331
aS'you'
p340
aS'We'
p341
aS'we'
p342
aS'We'
p343
ag331
aS'we'
p344
aS'We'
p345
ag331
as(S'extreme'
p346
tp347
(lp348
g117
as(S'hoes'
p349
tp350
(lp351
S'Pretty'
p352
aS'Well'
p353
ag117
as(S"payo'"
p354
tp355
(lp356
S'They'
p357
as(S'college'
p358
tp359
(lp360
S'drop'
p361
as(S'happen'
p362
tp363
(lp364
S'to'
p365
as(S'Hosanna'
p366
tp367
(lp368
S'Santa'
p369
as(S'Lil'
p370
tp371
(lp372
S'Derek'
p373
aS'Boat'
p374
aS'Boat'
p375
as(S'e'
p376
tp377
(lp378
S'She'
p379
as(S'jungle'
p380
tp381
(lp382
S'like'
p383
as(S'Started'
p384
tp385
(lp386
S'forgetting'
p387
as(S'designer'
p388
tp389
(lp390
S'galore'
p391
as(S'booty'
p392
tp393
(lp394
S"gon'"
p395
as(S"Jesus'"
p396
tp397
(lp398
S'black'
p399
as(S'So'
p400
tp401
(lp402
S'we'
p403
aS'we'
p404
aS'we'
p405
aS'put'
p406
aS'lay'
p407
aS'tell'
p408
aS'we'
p409
aS'we'
p410
aS'tell'
p411
aS'we'
p412
aS'we'
p413
aS'back'
p414
aS'when'
p415
aS'when'
p416
aS'He'
p417
aS'someday'
p418
aS'are'
p419
as(S'helicopter'
p420
tp421
(lp422
g117
as(S'swallow'
p423
tp424
(lp425
g331
as(S'everybody'
p426
tp427
(lp428
S'outside'
p429
aS'wanna'
p430
as(S'they'
p431
tp432
(lp433
S'be'
p434
aS'be'
p435
aS'be'
p436
aS'doing'
p437
aS'kidnap'
p438
aS'robes'
p439
aS'be'
p440
aS'be'
p441
aS'may'
p442
aS'call'
p443
aS'got'
p444
aS'spoil'
p445
aS'fuck'
p446
aS'told'
p447
aS'make'
p448
aS'put'
p449
aS'fuck'
p450
aS'call'
p451
aS'tassel'
p452
aS'fuck'
p453
aS'be'
p454
aS'keep'
p455
aS'Kevin'
p456
aS'rest'
p457
aS'bunny'
p458
aS'keep'
p459
aS'keep'
p460
aS'keep'
p461
aS'play'
p462
aS'grown'
p463
aS'dating'
p464
aS"gon'"
p465
aS'cling'
p466
aS'own'
p467
aS'drive'
p468
aS'ship'
p469
as(S'church'
p470
tp471
(lp472
S'only'
p473
aS'out'
p474
as(S'rolled'
p475
tp476
(lp477
S'up'
p478
aS'at'
p479
as(S'forged'
p480
tp481
(lp482
S'it'
p483
as(S'told'
p484
tp485
(lp486
S'yah'
p487
aS'you'
p488
aS'me'
p489
aS'me'
p490
aS'we'
p491
aS'me'
p492
aS'prophetic'
p493
as(S'becoming'
p494
tp495
(lp496
S'my'
p497
as(S'needed'
p498
tp499
(lp500
S'to'
p501
aS'to'
p502
as(S'Chisel'
p503
tp504
(lp505
S'me'
p506
as(S'one'
p507
tp508
(lp509
S'more'
p510
aS'more'
p511
aS'minute'
p512
aS'who'
p513
aS'with'
p514
aS'ten'
p515
aS'get'
p516
aS'faking'
p517
aS'score'
p518
as(S'hurry'
p519
tp520
(lp521
S"don't"
p522
as(S'whip'
p523
tp524
(lp525
S'with'
p526
aS'Damn'
p527
as(S'After'
p528
tp529
(lp530
S'1Night'
p531
as(S'magnify'
p532
tp533
(lp534
S'lift'
p535
as(S'mad'
p536
tp537
(lp538
S"I'm"
p539
as(S'food'
p540
tp541
(lp542
S'All'
p543
as(S'stone'
p544
tp545
(lp546
S'prayer'
p547
as(S'Parliament'
p548
tp549
(lp550
S'And'
p551
as(S'cars'
p552
tp553
(lp554
S'You'
p555
as(S'word'
p556
tp557
(lp558
S'from'
p559
as(S'songs'
p560
tp561
(lp562
S'for'
p563
ag117
aS'You'
p564
aS'with'
p565
as(S'tat'
p566
tp567
(lp568
S'was'
p569
as(S'blessing'
p570
tp571
(lp572
S'now'
p573
as(S'Only'
p574
tp575
(lp576
S'righteous'
p577
as(S'live'
p578
tp579
(lp580
S'Power'
p581
aS'Power'
p582
as(S'true'
p583
tp584
(lp585
S'When'
p586
aS'When'
p587
aS'though'
p588
aS'name'
p589
as(S'ways'
p590
tp591
(lp592
S'We'
p593
as(S'skullduggery'
p594
tp595
(lp596
g117
as(S'For'
p597
tp598
(lp599
S'you'
p600
as(S'Start'
p601
tp602
(lp603
S'dancing'
p604
aS'dancing'
p605
as(S'sudden'
p606
tp607
(lp608
S'woo'
p609
aS'woo'
p610
as(S'tense'
p611
tp612
(lp613
S'past'
p614
as(S'favor'
p615
tp616
(lp617
S'And'
p618
as(S'park'
p619
tp620
(lp621
S'ayy'
p622
as(S'hip'
p623
tp624
(lp625
S'roll'
p626
as(S'Hedwig'
p627
tp628
(lp629
S'till'
p630
as(S'lawns'
p631
tp632
(lp633
S'Fold'
p634
as(S'hair'
p635
tp636
(lp637
S'Momma'
p638
aS'salon'
p639
aS"Jesus'"
p640
aS'Where'
p641
as(S'Uber'
p642
tp643
(lp644
S'You'
p645
aS'whip'
p646
as(S'throwing'
p647
tp648
(lp649
S'on'
p650
ag331
as(S'history'
p651
tp652
(lp653
S'baby'
p654
aS'baby'
p655
aS'baby'
p656
as(S'into'
p657
tp658
(lp659
S'stone'
p660
aS'song'
p661
aS'racks'
p662
aS'Apple'
p663
as(S'Jericho'
p664
tp665
(lp666
S'with'
p667
as(S"didn't"
p668
tp669
(lp670
S'care'
p671
aS'abandon'
p672
as(S"Kanye's"
p673
tp674
(lp675
S'best'
p676
as(S'goofy'
p677
tp678
(lp679
S'if'
p680
as(S'New'
p681
tp682
(lp683
S'sound'
p684
aS'Jerusalem'
p685
as(S'holding'
p686
tp687
(lp688
S'you'
p689
as(S'maybe'
p690
tp691
(lp692
S'that'
p693
aS'Maybe'
p694
aS'Maybe'
p695
as(S'Told'
p696
tp697
(lp698
S'me'
p699
aS'my'
p700
aS'me'
p701
as(S'chased'
p702
tp703
(lp704
S'by'
p705
as(S'smile'
p706
tp707
(lp708
S'Everybody'
p709
aS'So'
p710
aS'good'
p711
as(S'something'
p712
tp713
(lp714
S"'bout"
p715
as(S'Man'
p716
tp717
(lp718
S'my'
p719
ag117
as(S'Power'
p720
tp721
(lp722
S'92'
p723
aS'92'
p724
as(S'Walked'
p725
tp726
(lp727
S'into'
p728
as(S'A'
p729
tp730
(lp731
S'shadow'
p732
aS'shadow'
p733
aS'week'
p734
aS'mustard'
p735
aS'fire'
p736
as(S'Think'
p737
tp738
(lp739
g117
as(S'Mister'
p740
tp741
(lp742
S'Mufasa'
p743
as(S'Word'
p744
tp745
(lp746
S'This'
p747
as(S'women'
p748
tp749
(lp750
S'real'
p751
as(S'spit'
p752
tp753
(lp754
S'on'
p755
aS'on'
p756
as(S'different'
p757
tp758
(lp759
S'songs'
p760
aS'New'
p761
as(S'arms'
p762
tp763
(lp764
S'just'
p765
as(S'being'
p766
tp767
(lp768
S'kids'
p769
aS'told'
p770
as(S'said'
p771
tp772
(lp773
S"I'm"
p774
aS'he'
p775
aS'rhymed'
p776
aS'the'
p777
aS'am'
p778
aS"I'm"
p779
aS'let'
p780
aS'why'
p781
aS"it's"
p782
aS'cool'
p783
as(S'lying'
p784
tp785
(lp786
S'to'
p787
as(S'first'
p788
tp789
(lp790
S'This'
p791
aS'tat'
p792
aS'is'
p793
as(S'Please'
p794
tp795
(lp796
S'give'
p797
aS"don't"
p798
aS"don't"
p799
as(S'lame'
p800
tp801
(lp802
S'ass'
p803
as(S'emptiness'
p804
tp805
(lp806
S'was'
p807
as(S'sting'
p808
tp809
(lp810
S'like'
p811
as(S'passion'
p812
tp813
(lp814
S'School'
p815
as(S'else'
p816
tp817
(lp818
S'can'
p819
as(S'laughing'
p820
tp821
(lp822
S'with'
p823
as(S'Craig'
p824
tp825
(lp826
S'did'
p827
as(S'that'
p828
tp829
(lp830
S'intro'
p831
aS'played'
p832
aS"ain't"
p833
aS"don't"
p834
aS'talk'
p835
aS'make'
p836
aS'label'
p837
aS'We'
p838
aS'can'
p839
aS'from'
p840
aS'loyalty'
p841
aS'lotion'
p842
aS'choppa'
p843
aS'mean'
p844
aS'shit'
p845
aS'they'
p846
aS'space'
p847
aS'God'
p848
aS'the'
p849
aS'we'
p850
aS'rode'
p851
ag117
aS'we'
p852
aS'they'
p853
aS'talk'
p854
aS'pain'
p855
aS'was'
p856
aS'was'
p857
aS'was'
p858
aS'was'
p859
aS'you'
p860
as(S'wrong'
p861
tp862
(lp863
S'with'
p864
aS'with'
p865
as(S'long'
p866
tp867
(lp868
S'hair'
p869
aS'my'
p870
aS'ride'
p871
as(S'every'
p872
tp873
(lp874
S'night'
p875
aS'morn'
p876
aS'father'
p877
aS'DJ'
p878
aS'African'
p879
as(S'drugs'
p880
tp881
(lp882
S"isn't"
p883
aS'no'
p884
aS'do'
p885
aS'no'
p886
aS'no'
p887
aS'do'
p888
aS'no'
p889
aS'no'
p890
aS'do'
p891
aS'no'
p892
aS'do'
p893
aS'no'
p894
aS'no'
p895
aS'no'
p896
aS'do'
p897
aS'no'
p898
aS'no'
p899
aS'no'
p900
aS'do'
p901
aS'no'
p902
aS'Turn'
p903
aS'no'
p904
aS'do'
p905
aS'no'
p906
as(S'ay'
p907
tp908
(lp909
S'ay'
p910
aS'All'
p911
aS'ay'
p912
aS'Everybody'
p913
aS'ay'
p914
aS'All'
p915
aS'ay'
p916
aS'You'
p917
aS'Last'
p918
aS'ay'
p919
aS'All'
p920
aS'ay'
p921
aS'How'
p922
as(S'cute'
p923
tp924
(lp925
S'And'
p926
as(S'lyft'
p927
tp928
(lp929
S'Is'
p930
as(S"'round"
p931
tp932
(lp933
S'your'
p934
as(S'Actavis'
p935
tp936
(lp937
S'baby'
p938
as(S'steady'
p939
tp940
(lp941
S"playin'"
p942
aS"playin'"
p943
as(S'give'
p944
tp945
(lp946
S'it'
p947
aS'it'
p948
aS'satan'
p949
aS'nothing'
p950
aS'it'
p951
aS'your'
p952
aS'me'
p953
aS'her'
p954
as(S'feeling'
p955
tp956
(lp957
S'shortness'
p958
as(S'might'
p959
tp960
(lp961
S'as'
p962
aS'as'
p963
aS'make'
p964
aS'give'
p965
aS'as'
p966
aS'really'
p967
aS'share'
p968
aS'just'
p969
as(S'yours'
p970
tp971
(lp972
S"don't"
p973
as(S'Wear'
p974
tp975
(lp976
S'your'
p977
aS'your'
p978
aS'your'
p979
as(S"Ain't"
p980
tp981
(lp982
S'no'
p983
as(S"Noah's"
p984
tp985
(lp986
S'stream'
p987
as(S'weekend'
p988
tp989
(lp990
S'Rolling'
p991
aS'Rollin'
p992
as(S'all'
p993
tp994
(lp995
S'kings'
p996
aS'we'
p997
aS'we'
p998
aS'we'
p999
aS'we'
p1000
aS'we'
p1001
aS'we'
p1002
aS'we'
p1003
aS'we'
p1004
aS'we'
p1005
aS'we'
p1006
aS'we'
p1007
aS'the'
p1008
aS'the'
p1009
aS'the'
p1010
aS'the'
p1011
aS'the'
p1012
aS'the'
p1013
aS'my'
p1014
aS'my'
p1015
aS'my'
p1016
aS'the'
p1017
aS'these'
p1018
ag117
aS'around'
p1019
aS'around'
p1020
aS'around'
p1021
aS'around'
p1022
aS'the'
p1023
aS'in'
p1024
aS'night'
p1025
aS'night'
p1026
aS'night'
p1027
aS'night'
p1028
aS'night'
p1029
aS'night'
p1030
aS'night'
p1031
aS'night'
p1032
aS'night'
p1033
aS'night'
p1034
aS'night'
p1035
aS'night'
p1036
aS'night'
p1037
aS'night'
p1038
aS'night'
p1039
aS'night'
p1040
aS'night'
p1041
aS'night'
p1042
aS'night'
p1043
aS'names'
p1044
aS'praise'
p1045
aS'names'
p1046
aS'praise'
p1047
ag117
ag331
aS'She'
p1048
aS'We'
p1049
aS'of'
p1050
aS'over'
p1051
aS'the'
p1052
aS'them'
p1053
aS'that'
p1054
aS'that'
p1055
aS'that'
p1056
aS'that'
p1057
aS'be'
p1058
ag117
as(S'hotels'
p1059
tp1060
(lp1061
S'on'
p1062
as(S'Cali'
p1063
tp1064
(lp1065
S'will'
p1066
as(S'seems'
p1067
tp1068
(lp1069
S'like'
p1070
aS'like'
p1071
aS'like'
p1072
aS'like'
p1073
as(S'bugs'
p1074
tp1075
(lp1076
S'When'
p1077
as(S'Jam'
p1078
tp1079
(lp1080
S'Get'
p1081
as(S'words'
p1082
tp1083
(lp1084
S'ayy'
p1085
aS'ayy'
p1086
as(S'bumped'
p1087
tp1088
(lp1089
S'heads'
p1090
as(S'parties'
p1091
tp1092
(lp1093
S'So'
p1094
aS'So'
p1095
as(S'Odyssey'
p1096
tp1097
(lp1098
S'They'
p1099
as(S'names'
p1100
tp1101
(lp1102
S'Worthy'
p1103
aS'Worthy'
p1104
as(S'chamomile'
p1105
tp1106
(lp1107
S'Rice'
p1108
as(S'for'
p1109
tp1110
(lp1111
S'the'
p1112
aS'your'
p1113
aS'free'
p1114
aS'you'
p1115
aS'you'
p1116
aS'free'
p1117
aS'freedom'
p1118
aS'your'
p1119
aS'your'
p1120
aS'your'
p1121
ag331
aS'my'
p1122
aS'beef'
p1123
aS'free'
p1124
aS'my'
p1125
aS'you'
p1126
aS'me'
p1127
aS'the'
p1128
aS'the'
p1129
ag331
ag117
aS'every'
p1130
aS'the'
p1131
ag331
aS'no'
p1132
aS'herself'
p1133
ag331
ag331
ag331
ag331
ag331
aS'myself'
p1134
aS'esteem'
p1135
aS'four'
p1136
aS'giving'
p1137
aS'when'
p1138
aS'your'
p1139
aS'your'
p1140
aS'your'
p1141
aS'your'
p1142
aS'your'
p1143
aS'your'
p1144
aS'your'
p1145
aS'your'
p1146
aS'your'
p1147
aS'your'
p1148
aS'your'
p1149
aS'your'
p1150
aS'your'
p1151
aS'your'
p1152
aS'your'
p1153
aS'your'
p1154
aS'your'
p1155
aS'your'
p1156
aS'your'
p1157
aS'your'
p1158
aS'your'
p1159
aS'your'
p1160
aS'your'
p1161
aS'your'
p1162
as(S'reach'
p1163
tp1164
(lp1165
S'my'
p1166
as(S'book'
p1167
tp1168
(lp1169
S"don't"
p1170
aS'in'
p1171
as(S'height'
p1172
tp1173
(lp1174
S'we'
p1175
as(S'prayed'
p1176
tp1177
(lp1178
S'and'
p1179
aS'and'
p1180
aS'and'
p1181
aS'and'
p1182
aS'and'
p1183
aS'and'
p1184
aS'and'
p1185
aS'and'
p1186
aS'and'
p1187
aS'and'
p1188
aS'with'
p1189
as(S"she'll"
p1190
tp1191
(lp1192
S'lie'
p1193
aS'fart'
p1194
as(S"you'd"
p1195
tp1196
(lp1197
S'never'
p1198
aS'never'
p1199
aS'think'
p1200
as(S"'bout"
p1201
tp1202
(lp1203
S'blonde'
p1204
aS'Frooties'
p1205
as(S'warm'
p1206
tp1207
(lp1208
S'All'
p1209
ag117
as(S'together'
p1210
tp1211
(lp1212
S'like'
p1213
as(S'borders'
p1214
tp1215
(lp1216
S'where'
p1217
as(S'shoulder'
p1218
tp1219
(lp1220
S'Citywide'
p1221
as(S'Thugger'
p1222
tp1223
(lp1224
S'Lil'
p1225
as(S'babylon'
p1226
tp1227
(lp1228
S'tumbling'
p1229
as(S'great'
p1230
tp1231
(lp1232
g117
ag117
ag117
aS'is'
p1233
aS'is'
p1234
aS'is'
p1235
aS'is'
p1236
aS'is'
p1237
aS'how'
p1238
aS'is'
p1239
aS'is'
p1240
aS'is'
p1241
aS'is'
p1242
aS'is'
p1243
aS'is'
p1244
aS'is'
p1245
aS'is'
p1246
aS'how'
p1247
aS'how'
p1248
aS'how'
p1249
aS'how'
p1250
aS'how'
p1251
aS'is'
p1252
as(S'Change'
p1253
tp1254
(lp1255
S'the'
p1256
as(S"that's"
p1257
tp1258
(lp1259
S'why'
p1260
aS'like'
p1261
aS'like'
p1262
aS'like'
p1263
aS'nice'
p1264
aS'cool'
p1265
aS'true'
p1266
ag331
as(S'That'
p1267
tp1268
(lp1269
S'booty'
p1270
as(S'choked'
p1271
tp1272
(lp1273
S'up'
p1274
as(S'Even'
p1275
tp1276
(lp1277
S'when'
p1278
aS'when'
p1279
as(S'kiddies'
p1280
tp1281
(lp1282
S'stop'
p1283
as(S'Like'
p1284
tp1285
(lp1286
S'my'
p1287
aS'they'
p1288
aS'we'
p1289
aS'we'
p1290
aS'children'
p1291
aS'everything'
p1292
aS'all'
p1293
aS'emptiness'
p1294
aS'Nat'
p1295
as(S'housewife'
p1296
tp1297
(lp1298
g117
as(S'link'
p1299
tp1300
(lp1301
S'in'
p1302
as(S'Paul'
p1303
tp1304
(lp1305
S"I'm"
p1306
as(S'full'
p1307
tp1308
(lp1309
S'of'
p1310
aS'of'
p1311
aS'of'
p1312
as(S'exalted'
p1313
tp1314
(lp1315
S'Christ'
p1316
as(S'juke'
p1317
tp1318
(lp1319
S'angel'
p1320
aS'GCI'
p1321
aS'juke'
p1322
aS'juke'
p1323
aS'juke'
p1324
aS'They'
p1325
aS'jam'
p1326
aS'jam'
p1327
aS'jam'
p1328
aS'jam'
p1329
aS'Maybe'
p1330
aS'Come'
p1331
as(S"rockin'"
p1332
tp1333
(lp1334
S"scoopin'"
p1335
as(S'take'
p1336
tp1337
(lp1338
S'nothing'
p1339
aS'your'
p1340
aS'the'
p1341
aS'the'
p1342
aS'each'
p1343
as(S'real'
p1344
tp1345
(lp1346
S'early'
p1347
aS'And'
p1348
aS'tall'
p1349
aS'worried'
p1350
aS'man'
p1351
aS'fans'
p1352
as(S'Worthy'
p1353
tp1354
(lp1355
S'of'
p1356
aS'of'
p1357
as(S'help'
p1358
tp1359
(lp1360
S"I've"
p1361
as(S'there'
p1362
tp1363
(lp1364
S'Aye'
p1365
aS'when'
p1366
aS'he'
p1367
aS'never'
p1368
as(S'folks'
p1369
tp1370
(lp1371
S'thought'
p1372
aS'dancing'
p1373
aS'do'
p1374
aS'do'
p1375
aS'that'
p1376
as(S'called'
p1377
tp1378
(lp1379
S'on'
p1380
as(S'fresh'
p1381
tp1382
(lp1383
S'start'
p1384
as(S'Drinking'
p1385
tp1386
(lp1387
S'Actavis'
p1388
as(S'petty'
p1389
tp1390
(lp1391
S'Peter'
p1392
aS'goals'
p1393
as(S'custody'
p1394
tp1395
(lp1396
S'Exalt'
p1397
as(S'mind'
p1398
tp1399
(lp1400
S'full'
p1401
as(S"goin'"
p1402
tp1403
(lp1404
S'to'
p1405
aS'live'
p1406
aS'live'
p1407
as(S'stand'
p1408
tp1409
(lp1410
S'me'
p1411
aS'you'
p1412
aS'him'
p1413
aS'to'
p1414
as(S'cling'
p1415
tp1416
(lp1417
g117
as(S'raised'
p1418
tp1419
(lp1420
S"'em"
p1421
as(S'those'
p1422
tp1423
(lp1424
S'Bruh'
p1425
aS'bucks'
p1426
as(S'patrol'
p1427
tp1428
(lp1429
S'Let'
p1430
as(S'marbles'
p1431
tp1432
(lp1433
S'You'
p1434
as(S'mail'
p1435
tp1436
(lp1437
S'There'
p1438
aS'There'
p1439
aS'There'
p1440
aS'There'
p1441
as(S'wage'
p1442
tp1443
(lp1444
S'war'
p1445
as(S'signs'
p1446
tp1447
(lp1448
S"Don't"
p1449
aS'Color'
p1450
as(S'choppa'
p1451
tp1452
(lp1453
g117
as(S'behind'
p1454
tp1455
(lp1456
S'me'
p1457
as(S'Momma'
p1458
tp1459
(lp1460
S'hair'
p1461
as(S'fuck'
p1462
tp1463
(lp1464
S'off'
p1465
aS'all'
p1466
aS'with'
p1467
aS'about'
p1468
aS'around'
p1469
aS'is'
p1470
aS'is'
p1471
aS'Then'
p1472
aS'is'
p1473
as(S'shoulda'
p1474
tp1475
(lp1476
S'never'
p1477
aS'knew'
p1478
as(S"Sacrificin'"
p1479
tp1480
(lp1481
S'everything'
p1482
as(S'Lullabies'
p1483
tp1484
(lp1485
S'and'
p1486
as(S'Bom'
p1487
tp1488
(lp1489
S'bom'
p1490
aS'bom'
p1491
aS'bom'
p1492
aS'bom'
p1493
as(S'case'
p1494
tp1495
(lp1496
g117
as(S'Time'
p1497
tp1498
(lp1499
S'and'
p1500
as(S'booked'
p1501
tp1502
(lp1503
S'the'
p1504
as(S'side'
p1505
tp1506
(lp1507
g117
as(S"heaven's"
p1508
tp1509
(lp1510
S'gates'
p1511
as(S'woke'
p1512
tp1513
(lp1514
S'up'
p1515
as(S'dancing'
p1516
tp1517
(lp1518
S'the'
p1519
aS"It's"
p1520
aS'ho'
p1521
aS'ho'
p1522
as(S'hell'
p1523
tp1524
(lp1525
S'you'
p1526
aS'or'
p1527
as(S'Hear'
p1528
tp1529
(lp1530
S'for'
p1531
as(S'ark'
p1532
tp1533
(lp1534
S'to'
p1535
as(S'catching'
p1536
tp1537
(lp1538
S'lightning'
p1539
as(S'righteous'
p1540
tp1541
(lp1542
g117
as(S'spoil'
p1543
tp1544
(lp1545
S'me'
p1546
as(S'king'
p1547
tp1548
(lp1549
S'of'
p1550
as(S'Kevin'
p1551
tp1552
(lp1553
S'Gates'
p1554
as(S'money'
p1555
tp1556
(lp1557
S'And'
p1558
aS"ain't"
p1559
aS'No'
p1560
aS'So'
p1561
aS'get'
p1562
as(S'Run'
p1563
tp1564
(lp1565
S'shit'
p1566
as(S'Beam'
p1567
tp1568
(lp1569
S'This'
p1570
as(S'robes'
p1571
tp1572
(lp1573
S'just'
p1574
aS'Half'
p1575
as(S'jam'
p1576
tp1577
(lp1578
S'So'
p1579
aS'We'
p1580
aS'So'
p1581
aS'We'
p1582
ag117
as(S'saying'
p1583
tp1584
(lp1585
S'something'
p1586
aS'the'
p1587
as(S'6'
p1588
tp1589
(lp1590
S'Give'
p1591
as(S'shhh'
p1592
tp1593
(lp1594
g117
as(S'right'
p1595
tp1596
(lp1597
S'back'
p1598
aS'down'
p1599
aS'back'
p1600
as(S'Last'
p1601
tp1602
(lp1603
S'girl'
p1604
aS'year'
p1605
as(S'apple'
p1606
tp1607
(lp1608
S'pies'
p1609
as(S'Mula'
p1610
tp1611
(lp1612
S'baby'
p1613
as(S'Blockbuster'
p1614
tp1615
(lp1616
S'movies'
p1617
as(S"people's"
p1618
tp1619
(lp1620
S'champ'
p1621
as(S'suicide'
p1622
tp1623
(lp1624
S'doors'
p1625
as(S'opened'
p1626
tp1627
(lp1628
S'the'
p1629
as(S'felt'
p1630
tp1631
(lp1632
S'like'
p1633
aS'hog'
p1634
as(S"wha'"
p1635
tp1636
(lp1637
S'mean'
p1638
as(S'some'
p1639
tp1640
(lp1641
S'earl'
p1642
aS'dreadhead'
p1643
aS'dreadhead'
p1644
aS'crazy'
p1645
aS'lawns'
p1646
aS'of'
p1647
aS'rings'
p1648
aS'ice'
p1649
aS'Goyard'
p1650
aS'folks'
p1651
aS'food'
p1652
aS'ideas'
p1653
aS'Hebru'
p1654
as(S'cares'
p1655
tp1656
(lp1657
S'about'
p1658
as(S'determined'
p1659
tp1660
(lp1661
S'Told'
p1662
as(S'politics'
p1663
tp1664
(lp1665
S'Chicago'
p1666
as(S'and'
p1667
tp1668
(lp1669
S'we'
p1670
aS'we'
p1671
aS'we'
p1672
aS'we'
p1673
aS'we'
p1674
aS'sound'
p1675
aS'put'
p1676
aS'God'
p1677
aS'let'
p1678
aS'only'
p1679
aS'now'
p1680
aS'them'
p1681
aS'the'
p1682
aS"Harold's"
p1683
aS'fucked'
p1684
aS'worldly'
p1685
aS'mortar'
p1686
ag117
aS"it's"
p1687
aS'that'
p1688
aS'they'
p1689
aS'hit'
p1690
aS'time'
p1691
aS'sign'
p1692
aS'time'
p1693
aS'Chews'
p1694
ag117
aS'my'
p1695
aS'they'
p1696
ag117
aS'now'
p1697
aS'rocket'
p1698
aS'spilt'
p1699
aS'alibis'
p1700
aS'three'
p1701
aS"it's"
p1702
aS'woke'
p1703
aS'fortify'
p1704
aS'prayed'
p1705
aS'left'
p1706
aS'kill'
p1707
ag331
aS'put'
p1708
aS'gave'
p1709
aS'bowl'
p1710
aS'roll'
p1711
aS'gars'
p1712
aS'had'
p1713
aS'we'
p1714
aS'we'
p1715
aS'we'
p1716
aS'we'
p1717
aS'we'
p1718
aS'started'
p1719
aS'he'
p1720
aS'prayed'
p1721
aS'now'
p1722
aS'prayed'
p1723
aS'now'
p1724
aS'my'
p1725
aS'prayed'
p1726
aS'now'
p1727
aS'prayed'
p1728
aS'now'
p1729
aS'all'
p1730
aS'His'
p1731
aS'tell'
p1732
aS'you'
p1733
ag117
aS'chamomile'
p1734
aS'they'
p1735
as(S'panda'
p1736
tp1737
(lp1738
S'That'
p1739
as(S'ball'
p1740
tp1741
(lp1742
S'ayy'
p1743
aS'ayy'
p1744
aS'Like'
p1745
aS'of'
p1746
as(S'campers'
p1747
tp1748
(lp1749
S'way'
p1750
as(S'cared'
p1751
tp1752
(lp1753
S'about'
p1754
as(S'Fuck'
p1755
tp1756
(lp1757
S'wrong'
p1758
aS'you'
p1759
aS'the'
p1760
aS'wrong'
p1761
aS'them'
p1762
as(S'Truth'
p1763
tp1764
(lp1765
S'being'
p1766
as(S'sewers'
p1767
tp1768
(lp1769
S'They'
p1770
as(S'mutual'
p1771
tp1772
(lp1773
S'fans'
p1774
as(S'Hope'
p1775
tp1776
(lp1777
S'there'
p1778
as(S'move'
p1779
tp1780
(lp1781
S'on'
p1782
as(S'dinner'
p1783
tp1784
(lp1785
S'or'
p1786
as(S'Fruit'
p1787
tp1788
(lp1789
S'Works'
p1790
as(S'Krillin'
p1791
tp1792
(lp1793
S'saying'
p1794
as(S'taking'
p1795
tp1796
(lp1797
S'no'
p1798
as(S'headed'
p1799
tp1800
(lp1801
S'bike-stealing'
p1802
as(S'surrounded'
p1803
tp1804
(lp1805
S'Who'
p1806
aS'Wap'
p1807
aS'Na'
p1808
aS'Who'
p1809
as(S'lotion'
p1810
tp1811
(lp1812
S'babe'
p1813
as(S'far'
p1814
tp1815
(lp1816
S'down'
p1817
as(S'establishment'
p1818
tp1819
(lp1820
S'crumbling'
p1821
as(S'blessings'
p1822
tp1823
(lp1824
S'out'
p1825
aS'come'
p1826
aS'come'
p1827
aS'keep'
p1828
aS'keep'
p1829
aS'come'
p1830
aS'come'
p1831
aS'come'
p1832
aS'come'
p1833
aS'keep'
p1834
aS'come'
p1835
aS'come'
p1836
aS'and'
p1837
aS'come'
p1838
aS'come'
p1839
aS'come'
p1840
aS'come'
p1841
aS'come'
p1842
aS'When'
p1843
aS'come'
p1844
aS'come'
p1845
aS'keep'
p1846
aS'in'
p1847
aS'Are'
p1848
aS'Are'
p1849
aS'Are'
p1850
aS'Are'
p1851
aS'Are'
p1852
aS'Are'
p1853
aS'Are'
p1854
aS'Are'
p1855
aS'Are'
p1856
aS'Are'
p1857
aS'Are'
p1858
aS'Are'
p1859
as(S'faucet'
p1860
tp1861
(lp1862
g117
as(S'coupon'
p1863
tp1864
(lp1865
S'Her'
p1866
as(S'Old'
p1867
tp1868
(lp1869
S'Jerusalem'
p1870
as(S'Southampton'
p1871
tp1872
(lp1873
S'to'
p1874
as(S'Take'
p1875
tp1876
(lp1877
S'You'
p1878
aS'it'
p1879
aS'it'
p1880
aS'me'
p1881
as(S'safely'
p1882
tp1883
(lp1884
g117
as(S'sweet'
p1885
tp1886
(lp1887
S'ho'
p1888
as(S'tied'
p1889
tp1890
(lp1891
S'ever'
p1892
as(S'Keef'
p1893
tp1894
(lp1895
S'Got'
p1896
as(S'sign'
p1897
tp1898
(lp1899
S'me'
p1900
as(S'split'
p1901
tp1902
(lp1903
S'an'
p1904
as(S'shawtys'
p1905
tp1906
(lp1907
S'act'
p1908
as(S'Slow'
p1909
tp1910
(lp1911
S'it'
p1912
aS'it'
p1913
aS'it'
p1914
aS'it'
p1915
as(S"Devil's"
p1916
tp1917
(lp1918
S'chamber'
p1919
as(S'Xan'
p1920
tp1921
(lp1922
S"Can't"
p1923
as(S"Satan's"
p1924
tp1925
(lp1926
S'establishment'
p1927
as(S'Sometimes'
p1928
tp1929
(lp1930
S'the'
p1931
as(S'magic'
p1932
tp1933
(lp1934
S'trick'
p1935
as(S'ayy'
p1936
tp1937
(lp1938
S'All'
p1939
aS'We'
p1940
aS'We'
p1941
ag117
aS'Type'
p1942
aS'You'
p1943
aS'Think'
p1944
ag117
as(S'caterer'
p1945
tp1946
(lp1947
S'Oh'
p1948
as(S'outta'
p1949
tp1950
(lp1951
S'control'
p1952
as(S'Move'
p1953
tp1954
(lp1955
S'on'
p1956
as(S'sesh'
p1957
tp1958
(lp1959
S'Let'
p1960
as(S'perc'
p1961
tp1962
(lp1963
S'for'
p1964
as(S'goofies'
p1965
tp1966
(lp1967
S"can't"
p1968
as(S'modify'
p1969
tp1970
(lp1971
S'or'
p1972
as(S'mine'
p1973
tp1974
(lp1975
S'yeah'
p1976
aS'ye'
p1977
aS'yeah'
p1978
aS'ye'
p1979
as(S'Rollin'
p1980
tp1981
(lp1982
S'with'
p1983
as(S'Namath'
p1984
tp1985
(lp1986
S"Kanye's"
p1987
as(S'pursue'
p1988
tp1989
(lp1990
S'it'
p1991
as(S'whore'
p1992
tp1993
(lp1994
g117
as(S'run'
p1995
tp1996
(lp1997
S'this'
p1998
as(S'village'
p1999
tp2000
(lp2001
S'raised'
p2002
aS'burned'
p2003
as(S'since'
p2004
tp2005
(lp2006
g117
aS'the'
p2007
aS'the'
p2008
aS'my'
p2009
as(S'Socks'
p2010
tp2011
(lp2012
S'on'
p2013
as(S'spurt'
p2014
tp2015
(lp2016
S'It'
p2017
as(S'realized'
p2018
tp2019
(lp2020
S'what'
p2021
as(S'Maybe'
p2022
tp2023
(lp2024
S'you'
p2025
aS"I'm"
p2026
aS'you'
p2027
aS"I'm"
p2028
aS'juke'
p2029
as(S"nigga's"
p2030
tp2031
(lp2032
S'shooting'
p2033
as(S'de'
p2034
tp2035
(lp2036
S'gallo'
p2037
aS'Mayo'
p2038
as(S"grandma's"
p2039
tp2040
(lp2041
S'crib'
p2042
as(S'interest'
p2043
tp2044
(lp2045
S'Now'
p2046
as(S'buzz'
p2047
tp2048
(lp2049
S'And'
p2050
as(S'dozen'
p2051
tp2052
(lp2053
S"'Til"
p2054
as(S'brother'
p2055
tp2056
(lp2057
S"'Cause"
p2058
aS'foot'
p2059
as(S'Shut'
p2060
tp2061
(lp2062
S'up'
p2063
aS'up'
p2064
as(S'bounty'
p2065
tp2066
(lp2067
S'hunters'
p2068
as(S'First'
p2069
tp2070
(lp2071
S'day'
p2072
as(S'dick'
p2073
tp2074
(lp2075
S"I'm"
p2076
as(S'modesty'
p2077
tp2078
(lp2079
g117
as(S'Yep'
p2080
tp2081
(lp2082
S'If'
p2083
aS'yep'
p2084
aS'yep'
p2085
as(S'Stay'
p2086
tp2087
(lp2088
S'around'
p2089
aS'in'
p2090
aS'in'
p2091
as(S'fried'
p2092
tp2093
(lp2094
S'on'
p2095
as(S"couldn't"
p2096
tp2097
(lp2098
S'have'
p2099
aS'stand'
p2100
aS'stand'
p2101
aS'stand'
p2102
aS'stand'
p2103
aS'even'
p2104
as(S'Then'
p2105
tp2106
(lp2107
g117
aS'we'
p2108
as(S'hat'
p2109
tp2110
(lp2111
S'at'
p2112
aS"that's"
p2113
aS"that's"
p2114
aS"that's"
p2115
ag117
as(S'jog'
p2116
tp2117
(lp2118
S'in'
p2119
as(S'kind'
p2120
tp2121
(lp2122
S'from'
p2123
as(S'taste'
p2124
tp2125
(lp2126
S'She'
p2127
aS'All'
p2128
ag117
aS'Bad'
p2129
ag117
aS'Am'
p2130
ag117
aS'Angels'
p2131
as(S'His'
p2132
tp2133
(lp2134
S'side'
p2135
aS'breaks'
p2136
aS'edges'
p2137
aS'city'
p2138
aS'love'
p2139
aS'love'
p2140
aS'love'
p2141
aS'love'
p2142
as(S'finesse'
p2143
tp2144
(lp2145
g117
as(S'turn'
p2146
tp2147
(lp2148
S'my'
p2149
aS'my'
p2150
aS'into'
p2151
as(S'feathers'
p2152
tp2153
(lp2154
S'So'
p2155
as(S'tape'
p2156
tp2157
(lp2158
S'to'
p2159
as(S'halo'
p2160
tp2161
(lp2162
S'like'
p2163
aS'like'
p2164
aS'like'
p2165
as(S'dean'
p2166
tp2167
(lp2168
S'Dropped'
p2169
as(S'keep'
p2170
tp2171
(lp2172
S'those'
p2173
aS'falling'
p2174
aS'falling'
p2175
aS'falling'
p2176
aS'falling'
p2177
aS'me'
p2178
aS'the'
p2179
aS'me'
p2180
aS'me'
p2181
aS'me'
p2182
aS'some'
p2183
aS'my'
p2184
as(S'GCI'
p2185
tp2186
(lp2187
S'1-0-7-5'
p2188
aS'1-0-7-5'
p2189
as(S'praises'
p2190
tp2191
(lp2192
S'go'
p2193
aS'go'
p2194
aS'go'
p2195
aS'go'
p2196
aS'go'
p2197
aS'go'
p2198
aS'go'
p2199
aS'go'
p2200
aS'go'
p2201
aS'go'
p2202
aS'go'
p2203
as(S'Revelations'
p2204
tp2205
(lp2206
S'with'
p2207
as(S'fans'
p2208
tp2209
(lp2210
S"waitin'"
p2211
ag117
ag117
as(S'back'
p2212
tp2213
(lp2214
S'And'
p2215
aS'and'
p2216
aS'and'
p2217
aS'and'
p2218
aS'and'
p2219
aS'and'
p2220
aS'na'
p2221
aS'and'
p2222
aS'safely'
p2223
aS'then'
p2224
aS'here'
p2225
aS'up'
p2226
aS'up'
p2227
ag331
ag117
aS'or'
p2228
aS'when'
p2229
aS'Slow'
p2230
aS'Slow'
p2231
ag117
aS'the'
p2232
aS'Let'
p2233
aS'and'
p2234
aS'and'
p2235
aS'and'
p2236
aS'Do-do-do-do-do-do-do'
p2237
aS'and'
p2238
aS'and'
p2239
aS'They'
p2240
aS"I'm"
p2241
as(S'marriage'
p2242
tp2243
(lp2244
S'on'
p2245
as(S'body'
p2246
tp2247
(lp2248
S"can't"
p2249
as(S'Auntie'
p2250
tp2251
(lp2252
S'Yonc\xc3'
p2253
as(S'No'
p2254
tp2255
(lp2256
S'you'
p2257
aS"IOU's"
p2258
aS'hog'
p2259
as(S'young'
p2260
tp2261
(lp2262
S'before'
p2263
aS'before'
p2264
aS'angels'
p2265
aS'for'
p2266
aS'to'
p2267
as(S'radio'
p2268
tp2269
(lp2270
S'And'
p2271
as(S'With'
p2272
tp2273
(lp2274
S'the'
p2275
ag331
aS'the'
p2276
as(S'left'
p2277
tp2278
(lp2279
S'messages'
p2280
aS'was'
p2281
aS'was'
p2282
aS'was'
p2283
aS'was'
p2284
as(S'third'
p2285
tp2286
(lp2287
S'This'
p2288
aS'ayy'
p2289
aS'ayy'
p2290
aS'Drought'
p2291
aS'Carter'
p2292
aS'grade'
p2293
aS'Barbershop'
p2294
aS'when'
p2295
as(S'find'
p2296
tp2297
(lp2298
S'another'
p2299
as(S'died'
p2300
tp2301
(lp2302
S'He'
p2303
as(S'swords'
p2304
tp2305
(lp2306
S'and'
p2307
as(S'packing'
p2308
tp2309
(lp2310
S'the'
p2311
as(S'even'
p2312
tp2313
(lp2314
S'need'
p2315
aS'had'
p2316
aS'valet'
p2317
aS'let'
p2318
aS'matter'
p2319
aS'warn'
p2320
as(S'Hallelujah'
p2321
tp2322
(lp2323
S'So'
p2324
as(S'wanna'
p2325
tp2326
(lp2327
S'know'
p2328
aS'know'
p2329
aS'know'
p2330
aS'know'
p2331
aS'know'
p2332
aS'know'
p2333
aS'know'
p2334
aS'know'
p2335
aS'trip'
p2336
aS'smile'
p2337
aS'lie'
p2338
aS'chill'
p2339
aS'build'
p2340
aS'laugh'
p2341
aS'ride'
p2342
aS'talk'
p2343
aS'you'
p2344
aS'you'
p2345
aS'you'
p2346
aS'you'
p2347
aS'you'
p2348
aS'Shut'
p2349
as(S'Grand'
p2350
tp2351
(lp2352
S'Crossing'
p2353
as(S'crumbling'
p2354
tp2355
(lp2356
S'down'
p2357
as(S'Na'
p2358
tp2359
(lp2360
S'na'
p2361
aS'na'
p2362
aS'na'
p2363
aS'na'
p2364
aS'na'
p2365
as(S'Inside'
p2366
tp2367
(lp2368
S'of'
p2369
as(S'look'
p2370
tp2371
(lp2372
S'at'
p2373
aS'at'
p2374
aS'out'
p2375
aS'at'
p2376
as(S'poured'
p2377
tp2378
(lp2379
S'up'
p2380
as(S'fool'
p2381
tp2382
(lp2383
S'But'
p2384
as(S'Spotify'
p2385
tp2386
(lp2387
S'to'
p2388
as(S'crack'
p2389
tp2390
(lp2391
S'of'
p2392
aS'this'
p2393
aS'your'
p2394
aS'your'
p2395
as(S'than'
p2396
tp2397
(lp2398
S'these'
p2399
ag331
aS'they'
p2400
aS'the'
p2401
aS'the'
p2402
ag331
aS"it's"
p2403
aS"it's"
p2404
aS"it's"
p2405
aS"it's"
p2406
aS"it's"
p2407
as(S'Turn'
p2408
tp2409
(lp2410
S'it'
p2411
as(S'messages'
p2412
tp2413
(lp2414
S'but'
p2415
as(S'so'
p2416
tp2417
(lp2418
S'determined'
p2419
aS'If'
p2420
aS'high'
p2421
aS"ridin'"
p2422
aS'young'
p2423
aS'young'
p2424
aS'Nico'
p2425
aS'forgetful'
p2426
aS'natural'
p2427
aS'many'
p2428
aS'my'
p2429
aS'damn'
p2430
aS'long'
p2431
aS'damn'
p2432
aS'damn'
p2433
aS'much'
p2434
aS'much'
p2435
aS'much'
p2436
aS'it'
p2437
aS'extreme'
p2438
aS'far'
p2439
aS'much'
p2440
ag117
as(S'blog'
p2441
tp2442
(lp2443
S'get'
p2444
as(S'forgetful'
p2445
tp2446
(lp2447
S'In'
p2448
as(S'fucked'
p2449
tp2450
(lp2451
S'all'
p2452
as(S'Uncle'
p2453
tp2454
(lp2455
S'Luke'
p2456
as(S'summer'
p2457
tp2458
(lp2459
S"don't"
p2460
aS'Our'
p2461
aS"don't"
p2462
aS'die'
p2463
aS'time'
p2464
aS'friends'
p2465
aS"You're"
p2466
as(S'Bad'
p2467
tp2468
(lp2469
S'little'
p2470
aS'little'
p2471
aS'little'
p2472
aS'little'
p2473
aS'little'
p2474
aS'little'
p2475
aS'little'
p2476
aS'little'
p2477
aS'little'
p2478
as(S'discernment'
p2479
tp2480
(lp2481
S'Daddy'
p2482
as(S'promised'
p2483
tp2484
(lp2485
S'lands'
p2486
as(S'perfect'
p2487
tp2488
(lp2489
g117
aS'and'
p2490
as(S'may'
p2491
tp2492
(lp2493
S'sound'
p2494
aS'Cinco'
p2495
aS'be'
p2496
aS'be'
p2497
aS'be'
p2498
aS'cry'
p2499
aS'cry'
p2500
aS'be'
p2501
aS'be'
p2502
as(S'seventh'
p2503
tp2504
(lp2505
S'grade'
p2506
as(S'Ludacris'
p2507
tp2508
(lp2509
g117
as(S'steps'
p2510
tp2511
(lp2512
S'gave'
p2513
as(S'Half'
p2514
tp2515
(lp2516
g331
as(S'Devil'
p2517
tp2518
(lp2519
S'will'
p2520
as(S"dappin'"
p2521
tp2522
(lp2523
S'This'
p2524
as(S'fart'
p2525
tp2526
(lp2527
S'on'
p2528
as(S'rapper'
p2529
tp2530
(lp2531
S'With'
p2532
aS'jump'
p2533
aS'lose'
p2534
aS'practice'
p2535
as(S"don't"
p2536
tp2537
(lp2538
S'give'
p2539
aS'take'
p2540
aS'want'
p2541
aS'want'
p2542
aS'want'
p2543
aS'want'
p2544
aS'want'
p2545
aS'want'
p2546
aS'want'
p2547
aS'want'
p2548
aS'want'
p2549
aS'want'
p2550
aS'want'
p2551
aS'want'
p2552
aS'want'
p2553
aS'want'
p2554
aS'want'
p2555
aS'want'
p2556
aS'want'
p2557
aS'want'
p2558
aS'want'
p2559
aS'want'
p2560
aS'want'
p2561
aS'want'
p2562
aS'want'
p2563
aS'our'
p2564
aS'get'
p2565
aS'got'
p2566
aS'stay'
p2567
aS'stay'
p2568
aS'stay'
p2569
aS'stay'
p2570
aS'stick'
p2571
aS'make'
p2572
aS'do'
p2573
aS'do'
p2574
aS'do'
p2575
aS'do'
p2576
aS'do'
p2577
aS'do'
p2578
aS'do'
p2579
aS'do'
p2580
aS'do'
p2581
aS'laugh'
p2582
aS'do'
p2583
aS'do'
p2584
aS'wait'
p2585
aS'we'
p2586
aS'do'
p2587
aS'we'
p2588
aS'do'
p2589
aS'do'
p2590
aS'do'
p2591
aS'we'
p2592
aS'do'
p2593
aS'do'
p2594
aS'do'
p2595
aS'do'
p2596
aS'do'
p2597
aS'we'
p2598
aS'we'
p2599
aS"Don't"
p2600
aS'do'
p2601
aS'do'
p2602
aS'we'
p2603
aS'we'
p2604
aS"Don't"
p2605
aS'know'
p2606
aS'know'
p2607
aS'know'
p2608
aS'even'
p2609
aS'have'
p2610
aS'even'
p2611
aS'trust'
p2612
aS'know'
p2613
aS'end'
p2614
aS'believe'
p2615
aS'got'
p2616
aS'got'
p2617
aS'got'
p2618
aS'be'
p2619
aS'have'
p2620
aS'be'
p2621
aS'have'
p2622
aS'have'
p2623
aS'get'
p2624
aS'get'
p2625
aS'even'
p2626
aS'worry'
p2627
aS'even'
p2628
aS'eat'
p2629
as(S'hey'
p2630
tp2631
(lp2632
S'Fuck'
p2633
aS'Stay'
p2634
aS'Ready'
p2635
aS'And'
p2636
aS'79'
p2637
aS'79'
p2638
aS'hey'
p2639
aS'hey'
p2640
aS"You're"
p2641
aS'79'
p2642
aS'Citywide'
p2643
aS'Citywide'
p2644
aS'Citywide'
p2645
aS'Citywide'
p2646
aS'All'
p2647
aS'All'
p2648
aS'All'
p2649
as(S'Black'
p2650
tp2651
(lp2652
S'queen'
p2653
as(S'cheat'
p2654
tp2655
(lp2656
S'you'
p2657
as(S'no'
p2658
tp2659
(lp2660
S'intro'
p2661
aS'problem'
p2662
aS'problem'
p2663
aS'problem'
p2664
aS'problem'
p2665
aS'problem'
p2666
aS'problem'
p2667
aS'problem'
p2668
aS'problem'
p2669
aS'problem'
p2670
aS'problem'
p2671
aS'problem'
p2672
aS'problem'
p2673
aS'problem'
p2674
aS'problem'
p2675
aS'problem'
p2676
aS'problem'
p2677
aS'problem'
p2678
aS'problem'
p2679
aS'problem'
p2680
aS'problem'
p2681
aS'pies'
p2682
aS'problem'
p2683
aS'problem'
p2684
aS'problem'
p2685
aS'problem'
p2686
aS'problem'
p2687
aS'problem'
p2688
aS'problem'
p2689
aS'problem'
p2690
aS'problem'
p2691
aS'problem'
p2692
aS'problem'
p2693
aS'problem'
p2694
aS'problem'
p2695
aS'problem'
p2696
aS'problem'
p2697
aS'problem'
p2698
aS'problem'
p2699
aS'problem'
p2700
aS'problem'
p2701
aS'problem'
p2702
aS'problem'
p2703
aS'problem'
p2704
aS'problem'
p2705
aS'problem'
p2706
aS'dad'
p2707
aS'choice'
p2708
aS'shine'
p2709
aS'more'
p2710
aS'time'
p2711
aS'more'
p2712
aS'blood'
p2713
aS'Twitter'
p2714
aS"visitin'"
p2715
aS'more'
p2716
aS'more'
p2717
aS'more'
p2718
aS'more'
p2719
aS'more'
p2720
aS'more'
p2721
aS'more'
p2722
aS'more'
p2723
aS'more'
p2724
aS'more'
p2725
aS'more'
p2726
aS'more'
p2727
aS'more'
p2728
aS'more'
p2729
aS'more'
p2730
aS'more'
p2731
aS'good'
p2732
aS'They'
p2733
aS'more'
p2734
aS'Everybody'
p2735
aS'Oh'
p2736
aS'one'
p2737
aS'one'
p2738
aS'meerkat'
p2739
aS'hear'
p2740
aS'time'
p2741
aS'time'
p2742
aS'time'
p2743
aS'sex'
p2744
aS'time'
p2745
aS'hoes'
p2746
aS'cost'
p2747
aS'Last'
p2748
as(S'Okay'
p2749
tp2750
(lp2751
S'now'
p2752
as(S'Shabach'
p2753
tp2754
(lp2755
S'barak'
p2756
as(S'yep'
p2757
tp2758
(lp2759
S'Pull'
p2760
aS'Pull'
p2761
as(S'Where'
p2762
tp2763
(lp2764
S'the'
p2765
aS'did'
p2766
aS'did'
p2767
aS'else'
p2768
aS'For'
p2769
as(S'act'
p2770
tp2771
(lp2772
S'hard'
p2773
as(S'Do-do-do-do-do'
p2774
tp2775
(lp2776
S'And'
p2777
aS'And'
p2778
aS'Do-do-do-do-do-do-do'
p2779
aS'All'
p2780
aS'Do-do-do-do-do-do-do'
p2781
aS'The'
p2782
as(S'his'
p2783
tp2784
(lp2785
S'daddy'
p2786
aS'stand-in'
p2787
as(S"Isn't"
p2788
tp2789
(lp2790
S'this'
p2791
as(S'Look'
p2792
tp2793
(lp2794
S'like'
p2795
as(S'reviews'
p2796
tp2797
(lp2798
S'that'
p2799
as(S'camp'
p2800
tp2801
(lp2802
S'at'
p2803
aS'Me'
p2804
as(S'bring'
p2805
tp2806
(lp2807
S'you'
p2808
aS'my'
p2809
aS'my'
p2810
aS'me'
p2811
as(S'growth'
p2812
tp2813
(lp2814
S'spurt'
p2815
as(S'messiahs'
p2816
tp2817
(lp2818
S'It'
p2819
as(S'Benjis'
p2820
tp2821
(lp2822
S'while'
p2823
as(S'Obama'
p2824
tp2825
(lp2826
S'She'
p2827
as(S'how'
p2828
tp2829
(lp2830
g117
aS'to'
p2831
aS'lips'
p2832
aS'the'
p2833
aS'lips'
p2834
aS'lips'
p2835
aS'lips'
p2836
aS'lips'
p2837
aS'lips'
p2838
aS'lips'
p2839
aS'great'
p2840
aS'great'
p2841
aS'great'
p2842
aS'great'
p2843
aS'great'
p2844
aS'great'
p2845
aS'great'
p2846
aS'great'
p2847
aS'great'
p2848
aS'great'
p2849
aS'great'
p2850
aS'great'
p2851
aS'great'
p2852
aS'great'
p2853
aS'great'
p2854
aS'great'
p2855
aS'to'
p2856
as(S'stop'
p2857
tp2858
(lp2859
S'me'
p2860
aS'me'
p2861
aS'me'
p2862
aS'What'
p2863
aS'me'
p2864
aS'skating'
p2865
as(S'smoking'
p2866
tp2867
(lp2868
g331
aS'We'
p2869
ag331
ag331
ag331
ag331
ag331
ag331
as(S'laugh'
p2870
tp2871
(lp2872
S'the'
p2873
aS'Oh'
p2874
aS'at'
p2875
as(S'percs'
p2876
tp2877
(lp2878
S'for'
p2879
as(S'mountain'
p2880
tp2881
(lp2882
S'high'
p2883
aS'Hallelujah'
p2884
as(S'pies'
p2885
tp2886
(lp2887
S'there'
p2888
aS'Lullabies'
p2889
as(S'na'
p2890
tp2891
(lp2892
S'na'
p2893
aS'na'
p2894
aS'This'
p2895
aS'na'
p2896
aS'na'
p2897
aS'na'
p2898
ag117
aS'na'
p2899
aS'na'
p2900
ag117
aS'na'
p2901
aS'na'
p2902
aS'na'
p2903
ag117
aS'na'
p2904
aS'na'
p2905
ag117
aS'na'
p2906
aS'na'
p2907
ag117
aS'Na'
p2908
ag117
as(S'Twitter'
p2909
tp2910
(lp2911
S'in'
p2912
as(S'Space'
p2913
tp2914
(lp2915
S'Jam'
p2916
as(S'Spark'
p2917
tp2918
(lp2919
S'the'
p2920
as(S'sow'
p2921
tp2922
(lp2923
g331
as(S'tattoo'
p2924
tp2925
(lp2926
S'She'
p2927
as(S'crest'
p2928
tp2929
(lp2930
S'And'
p2931
as(S'myself'
p2932
tp2933
(lp2934
g117
aS'oh'
p2935
as(S'perms'
p2936
tp2937
(lp2938
S'out'
p2939
as(S'holistic'
p2940
tp2941
(lp2942
S'discernment'
p2943
as(S'yah'
p2944
tp2945
(lp2946
S'Hold'
p2947
as(S'altar'
p2948
tp2949
(lp2950
S'like'
p2951
as(S'lofty'
p2952
tp2953
(lp2954
S'height'
p2955
as(S'knew'
p2956
tp2957
(lp2958
S'when'
p2959
as(S'stranger'
p2960
tp2961
(lp2962
S"Don't"
p2963
as(S'nap'
p2964
tp2965
(lp2966
S'hey'
p2967
as(S'Got'
p2968
tp2969
(lp2970
g331
aS'the'
p2971
aS'the'
p2972
aS'us'
p2973
as(S'parents'
p2974
tp2975
(lp2976
S'digging'
p2977
as(S'skating'
p2978
tp2979
(lp2980
S'To'
p2981
as(S'arm'
p2982
tp2983
(lp2984
S'you'
p2985
as(S'mortar'
p2986
tp2987
(lp2988
S'fall'
p2989
as(S'rescue'
p2990
tp2991
(lp2992
S'me'
p2993
as(S'heard'
p2994
tp2995
(lp2996
S'college'
p2997
as(S'Ready'
p2998
tp2999
(lp3000
S'my'
p3001
as(S'Yes'
p3002
tp3003
(lp3004
S'This'
p3005
aS'and'
p3006
as(S'ex'
p3007
tp3008
(lp3009
S'girl'
p3010
as(S'thing'
p3011
tp3012
(lp3013
S'This'
p3014
aS"I'm"
p3015
aS"I'm"
p3016
aS'God'
p3017
aS'that'
p3018
ag117
as(S'grew'
p3019
tp3020
(lp3021
S'up'
p3022
as(S'talk'
p3023
tp3024
(lp3025
S'to'
p3026
aS'that'
p3027
aS'that'
p3028
aS'way'
p3029
ag117
aS'about'
p3030
aS'so'
p3031
as(S'ah'
p3032
tp3033
(lp3034
S'Gimme'
p3035
aS'Do-do-do-do-do-do-do'
p3036
as(S'Hit'
p3037
tp3038
(lp3039
S'that'
p3040
aS'Jericho'
p3041
as(S'Carter'
p3042
tp3043
(lp3044
S'niggas'
p3045
aS"Sacrificin'"
p3046
aS'Hold'
p3047
aS'drop'
p3048
as(S'their'
p3049
tp3050
(lp3051
S'hands'
p3052
aS'baby'
p3053
aS'robes'
p3054
as(S'Yeezy'
p3055
tp3056
(lp3057
S'said'
p3058
as(S'ass'
p3059
tp3060
(lp3061
S'nigga'
p3062
as(S"thinkin'"
p3063
tp3064
(lp3065
S'Fuck'
p3066
aS'What'
p3067
aS'So'
p3068
aS'So'
p3069
as(S'special'
p3070
tp3071
(lp3072
S"You're"
p3073
aS'too'
p3074
aS'This'
p3075
aS"You're"
p3076
aS'too'
p3077
aS'This'
p3078
as(S'anti-label'
p3079
tp3080
(lp3081
S'Pro-famous'
p3082
as(S'reborn'
p3083
tp3084
(lp3085
g117
as(S'bih'
p3086
tp3087
(lp3088
S'You'
p3089
aS'You'
p3090
aS'You'
p3091
aS'You'
p3092
aS'You'
p3093
as(S'danger'
p3094
tp3095
(lp3096
S'We'
p3097
as(S'satan'
p3098
tp3099
(lp3100
g331
as(S'white'
p3101
tp3102
(lp3103
S'collar'
p3104
as(S'lay'
p3105
tp3106
(lp3107
S'down'
p3108
aS'your'
p3109
aS'back'
p3110
as(S'earl'
p3111
tp3112
(lp3113
S'tea'
p3114
as(S'Andr\xc3'
p3115
tp3116
(lp3117
S'Tryna'
p3118
as(S'Any'
p3119
tp3120
(lp3121
S'petty'
p3122
as(S'feel'
p3123
tp3124
(lp3125
S'like'
p3126
aS'like'
p3127
aS'like'
p3128
aS'like'
p3129
aS'like'
p3130
as(S'Do-do-do-do-do-do-do'
p3131
tp3132
(lp3133
S'Do-do-do-do-do-do-do'
p3134
aS'Do-do-do-do-do-do-do'
p3135
aS'Do-do-do-do-do'
p3136
aS'Do-do-do-do-do-do-do'
p3137
aS'Do-do-do-do-do-do-do'
p3138
aS'Do-do-do-do-do'
p3139
aS'Do-do-do-do-do-do-do'
p3140
aS'Do-do-do-do-do-do-do'
p3141
aS'Do-do-do-do-do'
p3142
aS'Do-do-do-do-do-do-do'
p3143
aS'Do-do-do-do-do-do-do'
p3144
aS'Do-do-do-do-do'
p3145
aS'Do-do-do-do-do-do-do'
p3146
aS'Do-do-do-do-do-do-do'
p3147
aS'Do-do-do-do-do'
p3148
aS'Do-do-do-do-do-do-do'
p3149
aS'Do-do-do-do-do-do-do'
p3150
aS'Do-do-do-do-do'
p3151
as(S'Had'
p3152
tp3153
(lp3154
S'to'
p3155
as(S'space'
p3156
tp3157
(lp3158
S'and'
p3159
aS'Now'
p3160
as(S'front'
p3161
tp3162
(lp3163
S'flips'
p3164
as(S'pico'
p3165
tp3166
(lp3167
S'de'
p3168
as(S'Rub'
p3169
tp3170
(lp3171
S'me'
p3172
as(S'Igh'
p3173
tp3174
(lp3175
S'Igh'
p3176
aS'Igh'
p3177
aS'Igh'
p3178
aS'for'
p3179
as(S'Our'
p3180
tp3181
(lp3182
S'summer'
p3183
aS'summer'
p3184
aS'summer'
p3185
as(S'wash'
p3186
tp3187
(lp3188
S'You'
p3189
aS'me'
p3190
as(S'qualify'
p3191
tp3192
(lp3193
g331
as(S'soul'
p3194
tp3195
(lp3196
S'search'
p3197
aS"There's"
p3198
aS'and'
p3199
as(S'bosses'
p3200
tp3201
(lp3202
S'When'
p3203
aS'You'
p3204
as(S'Did'
p3205
tp3206
(lp3207
S'what'
p3208
as(S'win'
p3209
tp3210
(lp3211
S'employee'
p3212
as(S'huh'
p3213
tp3214
(lp3215
S'huh'
p3216
aS'You'
p3217
aS'huh'
p3218
aS'You'
p3219
as(S'old'
p3220
tp3221
(lp3222
S'Petey'
p3223
aS'stuff'
p3224
ag117
aS'folks'
p3225
aS'church'
p3226
aS'We'
p3227
as(S'wanted'
p3228
tp3229
(lp3230
S"didn't"
p3231
as(S'praise'
p3232
tp3233
(lp3234
S'Him'
p3235
aS'Him'
p3236
aS'Him'
p3237
aS'Him'
p3238
aS'Him'
p3239
aS'Him'
p3240
aS'Him'
p3241
aS'Him'
p3242
aS'dance'
p3243
aS'Him'
p3244
aS'Him'
p3245
aS'Him'
p3246
aS'Him'
p3247
aS'And'
p3248
aS'And'
p3249
as(S'paperwork'
p3250
tp3251
(lp3252
S'They'
p3253
as(S'forget'
p3254
tp3255
(lp3256
S'the'
p3257
aS'how'
p3258
as(S'Owls'
p3259
tp3260
(lp3261
S'to'
p3262
as(S"shawdy's"
p3263
tp3264
(lp3265
S'with'
p3266
as(S'signed'
p3267
tp3268
(lp3269
S'me'
p3270
as(S'Call'
p3271
tp3272
(lp3273
S'me'
p3274
as(S'baptized'
p3275
tp3276
(lp3277
S'like'
p3278
as(g331
tp3279
(lp3280
S'better'
p3281
aS'dream'
p3282
aS'swirlie'
p3283
aS'nap'
p3284
aS'lame'
p3285
aS'helicopter'
p3286
aS'pocket'
p3287
aS'mind'
p3288
aS'coupon'
p3289
aS'new'
p3290
aS'new'
p3291
aS"milli'"
p3292
aS'caterpillar'
p3293
aS'buzz'
p3294
aS'timeshare'
p3295
aS'lawn'
p3296
aS'friendship'
p3297
aS'blog'
p3298
aS'minute'
p3299
aS'friend'
p3300
aS'nigga'
p3301
aS'nigga'
p3302
aS'sword'
p3303
aS'crest'
p3304
aS'trumpet'
p3305
aS'force'
p3306
aS'four'
p3307
aS'horn'
p3308
aS'buzzer'
p3309
aS'quarter'
p3310
aS'hurry'
p3311
aS'magic'
p3312
aS'capitalized'
p3313
aS'link'
p3314
aS'bumble'
p3315
aS'Rollie'
p3316
aS'panda'
p3317
aS'solar'
p3318
aS'fresh'
p3319
aS'seamstress'
p3320
aS'gator'
p3321
aS'hater'
p3322
aS'caterer'
p3323
aS'fuck'
p3324
aS'bitch'
p3325
aS'real'
p3326
aS'deal'
p3327
aS'little'
p3328
aS'radio'
p3329
aS'rodeo'
p3330
aS'hat'
p3331
aS'growth'
p3332
aS'hat'
p3333
aS'hat'
p3334
aS'party'
p3335
aS'juke'
p3336
aS'juke'
p3337
aS'party'
p3338
aS'nigga'
p3339
aS'party'
p3340
aS'juke'
p3341
aS'juke'
p3342
aS'party'
p3343
aS'drinker'
p3344
aS'cab'
p3345
aS'fan'
p3346
aS'pic'
p3347
aS'Uber'
p3348
aS'goofy'
p3349
aS'lyft'
p3350
aS'race'
p3351
aS'spot'
p3352
aS'child'
p3353
aS'day'
p3354
aS'pumpkin-seed-sized'
p3355
aS'dream'
p3356
aS'friend'
p3357
aS'life'
p3358
aS'lofty'
p3359
aS'corpse'
p3360
aS'pulse'
p3361
aS'worm'
p3362
aS'valley'
p3363
aS'foot'
p3364
aS'foot'
p3365
aS'Harley'
p3366
aS'ball'
p3367
aS'lie'
p3368
aS'bowl'
p3369
aS'bowl'
p3370
aS'bowl'
p3371
aS'bowl'
p3372
aS'bowl'
p3373
aS'we'
p3374
aS'bowl'
p3375
aS'bowl'
p3376
aS'whole'
p3377
aS'half'
p3378
aS'fit'
p3379
aS'child'
p3380
aS'smile'
p3381
aS'second'
p3382
aS'second'
p3383
aS'smoke'
p3384
aS'smoke'
p3385
aS'bowl'
p3386
aS'second'
p3387
aS'second'
p3388
aS'minute'
p3389
aS'smoke'
p3390
aS'smoke'
p3391
aS'second'
p3392
aS'boss'
p3393
aS'whore'
p3394
aS'perc'
p3395
aS'queen'
p3396
aS'smoke'
p3397
aS'smoke'
p3398
aS'fool'
p3399
aS'prayer'
p3400
aS'long'
p3401
aS'day'
p3402
aS'marathon'
p3403
aS'marriage'
p3404
aS'baritone'
p3405
aS'queen'
p3406
aS'world'
p3407
aS'church'
p3408
aS'thirst'
p3409
aS'river'
p3410
aS'thousand'
p3411
aS'Black'
p3412
aS'vid'
p3413
aS'rapper'
p3414
as(S'poisoned'
p3415
tp3416
(lp3417
S'the'
p3418
as(S'was'
p3419
tp3420
(lp3421
g331
aS'baptized'
p3422
aS'You'
p3423
aS'on'
p3424
ag117
aS'talking'
p3425
aS'America'
p3426
aS'working'
p3427
aS'good'
p3428
aS'so'
p3429
aS'so'
p3430
aS'too'
p3431
aS'too'
p3432
aS"'Cause"
p3433
aS'too'
p3434
aS'too'
p3435
aS"'Cause"
p3436
aS'only'
p3437
aS'real'
p3438
aS'hoes'
p3439
aS'my'
p3440
aS'finished'
p3441
aS'talking'
p3442
aS'talking'
p3443
aS'talking'
p3444
aS'the'
p3445
aS'too'
p3446
aS'cute'
p3447
aS'lost'
p3448
aS'all'
p3449
aS'so'
p3450
aS'so'
p3451
aS'always'
p3452
aS'the'
p3453
aS'the'
p3454
aS'all'
p3455
ag331
aS'acting'
p3456
aS'tamed'
p3457
aS'left'
p3458
aS'His'
p3459
aS'left'
p3460
aS'His'
p3461
aS'left'
p3462
aS'His'
p3463
aS'left'
p3464
aS'His'
p3465
as(S'gallo'
p3466
tp3467
(lp3468
S'They'
p3469
as(S"lovin'"
p3470
tp3471
(lp3472
S'me'
p3473
as(S'Chews'
p3474
tp3475
(lp3476
S"'Til"
p3477
as(S'bit'
p3478
tp3479
(lp3480
S'of'
p3481
as(S'sick'
p3482
tp3483
(lp3484
S'Reclining'
p3485
as(S'My'
p3486
tp3487
(lp3488
S'shooters'
p3489
aS'niggas'
p3490
aS'first'
p3491
aS'deposits'
p3492
aS'woes'
p3493
aS'lord'
p3494
aS'bitch'
p3495
aS'village'
p3496
aS'dream'
p3497
as(S'just'
p3498
tp3499
(lp3500
S'might'
p3501
aS'their'
p3502
aS'popped'
p3503
aS'might'
p3504
aS'had'
p3505
aS'listening'
p3506
aS'go'
p3507
aS'hip'
p3508
aS'dancing'
p3509
aS'to'
p3510
aS'listening'
p3511
aS'wanna'
p3512
aS'wanna'
p3513
aS'wanna'
p3514
aS'wanna'
p3515
aS'wanna'
p3516
aS'wanna'
p3517
aS'wanna'
p3518
aS'wanna'
p3519
aS'went'
p3520
aS'shrug'
p3521
aS'been'
p3522
aS'been'
p3523
aS'been'
p3524
aS'been'
p3525
aS'been'
p3526
aS'been'
p3527
aS'been'
p3528
aS'been'
p3529
aS'What'
p3530
aS'been'
p3531
aS'put'
p3532
aS'put'
p3533
aS'sit'
p3534
aS'trying'
p3535
aS'here'
p3536
aS'bring'
p3537
as(S'days'
p3538
tp3539
(lp3540
S'stranger'
p3541
aS"Don't"
p3542
ag729
ag117
ag117
ag117
ag117
aS'He'
p3543
as(S'air'
p3544
tp3545
(lp3546
S'Dying'
p3547
aS'You'
p3548
as(S'Kingdom'
p3549
tp3550
(lp3551
S'Chisel'
p3552
as(S'neck'
p3553
tp3554
(lp3555
S'But'
p3556
as(S'house'
p3557
tp3558
(lp3559
S'now'
p3560
aS'of'
p3561
ag117
aS'She'
p3562
aS'full'
p3563
as(S'igh'
p3564
tp3565
(lp3566
S'igh'
p3567
aS'It'
p3568
as(S'pedal'
p3569
tp3570
(lp3571
g117
as(S'too'
p3572
tp3573
(lp3574
S'choked'
p3575
aS'warm'
p3576
aS'Everyone'
p3577
aS'Everyone'
p3578
aS'late'
p3579
aS'late'
p3580
aS'late'
p3581
aS'late'
p3582
aS'many'
p3583
aS'much'
p3584
aS'Your'
p3585
aS'young'
p3586
aS'worried'
p3587
aS'young'
p3588
aS'sick'
p3589
as(S'bling'
p3590
tp3591
(lp3592
S'Time'
p3593
as(S'Big'
p3594
tp3595
(lp3596
S'yacht'
p3597
as(S'age'
p3598
tp3599
(lp3600
S'of'
p3601
as(S'four'
p3602
tp3603
(lp3604
S'different'
p3605
aS'minute'
p3606
aS'hour'
p3607
aS'months'
p3608
as(S'racing'
p3609
tp3610
(lp3611
S'up'
p3612
as(S'atom'
p3613
tp3614
(lp3615
S'with'
p3616
as(S'Good'
p3617
tp3618
(lp3619
S'God'
p3620
aS'God'
p3621
aS'God'
p3622
aS'God'
p3623
aS'God'
p3624
aS'God'
p3625
aS'God'
p3626
aS'God'
p3627
as(S'follow'
p3628
tp3629
(lp3630
S'and'
p3631
as(S"Harold's"
p3632
tp3633
(lp3634
S'again'
p3635
as(S'Are'
p3636
tp3637
(lp3638
S'you'
p3639
aS'you'
p3640
aS'you'
p3641
aS'you'
p3642
aS'you'
p3643
aS'you'
p3644
aS'you'
p3645
aS'jagged'
p3646
aS'you'
p3647
aS'you'
p3648
aS'you'
p3649
aS'you'
p3650
aS'you'
p3651
aS'you'
p3652
aS'you'
p3653
aS'you'
p3654
aS'you'
p3655
aS'you'
p3656
aS'you'
p3657
aS'you'
p3658
aS'you'
p3659
aS'you'
p3660
aS'you'
p3661
aS'you'
p3662
aS'you'
p3663
aS'you'
p3664
aS'you'
p3665
aS'you'
p3666
aS'you'
p3667
aS'you'
p3668
aS'you'
p3669
aS'you'
p3670
aS'you'
p3671
aS'you'
p3672
as(S'Everybody'
p3673
tp3674
(lp3675
S'outside'
p3676
aS'high'
p3677
aS'wanna'
p3678
as(S'coming'
p3679
tp3680
(lp3681
S'Coming'
p3682
aS'coming'
p3683
aS'So'
p3684
as(S'Wide'
p3685
tp3686
(lp3687
S'eyed'
p3688
as(S'cost'
p3689
tp3690
(lp3691
S'When'
p3692
as(S'gars'
p3693
tp3694
(lp3695
g117
as(S'putting'
p3696
tp3697
(lp3698
S'points'
p3699
as(S'problems'
p3700
tp3701
(lp3702
S'big'
p3703
aS'bigger'
p3704
as(S'\xe2'
p3705
tp3706
(lp3707
S'2'
p3708
aS'Stand'
p3709
as(S'stunting'
p3710
tp3711
(lp3712
S'like'
p3713
as(S'beef'
p3714
tp3715
(lp3716
S'This'
p3717
as(S"visitin'"
p3718
tp3719
(lp3720
S'Heaven'
p3721
as(S'yes'
p3722
tp3723
(lp3724
S'You'
p3725
as(S'hit'
p3726
tp3727
(lp3728
S'the'
p3729
aS'the'
p3730
aS'the'
p3731
as(S'care'
p3732
tp3733
(lp3734
S'about'
p3735
aS'about'
p3736
aS'about'
p3737
aS'about'
p3738
aS'about'
p3739
aS'about'
p3740
aS'about'
p3741
aS'about'
p3742
aS'about'
p3743
aS'about'
p3744
aS'about'
p3745
as(S'onin'
p3746
tp3747
(lp3748
S'This'
p3749
as(S'citywide'
p3750
tp3751
(lp3752
S'citywide'
p3753
aS'hey'
p3754
aS'citywide'
p3755
aS'hey'
p3756
aS'citywide'
p3757
aS'hey'
p3758
aS'citywide'
p3759
aS'hey'
p3760
aS'citywide'
p3761
aS'Citywide'
p3762
aS'citywide'
p3763
aS'Citywide'
p3764
aS'citywide'
p3765
aS'Citywide'
p3766
aS'citywide'
p3767
aS'Citywide'
p3768
aS'citywide'
p3769
ag117
as(S'nappy'
p3770
tp3771
(lp3772
S'headed'
p3773
as(S'Peter'
p3774
tp3775
(lp3776
S'Petigrew'
p3777
as(S'Raws'
p3778
tp3779
(lp3780
S'We'
p3781
as(S'hot'
p3782
tp3783
(lp3784
S'as'
p3785
as(S'friends'
p3786
tp3787
(lp3788
S"don't"
p3789
aS"don't"
p3790
aS'summer'
p3791
aS'Summer'
p3792
aS"don't"
p3793
aS"don't"
p3794
aS'but'
p3795
aS'all'
p3796
aS'All'
p3797
aS'all'
p3798
aS'summer'
p3799
aS"don't"
p3800
aS'my'
p3801
aS'my'
p3802
aS'my'
p3803
aS'up'
p3804
aS'my'
p3805
aS'my'
p3806
aS'my'
p3807
aS'up'
p3808
aS'We'
p3809
aS'Labels'
p3810
ag117
as(S'Mayo'
p3811
tp3812
(lp3813
S'How'
p3814
as(S'talking'
p3815
tp3816
(lp3817
S'back'
p3818
aS'woo'
p3819
aS'woo'
p3820
aS'woo'
p3821
as(S'had'
p3822
tp3823
(lp3824
S'to'
p3825
aS'to'
p3826
aS'to'
p3827
aS'to'
p3828
aS'no'
p3829
aS'Steve'
p3830
ag331
ag331
aS'our'
p3831
aS'to'
p3832
as(S'dentist'
p3833
tp3834
(lp3835
S'After'
p3836
as(S'my'
p3837
tp3838
(lp3839
S'baby'
p3840
aS'fianc\xc3'
p3841
aS'daughter'
p3842
aS'life'
p3843
aS'own'
p3844
aS'word'
p3845
aS'other'
p3846
aS'lap'
p3847
aS'stomach'
p3848
aS"blessin'"
p3849
aS'passion'
p3850
aS'soda'
p3851
aS'goons'
p3852
aS'face'
p3853
aS'crib'
p3854
aS'niggas'
p3855
aS'niggas'
p3856
aS'friend'
p3857
aS'ones'
p3858
aS'blessing'
p3859
aS'way'
p3860
aS'way'
p3861
aS'homegirls'
p3862
aS'friends'
p3863
aS'friends'
p3864
aS'friends'
p3865
aS'Stick'
p3866
aS'friend'
p3867
aS'friend'
p3868
aS'shoulder'
p3869
aS'table'
p3870
aS'table'
p3871
aS'gang'
p3872
aS'friends'
p3873
aS'friends'
p3874
aS'friends'
p3875
aS'friends'
p3876
aS'gang'
p3877
aS'friends'
p3878
aS'friends'
p3879
aS'friends'
p3880
aS'friends'
p3881
aS'lap'
p3882
aS'lap'
p3883
aS'steps'
p3884
aS'lap'
p3885
aS'money'
p3886
aS'ex'
p3887
aS'everything'
p3888
aS'wrongs'
p3889
aS'lap'
p3890
aS'women'
p3891
aS'hat'
p3892
aS'bio'
p3893
aS'momma'
p3894
aS'momma'
p3895
aS'bitches'
p3896
aS'ring'
p3897
aS'brother'
p3898
aS'dean'
p3899
aS'interest'
p3900
aS'dentist'
p3901
aS'name'
p3902
aS'tape'
p3903
aS'hand'
p3904
aS'dick'
p3905
aS'city'
p3906
aS'daughter'
p3907
aS'real'
p3908
aS'new'
p3909
aS'next'
p3910
aS'number'
p3911
aS'day'
p3912
aS'BM'
p3913
aS'housewife'
p3914
aS'tippy'
p3915
aS'old'
p3916
aS'waist'
p3917
aS'arms'
p3918
aS'car'
p3919
aS'cousin'
p3920
aS'heart'
p3921
aS'heart'
p3922
aS'momma'
p3923
aS'city'
p3924
aS'night'
p3925
aS'boat'
p3926
aS'petty'
p3927
aS'light'
p3928
aS'enemies'
p3929
aS'jokes'
p3930
aS'back'
p3931
aS'time'
p3932
aS'mom'
p3933
aS'cars'
p3934
aS'head'
p3935
aS'body'
p3936
aS'name'
p3937
aS'chance'
p3938
aS'city'
p3939
aS'hat'
p3940
aS'dog'
p3941
aS'days'
p3942
aS'days'
p3943
aS'girl'
p3944
aS'face'
p3945
aS'friends'
p3946
aS'breath'
p3947
aS'days'
p3948
aS'days'
p3949
aS'house'
p3950
aS'name'
p3951
aS'blessings'
p3952
aS'God'
p3953
aS'God'
p3954
aS'soul'
p3955
aS'soul'
p3956
aS'rhymes'
p3957
as(S'rub'
p3958
tp3959
(lp3960
S'you'
p3961
as(S'came'
p3962
tp3963
(lp3964
S'out'
p3965
aS'from'
p3966
aS'with'
p3967
aS'with'
p3968
aS'up'
p3969
as(S'sewed'
p3970
tp3971
(lp3972
S'up'
p3973
as(S'choir'
p3974
tp3975
(lp3976
S"gon'"
p3977
as(S'disbelief'
p3978
tp3979
(lp3980
S'they'
p3981
as(S'path'
p3982
tp3983
(lp3984
g117
as(S'nicest'
p3985
tp3986
(lp3987
S'hotels'
p3988
as(S'bike-stealing'
p3989
tp3990
(lp3991
S'Chatham'
p3992
as(S'Daddy'
p3993
tp3994
(lp3995
S'said'
p3996
as(S'wide'
p3997
tp3998
(lp3999
S'windows'
p4000
as(S'could'
p4001
tp4002
(lp4003
S'merch'
p4004
aS'not'
p4005
aS'tell'
p4006
aS'remember'
p4007
aS'remember'
p4008
aS'get'
p4009
aS'happen'
p4010
aS'build'
p4011
aS'poke'
p4012
as(S'appearance'
p4013
tp4014
(lp4015
S'Bitch'
p4016
as(S'found'
p4017
tp4018
(lp4019
S'out'
p4020
as(S'smell'
p4021
tp4022
(lp4023
S'the'
p4024
aS'the'
p4025
as(S'hands'
p4026
tp4027
(lp4028
S"Countin'"
p4029
aS'Running'
p4030
as(S'search'
p4031
tp4032
(lp4033
S"I'm"
p4034
as(S'timeshare'
p4035
tp4036
(lp4037
g117
as(S'color'
p4038
tp4039
(lp4040
S'out'
p4041
aS'out'
p4042
as(S'bitches'
p4043
tp4044
(lp4045
S'come'
p4046
aS'centerfolds'
p4047
aS"gon'"
p4048
aS"lovin'"
p4049
as(S'pulse'
p4050
tp4051
(lp4052
S'of'
p4053
aS'of'
p4054
as(S'tumbling'
p4055
tp4056
(lp4057
S'down'
p4058
as(S'Pablo'
p4059
tp4060
(lp4061
S'take'
p4062
as(S'seven'
p4063
tp4064
(lp4065
S'days'
p4066
as(S'lived'
p4067
tp4068
(lp4069
S'The'
p4070
aS'to'
p4071
as(S'out'
p4072
tp4073
(lp4074
S'my'
p4075
aS'of'
p4076
aS'the'
p4077
aS'for'
p4078
aS"Don't"
p4079
aS'oh'
p4080
aS"Don't"
p4081
aS'oh'
p4082
aS'the'
p4083
aS'and'
p4084
aS'my'
p4085
aS'apples'
p4086
aS'all'
p4087
aS'on'
p4088
aS'all'
p4089
aS'of'
p4090
aS'music'
p4091
aS'music'
p4092
as(S'mustard'
p4093
tp4094
(lp4095
S'seed'
p4096
aS'seed'
p4097
as(S'changed'
p4098
tp4099
(lp4100
g331
aS'up'
p4101
ag331
aS'up'
p4102
as(S'deal'
p4103
tp4104
(lp4105
S'man'
p4106
as(S'Exalt'
p4107
tp4108
(lp4109
S'Exalt'
p4110
aS'glorify'
p4111
as(S'Oh'
p4112
tp4113
(lp4114
S'oh'
p4115
ag117
aS'bitch'
p4116
aS'they'
p4117
aS'now'
p4118
aS'now'
p4119
aS'now'
p4120
aS'now'
p4121
aS"I'm"
p4122
aS"I'm"
p4123
as(S'Get'
p4124
tp4125
(lp4126
S'this'
p4127
as(S'pass'
p4128
tp4129
(lp4130
S'her'
p4131
aS'out'
p4132
aS'out'
p4133
as(S'Citywide'
p4134
tp4135
(lp4136
S'citywide'
p4137
aS'citywide'
p4138
aS'citywide'
p4139
aS'citywide'
p4140
aS'citywide'
p4141
aS'citywide'
p4142
aS'citywide'
p4143
aS'citywide'
p4144
aS'citywide'
p4145
as(S'before'
p4146
tp4147
(lp4148
g117
ag117
as(S'eat'
p4149
tp4150
(lp4151
S'it'
p4152
as(S'lick'
p4153
tp4154
(lp4155
S'this'
p4156
as(S'stomach'
p4157
tp4158
(lp4159
S'Got'
p4160
as(S'merch'
p4161
tp4162
(lp4163
S'it'
p4164
aS'Grandma'
p4165
as(S'employee'
p4166
tp4167
(lp4168
S'of'
p4169
as(S'big'
p4170
tp4171
(lp4172
S'fella'
p4173
aS'shawtys'
p4174
aS'wide'
p4175
aS'brother'
p4176
aS'fella'
p4177
aS'fella'
p4178
aS'fella'
p4179
aS'fella'
p4180
aS'fella'
p4181
aS'fella'
p4182
aS'fella'
p4183
as(S'late'
p4184
tp4185
(lp4186
S'he'
p4187
ag117
ag729
ag117
ag729
as(S'woo'
p4188
tp4189
(lp4190
S'woo'
p4191
aS'this'
p4192
aS'wap'
p4193
aS'wap'
p4194
aS'woo'
p4195
aS'this'
p4196
aS'wap'
p4197
aS'woo'
p4198
aS'this'
p4199
aS'wap'
p4200
aS'wap'
p4201
as(S"flippin'"
p4202
tp4203
(lp4204
S'those'
p4205
as(S'weed'
p4206
tp4207
(lp4208
S'in'
p4209
aS'in'
p4210
aS'in'
p4211
as(S'crucifix'
p4212
tp4213
(lp4214
g117
as(S'buzzer'
p4215
tp4216
(lp4217
S'beater'
p4218
as(S'sword'
p4219
tp4220
(lp4221
S'with'
p4222
as(S"Can't"
p4223
tp4224
(lp4225
S'see'
p4226
aS'stop'
p4227
aS'no'
p4228
as(S'teaching'
p4229
tp4230
(lp4231
S'taxes'
p4232
as(S'though'
p4233
tp4234
(lp4235
S'bitch'
p4236
aS'Yeah'
p4237
aS'But'
p4238
aS'Damn'
p4239
aS'Oh'
p4240
aS'All'
p4241
as(S'hakuna'
p4242
tp4243
(lp4244
S'matata'
p4245
as(S'let'
p4246
tp4247
(lp4248
S'the'
p4249
ag331
ag331
aS'our'
p4250
aS'my'
p4251
aS'me'
p4252
aS'me'
p4253
as(S'Walk'
p4254
tp4255
(lp4256
S'out'
p4257
as(S'shake'
p4258
tp4259
(lp4260
S'my'
p4261
as(S'war'
p4262
tp4263
(lp4264
S'with'
p4265
aS'On'
p4266
as(S'Down'
p4267
tp4268
(lp4269
S'Chris'
p4270
as(S'Chatham'
p4271
tp4272
(lp4273
S'boys'
p4274
aS'Manor'
p4275
as(S'treat'
p4276
tp4277
(lp4278
S'the'
p4279
aS'my'
p4280
aS'my'
p4281
as(S"'Cause"
p4282
tp4283
(lp4284
S'she'
p4285
aS'we'
p4286
aS'we'
p4287
aS'he'
p4288
aS'in'
p4289
as(S'singing'
p4290
tp4291
(lp4292
S'Do-do-do-do-do-do-do'
p4293
as(S"wasn't"
p4294
tp4295
(lp4296
S'you'
p4297
as(S'Broadway'
p4298
tp4299
(lp4300
S'Joe'
p4301
as(S'cannot'
p4302
tp4303
(lp4304
S'modify'
p4305
aS'scrap'
p4306
as(S'meet'
p4307
tp4308
(lp4309
S'anyone'
p4310
as(S'champ'
p4311
tp4312
(lp4313
S'must'
p4314
as(S'Ikea'
p4315
tp4316
(lp4317
S'Run'
p4318
as(S'Wish'
p4319
tp4320
(lp4321
g117
aS'we'
p4322
as(S'gone'
p4323
tp4324
(lp4325
S"I'm"
p4326
aS'When'
p4327
aS"Don't"
p4328
aS'When'
p4329
aS'Good'
p4330
aS'When'
p4331
as(S'safe'
p4332
tp4333
(lp4334
S'another'
p4335
as(S'Ice'
p4336
tp4337
(lp4338
S'cream'
p4339
as(S'nice'
p4340
tp4341
(lp4342
S'no'
p4343
as(S'your'
p4344
tp4345
(lp4346
S'way'
p4347
aS'head'
p4348
aS'shirt'
p4349
aS'head'
p4350
aS'head'
p4351
aS'head'
p4352
aS'head'
p4353
aS'journey'
p4354
aS'family'
p4355
aS'blessings'
p4356
aS'miracle'
p4357
aS'marbles'
p4358
aS'hair'
p4359
aS'words'
p4360
aS'words'
p4361
aS'boss'
p4362
aS'perimeter'
p4363
aS'slime'
p4364
aS'halo'
p4365
aS'halo'
p4366
aS'halo'
p4367
aS'best'
p4368
aS'parties'
p4369
aS'hips'
p4370
aS'legs'
p4371
aS'best'
p4372
aS'leg'
p4373
aS'phone'
p4374
aS'shorties'
p4375
aS'back'
p4376
aS'neck'
p4377
aS'back'
p4378
aS'holy'
p4379
aS'mountain'
p4380
aS'blessings'
p4381
aS'miracle'
p4382
aS'blessings'
p4383
aS'miracle'
p4384
aS'blessings'
p4385
aS'miracle'
p4386
aS'blessings'
p4387
aS'miracle'
p4388
aS'blessings'
p4389
aS'miracle'
p4390
aS'blessings'
p4391
aS'miracle'
p4392
aS'blessings'
p4393
aS'miracle'
p4394
aS'blessings'
p4395
aS'miracle'
p4396
aS'blessings'
p4397
aS'miracle'
p4398
aS'blessings'
p4399
aS'miracle'
p4400
aS'blessings'
p4401
aS'miracle'
p4402
aS'blessings'
p4403
aS'miracle'
p4404
as(S'perform'
p4405
tp4406
(lp4407
g117
as(S'saving'
p4408
tp4409
(lp4410
S'no'
p4411
as(S'Kosher'
p4412
tp4413
(lp4414
S'momma'
p4415
as(S"blessin'"
p4416
tp4417
(lp4418
S'This'
p4419
as(S'petrified'
p4420
tp4421
(lp4422
S'Any'
p4423
as(S'prayer'
p4424
tp4425
(lp4426
S'whistle'
p4427
aS"I'm"
p4428
as(S'public'
p4429
tp4430
(lp4431
g117
aS'He'
p4432
as(S'dreadhead'
p4433
tp4434
(lp4435
S'niggas'
p4436
aS'niggas'
p4437
as(S'oh'
p4438
tp4439
(lp4440
S'oh'
p4441
aS'incredible'
p4442
aS'Stay'
p4443
aS'Stay'
p4444
aS'now'
p4445
aS'now'
p4446
aS'you'
p4447
aS'no'
p4448
as(S'scene'
p4449
tp4450
(lp4451
S'Now'
p4452
as(S'Traphouse'
p4453
tp4454
(lp4455
S'3'
p4456
as(S'nigga'
p4457
tp4458
(lp4459
S'fall'
p4460
aS'never'
p4461
aS'never'
p4462
aS'still'
p4463
aS'still'
p4464
aS'still'
p4465
aS'still'
p4466
aS'still'
p4467
aS'still'
p4468
aS'still'
p4469
aS'still'
p4470
aS'still'
p4471
aS'still'
p4472
aS'famous'
p4473
ag117
as(S'well'
p4474
tp4475
(lp4476
S'give'
p4477
aS'give'
p4478
aS'give'
p4479
as(S'taxes'
p4480
tp4481
(lp4482
S'in'
p4483
as(S'shawty'
p4484
tp4485
(lp4486
S'and'
p4487
as(S'hog'
p4488
tp4489
(lp4490
S'no'
p4491
aS'tied'
p4492
as(S'none'
p4493
tp4494
(lp4495
S'of'
p4496
aS'of'
p4497
as(S'diarrhea'
p4498
tp4499
(lp4500
S'Big'
p4501
as(S"I've"
p4502
tp4503
(lp4504
S'been'
p4505
aS'been'
p4506
as(S'line'
p4507
tp4508
(lp4509
S'stay'
p4510
aS'Dandelion'
p4511
aS'stay'
p4512
aS'Dandelion'
p4513
aS'From'
p4514
aS'Oh'
p4515
aS'Gonna'
p4516
aS'Oh'
p4517
aS"I'm"
p4518
as(S'closed'
p4519
tp4520
(lp4521
S'Wendy'
p4522
as(S'bumble'
p4523
tp4524
(lp4525
S'bee'
p4526
as(S'salon'
p4527
tp4528
(lp4529
S'doing'
p4530
as(S'used'
p4531
tp4532
(lp4533
S'to'
p4534
aS'to'
p4535
aS'to'
p4536
aS'to'
p4537
aS'to'
p4538
aS'to'
p4539
aS'to'
p4540
aS'to'
p4541
aS'to'
p4542
aS'to'
p4543
aS'to'
p4544
aS'to'
p4545
aS'to'
p4546
aS'to'
p4547
aS'to'
p4548
aS'to'
p4549
aS'to'
p4550
aS'to'
p4551
as(S'minute'
p4552
tp4553
(lp4554
S'since'
p4555
aS'songs'
p4556
ag117
aS'You'
p4557
as(S'of'
p4558
tp4559
(lp4560
S'the'
p4561
aS'all'
p4562
aS'the'
p4563
aS'money'
p4564
aS'ideas'
p4565
aS'this'
p4566
aS'the'
p4567
aS'Ikea'
p4568
aS'hard'
p4569
aS'old'
p4570
aS'tank'
p4571
aS'my'
p4572
aS'my'
p4573
aS'my'
p4574
aS'us'
p4575
aS'the'
p4576
aS'breath'
p4577
aS'breath'
p4578
aS'what'
p4579
aS'what'
p4580
aS'pathetics'
p4581
aS'that'
p4582
aS'your'
p4583
aS'your'
p4584
aS'these'
p4585
aS'the'
p4586
aS'the'
p4587
aS'all'
p4588
aS'all'
p4589
aS'the'
p4590
aS'freedom'
p4591
aS'worship'
p4592
ag331
aS'Mufasa'
p4593
aS'light'
p4594
aS'life'
p4595
aS'man'
p4596
aS'man'
p4597
aS'Parliament'
p4598
aS'the'
p4599
aS'fire'
p4600
aS'false'
p4601
aS'time'
p4602
aS'dawn'
p4603
aS'my'
p4604
aS'feathers'
p4605
aS'promised'
p4606
aS'daffodils'
p4607
aS'freedom'
p4608
aS'wondrous'
p4609
aS'me'
p4610
aS'some'
p4611
as(S'work'
p4612
tp4613
(lp4614
S"can't"
p4615
aS"It's"
p4616
aS'Your'
p4617
as(S'dog'
p4618
tp4619
(lp4620
g117
aS'died'
p4621
as(S'listening'
p4622
tp4623
(lp4624
S'to'
p4625
aS'to'
p4626
as(S'Hold'
p4627
tp4628
(lp4629
S'up'
p4630
aS'up'
p4631
as(S'Apple'
p4632
tp4633
(lp4634
S'and'
p4635
aS'with'
p4636
as(S'start'
p4637
tp4638
(lp4639
S'to'
p4640
ag117
as(S'rodeo'
p4641
tp4642
(lp4643
S'Got'
p4644
as(S'carry'
p4645
tp4646
(lp4647
S'her'
p4648
ag331
as(S'clean'
p4649
tp4650
(lp4651
g117
as(S'heart'
p4652
tp4653
(lp4654
S'will'
p4655
aS'will'
p4656
as(S'debit'
p4657
tp4658
(lp4659
S'cards'
p4660
as(S'popped'
p4661
tp4662
(lp4663
S'five'
p4664
as(S"wouldn't"
p4665
tp4666
(lp4667
S'go'
p4668
as(S'bro'
p4669
tp4670
(lp4671
S"it's"
p4672
as(S'fries'
p4673
tp4674
(lp4675
S'in'
p4676
as(S'fortify'
p4677
tp4678
(lp4679
S'the'
p4680
as(S'valet'
p4681
tp4682
(lp4683
S'Long'
p4684
as(S'beat'
p4685
tp4686
(lp4687
S'that'
p4688
as(S"doesn't"
p4689
tp4690
(lp4691
S'My'
p4692
as(S'CPD'
p4693
tp4694
(lp4695
S'getting'
p4696
as(S"gettin'"
p4697
tp4698
(lp4699
S'chased'
p4700
aS'it'
p4701
as(S"world's"
p4702
tp4703
(lp4704
S'best'
p4705
as(S'shortness'
p4706
tp4707
(lp4708
S'of'
p4709
aS'of'
p4710
as(S'aged'
p4711
tp4712
(lp4713
g117
as(S'its'
p4714
tp4715
(lp4716
S'clean'
p4717
as(S'Bruce'
p4718
tp4719
(lp4720
S'Bowen'
p4721
as(S'thoughts'
p4722
tp4723
(lp4724
S'All'
p4725
aS'The'
p4726
as(S'bite'
p4727
tp4728
(lp4729
S'like'
p4730
as(S'pocket'
p4731
tp4732
(lp4733
S'full'
p4734
as(S'ten'
p4735
tp4736
(lp4737
S'years'
p4738
as(S'bowl'
p4739
tp4740
(lp4741
S'We'
p4742
aS'We'
p4743
aS'We'
p4744
aS'We'
p4745
aS'We'
p4746
aS'We'
p4747
aS'We'
p4748
aS'She'
p4749
aS'She'
p4750
ag117
aS'We'
p4751
aS'She'
p4752
as(S'early'
p4753
tp4754
(lp4755
g117
aS'With'
p4756
as(S'got'
p4757
tp4758
(lp4759
S'So'
p4760
aS'This'
p4761
aS'got'
p4762
aS'got'
p4763
aS'So'
p4764
ag117
aS'Music'
p4765
aS"Isn't"
p4766
aS'So'
p4767
aS'Music'
p4768
aS'Music'
p4769
aS'We'
p4770
aS'it'
p4771
aS'it'
p4772
aS'it'
p4773
aS'it'
p4774
aS'it'
p4775
aS'it'
p4776
aS'it'
p4777
aS'it'
p4778
aS'You'
p4779
aS'problems'
p4780
aS'this'
p4781
aS'me'
p4782
aS'no'
p4783
aS'lost'
p4784
aS'old'
p4785
ag331
aS'so'
p4786
aS'real'
p4787
aS'that'
p4788
aS'me'
p4789
aS'my'
p4790
aS'caught'
p4791
aS'angels'
p4792
aS'angels'
p4793
aS'angels'
p4794
aS'angels'
p4795
aS'angels'
p4796
aS'angels'
p4797
aS'angels'
p4798
ag117
aS'angels'
p4799
aS'angels'
p4800
aS'angels'
p4801
ag117
aS'angels'
p4802
ag117
aS'We'
p4803
aS'so'
p4804
aS'so'
p4805
aS'so'
p4806
aS'the'
p4807
aS'the'
p4808
aS'shit'
p4809
aS'gas'
p4810
aS'no'
p4811
aS'no'
p4812
aS'time'
p4813
aS'no'
p4814
aS'to'
p4815
aS'to'
p4816
aS'designer'
p4817
aS'me'
p4818
aS'addicted'
p4819
aS'to'
p4820
aS'to'
p4821
aS'the'
p4822
ag331
aS'some'
p4823
aS'it'
p4824
aS'it'
p4825
aS'it'
p4826
as(S'cracking'
p4827
tp4828
(lp4829
g331
as(S'whole'
p4830
tp4831
(lp4832
S'song'
p4833
aS'Little'
p4834
as(S'year'
p4835
tp4836
(lp4837
S'that'
p4838
aS'got'
p4839
as(S'roll'
p4840
tp4841
(lp4842
S'and'
p4843
aS'at'
p4844
aS'at'
p4845
aS'at'
p4846
aS"I'm"
p4847
ag117
as(S'armchair'
p4848
tp4849
(lp4850
S'Dad'
p4851
as(S'gave'
p4852
tp4853
(lp4854
S'me'
p4855
aS'Donnie'
p4856
aS'him'
p4857
aS'us'
p4858
aS'her'
p4859
aS'my'
p4860
aS'to'
p4861
aS'to'
p4862
aS'to'
p4863
as(S'fit'
p4864
tp4865
(lp4866
S'We'
p4867
as(S'Well'
p4868
tp4869
(lp4870
S'maybe'
p4871
as(S'slime'
p4872
tp4873
(lp4874
S'ball'
p4875
aS'dog'
p4876
as(S'discussions'
p4877
tp4878
(lp4879
S'oh'
p4880
as(S'oowops'
p4881
tp4882
(lp4883
S'We'
p4884
as(S'place'
p4885
tp4886
(lp4887
S'79'
p4888
aS'Some'
p4889
aS'But'
p4890
as(S'horn'
p4891
tp4892
(lp4893
S'Hit'
p4894
as(S'trumpet'
p4895
tp4896
(lp4897
S'in'
p4898
as(S'None'
p4899
tp4900
(lp4901
S'of'
p4902
aS'of'
p4903
as(S'1-0-7-5'
p4904
tp4905
(lp4906
S'angel'
p4907
aS"goin'"
p4908
as(S'prodigy'
p4909
tp4910
(lp4911
S'He'
p4912
as(S'falling'
p4913
tp4914
(lp4915
S'in'
p4916
aS'in'
p4917
aS'in'
p4918
aS'in'
p4919
as(S'Oooh'
p4920
tp4921
(lp4922
g117
as(S'Weezy'
p4923
tp4924
(lp4925
S'fans'
p4926
as(S'Scars'
p4927
tp4928
(lp4929
S'on'
p4930
as(S'call'
p4931
tp4932
(lp4933
S'themselves'
p4934
aS'the'
p4935
aS'it'
p4936
ag331
as(S'1Night'
p4937
tp4938
(lp4939
S'the'
p4940
as(S'doors'
p4941
tp4942
(lp4943
S"Ain't"
p4944
as(S'somewhere'
p4945
tp4946
(lp4947
S'to'
p4948
as(S'DJ'
p4949
tp4950
(lp4951
S'still'
p4952
as(S'away'
p4953
tp4954
(lp4955
S'You'
p4956
aS'Cause'
p4957
aS'to'
p4958
as(S'cry'
p4959
tp4960
(lp4961
S'at'
p4962
ag331
ag331
as(S'overseas'
p4963
tp4964
(lp4965
g117
as(S'sit'
p4966
tp4967
(lp4968
S'and'
p4969
as(S'project'
p4970
tp4971
(lp4972
S'to'
p4973
as(S'harmless'
p4974
tp4975
(lp4976
S'as'
p4977
as(S'tears'
p4978
tp4979
(lp4980
S'back'
p4981
aS'But'
p4982
as(S'gently'
p4983
tp4984
(lp4985
S'gently'
p4986
aS'row'
p4987
as(S'salsa'
p4988
tp4989
(lp4990
S'like'
p4991
as(S'mom'
p4992
tp4993
(lp4994
S'was'
p4995
as(S"we're"
p4996
tp4997
(lp4998
S'gonna'
p4999
as(S'baby'
p5000
tp5001
(lp5002
S'mama'
p5003
aS'mommas'
p5004
aS'You'
p5005
aS"I'm"
p5006
ag117
aS'maybe'
p5007
aS'maybe'
p5008
aS'juke'
p5009
as(S'miss'
p5010
tp5011
(lp5012
S'the'
p5013
aS'the'
p5014
aS'the'
p5015
as(S'this'
p5016
tp5017
(lp5018
S'the'
p5019
aS'many'
p5020
aS'all'
p5021
aS'shit'
p5022
aS'sewed'
p5023
aS'since'
p5024
aS'woo'
p5025
aS'woo'
p5026
aS'woo'
p5027
aS'beast'
p5028
aS'blunt'
p5029
aS'blunt'
p5030
aS'back'
p5031
aS'from'
p5032
aS'blunt'
p5033
aS'money'
p5034
aS'budget'
p5035
as(S'own'
p5036
tp5037
(lp5038
S'service'
p5039
aS'You'
p5040
aS'my'
p5041
as(S'chill'
p5042
tp5043
(lp5044
S'oh'
p5045
as(S'holy'
p5046
tp5047
(lp5048
S'like'
p5049
aS'house'
p5050
as(S'lips'
p5051
tp5052
(lp5053
S'taste'
p5054
aS'taste'
p5055
aS'taste'
p5056
aS'taste'
p5057
aS'taste'
p5058
aS'taste'
p5059
aS'taste'
p5060
aS'taste'
p5061
as(S'galore'
p5062
tp5063
(lp5064
g117
as(S'Jerusalem'
p5065
tp5066
(lp5067
S'New'
p5068
aS'Comes'
p5069
as(S'nose'
p5070
tp5071
(lp5072
S'ring'
p5073
as(S'Bunch'
p5074
tp5075
(lp5076
S'of'
p5077
as(S'God'
p5078
tp5079
(lp5080
S"dappin'"
p5081
aS'The'
p5082
aS'When'
p5083
aS'the'
p5084
aS'They'
p5085
aS"I'm"
p5086
aS"I'm"
p5087
aS'the'
p5088
aS'split'
p5089
aS'Sing'
p5090
aS'All'
p5091
aS'How'
p5092
aS'Sing'
p5093
aS'All'
p5094
aS'Name'
p5095
aS'Name'
p5096
aS'How'
p5097
aS'Sing'
p5098
aS'All'
p5099
aS'How'
p5100
aS'Sing'
p5101
aS'All'
p5102
aS'The'
p5103
aS'is'
p5104
aS'is'
p5105
aS'the'
p5106
aS'Ducked'
p5107
aS'inside'
p5108
ag117
aS'seen'
p5109
aS'in'
p5110
aS'in'
p5111
as(S'earth'
p5112
tp5113
(lp5114
S'with'
p5115
as(S'signing'
p5116
tp5117
(lp5118
g117
as(S'good'
p5119
tp5120
(lp5121
S'friends'
p5122
aS'Mama'
p5123
aS"I'm"
p5124
as(S'remember'
p5125
tp5126
(lp5127
g117
ag117
aS'when'
p5128
aS'you'
p5129
aS'you'
p5130
aS'you'
p5131
aS'you'
p5132
aS'how'
p5133
as(S'daffodils'
p5134
tp5135
(lp5136
S'and'
p5137
as(S'least'
p5138
tp5139
(lp5140
S'You'
p5141
as(S'esteem'
p5142
tp5143
(lp5144
S"I'm"
p5145
as(S"scoopin'"
p5146
tp5147
(lp5148
S'all'
p5149
as(S'successful'
p5150
tp5151
(lp5152
S'grant'
p5153
as(S'hard'
p5154
tp5155
(lp5156
S'knocks'
p5157
aS'Okay'
p5158
as(S'working'
p5159
tp5160
(lp5161
S'late'
p5162
as(S'White'
p5163
tp5164
(lp5165
S'Owls'
p5166
as(S'Rink'
p5167
tp5168
(lp5169
S'we'
p5170
ag117
aS'was'
p5171
aS'We'
p5172
aS'You'
p5173
aS'You'
p5174
as(S'talked'
p5175
tp5176
(lp5177
S'to'
p5178
as(S'things'
p5179
tp5180
(lp5181
S'as'
p5182
as(S'straight'
p5183
tp5184
(lp5185
S'out'
p5186
as(S'Am'
p5187
tp5188
(lp5189
g117
ag117
ag117
as(S'Derek'
p5190
tp5191
(lp5192
S'and'
p5193
as(S'next'
p5194
tp5195
(lp5196
S'one'
p5197
as(S"you've"
p5198
tp5199
(lp5200
S'aged'
p5201
as(S'African'
p5202
tp5203
(lp5204
S'village'
p5205
as(S'pumpkin-seed-sized'
p5206
tp5207
(lp5208
S'mustard'
p5209
as(S'clothes'
p5210
tp5211
(lp5212
S'no'
p5213
aS'She'
p5214
as(S'pinned'
p5215
tp5216
(lp5217
S'my'
p5218
as(S'night'
p5219
tp5220
(lp5221
S'classes'
p5222
aS'hey'
p5223
ag117
ag117
ag117
ag117
ag117
ag117
ag117
ag117
ag117
aS'no'
p5224
ag117
ag117
ag117
ag117
ag117
ag117
ag117
ag117
ag117
ag117
ag117
ag117
ag117
ag117
ag117
ag117
ag117
ag117
aS'time'
p5225
as(S'aye'
p5226
tp5227
(lp5228
S'captain'
p5229
as(S"gon'"
p5230
tp5231
(lp5232
S'be'
p5233
aS'be'
p5234
aS'be'
p5235
aS'praise'
p5236
aS'praise'
p5237
aS'praise'
p5238
aS'praise'
p5239
aS'praise'
p5240
aS'praise'
p5241
aS'roll'
p5242
aS'fuck'
p5243
aS'make'
p5244
aS'make'
p5245
aS'juke'
p5246
aS'juke'
p5247
aS'get'
p5248
aS'get'
p5249
aS'throw'
p5250
aS'have'
p5251
aS'have'
p5252
aS'get'
p5253
aS'get'
p5254
aS'throw'
p5255
aS'have'
p5256
aS'have'
p5257
aS'say'
p5258
aS'be'
p5259
aS'follow'
p5260
as(S'involved'
p5261
tp5262
(lp5263
S'with'
p5264
as(S'Wap'
p5265
tp5266
(lp5267
S'the'
p5268
as(S'around'
p5269
tp5270
(lp5271
S'my'
p5272
aS'Summer'
p5273
aS'here'
p5274
aS'Summer'
p5275
aS'Stick'
p5276
aS'hey'
p5277
aS'for'
p5278
aS'for'
p5279
ag117
aS'and'
p5280
aS'me'
p5281
aS'me'
p5282
aS'me'
p5283
aS'me'
p5284
as(S'family'
p5285
tp5286
(lp5287
S'members'
p5288
aS'members'
p5289
aS'He'
p5290
as(S'To'
p5291
tp5292
(lp5293
S'see'
p5294
as(S"meetin'"
p5295
tp5296
(lp5297
S'make'
p5298
as(S'This'
p5299
tp5300
(lp5301
S"ain't"
p5302
aS'is'
p5303
aS'for'
p5304
aS'is'
p5305
aS'is'
p5306
aS'is'
p5307
aS'is'
p5308
aS'is'
p5309
aS'is'
p5310
aS'is'
p5311
aS'is'
p5312
aS'is'
p5313
ag117
ag117
aS'age'
p5314
aS'what'
p5315
aS'for'
p5316
aS'is'
p5317
aS'thirst'
p5318
aS'water'
p5319
aS'water'
p5320
as(S'He'
p5321
tp5322
(lp5323
S'has'
p5324
aS'lived'
p5325
aS'can'
p5326
aS'prayed'
p5327
aS"ain't"
p5328
aS'keep'
p5329
aS'think'
p5330
as(S'pregnant'
p5331
tp5332
(lp5333
S'And'
p5334
as(S'ship'
p5335
tp5336
(lp5337
g117
aS'it'
p5338
as(S'grow'
p5339
tp5340
(lp5341
S'up'
p5342
as(S'cool'
p5343
tp5344
(lp5345
S'though'
p5346
aS'just'
p5347
as(S'industry'
p5348
tp5349
(lp5350
S'in'
p5351
as(S'master'
p5352
tp5353
(lp5354
S'stampedes'
p5355
as(S"ballin'"
p5356
tp5357
(lp5358
S'on'
p5359
as(S'jolly'
p5360
tp5361
(lp5362
S'rancher'
p5363
as(S'blunt'
p5364
tp5365
(lp5366
S'All'
p5367
aS'Slow'
p5368
aS'Slow'
p5369
aS'Make'
p5370
as(S'latest'
p5371
tp5372
(lp5373
S'fashion'
p5374
aS'fashion'
p5375
aS'fashion'
p5376
as(S'swear'
p5377
tp5378
(lp5379
S'my'
p5380
aS"I'm"
p5381
aS"I'm"
p5382
aS"I'm"
p5383
as(S'da'
p5384
tp5385
(lp5386
S'bam'
p5387
aS'bam'
p5388
aS'bam'
p5389
aS'bam'
p5390
aS'bam'
p5391
as(S'booties'
p5392
tp5393
(lp5394
S'can'
p5395
as(S'crazy'
p5396
tp5397
(lp5398
S'Weezy'
p5399
aS'We'
p5400
aS'Crazy'
p5401
as(S'always'
p5402
tp5403
(lp5404
S'treat'
p5405
aS'bring'
p5406
aS'treat'
p5407
aS'bring'
p5408
aS'were'
p5409
aS'perfect'
p5410
aS'there'
p5411
aS'out'
p5412
aS'throwing'
p5413
aS'throwing'
p5414
as(S'edify'
p5415
tp5416
(lp5417
S'Electrify'
p5418
as(S'when'
p5419
tp5420
(lp5421
g117
ag117
ag117
aS'This'
p5422
aS'everything'
p5423
aS'she'
p5424
aS'God'
p5425
aS'they'
p5426
aS'he'
p5427
ag117
aS'she'
p5428
ag117
ag117
aS'they'
p5429
aS'the'
p5430
aS'she'
p5431
ag117
as(S'capitalized'
p5432
tp5433
(lp5434
S'uh'
p5435
as(S'seed'
p5436
tp5437
(lp5438
S'Hear'
p5439
aS'was'
p5440
as(S"playin'"
p5441
tp5442
(lp5443
S'but'
p5444
aS'too'
p5445
as(S'paid'
p5446
tp5447
(lp5448
S'She'
p5449
as(S'world'
p5450
tp5451
(lp5452
S'as'
p5453
aS'has'
p5454
aS'tattoo'
p5455
as(S'Strike'
p5456
tp5457
(lp5458
g331
as(S'fella'
p5459
tp5460
(lp5461
S'Yep'
p5462
aS'you'
p5463
aS'Two'
p5464
aS'You'
p5465
aS'You'
p5466
aS'you'
p5467
aS'All'
p5468
as(S'beauty'
p5469
tp5470
(lp5471
S'supply'
p5472
as(S'goons'
p5473
tp5474
(lp5475
S'on'
p5476
as(S'momma'
p5477
tp5478
(lp5479
S'third'
p5480
aS'got'
p5481
aS"Can't"
p5482
aS'say'
p5483
aS'made'
p5484
as(S'crime'
p5485
tp5486
(lp5487
S'Good'
p5488
as(S'up'
p5489
tp5490
(lp5491
S'all'
p5492
aS'all'
p5493
aS'in'
p5494
aS'in'
p5495
ag117
aS'my'
p5496
aS'My'
p5497
aS"I'm"
p5498
aS'and'
p5499
aS'get'
p5500
aS'when'
p5501
aS'all'
p5502
aS'all'
p5503
aS'and'
p5504
ag117
aS'When'
p5505
ag117
aS'You'
p5506
aS'the'
p5507
aS'the'
p5508
aS'Good'
p5509
aS'Good'
p5510
aS'the'
p5511
aS'the'
p5512
aS'Good'
p5513
aS'the'
p5514
aS'the'
p5515
aS'the'
p5516
aS'the'
p5517
ag117
ag117
aS'right'
p5518
ag117
aS'the'
p5519
aS'with'
p5520
aS'with'
p5521
aS'Then'
p5522
aS'for'
p5523
aS'outside'
p5524
aS'Start'
p5525
aS'back'
p5526
ag117
aS'Start'
p5527
aS'slaves'
p5528
aS'at'
p5529
aS'It'
p5530
aS'leaving'
p5531
aS'there'
p5532
aS'the'
p5533
ag117
as(S'am'
p5534
tp5535
(lp5536
g117
aS'his'
p5537
as(S'Crossing'
p5538
tp5539
(lp5540
S'First'
p5541
as(S'rest'
p5542
tp5543
(lp5544
S'in'
p5545
as(S'digging'
p5546
tp5547
(lp5548
S'deeper'
p5549
as(S'seemed'
p5550
tp5551
(lp5552
g729
as(S'corpse'
p5553
tp5554
(lp5555
S'with'
p5556
as(S'Netflix'
p5557
tp5558
(lp5559
S'and'
p5560
as(S'faking'
p5561
tp5562
(lp5563
S'like'
p5564
as(S'Descend'
p5565
tp5566
(lp5567
S'upon'
p5568
as(S'Gates'
p5569
tp5570
(lp5571
S'And'
p5572
as(S'seats'
p5573
tp5574
(lp5575
S'You'
p5576
as(S'mess'
p5577
tp5578
(lp5579
S'with'
p5580
as(S'tea'
p5581
tp5582
(lp5583
g117
as(S'post-language'
p5584
tp5585
(lp5586
S'anti-label'
p5587
as(S'will'
p5588
tp5589
(lp5590
S'wait'
p5591
aS'wait'
p5592
aS'see'
p5593
aS'see'
p5594
aS'sing'
p5595
aS'sing'
p5596
aS'see'
p5597
aS'see'
p5598
aS'win'
p5599
aS'speak'
p5600
aS'swallow'
p5601
aS'be'
p5602
as(S'Spit'
p5603
tp5604
(lp5605
S'it'
p5606
as(S'Cinco'
p5607
tp5608
(lp5609
S'de'
p5610
as(S'girl'
p5611
tp5612
(lp5613
S'getting'
p5614
aS"she'll"
p5615
aS'plan'
p5616
as(S'Works'
p5617
tp5618
(lp5619
S'like'
p5620
as(S'Said'
p5621
tp5622
(lp5623
S'you'
p5624
as(S'ZooWap'
p5625
tp5626
(lp5627
S'Traphouse'
p5628
as(S'he'
p5629
tp5630
(lp5631
S'better'
p5632
aS'go'
p5633
aS'go'
p5634
aS'go'
p5635
aS"ain't"
p5636
aS'go'
p5637
aS'go'
p5638
aS'go'
p5639
aS'go'
p5640
aS'treat'
p5641
aS'said'
p5642
aS"doesn't"
p5643
aS'petrified'
p5644
aS'up'
p5645
aS'just'
p5646
aS'wait'
p5647
aS'proud'
p5648
as(S'Jay'
p5649
tp5650
(lp5651
S'Elect'
p5652
as(S'gator'
p5653
tp5654
(lp5655
S'Fuck'
p5656
as(S"I'd"
p5657
tp5658
(lp5659
S'be'
p5660
as(S'rhymed'
p5661
tp5662
(lp5663
S'Wide'
p5664
as(S'Wave'
p5665
tp5666
(lp5667
S"'round"
p5668
as(S'fly'
p5669
tp5670
(lp5671
S"It's"
p5672
aS'to'
p5673
as(S'Nat'
p5674
tp5675
(lp5676
S'King'
p5677
as(S'chains'
p5678
tp5679
(lp5680
S'when'
p5681
as(S'lawn'
p5682
tp5683
(lp5684
S'chair'
p5685
as(S'matter'
p5686
tp5687
(lp5688
g117
ag117
aS'matter'
p5689
aS'fact'
p5690
as(S'incredible'
p5691
tp5692
(lp5693
S'My'
p5694
ag117
as(S'Dropped'
p5695
tp5696
(lp5697
S'out'
p5698
as(S'noble'
p5699
tp5700
(lp5701
S'things'
p5702
as(S'Juke'
p5703
tp5704
(lp5705
S'The'
p5706
as(S'tippy'
p5707
tp5708
(lp5709
S'toes'
p5710
as(S'But'
p5711
tp5712
(lp5713
S'the'
p5714
aS'now'
p5715
aS'every'
p5716
aS'in'
p5717
aS'when'
p5718
ag117
aS'you'
p5719
ag117
aS'who'
p5720
aS'you'
p5721
as(S"Jukin'"
p5722
tp5723
(lp5724
S'We'
p5725
aS'We'
p5726
as(S'prophetic'
p5727
tp5728
(lp5729
S'stories'
p5730
as(S'Everyone'
p5731
tp5732
(lp5733
S'is'
p5734
aS'is'
p5735
as(S'hide'
p5736
tp5737
(lp5738
S'from'
p5739
as(S'happy'
p5740
tp5741
(lp5742
S'thoughts'
p5743
aS'thoughts'
p5744
as(S'service'
p5745
tp5746
(lp5747
S'igh'
p5748
as(S'People'
p5749
tp5750
(lp5751
S'sing'
p5752
as(S'faked'
p5753
tp5754
(lp5755
S'the'
p5756
as(S'wondrous'
p5757
tp5758
(lp5759
S'unfamiliar'
p5760
as(S'caught'
p5761
tp5762
(lp5763
g331
aS'up'
p5764
as(S'play'
p5765
tp5766
(lp5767
S'ball'
p5768
aS'ball'
p5769
aS"I'm"
p5770
aS'me'
p5771
aS'sister'
p5772
aS'Take'
p5773
as(S'wings'
p5774
tp5775
(lp5776
g117
as(S'sauce'
p5777
tp5778
(lp5779
S'Please'
p5780
aS'She'
p5781
as(S'sermon'
p5782
tp5783
(lp5784
g117
as(S'wait'
p5785
tp5786
(lp5787
S'Never'
p5788
aS'around'
p5789
aS'around'
p5790
aS'up'
p5791
aS"I'll"
p5792
as(S'Sit'
p5793
tp5794
(lp5795
S'down'
p5796
as(S'edges'
p5797
tp5798
(lp5799
S'Are'
p5800
as(S'Malachi'
p5801
tp5802
(lp5803
S'Devil'
p5804
as(S'Bury'
p5805
tp5806
(lp5807
S'my'
p5808
as(S'breath'
p5809
tp5810
(lp5811
S"I'm"
p5812
aS'so'
p5813
ag117
as(S'gift'
p5814
tp5815
(lp5816
S'of'
p5817
as(S'rules'
p5818
tp5819
(lp5820
S'She'
p5821
as(S'whatever'
p5822
tp5823
(lp5824
g117
as(S'boss'
p5825
tp5826
(lp5827
S'say'
p5828
aS'Please'
p5829
as(S'still'
p5830
tp5831
(lp5832
S'catching'
p5833
aS'care'
p5834
aS'care'
p5835
aS'care'
p5836
aS'care'
p5837
aS'care'
p5838
aS'cares'
p5839
aS'care'
p5840
aS'care'
p5841
aS'care'
p5842
aS'care'
p5843
aS'play'
p5844
aS'at'
p5845
aS'Endless'
p5846
aS'pass'
p5847
as(S'above'
p5848
tp5849
(lp5850
S'all'
p5851
aS'all'
p5852
as(S'entree'
p5853
tp5854
(lp5855
S'Hit'
p5856
as(S'Soil'
p5857
tp5858
(lp5859
S'as'
p5860
as(S'slower'
p5861
tp5862
(lp5863
S'than'
p5864
as(S'make'
p5865
tp5866
(lp5867
S'me'
p5868
aS"'em"
p5869
ag331
aS'them'
p5870
aS'it'
p5871
aS'songs'
p5872
aS"'em"
p5873
aS'at'
p5874
aS'me'
p5875
aS'me'
p5876
aS'Jesus'
p5877
aS'this'
p5878
aS'songs'
p5879
as(S'bill'
p5880
tp5881
(lp5882
S"that's"
p5883
as(S'ice'
p5884
tp5885
(lp5886
S'on'
p5887
as(S'charm'
p5888
tp5889
(lp5890
S'Fuck'
p5891
as(S'standing'
p5892
tp5893
(lp5894
S'still'
p5895
as(S'boy'
p5896
tp5897
(lp5898
S'who'
p5899
aS'love'
p5900
aS'too'
p5901
as(S'toss'
p5902
tp5903
(lp5904
S'they'
p5905
as(S'spot'
p5906
tp5907
(lp5908
S'on'
p5909
as(S'unfamiliar'
p5910
tp5911
(lp5912
S'lessons'
p5913
as(S'put'
p5914
tp5915
(lp5916
S'the'
p5917
aS'enough'
p5918
aS'my'
p5919
aS'your'
p5920
aS'in'
p5921
aS'my'
p5922
aS'the'
p5923
aS'milk'
p5924
aS'weed'
p5925
aS'some'
p5926
as(S'92'
p5927
tp5928
(lp5929
S'angel'
p5930
aS'angel'
p5931
as(S"momma's"
p5932
tp5933
(lp5934
S'hands'
p5935
as(S'fighting'
p5936
tp5937
(lp5938
S'tears'
p5939
as(S'label'
p5940
tp5941
(lp5942
S'try'
p5943
aS'try'
p5944
aS'try'
p5945
as(S"somethin'"
p5946
tp5947
(lp5948
S'You'
p5949
as(S'cooties'
p5950
tp5951
(lp5952
S'was'
p5953
as(S'sister'
p5954
tp5955
(lp5956
S'Juke'
p5957
as(S'once'
p5958
tp5959
(lp5960
S'was'
p5961
aS'was'
p5962
as(S"We've"
p5963
tp5964
(lp5965
S'got'
p5966
aS'got'
p5967
aS'got'
p5968
as(S'foot'
p5969
tp5970
(lp5971
S'work'
p5972
aS'on'
p5973
aS'on'
p5974
as(S'apples'
p5975
tp5976
(lp5977
S'for'
p5978
as(S'Pull'
p5979
tp5980
(lp5981
S'up'
p5982
aS'up'
p5983
as(S'In'
p5984
tp5985
(lp5986
S'the'
p5987
ag331
aS'that'
p5988
as(S'Deebo'
p5989
tp5990
(lp5991
S"Don't"
p5992
as(S'hugh'
p5993
tp5994
(lp5995
S'hugh'
p5996
aS'Now'
p5997
as(S'barak'
p5998
tp5999
(lp6000
S'edify'
p6001
as(S'worm'
p6002
tp6003
(lp6004
g729
as(S'push'
p6005
tp6006
(lp6007
S'the'
p6008
aS'it'
p6009
as(S'wake'
p6010
tp6011
(lp6012
S'up'
p6013
as(S'Someday'
p6014
tp6015
(lp6016
S"we'll"
p6017
as(S'read'
p6018
tp6019
(lp6020
S'was'
p6021
as(S'Wait'
p6022
tp6023
(lp6024
S'one'
p6025
as(S'thought'
p6026
tp6027
(lp6028
S'it'
p6029
aS'it'
p6030
aS"you'd"
p6031
aS"you'd"
p6032
ag117
as(S'cats'
p6033
tp6034
(lp6035
S'on'
p6036
as(S'rain'
p6037
tp6038
(lp6039
S'down'
p6040
as(S'sex'
p6041
tp6042
(lp6043
g117
as(S'ring'
p6044
tp6045
(lp6046
S'is'
p6047
ag117
as(S'under'
p6048
tp6049
(lp6050
S'the'
p6051
aS'the'
p6052
aS'black'
p6053
as(S'School'
p6054
tp6055
(lp6056
S'of'
p6057
as(S'windows'
p6058
tp6059
(lp6060
S'with'
p6061
as(S'babe'
p6062
tp6063
(lp6064
S'oil'
p6065
as(S'us'
p6066
tp6067
(lp6068
S'79'
p6069
aS'scared'
p6070
aS'the'
p6071
as(S'or'
p6072
tp6073
(lp6074
S'forfeited'
p6075
aS'to'
p6076
aS'is'
p6077
aS'debit'
p6078
aS'ratify'
p6079
aS'so'
p6080
aS'use'
p6081
aS"somethin'"
p6082
as(S'Make'
p6083
tp6084
(lp6085
S'the'
p6086
aS'you'
p6087
aS'you'
p6088
ag331
as(S'rode'
p6089
tp6090
(lp6091
g331
as(S'Dandelion'
p6092
tp6093
(lp6094
S'Do'
p6095
aS'Chance'
p6096
as(S'acting'
p6097
tp6098
(lp6099
g331
as(S'ooh'
p6100
tp6101
(lp6102
S'She'
p6103
aS'We'
p6104
aS'Let'
p6105
ag117
aS'Let'
p6106
as(S'damn'
p6107
tp6108
(lp6109
S'great'
p6110
aS'great'
p6111
aS'great'
p6112
aS"that's"
p6113
as(S'light'
p6114
tp6115
(lp6116
S'shine'
p6117
aS'Strike'
p6118
as(S'rocket'
p6119
tp6120
(lp6121
S'ships'
p6122
as(S'culture'
p6123
tp6124
(lp6125
S'cause'
p6126
aS'GCI'
p6127
as(S'abandon'
p6128
tp6129
(lp6130
S'the'
p6131
as(S'stampedes'
p6132
tp6133
(lp6134
g117
as(S'same'
p6135
tp6136
(lp6137
S'way'
p6138
aS'drugs'
p6139
aS'drugs'
p6140
aS'drugs'
p6141
aS'drugs'
p6142
aS'drugs'
p6143
aS'drugs'
p6144
aS'drugs'
p6145
aS'drugs'
p6146
aS'drugs'
p6147
aS'way'
p6148
aS'drugs'
p6149
aS'drugs'
p6150
aS'drugs'
p6151
aS'drugs'
p6152
aS'drugs'
p6153
aS'drugs'
p6154
aS'drugs'
p6155
aS'drugs'
p6156
aS'drugs'
p6157
aS'drugs'
p6158
aS'drugs'
p6159
aS'drugs'
p6160
aS'drugs'
p6161
aS'drugs'
p6162
as(S'lord'
p6163
tp6164
(lp6165
S'incredible'
p6166
as(S'performed'
p6167
tp6168
(lp6169
S'every'
p6170
as(S"Countin'"
p6171
tp6172
(lp6173
S'Benjis'
p6174
as(S'friendship'
p6175
tp6176
(lp6177
S'get'
p6178
as(S'warmth'
p6179
tp6180
(lp6181
S'in'
p6182
as(S'floor'
p6183
tp6184
(lp6185
S'With'
p6186
aS'All'
p6187
ag117
as(S'Guwop'
p6188
tp6189
(lp6190
g117
as(S'scriptures'
p6191
tp6192
(lp6193
S'and'
p6194
as(S'but'
p6195
tp6196
(lp6197
g117
aS'you'
p6198
aS'it'
p6199
aS'you'
p6200
aS'never'
p6201
aS'he'
p6202
as(S'by'
p6203
tp6204
(lp6205
S'their'
p6206
aS'the'
p6207
aS'day'
p6208
as(S'these'
p6209
tp6210
(lp6211
S'goofies'
p6212
aS'boys'
p6213
aS'bitches'
p6214
aS'bitches'
p6215
aS'cats'
p6216
aS'niggas'
p6217
aS'bales'
p6218
as(S'Hebru'
p6219
tp6220
(lp6221
S'Brantleys'
p6222
as(S'Kanye'
p6223
tp6224
(lp6225
S'and'
p6226
as(S'Music'
p6227
tp6228
(lp6229
S'is'
p6230
aS'all'
p6231
aS'is'
p6232
aS'is'
p6233
aS'is'
p6234
aS'is'
p6235
aS'We'
p6236
aS'Music'
p6237
aS'is'
p6238
as(S'tassel'
p6239
tp6240
(lp6241
S'for'
p6242
as(S'OVO'
p6243
tp6244
(lp6245
S'Oooh'
p6246
as(S'friend'
p6247
tp6248
(lp6249
S'Summer'
p6250
aS'Fucked'
p6251
aS'Summer'
p6252
aS'79'
p6253
aS'Came'
p6254
aS'Who'
p6255
aS'or'
p6256
as(S'spilt'
p6257
tp6258
(lp6259
S'fries'
p6260
as(S'people'
p6261
tp6262
(lp6263
S"can't"
p6264
as(S'only'
p6265
tp6266
(lp6267
S'caught'
p6268
aS'practice'
p6269
aS'nigga'
p6270
aS'nigga'
p6271
aS'nigga'
p6272
aS'nigga'
p6273
aS'nigga'
p6274
aS'nigga'
p6275
aS'nigga'
p6276
aS'nigga'
p6277
aS'one'
p6278
aS'nigga'
p6279
aS'nigga'
p6280
aS'ever'
p6281
aS'perform'
p6282
as(S'Growing'
p6283
tp6284
(lp6285
S'up'
p6286
as(S'pick'
p6287
tp6288
(lp6289
S'up'
p6290
aS'up'
p6291
aS'up'
p6292
aS'up'
p6293
as(S'Little'
p6294
tp6295
(lp6296
S'bit'
p6297
as(S'declining'
p6298
tp6299
(lp6300
S'to'
p6301
as(S'love'
p6302
tp6303
(lp6304
S'her'
p6305
aS'Not'
p6306
aS'you'
p6307
aS'my'
p6308
aS'all'
p6309
aS'playing'
p6310
aS'with'
p6311
aS'you'
p6312
aS'you'
p6313
aS'And'
p6314
aS'And'
p6315
aS'And'
p6316
aS'Never'
p6317
as(S'cream'
p6318
tp6319
(lp6320
S'truck'
p6321
as(S'forfeited'
p6322
tp6323
(lp6324
S"I'm"
p6325
as(S'angel'
p6326
tp6327
(lp6328
S"goin'"
p6329
aS'juke'
p6330
aS"gon'"
p6331
aS"gon'"
p6332
aS'in'
p6333
aS'that'
p6334
as(S'rings'
p6335
tp6336
(lp6337
S"Y'all"
p6338
aS'like'
p6339
as(S'street'
p6340
tp6341
(lp6342
S'was'
p6343
as(S'party'
p6344
tp6345
(lp6346
S'We'
p6347
aS'just'
p6348
aS'We'
p6349
aS'just'
p6350
as(S'fan'
p6351
tp6352
(lp6353
S'asking'
p6354
as(S'members'
p6355
tp6356
(lp6357
S'Even'
p6358
aS'Even'
p6359
as(S'in'
p6360
tp6361
(lp6362
S'ya'
p6363
aS'their'
p6364
aS'love'
p6365
aS'ya'
p6366
aS'the'
p6367
aS'the'
p6368
aS'the'
p6369
aS'they'
p6370
aS'the'
p6371
aS'the'
p6372
aS'the'
p6373
aS'at'
p6374
aS'my'
p6375
aS'my'
p6376
aS'the'
p6377
aS'my'
p6378
aS'my'
p6379
aS'kings'
p6380
aS'the'
p6381
aS'case'
p6382
aS'my'
p6383
aS'Heaven'
p6384
aS'blessings'
p6385
aS'my'
p6386
aS'the'
p6387
aS'the'
p6388
aS'the'
p6389
aS'the'
p6390
aS'my'
p6391
aS'the'
p6392
aS'high'
p6393
aS'the'
p6394
aS'disbelief'
p6395
aS'peace'
p6396
aS'that'
p6397
aS'your'
p6398
aS'my'
p6399
aS'the'
p6400
aS'the'
p6401
aS'science'
p6402
aS'signs'
p6403
aS'signing'
p6404
aS'the'
p6405
aS'the'
p6406
aS'the'
p6407
aS'Cali'
p6408
aS'Revelations'
p6409
aS'the'
p6410
aS'it'
p6411
aS'the'
p6412
aS'the'
p6413
aS'our'
p6414
aS'the'
p6415
aS'the'
p6416
aS'the'
p6417
aS'the'
p6418
aS'school'
p6419
aS'love'
p6420
aS'my'
p6421
ag331
ag331
aS'disguise'
p6422
aS'gold'
p6423
aS'me'
p6424
aS'come'
p6425
aS'my'
p6426
aS'my'
p6427
ag331
aS'public'
p6428
aS'public'
p6429
aS'couplets'
p6430
aS'high'
p6431
as(S'fire'
p6432
tp6433
(lp6434
S'in'
p6435
aS'They'
p6436
as(S'ho'
p6437
tp6438
(lp6439
S'My'
p6440
aS'All'
p6441
aS'All'
p6442
as(S'more'
p6443
tp6444
(lp6445
S'label'
p6446
aS'label'
p6447
aS'Our'
p6448
aS"You're"
p6449
aS'We'
p6450
aS"'Cause"
p6451
aS'We'
p6452
aS'When'
p6453
aS'We'
p6454
aS'She'
p6455
aS'We'
p6456
aS'Where'
p6457
aS'do'
p6458
aS'We'
p6459
aS'We'
p6460
aS'do'
p6461
aS'We'
p6462
aS'We'
p6463
aS'We'
p6464
aS'We'
p6465
aS'than'
p6466
aS'You'
p6467
as(S'name'
p6468
tp6469
(lp6470
S'to'
p6471
aS'of'
p6472
aS'and'
p6473
aS'away'
p6474
as(S'Give'
p6475
tp6476
(lp6477
g331
as(S'shots'
p6478
tp6479
(lp6480
S"I'm"
p6481
as(S'other'
p6482
tp6483
(lp6484
S'hand'
p6485
as(S'ride'
p6486
tp6487
(lp6488
S'You'
p6489
aS'on'
p6490
ag117
as(S'power'
p6491
tp6492
(lp6493
g117
as(S'Some'
p6494
tp6495
(lp6496
S'of'
p6497
aS'of'
p6498
aS'of'
p6499
as(S'journey'
p6500
tp6501
(lp6502
S'mercy'
p6503
as(S'childhood'
p6504
tp6505
(lp6506
S'Make'
p6507
as(S"would've"
p6508
tp6509
(lp6510
S'never'
p6511
as(S'Damn'
p6512
tp6513
(lp6514
S'man'
p6515
aS'queen'
p6516
as(S'again'
p6517
tp6518
(lp6519
S'We'
p6520
aS'they'
p6521
as(S'spend'
p6522
tp6523
(lp6524
S'more'
p6525
aS'my'
p6526
as(S'death'
p6527
tp6528
(lp6529
S'of'
p6530
as(S'Break'
p6531
tp6532
(lp6533
S'it'
p6534
aS'it'
p6535
as(S'lucky'
p6536
tp6537
(lp6538
S'like'
p6539
as(S'ask'
p6540
tp6541
(lp6542
S'if'
p6543
as(S'Percocets'
p6544
tp6545
(lp6546
S'and'
p6547
as(S'tryna'
p6548
tp6549
(lp6550
S'crown'
p6551
as(S"There's"
p6552
tp6553
(lp6554
S"gon'"
p6555
ag331
as(S'finna'
p6556
tp6557
(lp6558
S'fall'
p6559
as(S'many'
p6560
tp6561
(lp6562
S'rings'
p6563
aS'bosses'
p6564
aS'young'
p6565
as(S'water'
p6566
tp6567
(lp6568
S'ugh'
p6569
aS'and'
p6570
aS'gimme'
p6571
ag117
aS'may'
p6572
aS'Like'
p6573
aS'may'
p6574
aS'may'
p6575
aS'is'
p6576
aS'is'
p6577
aS'may'
p6578
aS'may'
p6579
aS'standing'
p6580
as(S'missing'
p6581
tp6582
(lp6583
S'my'
p6584
as(S'lobby'
p6585
tp6586
(lp6587
S'huh'
p6588
aS'huh'
p6589
aS'Mula'
p6590
as(S"'til"
p6591
tp6592
(lp6593
S"I'm"
p6594
aS"I'm"
p6595
aS"I'm"
p6596
aS"I'm"
p6597
as(S'fact'
p6598
tp6599
(lp6600
S'it'
p6601
as(S'joints'
p6602
tp6603
(lp6604
S'to'
p6605
as(S'outside'
p6606
tp6607
(lp6608
S'You'
p6609
aS'everybody'
p6610
aS'When'
p6611
aS'all'
p6612
as(S'sing'
p6613
tp6614
(lp6615
S'how'
p6616
aS'how'
p6617
aS'ZooWap'
p6618
aS'This'
p6619
as(S'stories'
p6620
tp6621
(lp6622
S'of'
p6623
as(S'beater'
p6624
tp6625
(lp6626
S'to'
p6627
as(S'head'
p6628
tp6629
(lp6630
S'like'
p6631
aS'like'
p6632
aS'on'
p6633
aS'on'
p6634
aS'on'
p6635
aS"I'm"
p6636
aS"I'm"
p6637
as(S'collar'
p6638
tp6639
(lp6640
S'crime'
p6641
as(S'music'
p6642
tp6643
(lp6644
S'she'
p6645
aS'Like'
p6646
aS'Like'
p6647
ag117
aS'The'
p6648
as(S'sleep'
p6649
tp6650
(lp6651
S'in'
p6652
as(S'plan'
p6653
tp6654
(lp6655
S'to'
p6656
as(S'Long'
p6657
tp6658
(lp6659
S'discussions'
p6660
as(S'They'
p6661
tp6662
(lp6663
S"don't"
p6664
aS'be'
p6665
aS'be'
p6666
aS'say'
p6667
aS'be'
p6668
aS'was'
p6669
aS'booked'
p6670
aS'want'
p6671
aS'gotta'
p6672
aS'love'
p6673
aS'told'
p6674
aS'was'
p6675
aS'was'
p6676
aS'was'
p6677
aS'poisoned'
p6678
aS"ain't"
p6679
aS'never'
p6680
as(S'choice'
p6681
tp6682
(lp6683
S'JJ'
p6684
as(S'bio'
p6685
tp6686
(lp6687
S'My'
p6688
as(S'time'
p6689
tp6690
(lp6691
S"don't"
p6692
aS'no'
p6693
aS'all'
p6694
aS'every'
p6695
aS'Way'
p6696
aS'again'
p6697
ag117
aS'fighting'
p6698
aS'to'
p6699
aS'for'
p6700
aS'that'
p6701
aS'to'
p6702
aS'for'
p6703
aS'for'
p6704
aS'at'
p6705
aS'to'
p6706
aS'on'
p6707
aS'to'
p6708
as(S'children'
p6709
tp6710
(lp6711
S'at'
p6712
as(S'xans'
p6713
tp6714
(lp6715
S'Started'
p6716
as(S'Comes'
p6717
tp6718
(lp6719
S'like'
p6720
as(S'really'
p6721
tp6722
(lp6723
S'play'
p6724
aS'play'
p6725
aS'care'
p6726
aS'hear'
p6727
as(S'break'
p6728
tp6729
(lp6730
S'We'
p6731
aS'Truth'
p6732
aS'We'
p6733
ag117
aS'these'
p6734
aS'the'
p6735
aS'We'
p6736
aS'Do-do-do-do-do-do-do'
p6737
as(S'new'
p6738
tp6739
(lp6740
S'thing'
p6741
aS'thing'
p6742
aS'charm'
p6743
aS'arm'
p6744
aS'recruitment'
p6745
aS'appearance'
p6746
aS'shit'
p6747
aS'rules'
p6748
aS'Me'
p6749
aS'People'
p6750
aS'shit'
p6751
as(S'hear'
p6752
tp6753
(lp6754
S'is'
p6755
aS'is'
p6756
aS'what'
p6757
aS'back'
p6758
aS'the'
p6759
as(S'pray'
p6760
tp6761
(lp6762
g117
aS'like'
p6763
as(S'legs'
p6764
tp6765
(lp6766
S'and'
p6767
as(S'bunny'
p6768
tp6769
(lp6770
S'hopping'
p6771
as(S'watch'
p6772
tp6773
(lp6774
S'me'
p6775
ag117
aS'her'
p6776
as(S'end'
p6777
tp6778
(lp6779
S'of'
p6780
ag331
aS'up'
p6781
aS'with'
p6782
aS'up'
p6783
aS'Hope'
p6784
as(S'Brantleys'
p6785
tp6786
(lp6787
S'You'
p6788
as(S'everything'
p6789
tp6790
(lp6791
g117
aS"I'm"
p6792
aS'we'
p6793
aS'we'
p6794
aS'You'
p6795
aS'is'
p6796
aS'Like'
p6797
aS'the'
p6798
ag117
as(S'blonde'
p6799
tp6800
(lp6801
S'hair'
p6802
as(S"'Til"
p6803
tp6804
(lp6805
S'they'
p6806
ag117
aS'one'
p6807
as(S'scrap'
p6808
tp6809
(lp6810
S'the'
p6811
as(S'fashion'
p6812
tp6813
(lp6814
g117
ag117
ag117
as(S'man'
p6815
tp6816
(lp6817
S'of'
p6818
aS'Some'
p6819
ag117
ag117
aS"O'"
p6820
aS'Who'
p6821
as(S'hinges'
p6822
tp6823
(lp6824
S'in'
p6825
as(S'jump'
p6826
tp6827
(lp6828
S'ship'
p6829
as(S'roof'
p6830
tp6831
(lp6832
g117
as(S'angels'
p6833
tp6834
(lp6835
S'all'
p6836
ag117
ag117
aS'on'
p6837
aS'all'
p6838
ag117
ag117
aS'all'
p6839
aS'They'
p6840
aS'all'
p6841
ag117
aS'Na'
p6842
as(S'never'
p6843
tp6844
(lp6845
S'took'
p6846
aS'sweet'
p6847
aS'changed'
p6848
aS'changed'
p6849
aS'forged'
p6850
aS'grow'
p6851
aS'Window'
p6852
aS'tired'
p6853
aS'rolled'
p6854
aS'got'
p6855
aS'made'
p6856
aS'come'
p6857
aS'drown'
p6858
aS'never'
p6859
aS'Chance'
p6860
aS'seen'
p6861
aS'practice'
p6862
as(S'Father'
p6863
tp6864
(lp6865
S'She'
p6866
as(g4456
tp6867
(lp6868
S'Guwop'
p6869
as(S'took'
p6870
tp6871
(lp6872
g331
aS'night'
p6873
aS'so'
p6874
aS'to'
p6875
as(S'stuff'
p6876
tp6877
(lp6878
S'Move'
p6879
as(S'hand'
p6880
tp6881
(lp6882
S'Milly'
p6883
aS'on'
p6884
as(S'drinking'
p6885
tp6886
(lp6887
S'all'
p6888
aS'all'
p6889
aS'ay'
p6890
aS'all'
p6891
aS'all'
p6892
aS'hey'
p6893
aS'all'
p6894
aS'all'
p6895
aS'ay'
p6896
aS'all'
p6897
aS'all'
p6898
aS'ay'
p6899
aS'all'
p6900
aS'all'
p6901
aS'hey'
p6902
aS'all'
p6903
aS'all'
p6904
aS'ay'
p6905
aS'all'
p6906
aS'all'
p6907
aS'ay'
p6908
aS'all'
p6909
aS'all'
p6910
aS'hey'
p6911
aS'all'
p6912
aS'all'
p6913
aS'ay'
p6914
as(S'do'
p6915
tp6916
(lp6917
S'not'
p6918
aS'is'
p6919
aS'harm'
p6920
aS'whatever'
p6921
aS'the'
p6922
aS'the'
p6923
aS'the'
p6924
aS'the'
p6925
aS'the'
p6926
aS'the'
p6927
aS'the'
p6928
aS'the'
p6929
aS'the'
p6930
aS'the'
p6931
aS'the'
p6932
aS'the'
p6933
aS'the'
p6934
aS'the'
p6935
aS'the'
p6936
aS'what'
p6937
aS'the'
p6938
aS'the'
p6939
aS'the'
p6940
aS'the'
p6941
aS'the'
p6942
aS'the'
p6943
aS'the'
p6944
aS'the'
p6945
aS'the'
p6946
aS'the'
p6947
aS'the'
p6948
aS'the'
p6949
aS'to'
p6950
aS'the'
p6951
aS'the'
p6952
aS'the'
p6953
aS'the'
p6954
aS'it'
p6955
aS'We'
p6956
aS'shit'
p6957
aS"I'll"
p6958
aS'what'
p6959
aS'When'
p6960
aS'shit'
p6961
aS"I'll"
p6962
aS'is'
p6963
as(S'ground'
p6964
tp6965
(lp6966
S'We'
p6967
as(S'cards'
p6968
tp6969
(lp6970
g117
as(S'Sing'
p6971
tp6972
(lp6973
S'with'
p6974
aS'with'
p6975
aS'with'
p6976
aS'with'
p6977
as(S'where'
p6978
tp6979
(lp6980
g117
aS'your'
p6981
aS'we'
p6982
as(S'road'
p6983
tp6984
(lp6985
S'She'
p6986
aS'Super'
p6987
as(S'King'
p6988
tp6989
(lp6990
S"I'm"
p6991
as(S'to'
p6992
tp6993
(lp6994
S'my'
p6995
aS'the'
p6996
aS'stop'
p6997
aS'pick'
p6998
aS'pick'
p6999
aS'cheat'
p7000
aS'stop'
p7001
aS'do'
p7002
aS'stop'
p7003
aS'pick'
p7004
aS'pick'
p7005
aS'come'
p7006
aS'losing'
p7007
aS'kill'
p7008
aS'his'
p7009
aS'be'
p7010
aS'end'
p7011
aS'your'
p7012
aS'end'
p7013
aS'forget'
p7014
aS'fly'
p7015
aS'know'
p7016
aS'the'
p7017
aS'the'
p7018
aS'play'
p7019
ag331
aS'hell'
p7020
aS'Hillman'
p7021
aS'OVO'
p7022
aS'let'
p7023
aS'my'
p7024
aS'soul'
p7025
aS'roll'
p7026
aS'roll'
p7027
aS'talk'
p7028
aS'know'
p7029
aS'music'
p7030
aS'do'
p7031
aS'you'
p7032
ag117
aS'be'
p7033
aS'the'
p7034
aS'harness'
p7035
aS'be'
p7036
aS'music'
p7037
aS'do'
p7038
aS'you'
p7039
ag117
aS'say'
p7040
aS'slow'
p7041
aS'offer'
p7042
aS'qualify'
p7043
aS'Chatham'
p7044
aS'see'
p7045
aS'hide'
p7046
aS'sow'
p7047
aS'gently'
p7048
aS'reach'
p7049
aS'phone'
p7050
aS'the'
p7051
aS'roll'
p7052
aS'purchase'
p7053
aS'smoke'
p7054
aS'movies'
p7055
aS'Netflix'
p7056
aS'pass'
p7057
aS'laugh'
p7058
aS'get'
p7059
aS'Fetty'
p7060
aS'Raws'
p7061
ag331
aS'breathe'
p7062
aS'finesse'
p7063
aS'patrol'
p7064
aS'lay'
p7065
aS'break'
p7066
aS'the'
p7067
aS'you'
p7068
aS'help'
p7069
aS'my'
p7070
aS'xans'
p7071
aS'84'
p7072
aS'the'
p7073
aS'day'
p7074
aS'stay'
p7075
aS'the'
p7076
aS'make'
p7077
aS'my'
p7078
aS'pray'
p7079
aS'pray'
p7080
aS'catch'
p7081
aS'the'
p7082
aS'your'
p7083
aS'His'
p7084
aS'Jesus'
p7085
aS'Take'
p7086
aS'your'
p7087
aS'smile'
p7088
aS'God'
p7089
aS'God'
p7090
aS'dance'
p7091
aS'Michael'
p7092
aS'dance'
p7093
aS'pass'
p7094
aS'master'
p7095
aS'you'
p7096
aS'you'
p7097
aS'you'
p7098
as(S'dripping'
p7099
tp7100
(lp7101
S'water'
p7102
as(S'Grandma'
p7103
tp7104
(lp7105
S'say'
p7106
as(S'ratify'
p7107
tp7108
(lp7109
S'my'
p7110
as(S'see'
p7111
tp7112
(lp7113
S'what'
p7114
aS'me'
p7115
aS'your'
p7116
aS'grown'
p7117
aS'it'
p7118
aS'how'
p7119
aS'how'
p7120
aS'how'
p7121
aS'how'
p7122
aS'another'
p7123
aS'the'
p7124
aS'the'
p7125
aS'the'
p7126
aS'the'
p7127
aS'Make'
p7128
as(S'And'
p7129
tp7130
(lp7131
S'we'
p7132
aS'we'
p7133
aS'we'
p7134
aS'that'
p7135
aS"gettin'"
p7136
ag331
aS'if'
p7137
aS'some'
p7138
aS'bring'
p7139
aS'gave'
p7140
aS'her'
p7141
aS'everything'
p7142
aS'yeah'
p7143
aS'these'
p7144
aS'my'
p7145
aS'who'
p7146
aS'who'
p7147
aS'if'
p7148
aS'who'
p7149
aS'who'
p7150
aS'realized'
p7151
aS'your'
p7152
aS'my'
p7153
aS'my'
p7154
aS'opened'
p7155
aS'we'
p7156
aS'we'
p7157
aS'all'
p7158
aS'all'
p7159
aS'all'
p7160
aS'all'
p7161
aS'told'
p7162
aS'everything'
p7163
as(S'Super'
p7164
tp7165
(lp7166
S"ain't"
p7167
as(S'dance'
p7168
tp7169
(lp7170
S'performed'
p7171
aS'to'
p7172
aS'in'
p7173
as(S'practice'
p7174
tp7175
(lp7176
S"Don't"
p7177
aS'modesty'
p7178
ag117
as(S'deep'
p7179
tp7180
(lp7181
S'Yes'
p7182
as(S'downtown'
p7183
tp7184
(lp7185
S'You'
p7186
as(S'mercy'
p7187
tp7188
(lp7189
S'May'
p7190
as(S'Hammer'
p7191
tp7192
(lp7193
S'after'
p7194
as(S'BM'
p7195
tp7196
(lp7197
S'to'
p7198
as(S'79'
p7199
tp7200
(lp7201
S'79'
p7202
aS'79'
p7203
aS'place'
p7204
aS'79'
p7205
aS'79'
p7206
aS'place'
p7207
aS'79'
p7208
aS'79'
p7209
aS'hey'
p7210
aS'79'
p7211
aS'79'
p7212
aS'hey'
p7213
aS'79'
p7214
aS'79'
p7215
aS'hey'
p7216
aS'79'
p7217
aS'79'
p7218
aS'hey'
p7219
aS'So'
p7220
as(S'reconciled'
p7221
tp7222
(lp7223
S'They'
p7224
as(S'streets'
p7225
tp7226
(lp7227
S'they'
p7228
aS'they'
p7229
aS'my'
p7230
aS'they'
p7231
aS'they'
p7232
aS'gave'
p7233
aS'so'
p7234
aS'say'
p7235
as(S'number'
p7236
tp7237
(lp7238
S'since'
p7239
as(S'going'
p7240
tp7241
(lp7242
S'on'
p7243
as(S'free'
p7244
tp7245
(lp7246
S'so'
p7247
aS'the'
p7248
ag117
aS'They'
p7249
aS'Someday'
p7250
aS'Be'
p7251
aS'say'
p7252
as(S'chair'
p7253
tp7254
(lp7255
S'hugh'
p7256
as(S'day'
p7257
tp7258
(lp7259
S'Music'
p7260
aS'had'
p7261
aS'had'
p7262
aS'had'
p7263
aS'had'
p7264
aS'camp'
p7265
aS"nigga's"
p7266
aS'one'
p7267
aS'early'
p7268
aS'But'
p7269
aS'camp'
p7270
aS'where'
p7271
as(S'boat'
p7272
tp7273
(lp7274
S'down'
p7275
as(S'fight'
p7276
tp7277
(lp7278
S'for'
p7279
as(S'Drought'
p7280
tp7281
(lp7282
S'third'
p7283
as(S'shine'
p7284
tp7285
(lp7286
S'no'
p7287
aS'like'
p7288
aS'But'
p7289
as(S'another'
p7290
tp7291
(lp7292
S'he'
p7293
aS'day'
p7294
aS'day'
p7295
aS'in'
p7296
aS'day'
p7297
aS'day'
p7298
aS'rapper'
p7299
as(S'week'
p7300
tp7301
(lp7302
S'niggas'
p7303
as(S'crown'
p7304
tp7305
(lp7306
S'Bury'
p7307
aS'me'
p7308
as(S'Petigrew'
p7309
tp7310
(lp7311
S'could'
p7312
as(S'classes'
p7313
tp7314
(lp7315
S'You'
p7316
as(S'mean'
p7317
tp7318
(lp7319
S'This'
p7320
ag117
aS"it's"
p7321
as(S'lap'
p7322
tp7323
(lp7324
S'Bitch'
p7325
aS'It'
p7326
ag117
aS'The'
p7327
aS'We'
p7328
as(S'oil'
p7329
tp7330
(lp7331
S'me'
p7332
as(S'father'
p7333
tp7334
(lp7335
S'mayor'
p7336
as(S'thirst'
p7337
tp7338
(lp7339
S'in'
p7340
aS'in'
p7341
as(S'matata'
p7342
tp7343
(lp7344
S'by'
p7345
as(S'Him'
p7346
tp7347
(lp7348
S'praise'
p7349
aS"'til"
p7350
aS'praise'
p7351
aS"'til"
p7352
aS'praise'
p7353
aS"'til"
p7354
aS'praise'
p7355
aS"'til"
p7356
aS'praise'
p7357
aS'till'
p7358
aS'praise'
p7359
aS'till'
p7360
as(S'made'
p7361
tp7362
(lp7363
S'me'
p7364
aS'it'
p7365
ag331
aS'it'
p7366
aS'it'
p7367
aS'it'
p7368
as(S'stuck'
p7369
tp7370
(lp7371
S'in'
p7372
aS'together'
p7373
as(S'upon'
p7374
tp7375
(lp7376
S'the'
p7377
as(S"Don't"
p7378
tp7379
(lp7380
S'tweak'
p7381
aS'believe'
p7382
aS'be'
p7383
aS'you'
p7384
aS'you'
p7385
aS'you'
p7386
aS'forget'
p7387
aS'you'
p7388
aS'you'
p7389
aS'you'
p7390
aS'you'
p7391
aS'believe'
p7392
aS'matter'
p7393
as(S'slaves'
p7394
tp7395
(lp7396
S'from'
p7397
as(S"it's"
p7398
tp7399
(lp7400
S'ready'
p7401
aS'ready'
p7402
aS'never'
p7403
ag331
aS'outta'
p7404
aS'Boat'
p7405
aS'just'
p7406
aS'not'
p7407
aS"bustin'"
p7408
aS'tidal'
p7409
aS'yours'
p7410
aS'ever'
p7411
aS'ever'
p7412
aS'ever'
p7413
aS'ever'
p7414
aS'ever'
p7415
aS'coming'
p7416
as(S"You're"
p7417
tp7418
(lp7419
S'my'
p7420
aS'my'
p7421
aS'my'
p7422
aS'special'
p7423
aS'special'
p7424
as(S'Never'
p7425
tp7426
(lp7427
S'let'
p7428
aS'let'
p7429
aS'never'
p7430
aS'drown'
p7431
aS'drown'
p7432
aS'never'
p7433
aS'drown'
p7434
aS'drown'
p7435
as(S'deposits'
p7436
tp7437
(lp7438
S'they'
p7439
as(S"won't"
p7440
tp7441
(lp7442
S'be'
p7443
as(S'southside'
p7444
tp7445
(lp7446
S'Got'
p7447
as(S'tank'
p7448
tp7449
(lp7450
S'top'
p7451
as(S'looking'
p7452
tp7453
(lp7454
S'holy'
p7455
as(S'dollar'
p7456
tp7457
(lp7458
S'signs'
p7459
as(S'herself'
p7460
tp7461
(lp7462
S'She'
p7463
as(S'worship'
p7464
tp7465
(lp7466
S'make'
p7467
as(S'top'
p7468
tp7469
(lp7470
S'nappy'
p7471
as(S'budget'
p7472
tp7473
(lp7474
S'KOK'
p7475
as(S"ain't"
p7476
tp7477
(lp7478
S'no'
p7479
aS'like'
p7480
aS'put'
p7481
aS'make'
p7482
aS'had'
p7483
aS'have'
p7484
aS'work'
p7485
aS'matter'
p7486
aS'no'
p7487
aS'no'
p7488
aS'felt'
p7489
aS'have'
p7490
aS'know'
p7491
aS"goin'"
p7492
aS'change'
p7493
aS'gotta'
p7494
aS'buy'
p7495
aS'gotta'
p7496
aS'got'
p7497
aS'got'
p7498
aS'holding'
p7499
aS'saving'
p7500
aS'teaching'
p7501
aS'signed'
p7502
as(S'use'
p7503
tp7504
(lp7505
S'your'
p7506
ag331
as(S'ya'
p7507
tp7508
(lp7509
S'lobby'
p7510
aS'lobby'
p7511
as(S'Boat'
p7512
tp7513
(lp7514
S'Chance'
p7515
aS'Am'
p7516
aS'from'
p7517
as(S'sold'
p7518
tp7519
(lp7520
S'merch'
p7521
as(S'have'
p7522
tp7523
(lp7524
g331
aS'no'
p7525
aS'lost'
p7526
aS'my'
p7527
aS'somewhere'
p7528
aS'to'
p7529
ag331
ag331
ag331
ag331
ag331
ag331
aS'We'
p7530
aS'time'
p7531
aS'time'
p7532
aS'time'
p7533
as(S'Cause'
p7534
tp7535
(lp7536
S'at'
p7537
aS'if'
p7538
as(S'Color'
p7539
tp7540
(lp7541
S'white'
p7542
as(S'ideas'
p7543
tp7544
(lp7545
S'Some'
p7546
aS'that'
p7547
as(S'bed'
p7548
tp7549
(lp7550
S'time'
p7551
ag117
as(S"bustin'"
p7552
tp7553
(lp7554
S'You'
p7555
as(S'actual'
p7556
tp7557
(lp7558
S'smoke'
p7559
as(S'hour'
p7560
tp7561
(lp7562
S'praise'
p7563
as(S'nothing'
p7564
tp7565
(lp7566
S'away'
p7567
aS'away'
p7568
as(S'stay'
p7569
tp7570
(lp7571
S'at'
p7572
aS'Summer'
p7573
aS'stay'
p7574
aS'around'
p7575
aS'Summer'
p7576
aS'hey'
p7577
aS'You'
p7578
aS'in'
p7579
aS'in'
p7580
aS'Clean'
p7581
aS'to'
p7582
as(S'bom'
p7583
tp7584
(lp7585
S'bom'
p7586
aS'bom'
p7587
aS'Bom'
p7588
aS'bom'
p7589
aS'Bom'
p7590
aS'bom'
p7591
aS'Music'
p7592
aS'bom'
p7593
aS'bom'
p7594
aS'Bom'
p7595
aS'bom'
p7596
aS'Bom'
p7597
aS'bom'
p7598
aS'Music'
p7599
as(S'trust'
p7600
tp7601
(lp7602
S'no'
p7603
as(S'Santa'
p7604
tp7605
(lp7606
S'invoked'
p7607
as(S'were'
p7608
tp7609
(lp7610
S"thinkin'"
p7611
aS"thinkin'"
p7612
aS'so'
p7613
aS'always'
p7614
aS'for'
p7615
aS'meant'
p7616
aS'meant'
p7617
aS'stuck'
p7618
as(S'trip'
p7619
tp7620
(lp7621
S'big'
p7622
as(S'toes'
p7623
tp7624
(lp7625
S'around'
p7626
aS'hurt'
p7627
as(S'Rollie'
p7628
tp7629
(lp7630
S'got'
p7631
as(S'recruitment'
p7632
tp7633
(lp7634
S'Our'
p7635
as(S'Gimme'
p7636
tp7637
(lp7638
S'the'
p7639
as(S'dating'
p7640
tp7641
(lp7642
S"We've"
p7643
as(S'students'
p7644
tp7645
(lp7646
S'But'
p7647
as(S'Petey'
p7648
tp7649
(lp7650
S'Pablo'
p7651
as(S'Manor'
p7652
tp7653
(lp7654
S'My'
p7655
as(S'perimeter'
p7656
tp7657
(lp7658
S'Change'
p7659
as(S'bleed'
p7660
tp7661
(lp7662
S'on'
p7663
aS'on'
p7664
as(S'worry'
p7665
tp7666
(lp7667
S'little'
p7668
as(S"That's"
p7669
tp7670
(lp7671
S'the'
p7672
as(S'three'
p7673
tp7674
(lp7675
S'years'
p7676
as(S'Rolling'
p7677
tp7678
(lp7679
S'with'
p7680
as(S"I'll"
p7681
tp7682
(lp7683
S'prolly'
p7684
aS'get'
p7685
aS'get'
p7686
aS'be'
p7687
as(S'poke'
p7688
tp7689
(lp7690
S'Lucifer'
p7691
as(S'movies'
p7692
tp7693
(lp7694
S'and'
p7695
aS'and'
p7696
as(S'points'
p7697
tp7698
(lp7699
S'on'
p7700
as(S'May'
p7701
tp7702
(lp7703
S'the'
p7704
aS'you'
p7705
as(S'lonely'
p7706
tp7707
(lp7708
S'child'
p7709
as(S'tokens'
p7710
tp7711
(lp7712
S'no'
p7713
as(S'gate'
p7714
tp7715
(lp7716
S'singing'
p7717
as(S'times'
p7718
tp7719
(lp7720
S'not'
p7721
aS'but'
p7722
aS'Lil'
p7723
as(S'We'
p7724
tp7725
(lp7726
S'know'
p7727
aS'know'
p7728
aS'know'
p7729
aS'know'
p7730
aS'know'
p7731
aS'know'
p7732
aS'know'
p7733
aS'know'
p7734
aS'still'
p7735
aS"don't"
p7736
aS"don't"
p7737
aS"don't"
p7738
aS"don't"
p7739
aS"don't"
p7740
aS"don't"
p7741
aS"don't"
p7742
aS"don't"
p7743
aS"don't"
p7744
aS"don't"
p7745
aS"don't"
p7746
aS"don't"
p7747
aS"don't"
p7748
aS"don't"
p7749
aS"don't"
p7750
aS'used'
p7751
aS"gon'"
p7752
aS"gon'"
p7753
aS"gon'"
p7754
aS"ain't"
p7755
aS'can'
p7756
aS'never'
p7757
aS'would'
p7758
aS"gon'"
p7759
aS"gon'"
p7760
aS"gon'"
p7761
aS"ain't"
p7762
aS'can'
p7763
aS'just'
p7764
aS'just'
p7765
aS'just'
p7766
aS'just'
p7767
aS'just'
p7768
aS'just'
p7769
aS'just'
p7770
aS'just'
p7771
aS'just'
p7772
aS"don't"
p7773
aS'used'
p7774
aS"don't"
p7775
aS'deserve'
p7776
aS'deserve'
p7777
aS'deserve'
p7778
aS'deserve'
p7779
aS'used'
p7780
aS'way'
p7781
aS'stuck'
p7782
aS'smoke'
p7783
aS'went'
p7784
aS'went'
p7785
aS'need'
p7786
aS'deserve'
p7787
aS'deserve'
p7788
aS'deserve'
p7789
aS'deserve'
p7790
aS'deserve'
p7791
aS'deserve'
p7792
aS'deserve'
p7793
aS'deserve'
p7794
aS'in'
p7795
as(S'started'
p7796
tp7797
(lp7798
S'missing'
p7799
as(S"isn't"
p7800
tp7801
(lp7802
S'close'
p7803
as(S'change'
p7804
tp7805
(lp7806
S'Wendy'
p7807
aS'my'
p7808
as(S'like'
p7809
tp7810
(lp7811
S'Andr\xc3'
p7812
aS'music'
p7813
aS'Auntie'
p7814
aS'this'
p7815
aS'what'
p7816
aS'real'
p7817
aS'There'
p7818
aS'There'
p7819
aS'Craig'
p7820
aS'You'
p7821
aS'There'
p7822
ag331
aS'it'
p7823
aS'diarrhea'
p7824
aS'They'
p7825
aS'There'
p7826
aS'Jesus'
p7827
aS'There'
p7828
aS'There'
p7829
aS'There'
p7830
aS"it's"
p7831
ag331
aS'family'
p7832
aS'family'
p7833
aS'blessings'
p7834
aS'blessings'
p7835
aS'blessings'
p7836
aS'dripping'
p7837
aS'blessings'
p7838
aS'Juicy'
p7839
ag331
aS'pico'
p7840
aS'this'
p7841
ag331
ag331
ag331
aS'to'
p7842
aS'clovers'
p7843
aS"I'm"
p7844
aS"I'm"
p7845
aS'bling'
p7846
ag331
ag331
ag331
aS'when'
p7847
aS"Alexand'"
p7848
ag331
aS'the'
p7849
aS"Alexand'"
p7850
ag331
aS'the'
p7851
aS"Alexand'"
p7852
ag331
aS'the'
p7853
ag331
aS'Hedwig'
p7854
aS"I'm"
p7855
aS'shhh'
p7856
aS'Simba'
p7857
aS'this'
p7858
aS'oowops'
p7859
aS'this'
p7860
aS'Hammer'
p7861
aS"I'm"
p7862
aS'God'
p7863
aS'Mama'
p7864
aS'my'
p7865
aS'her'
p7866
aS'the'
p7867
as(S'Steve'
p7868
tp7869
(lp7870
S'giving'
p7871
as(S'would'
p7872
tp7873
(lp7874
S'mow'
p7875
aS'always'
p7876
aS'always'
p7877
aS'you'
p7878
aS'like'
p7879
aS'just'
p7880
aS'be'
p7881
aS'think'
p7882
aS'turn'
p7883
as(S'truck'
p7884
tp7885
(lp7886
S'and'
p7887
as(S'an'
p7888
tp7889
(lp7890
S'atom'
p7891
aS'actual'
p7892
aS'Uber'
p7893
as(S'gates'
p7894
tp7895
(lp7896
S"It's"
p7897
as(S'him'
p7898
tp7899
(lp7900
g331
aS'All'
p7901
aS'All'
p7902
aS'But'
p7903
as(S'high'
p7904
tp7905
(lp7906
S'captain'
p7907
aS'Me'
p7908
aS'school'
p7909
aS'five'
p7910
aS'Spit'
p7911
aS'So'
p7912
aS'school'
p7913
as(S'tidal'
p7914
tp7915
(lp7916
S'waves'
p7917
as(S'played'
p7918
tp7919
(lp7920
S'under'
p7921
as(S'miracle'
p7922
tp7923
(lp7924
S'When'
p7925
aS'Are'
p7926
aS'Are'
p7927
aS'Are'
p7928
aS'Are'
p7929
aS'Are'
p7930
aS'Are'
p7931
aS'Are'
p7932
aS'Are'
p7933
aS'Are'
p7934
aS'Are'
p7935
aS'Are'
p7936
aS'You'
p7937
as(S'She'
p7938
tp7939
(lp7940
S'like'
p7941
aS"don't"
p7942
aS'curious'
p7943
aS'sting'
p7944
aS'shine'
p7945
aS"don't"
p7946
aS'always'
p7947
aS"don't"
p7948
aS'just'
p7949
aS"don't"
p7950
aS'putting'
p7951
aS'wake'
p7952
aS"don't"
p7953
aS'said'
p7954
aS'used'
p7955
aS'need'
p7956
aS"can't"
p7957
aS'been'
p7958
aS'said'
p7959
aS'know'
p7960
aS'gave'
p7961
aS'like'
p7962
aS'like'
p7963
as(S'daddy'
p7964
tp7965
(lp7966
S'Said'
p7967
as(S'worldly'
p7968
tp7969
(lp7970
S'possessions'
p7971
as(S'lie'
p7972
tp7973
(lp7974
S"that's"
p7975
aS'on'
p7976
ag117
aS'Mystery'
p7977
as(S'pre-currency'
p7978
tp7979
(lp7980
S'post-language'
p7981
as(S'anyone'
p7982
tp7983
(lp7984
S'from'
p7985
as(S'after'
p7986
tp7987
(lp7988
S'the'
p7989
ag3705
as(S'Fold'
p7990
tp7991
(lp7992
S'my'
p7993
as(S'losing'
p7994
tp7995
(lp7996
S'students'
p7997
as(S'black'
p7998
tp7999
(lp8000
S'life'
p8001
aS'beans'
p8002
as(S'lose'
p8003
tp8004
(lp8005
S'custody'
p8006
as(S'D'
p8007
tp8008
(lp8009
S'You'
p8010
as(S'How'
p8011
tp8012
(lp8013
S'can'
p8014
aS'great'
p8015
aS'great'
p8016
aS'great'
p8017
aS'great'
p8018
as(S'leg'
p8019
tp8020
(lp8021
S'big'
p8022
as(S'spent'
p8023
tp8024
(lp8025
S'my'
p8026
as(S'faith'
p8027
tp8028
(lp8029
S'of'
p8030
as(S'84'
p8031
tp8032
(lp8033
S'damn'
p8034
as(S'queen'
p8035
tp8036
(lp8037
S'You'
p8038
aS'said'
p8039
aS'bed'
p8040
aS'for'
p8041
as(S'lukewarm'
p8042
tp8043
(lp8044
S"I'm"
p8045
as(S'enough'
p8046
tp8047
(lp8048
S'weed'
p8049
as(S'Me'
p8050
tp8051
(lp8052
S'and'
p8053
aS'and'
p8054
aS'new'
p8055
as(S'trying'
p8056
tp8057
(lp8058
S'to'
p8059
as(S'stupid'
p8060
tp8061
(lp8062
S'shit'
p8063
as(S'Who'
p8064
tp8065
(lp8066
S'is'
p8067
aS'is'
p8068
aS'came'
p8069
aS'was'
p8070
aS'was'
p8071
as(S'lift'
p8072
tp8073
(lp8074
S'it'
p8075
as(S'Simba'
p8076
tp8077
(lp8078
S'after'
p8079
as(S"we'll"
p8080
tp8081
(lp8082
S'all'
p8083
as(S'Tryna'
p8084
tp8085
(lp8086
S'turn'
p8087
as(S'can'
p8088
tp8089
(lp8090
S'keep'
p8091
aS'hear'
p8092
aS'hear'
p8093
aS'really'
p8094
aS'they'
p8095
aS'have'
p8096
aS'keep'
p8097
aS'do'
p8098
aS'have'
p8099
aS'have'
p8100
aS'see'
p8101
aS'Let'
p8102
aS'move'
p8103
aS'watch'
p8104
ag117
aS'be'
p8105
as(S'enemies'
p8106
tp8107
(lp8108
S'under'
p8109
as(S'hunters'
p8110
tp8111
(lp8112
S'And'
p8113
as(S'woes'
p8114
tp8115
(lp8116
S'up'
p8117
as(S"milli'"
p8118
tp8119
(lp8120
S'in'
p8121
as(S'Clean'
p8122
tp8123
(lp8124
S'up'
p8125
as(S'clovers'
p8126
tp8127
(lp8128
S'Yeah'
p8129
as(S'guess'
p8130
tp8131
(lp8132
S"that's"
p8133
as(S'Why'
p8134
tp8135
(lp8136
S'would'
p8137
aS'did'
p8138
as(S'Michael'
p8139
tp8140
(lp8141
g117
as(S'pussy'
p8142
tp8143
(lp8144
S'too'
p8145
as(S'homegirls'
p8146
tp8147
(lp8148
S'got'
p8149
as(S'Lay'
p8150
tp8151
(lp8152
S'your'
p8153
as(S'we'
p8154
tp8155
(lp8156
S'back'
p8157
aS'back'
p8158
aS'back'
p8159
aS'back'
p8160
aS'back'
p8161
aS'And'
p8162
aS'back'
p8163
aS'back'
p8164
aS'got'
p8165
aS'might'
p8166
aS'got'
p8167
aS'got'
p8168
aS'might'
p8169
aS'got'
p8170
aS'got'
p8171
aS'got'
p8172
aS'got'
p8173
aS'might'
p8174
aS'got'
p8175
aS'got'
p8176
aS'got'
p8177
aS'know'
p8178
aS'got'
p8179
aS'know'
p8180
aS'got'
p8181
aS'know'
p8182
aS'got'
p8183
aS'know'
p8184
aS'got'
p8185
aS'know'
p8186
aS'got'
p8187
aS'know'
p8188
aS'got'
p8189
aS'know'
p8190
aS'got'
p8191
aS'know'
p8192
aS'got'
p8193
aS'got'
p8194
aS"meetin'"
p8195
aS"don't"
p8196
aS"don't"
p8197
aS"don't"
p8198
aS"don't"
p8199
aS"don't"
p8200
aS"don't"
p8201
aS"don't"
p8202
aS'say'
p8203
aS"don't"
p8204
aS"don't"
p8205
aS"don't"
p8206
aS"don't"
p8207
aS"don't"
p8208
aS'read'
p8209
aS'said'
p8210
aS"don't"
p8211
aS"don't"
p8212
aS"don't"
p8213
aS"don't"
p8214
aS"don't"
p8215
aS'used'
p8216
aS"gon'"
p8217
aS"gon'"
p8218
aS'used'
p8219
aS'hit'
p8220
aS"gon'"
p8221
aS"gon'"
p8222
aS'used'
p8223
aS'cousins'
p8224
aS'wage'
p8225
aS'just'
p8226
aS'buy'
p8227
aS'have'
p8228
aS'deserve'
p8229
aS'deserve'
p8230
aS'used'
p8231
aS'were'
p8232
aS'deserve'
p8233
aS'deserve'
p8234
aS'deserve'
p8235
aS'deserve'
p8236
aS'back'
p8237
aS'back'
p8238
aS'back'
p8239
aS'back'
p8240
aS'back'
p8241
aS'back'
p8242
aS'back'
p8243
aS'be'
p8244
aS'could'
p8245
aS'in'
p8246
aS'mutual'
p8247
as(S'Fetty'
p8248
tp8249
(lp8250
S'sing'
p8251
as(S'Not'
p8252
tp8253
(lp8254
S'me'
p8255
as(S'stick'
p8256
tp8257
(lp8258
S'around'
p8259
as(S'quarter'
p8260
tp8261
(lp8262
S'Watch'
p8263
as(S'cold'
p8264
tp8265
(lp8266
S'Like'
p8267
as(S'wobbly'
p8268
tp8269
(lp8270
S'big'
p8271
as(S'Donnie'
p8272
tp8273
(lp8274
g331
as(S'caterpillar'
p8275
tp8276
(lp8277
S'race'
p8278
as(S'bee'
p8279
tp8280
(lp8281
S'hot'
p8282
as(S'Arguments'
p8283
tp8284
(lp8285
S'as'
p8286
as(S'solar'
p8287
tp8288
(lp8289
S'Wait'
p8290
as(S'Houston'
p8291
tp8292
(lp8293
S'like'
p8294
as(S'tamed'
p8295
tp8296
(lp8297
S'in'
p8298
as(S'There'
p8299
tp8300
(lp8301
S'go'
p8302
aS'he'
p8303
aS'go'
p8304
aS'he'
p8305
aS'he'
p8306
aS'he'
p8307
aS"gon'"
p8308
aS'go'
p8309
aS'he'
p8310
aS'go'
p8311
aS'he'
p8312
aS'he'
p8313
as(S'molly'
p8314
tp8315
(lp8316
S'its'
p8317
as(S'shorties'
p8318
tp8319
(lp8320
S'lie'
p8321
as(S'As'
p8322
tp8323
(lp8324
S'you'
p8325
as(S'asking'
p8326
tp8327
(lp8328
S'for'
p8329
aS'for'
p8330
as(S'dawn'
p8331
tp8332
(lp8333
S'She'
p8334
as(S'shit'
p8335
tp8336
(lp8337
S'may'
p8338
aS'like'
p8339
aS'was'
p8340
aS"I'm"
p8341
aS'sound'
p8342
aS'You'
p8343
aS'You'
p8344
aS'to'
p8345
aS'and'
p8346
ag117
aS'jam'
p8347
as(S'Is'
p8348
tp8349
(lp8350
S'you'
p8351
as(S'kings'
p8352
tp8353
(lp8354
S'This'
p8355
aS'believe'
p8356
as(S'Stand'
p8357
tp8358
(lp8359
S'Up\xe2'
p8360
as(S'me'
p8361
tp8362
(lp8363
S'these'
p8364
ag117
aS'some'
p8365
aS"It's"
p8366
aS'bih'
p8367
aS'Just'
p8368
aS'bih'
p8369
aS'Just'
p8370
aS'come'
p8371
aS'though'
p8372
aS"It's"
p8373
aS'You'
p8374
aS'Yep'
p8375
aS'You'
p8376
aS'You'
p8377
aS'You'
p8378
aS'They'
p8379
aS'bih'
p8380
aS'Yep'
p8381
aS"movin'"
p8382
aS'There'
p8383
aS'bih'
p8384
aS'Just'
p8385
aS'bih'
p8386
aS'Just'
p8387
aS'You'
p8388
aS'You'
p8389
aS'You'
p8390
aS'You'
p8391
aS'You'
p8392
aS'They'
p8393
aS'into'
p8394
aS'into'
p8395
ag331
aS'half'
p8396
aS"can't"
p8397
aS"I'm"
p8398
aS'and'
p8399
aS'Rub'
p8400
aS'down'
p8401
aS'Drinking'
p8402
aS'In'
p8403
aS'baby'
p8404
aS'some'
p8405
aS'no'
p8406
ag117
aS'cause'
p8407
aS'but'
p8408
aS'though'
p8409
aS'though'
p8410
aS'though'
p8411
aS'to'
p8412
ag117
aS'they'
p8413
aS'surrounded'
p8414
aS'Na'
p8415
aS'take'
p8416
aS'turn'
p8417
aS'they'
p8418
aS'surrounded'
p8419
aS'they'
p8420
aS'surrounded'
p8421
aS'they'
p8422
aS'surrounded'
p8423
aS'Na'
p8424
ag117
aS'too'
p8425
aS'what'
p8426
aS'what'
p8427
aS'how'
p8428
aS'how'
p8429
aS'how'
p8430
aS'how'
p8431
aS'apple'
p8432
aS'feel'
p8433
aS'Only'
p8434
aS'crack'
p8435
aS'lick'
p8436
aS'crack'
p8437
aS'run'
p8438
aS'break'
p8439
aS'my'
p8440
ag331
aS'twisted'
p8441
aS'crack'
p8442
aS'rub'
p8443
aS'make'
p8444
aS'to'
p8445
aS'some'
p8446
aS'so'
p8447
aS'Like'
p8448
aS'And'
p8449
aS'in'
p8450
aS'Where'
p8451
aS'new'
p8452
aS'Come'
p8453
aS'to'
p8454
aS'but'
p8455
ag117
aS'Mister'
p8456
as(S'Pretty'
p8457
tp8458
(lp8459
S'bitches'
p8460
as(S'Brown'
p8461
tp8462
(lp8463
g117
as(S'today'
p8464
tp8465
(lp8466
S'They'
p8467
as(S'scared'
p8468
tp8469
(lp8470
S'to'
p8471
as(S'poltergeist'
p8472
tp8473
(lp8474
S'with'
p8475
as(S'she'
p8476
tp8477
(lp8478
S'from'
p8479
aS'ever'
p8480
aS"don't"
p8481
aS'curious'
p8482
aS'heard'
p8483
aS"gettin'"
p8484
aS'jog'
p8485
aS'carry'
p8486
aS'carry'
p8487
aS'packing'
p8488
aS'involved'
p8489
aS'fly'
p8490
as(S'Rice'
p8491
tp8492
(lp8493
S'under'
p8494
as(S"poppin'"
p8495
tp8496
(lp8497
S'We'
p8498
aS'We'
p8499
as(S'science'
p8500
tp8501
(lp8502
g117
as(S'stream'
p8503
tp8504
(lp8505
S'Sometimes'
p8506
as(S'chance'
p8507
tp8508
(lp8509
S'LA'
p8510
as(S'holiest'
p8511
tp8512
(lp8513
S'thing'
p8514
as(S'been'
p8515
tp8516
(lp8517
g331
aS'drinking'
p8518
aS'drinking'
p8519
aS'drinking'
p8520
aS'drinking'
p8521
aS'drinking'
p8522
aS'drinking'
p8523
aS'drinking'
p8524
aS'drinking'
p8525
aS'drinking'
p8526
aS'drinking'
p8527
aS'drinking'
p8528
aS'drinking'
p8529
aS'drinking'
p8530
aS'drinking'
p8531
aS'drinking'
p8532
aS'drinking'
p8533
aS'drinking'
p8534
aS'drinking'
p8535
aS'drinking'
p8536
aS'drinking'
p8537
aS'drinking'
p8538
aS'drinking'
p8539
aS'drinking'
p8540
aS'drinking'
p8541
aS'drinking'
p8542
aS'drinking'
p8543
aS'drinking'
p8544
aS'smoking'
p8545
aS'smoking'
p8546
aS'smoking'
p8547
aS'smoking'
p8548
aS'We'
p8549
aS'smoking'
p8550
aS'smoking'
p8551
aS'smoking'
p8552
aS'smoking'
p8553
aS'like'
p8554
aS'lying'
p8555
aS'getting'
p8556
aS'Lord'
p8557
aS'Never'
p8558
aS'Never'
p8559
aS'Never'
p8560
aS'Never'
p8561
as(S'five'
p8562
tp8563
(lp8564
S'Percocets'
p8565
aS'everybody'
p8566
as(S'inside'
p8567
tp8568
(lp8569
S'my'
p8570
as(S'Christ'
p8571
tp8572
(lp8573
S'Spark'
p8574
as(S'Ducked'
p8575
tp8576
(lp8577
S'down'
p8578
as(S'slow'
p8579
tp8580
(lp8581
S'me'
p8582
aS'down'
p8583
as(S'Early'
p8584
tp8585
(lp8586
S'The'
p8587
as(S'who'
p8588
tp8589
(lp8590
S'really'
p8591
aS'the'
p8592
aS'is'
p8593
aS'the'
p8594
aS'is'
p8595
aS'would'
p8596
aS'lived'
p8597
as(S'lost'
p8598
tp8599
(lp8600
S'in'
p8601
aS'your'
p8602
aS'in'
p8603
aS'in'
p8604
aS'in'
p8605
as(S'Chano'
p8606
tp8607
(lp8608
S"ridin'"
p8609
aS"ridin'"
p8610
aS"ridin'"
p8611
aS"ridin'"
p8612
as(S'Running'
p8613
tp8614
(lp8615
S'water'
p8616
as(S'seen'
p8617
tp8618
(lp8619
S'dollar'
p8620
aS'His'
p8621
ag331
as(S'force'
p8622
tp8623
(lp8624
S'to'
p8625
as(S'Yeah'
p8626
tp8627
(lp8628
g117
aS'you'
p8629
aS'the'
p8630
aS'nigga'
p8631
as(S'addicted'
p8632
tp8633
(lp8634
S'to'
p8635
as(S'lightning'
p8636
tp8637
(lp8638
S'bugs'
p8639
as(S'try'
p8640
tp8641
(lp8642
S'to'
p8643
aS'to'
p8644
aS'to'
p8645
as(S'City'
p8646
tp8647
(lp8648
S'so'
p8649
aS'so'
p8650
aS'so'
p8651
as(S'life'
p8652
tp8653
(lp8654
S'is'
p8655
aS"ain't"
p8656
aS'line'
p8657
ag117
as(S'why'
p8658
tp8659
(lp8660
S'they'
p8661
aS'we'
p8662
as(S'ugh'
p8663
tp8664
(lp8665
S'Good'
p8666
as(S'as'
p8667
tp8668
(lp8669
S'well'
p8670
aS'well'
p8671
aS'well'
p8672
aS'the'
p8673
ag331
aS'fuck'
p8674
aS'entrusted'
p8675
aS'friends'
p8676
aS'parents'
p8677
aS'soft'
p8678
aS"momma's"
p8679
as(S'kill'
p8680
tp8681
(lp8682
S"'em"
p8683
ag331
as(S'blood'
p8684
tp8685
(lp8686
S'on'
p8687
as(S'entrusted'
p8688
tp8689
(lp8690
S'me'
p8691
as(S"I'mma"
p8692
tp8693
(lp8694
S'get'
p8695
as(S'fall'
p8696
tp8697
(lp8698
S'in'
p8699
aS'like'
p8700
aS'Sit'
p8701
as(S'grade'
p8702
tp8703
(lp8704
S"I'd"
p8705
aS'This'
p8706
as(S'is'
p8707
tp8708
(lp8709
S'perfect'
p8710
aS'like'
p8711
aS'the'
p8712
aS'the'
p8713
aS'the'
p8714
aS'officially'
p8715
aS'the'
p8716
aS'the'
p8717
aS'all'
p8718
aS'the'
p8719
aS'all'
p8720
aS'all'
p8721
aS'all'
p8722
aS'all'
p8723
aS'all'
p8724
aS'smoke'
p8725
aS'my'
p8726
aS'my'
p8727
aS'special'
p8728
aS'true'
p8729
aS'special'
p8730
aS'true'
p8731
aS'happy'
p8732
aS'the'
p8733
aS'the'
p8734
ag331
aS'you'
p8735
aS'you'
p8736
aS'him'
p8737
aS'you'
p8738
aS'you'
p8739
aS'him'
p8740
aS'talk'
p8741
aS'or'
p8742
aS'you'
p8743
aS'our'
p8744
aS'our'
p8745
aS'our'
p8746
aS'our'
p8747
aS'our'
p8748
aS'our'
p8749
aS'our'
p8750
aS'our'
p8751
aS'our'
p8752
aS'our'
p8753
aS'our'
p8754
aS'our'
p8755
aS'our'
p8756
aS'our'
p8757
aS'that'
p8758
aS'better'
p8759
aS'better'
p8760
aS'the'
p8761
aS'going'
p8762
aS'everything'
p8763
aS'deep'
p8764
aS'Yes'
p8765
as(S'tweak'
p8766
tp8767
(lp8768
S'bro'
p8769
as(S'chamber'
p8770
tp8771
(lp8772
S'and'
p8773
as(S'not'
p8774
tp8775
(lp8776
S'mess'
p8777
aS'talk'
p8778
aS'the'
p8779
ag331
ag331
as(S'table'
p8780
tp8781
(lp8782
S'Lay'
p8783
aS'May'
p8784
as(S'Harley'
p8785
tp8786
(lp8787
S'from'
p8788
as(S'shooting'
p8789
tp8790
(lp8791
S'Summer'
p8792
as(S'with'
p8793
tp8794
(lp8795
S'Kanye'
p8796
aS'the'
p8797
aS'me'
p8798
aS'me'
p8799
aS'me'
p8800
aS'me'
p8801
aS'you'
p8802
aS'me'
p8803
aS'me'
p8804
aS'me'
p8805
aS'me'
p8806
aS'me'
p8807
aS'me'
p8808
aS'me'
p8809
aS'me'
p8810
aS'the'
p8811
aS'you'
p8812
aS'me'
p8813
aS'me'
p8814
aS'me'
p8815
aS'me'
p8816
aS'me'
p8817
aS'me'
p8818
aS'me'
p8819
aS'me'
p8820
aS'me'
p8821
aS'me'
p8822
aS'the'
p8823
aS'the'
p8824
aS'Krillin'
p8825
ag331
aS'the'
p8826
aS'my'
p8827
ag331
aS'that'
p8828
aS'my'
p8829
aS'me'
p8830
ag331
aS'Keef'
p8831
aS'me'
p8832
aS'cooties'
p8833
aS'your'
p8834
aS'for'
p8835
aS'your'
p8836
aS'your'
p8837
aS'the'
p8838
aS'me'
p8839
aS'me'
p8840
aS'me'
p8841
aS'me'
p8842
aS'Malachi'
p8843
aS'swords'
p8844
aS'the'
p8845
aS'the'
p8846
ag331
ag331
ag331
ag331
aS'the'
p8847
aS'my'
p8848
aS'friends'
p8849
aS'crucifix'
p8850
aS'me'
p8851
aS'cracked'
p8852
aS'shawty'
p8853
as(S'mother'
p8854
tp8855
(lp8856
S'If'
p8857
as(S'fields'
p8858
tp8859
(lp8860
S'of'
p8861
as(S'months'
p8862
tp8863
(lp8864
S'end'
p8865
as(S'get'
p8866
tp8867
(lp8868
S'my'
p8869
aS'them'
p8870
aS'too'
p8871
aS'to'
p8872
aS'no'
p8873
aS'in'
p8874
aS'in'
p8875
aS'shortness'
p8876
aS'it'
p8877
aS'it'
p8878
aS'it'
p8879
aS'close'
p8880
aS'it'
p8881
aS'it'
p8882
aS'close'
p8883
aS'in'
p8884
aS'the'
p8885
aS'old'
p8886
aS'lost'
p8887
aS'lost'
p8888
aS'to'
p8889
aS'this'
p8890
aS'cold'
p8891
as(S'Gonna'
p8892
tp8893
(lp8894
S'finish'
p8895
as(S'face'
p8896
tp8897
(lp8898
g331
aS'that'
p8899
as(S'Summer'
p8900
tp8901
(lp8902
S'school'
p8903
aS'friends'
p8904
aS'friends'
p8905
aS'friends'
p8906
aS'friends'
p8907
aS'friends'
p8908
aS'friends'
p8909
aS'friends'
p8910
as(S'stand-in'
p8911
tp8912
(lp8913
g117
as(S'newborns'
p8914
tp8915
(lp8916
S'In'
p8917
as(S"It's"
p8918
tp8919
(lp8920
S"gon'"
p8921
aS"gon'"
p8922
aS'been'
p8923
aS'so'
p8924
aS'too'
p8925
aS'harmless'
p8926
aS'fried'
p8927
as(S'mixtapes'
p8928
tp8929
(lp8930
S'Am'
p8931
aS"I'm"
p8932
aS'Bad'
p8933
aS'Bad'
p8934
aS'Bad'
p8935
aS'Bad'
p8936
aS'Bad'
p8937
aS'Bad'
p8938
aS'Bad'
p8939
aS'Bad'
p8940
as(S'sound'
p8941
tp8942
(lp8943
S'like'
p8944
aS'weird'
p8945
aS'new'
p8946
aS'like'
p8947
aS'like'
p8948
as(S'mud'
p8949
tp8950
(lp8951
S"couldn't"
p8952
as(S'pillowcase'
p8953
tp8954
(lp8955
S'Codeine'
p8956
as(S'flips'
p8957
tp8958
(lp8959
S'When'
p8960
as(S'beans'
p8961
tp8962
(lp8963
S'Walked'
p8964
as(S'seat'
p8965
tp8966
(lp8967
S"It's"
p8968
aS'come'
p8969
aS'ay'
p8970
aS"she'll"
p8971
aS'Now'
p8972
as(S'tucks'
p8973
tp8974
(lp8975
g117
as(S'meant'
p8976
tp8977
(lp8978
S'to'
p8979
aS'to'
p8980
as(S'door'
p8981
tp8982
(lp8983
S'Told'
p8984
as(S'Fucked'
p8985
tp8986
(lp8987
S'up'
p8988
as(S'supply'
p8989
tp8990
(lp8991
S'Blockbuster'
p8992
as(S'burned'
p8993
tp8994
(lp8995
S'Jay'
p8996
as(S'eyed'
p8997
tp8998
(lp8999
S'kids'
p9000
as(S'bam'
p9001
tp9002
(lp9003
S'City'
p9004
aS'you'
p9005
aS'City'
p9006
aS'na'
p9007
aS'City'
p9008
aS'you'
p9009
as(S'Come'
p9010
tp9011
(lp9012
S'on'
p9013
aS'on'
p9014
aS'on'
p9015
as(S'school'
p9016
tp9017
(lp9018
S'get'
p9019
aS'all'
p9020
aS'It'
p9021
ag117
as(S'shirt'
p9022
tp9023
(lp9024
S'off'
p9025
as(S'share'
p9026
tp9027
(lp9028
S'my'
p9029
as(S'curious'
p9030
tp9031
(lp9032
S'she'
p9033
ag117
as(S'shadow'
p9034
tp9035
(lp9036
S'of'
p9037
aS'of'
p9038
as(S'then'
p9039
tp9040
(lp9041
S'Ice'
p9042
aS'when'
p9043
as(S'ordered'
p9044
tp9045
(lp9046
S'my'
p9047
as(S'blocked'
p9048
tp9049
(lp9050
S'just'
p9051
as(S'beast'
p9052
tp9053
(lp9054
S'with'
p9055
as(S'Labels'
p9056
tp9057
(lp9058
S'told'
p9059
as(S'bean'
p9060
tp9061
(lp9062
S'head'
p9063
as(S'harness'
p9064
tp9065
(lp9066
S'you'
p9067
as(S'lessons'
p9068
tp9069
(lp9070
S'from'
p9071
as(S"can't"
p9072
tp9073
(lp9074
S'hurt'
p9075
aS'make'
p9076
aS'be'
p9077
aS'touch'
p9078
aS'touch'
p9079
aS'really'
p9080
aS'be'
p9081
aS'rely'
p9082
aS'be'
p9083
as(S'from'
p9084
tp9085
(lp9086
S'Houston'
p9087
aS'the'
p9088
aS'Yeezy'
p9089
aS'her'
p9090
aS'the'
p9091
aS'the'
p9092
aS'the'
p9093
aS'my'
p9094
aS'Southampton'
p9095
aS'God'
p9096
aS'the'
p9097
aS'White'
p9098
aS'joints'
p9099
aS'the'
p9100
aS'Space'
p9101
aS'childhood'
p9102
as(S'flirt'
p9103
tp9104
(lp9105
S'Cause'
p9106
as(S'about'
p9107
tp9108
(lp9109
S'mixtapes'
p9110
aS'mixtapes'
p9111
aS'mixtapes'
p9112
aS'mixtapes'
p9113
aS'mixtapes'
p9114
aS'mixtapes'
p9115
aS'mixtapes'
p9116
aS'mixtapes'
p9117
aS'cover'
p9118
aS'was'
p9119
ag331
ag331
aS'mixtapes'
p9120
aS'mixtapes'
p9121
aS'you'
p9122
aS'politics'
p9123
as(S'someday'
p9124
tp9125
(lp9126
S'Chicago'
p9127
as(S'throw'
p9128
tp9129
(lp9130
g331
ag331
as(S'must'
p9131
tp9132
(lp9133
S'have'
p9134
aS'be'
p9135
aS'be'
p9136
as(S've'
p9137
tp9138
(lp9139
S'missed'
p9140
as(S'vid'
p9141
tp9142
(lp9143
S'with'
p9144
as(S'ever'
p9145
tp9146
(lp9147
S'find'
p9148
aS'sold'
p9149
aS'since'
p9150
aS'been'
p9151
aS'been'
p9152
aS'been'
p9153
aS'been'
p9154
aS'been'
p9155
as(S"O'"
p9156
tp9157
(lp9158
S'son'
p9159
aS'son'
p9160
as(S'invoked'
p9161
tp9162
(lp9163
S'and'
p9164
as(S'forgetting'
p9165
tp9166
(lp9167
S'my'
p9168
as(S'LA'
p9169
tp9170
(lp9171
S'for'
p9172
as(S'Let'
p9173
tp9174
(lp9175
S'me'
p9176
aS'me'
p9177
aS'me'
p9178
aS'me'
p9179
aS'me'
p9180
aS'me'
p9181
aS'me'
p9182
as(S'The'
p9183
tp9184
(lp9185
S'blessings'
p9186
aS'blessings'
p9187
aS'blessings'
p9188
aS'past'
p9189
aS"motherfuckin'"
p9190
aS'Rink'
p9191
aS'first'
p9192
aS'book'
p9193
aS'type'
p9194
aS'boy'
p9195
aS'water'
p9196
aS'water'
p9197
aS'water'
p9198
aS'water'
p9199
aS'water'
p9200
aS"people's"
p9201
as(S'Dying'
p9202
tp9203
(lp9204
S'laughing'
p9205
as(S'disguise'
p9206
tp9207
(lp9208
S'She'
p9209
as(S'Tidal'
p9210
tp9211
(lp9212
S"it's"
p9213
as(S'cracked'
p9214
tp9215
(lp9216
S'screens'
p9217
as(S'bitch'
p9218
tp9219
(lp9220
S'you'
p9221
aS'wanna'
p9222
aS'wanna'
p9223
aS'do'
p9224
aS'wanna'
p9225
aS'wanna'
p9226
aS'wanna'
p9227
aS'wanna'
p9228
ag117
aS'Walk'
p9229
aS'wanna'
p9230
aS'wanna'
p9231
ag117
as(S'prolly'
p9232
tp9233
(lp9234
S'cry'
p9235
as(S'Endless'
p9236
tp9237
(lp9238
S'fields'
p9239
as(S'Pro-famous'
p9240
tp9241
(lp9242
S"I'm"
p9243
as(S'mow'
p9244
tp9245
(lp9246
S'some'
p9247
as(S'river'
p9248
tp9249
(lp9250
g117
as(S'here'
p9251
tp9252
(lp9253
S'Oh'
p9254
aS'When'
p9255
aS'to'
p9256
as(S'bales'
p9257
tp9258
(lp9259
S'right'
p9260
as(S"'em"
p9261
tp9262
(lp9263
S'shake'
p9264
aS'with'
p9265
aS'for'
p9266
ag331
as(S'cover'
p9267
tp9268
(lp9269
S'art'
p9270
as(S'know'
p9271
tp9272
(lp9273
S"wha'"
p9274
aS'we'
p9275
aS'we'
p9276
aS'we'
p9277
aS'we'
p9278
aS'we'
p9279
aS'we'
p9280
aS'we'
p9281
aS'we'
p9282
aS'we'
p9283
aS'we'
p9284
aS'we'
p9285
aS'we'
p9286
aS'we'
p9287
aS'we'
p9288
aS'we'
p9289
aS'we'
p9290
aS'you'
p9291
aS'is'
p9292
aS'is'
p9293
ag117
aS'them'
p9294
aS'the'
p9295
aS'what'
p9296
aS'how'
p9297
aS'how'
p9298
aS'none'
p9299
aS'none'
p9300
aS'how'
p9301
aS'how'
p9302
aS'you'
p9303
aS'how'
p9304
aS'how'
p9305
aS'what'
p9306
aS'how'
p9307
aS'how'
p9308
aS'me'
p9309
aS'everything'
p9310
aS'you'
p9311
aS'she'
p9312
aS'she'
p9313
aS'he'
p9314
aS'some'
p9315
aS'the'
p9316
aS'my'
p9317
aS'my'
p9318
as(S'natural'
p9319
tp9320
(lp9321
S'Just'
p9322
as(S'over'
p9323
tp9324
(lp9325
S'time'
p9326
aS'Take'
p9327
as(S'Just'
p9328
tp9329
(lp9330
S'another'
p9331
aS'another'
p9332
aS'bought'
p9333
aS'another'
p9334
aS'another'
p9335
aS'like'
p9336
aS'look'
p9337
as(S'bucks'
p9338
tp9339
(lp9340
S'they'
p9341
as(S'control'
p9342
tp9343
(lp9344
S'And'
p9345
as(S"motherfuckin'"
p9346
tp9347
(lp9348
S'rapper'
p9349
as(S'each'
p9350
tp9351
(lp9352
S'drop'
p9353
as(S'Came'
p9354
tp9355
(lp9356
S'up'
p9357
as(S'From'
p9358
tp9359
(lp9360
g331
as(S'Her'
p9361
tp9362
(lp9363
S'pussy'
p9364
as(S'paper'
p9365
tp9366
(lp9367
S'Did'
p9368
as(S'are'
p9369
tp9370
(lp9371
S'very'
p9372
aS'very'
p9373
aS'you'
p9374
aS'you'
p9375
aS'you'
p9376
aS'you'
p9377
aS'you'
p9378
aS'you'
p9379
aS'you'
p9380
as(S'sheep'
p9381
tp9382
(lp9383
S'that'
p9384
as(S'Do-si-do'
p9385
tp9386
(lp9387
S"'Til"
p9388
as(S'hips'
p9389
tp9390
(lp9391
S'And'
p9392
as(S'raps'
p9393
tp9394
(lp9395
S'would'
p9396
as(S'has'
p9397
tp9398
(lp9399
S'ordered'
p9400
aS'to'
p9401
as(S'yeah'
p9402
tp9403
(lp9404
S'my'
p9405
aS'All'
p9406
aS'All'
p9407
as(S'board'
p9408
tp9409
(lp9410
S'yes'
p9411
as(S'believe'
p9412
tp9413
(lp9414
S'Socks'
p9415
aS'in'
p9416
aS'in'
p9417
aS'in'
p9418
aS'in'
p9419
aS'in'
p9420
as(S'Delivered'
p9421
tp9422
(lp9423
S'my'
p9424
as(S'did'
p9425
tp9426
(lp9427
S'Deebo'
p9428
aS'you'
p9429
aS'you'
p9430
aS'you'
p9431
aS'you'
p9432
aS'you'
p9433
aS'you'
p9434
aS'we'
p9435
as(S'best'
p9436
tp9437
(lp9438
S'friend'
p9439
aS'friend'
p9440
aS'thing'
p9441
aS'thing'
p9442
aS'prodigy'
p9443
as(S'down'
p9444
tp9445
(lp9446
S'told'
p9447
aS'When'
p9448
aS'It'
p9449
aS'Good'
p9450
aS'the'
p9451
aS'When'
p9452
aS'It'
p9453
aS'When'
p9454
aS'Good'
p9455
aS'The'
p9456
aS'When'
p9457
aS'the'
p9458
aS'When'
p9459
aS'Are'
p9460
aS'Are'
p9461
aS'Are'
p9462
aS'with'
p9463
aS'you'
p9464
aS"it's"
p9465
aS'in'
p9466
aS"Noah's"
p9467
aS'in'
p9468
aS"Satan's"
p9469
aS'This'
p9470
aS'for'
p9471
aS'ooh'
p9472
aS'for'
p9473
aS'ooh'
p9474
aS'for'
p9475
aS'ooh'
p9476
aS'for'
p9477
aS'for'
p9478
aS'ooh'
p9479
aS'to'
p9480
aS'ooh'
p9481
aS'on'
p9482
as(S'steroids'
p9483
tp9484
(lp9485
S'Lord'
p9486
as(S'drown'
p9487
tp9488
(lp9489
S'The'
p9490
aS'The'
p9491
aS'Never'
p9492
aS'The'
p9493
ag117
as(S'brick'
p9494
tp9495
(lp9496
S'and'
p9497
as(S'Wendy'
p9498
tp9499
(lp9500
S"you've"
p9501
aS'got'
p9502
as(S'half'
p9503
tp9504
(lp9505
S'of'
p9506
aS"There's"
p9507
as(S'hopping'
p9508
tp9509
(lp9510
S"heaven's"
p9511
as(S'loyalty'
p9512
tp9513
(lp9514
S'All'
p9515
as(S'baritone'
p9516
tp9517
(lp9518
S"I've"
p9519
as(S'milk'
p9520
tp9521
(lp9522
S'in'
p9523
as(S'intro'
p9524
tp9525
(lp9526
S'this'
p9527
aS'with'
p9528
as(S'plague'
p9529
tp9530
(lp9531
S'hit'
p9532
as(S'Legit\xe2'
p9533
tp9534
(lp9535
g117
as(S'enemy'
p9536
tp9537
(lp9538
S'like'
p9539
as(S'rely'
p9540
tp9541
(lp9542
S'on'
p9543
as(S'very'
p9544
tp9545
(lp9546
S'special'
p9547
aS'special'
p9548
as(S"chasin'"
p9549
tp9550
(lp9551
S'bounty'
p9552
as(S'Magnify'
p9553
tp9554
(lp9555
S'magnify'
p9556
as(S'gas'
p9557
tp9558
(lp9559
S'oh'
p9560
aS'money'
p9561
as(S'gimme'
p9562
tp9563
(lp9564
S'the'
p9565
as(S'jagged'
p9566
tp9567
(lp9568
S'for'
p9569
as(S'build'
p9570
tp9571
(lp9572
S'Oh'
p9573
aS'the'
p9574
ag331
as(S'centerfolds'
p9575
tp9576
(lp9577
S'Tippy'
p9578
as(S'Maybach'
p9579
tp9580
(lp9581
S'Look'
p9582
as(S'pictures'
p9583
tp9584
(lp9585
S'of'
p9586
as(S'Reclining'
p9587
tp9588
(lp9589
S'on'
p9590
as(S'artsy-fartsy'
p9591
tp9592
(lp9593
S'house'
p9594
as(S'past'
p9595
tp9596
(lp9597
S'tense'
p9598
aS'bed'
p9599
as(S"movin'"
p9600
tp9601
(lp9602
S'slower'
p9603
as(S'JJ'
p9604
tp9605
(lp9606
S'Mikey'
p9607
as(S'type'
p9608
tp9609
(lp9610
S'of'
p9611
as(S'James'
p9612
tp9613
(lp9614
S'Early'
p9615
as(S'better'
p9616
tp9617
(lp9618
S'mother'
p9619
aS'love'
p9620
aS'than'
p9621
aS'than'
p9622
aS'as'
p9623
as(S'respect'
p9624
tp9625
(lp9626
S'and'
p9627
as(S'concrete'
p9628
tp9629
(lp9630
S'jolly'
p9631
as(S'sauna'
p9632
tp9633
(lp9634
S'She'
p9635
as(S"I'm"
p9636
tp9637
(lp9638
S'so'
p9639
aS'at'
p9640
aS'like'
p9641
aS'high'
p9642
aS'so'
p9643
aS'like'
p9644
aS"flippin'"
p9645
aS'Uncle'
p9646
aS'the'
p9647
aS'ready'
p9648
aS"gon'"
p9649
aS'gone'
p9650
aS"gon'"
p9651
aS'gone'
p9652
aS"gon'"
p9653
aS'gone'
p9654
aS"gon'"
p9655
aS'gone'
p9656
aS'at'
p9657
aS'writing'
p9658
ag331
aS'feeling'
p9659
aS"gon'"
p9660
aS'gone'
p9661
aS"gon'"
p9662
aS'gone'
p9663
aS'saying'
p9664
aS'the'
p9665
aS'the'
p9666
aS'the'
p9667
aS'the'
p9668
aS"ridin'"
p9669
aS"showin'"
p9670
aS'Bruce'
p9671
aS"ballin'"
p9672
aS'Chris'
p9673
aS'the'
p9674
aS'the'
p9675
aS'stunting'
p9676
aS'different'
p9677
aS'the'
p9678
aS'the'
p9679
aS'the'
p9680
aS'still'
p9681
aS'Kosher'
p9682
aS'culture'
p9683
aS'steady'
p9684
aS'crazy'
p9685
aS'crazy'
p9686
aS'James'
p9687
aS'always'
p9688
aS'always'
p9689
aS'tryna'
p9690
aS'the'
p9691
aS'declining'
p9692
aS'in'
p9693
aS'gonna'
p9694
aS'Ludacris'
p9695
aS'just'
p9696
aS'gonna'
p9697
aS'gonna'
p9698
aS'doing'
p9699
aS'pre-currency'
p9700
aS'Broadway'
p9701
aS'getting'
p9702
as(S'Tell'
p9703
tp9704
(lp9705
S'you'
p9706
as(S'Heaven'
p9707
tp9708
(lp9709
g117
ag117
as(S'Coming'
p9710
tp9711
(lp9712
S'coming'
p9713
as(S'drop'
p9714
tp9715
(lp9716
S'Told'
p9717
aS'But'
p9718
aS'and'
p9719
as(S'game'
p9720
tp9721
(lp9722
S'like'
p9723
as(S'grandmommas'
p9724
tp9725
(lp9726
S'outside'
p9727
as(S'the'
p9728
tp9729
(lp9730
S'entree'
p9731
aS'Beam'
p9732
aS'kids'
p9733
aS'king'
p9734
aS'holiest'
p9735
aS'beat'
p9736
aS'Word'
p9737
aS'sheep'
p9738
aS'third'
p9739
aS'bom'
p9740
aS'bom'
p9741
aS'sermon'
p9742
aS'serpent'
p9743
aS'holistic'
p9744
aS'end'
p9745
aS'day'
p9746
aS'mail'
p9747
aS'streets'
p9748
aS'mail'
p9749
aS'streets'
p9750
aS'hinges'
p9751
aS'blessings'
p9752
aS'new'
p9753
aS'blunt'
p9754
aS'hell'
p9755
aS'Maybach'
p9756
aS'new'
p9757
aS'Carter'
p9758
aS'Carter'
p9759
aS'smoke'
p9760
aS'streets'
p9761
aS'watch'
p9762
aS'hoes'
p9763
aS'safe'
p9764
aS'pillowcase'
p9765
aS'lobby'
p9766
aS'mail'
p9767
aS'streets'
p9768
aS'mail'
p9769
aS'streets'
p9770
aS"payo'"
p9771
aS'beauty'
p9772
aS'plague'
p9773
aS'backyard'
p9774
aS'big'
p9775
aS'CPD'
p9776
aS'long'
p9777
aS'armchair'
p9778
aS'crib'
p9779
aS'same'
p9780
aS'time'
p9781
aS'whole'
p9782
aS'paperwork'
p9783
aS'flirt'
p9784
aS'Lord'
p9785
aS'praises'
p9786
aS'blessings'
p9787
aS'praises'
p9788
aS'blessings'
p9789
aS'Kingdom'
p9790
aS'man'
p9791
aS'house'
p9792
aS'praises'
p9793
aS'praises'
p9794
aS'blessings'
p9795
aS'blessings'
p9796
aS'praises'
p9797
aS'blessings'
p9798
aS'praises'
p9799
aS'blessings'
p9800
aS'nicest'
p9801
aS'59th'
p9802
aS'big'
p9803
aS'suicide'
p9804
aS'difference'
p9805
aS'praises'
p9806
aS'blessings'
p9807
aS'praises'
p9808
aS'blessings'
p9809
aS'blessings'
p9810
aS'praises'
p9811
aS'blessings'
p9812
aS'praises'
p9813
aS'blessings'
p9814
aS'praises'
p9815
aS'blessings'
p9816
aS'same'
p9817
aS'we'
p9818
aS'same'
p9819
aS'same'
p9820
aS'same'
p9821
aS'we'
p9822
aS'same'
p9823
aS'same'
p9824
aS'same'
p9825
aS'we'
p9826
aS'same'
p9827
aS'same'
p9828
aS'same'
p9829
aS'we'
p9830
aS'same'
p9831
aS'same'
p9832
aS'days'
p9833
aS'days'
p9834
aS'danger'
p9835
aS'same'
p9836
aS'same'
p9837
aS'we'
p9838
aS'same'
p9839
aS'same'
p9840
aS'same'
p9841
aS'same'
p9842
aS'we'
p9843
aS'same'
p9844
aS'same'
p9845
aS'we'
p9846
aS'same'
p9847
aS'happy'
p9848
aS'line'
p9849
aS'line'
p9850
aS'same'
p9851
aS'we'
p9852
aS'same'
p9853
aS'same'
p9854
aS'line'
p9855
aS'line'
p9856
aS'times'
p9857
aS'times'
p9858
aS'only'
p9859
aS'only'
p9860
aS'only'
p9861
aS'only'
p9862
aS'lips'
p9863
aS'third'
p9864
aS'third'
p9865
aS'park'
p9866
aS'salsa'
p9867
aS'faucet'
p9868
aS'third'
p9869
aS'third'
p9870
aS'shots'
p9871
aS'only'
p9872
aS'only'
p9873
aS'sauna'
p9874
aS'culture'
p9875
aS'clothes'
p9876
aS'sewers'
p9877
aS'slime'
p9878
aS'only'
p9879
aS'only'
p9880
aS'only'
p9881
aS'streets'
p9882
aS'scene'
p9883
aS'folks'
p9884
aS'game'
p9885
aS'paper'
p9886
aS'world'
p9887
ag1588
aS'shit'
p9888
aS'only'
p9889
aS'only'
p9890
aS'streets'
p9891
aS'blueprint'
p9892
aS'old'
p9893
aS'Do-si-do'
p9894
aS'industry'
p9895
aS'latest'
p9896
aS'fuck'
p9897
aS'sudden'
p9898
aS'seventh'
p9899
aS'southside'
p9900
aS'campers'
p9901
aS'nose'
p9902
aS'latest'
p9903
aS'bam'
p9904
aS'latest'
p9905
aS'fuck'
p9906
aS'sudden'
p9907
aS'Rink'
p9908
aS'Rink'
p9909
aS'place'
p9910
aS"shawdy's"
p9911
aS'weekend'
p9912
aS'Rink'
p9913
aS'Rink'
p9914
aS'Rink'
p9915
aS'floor'
p9916
aS'kiddies'
p9917
aS'weekend'
p9918
aS'parties'
p9919
aS'bill'
p9920
aS'gas'
p9921
aS'seat'
p9922
aS'seat'
p9923
aS'seat'
p9924
aS'seat'
p9925
aS'seat'
p9926
aS'streets'
p9927
aS"world's"
p9928
aS'best'
p9929
aS'world'
p9930
aS'month'
p9931
aS'dozen'
p9932
aS'third'
p9933
aS'crib'
p9934
aS'enemy'
p9935
aS'pesticide'
p9936
aS'gift'
p9937
aS'faith'
p9938
aS'skullduggery'
p9939
aS'earth'
p9940
aS'borders'
p9941
aS'slums'
p9942
aS'jungle'
p9943
aS'death'
p9944
aS'ark'
p9945
aS'path'
p9946
aS'mud'
p9947
aS'poltergeist'
p9948
aS'exalted'
p9949
aS'dark'
p9950
aS'pulse'
p9951
aS'Tidal'
p9952
aS'Apple'
p9953
aS'angel'
p9954
aS'angel'
p9955
aS'project'
p9956
aS'house'
p9957
aS'book'
p9958
aS"Devil's"
p9959
aS'true'
p9960
aS'Lord'
p9961
aS'scriptures'
p9962
aS'pictures'
p9963
aS'year'
p9964
aS'crown'
p9965
aS'ground'
p9966
aS'fuck'
p9967
aS'road'
p9968
aS'bowl'
p9969
aS'bowl'
p9970
aS'board'
p9971
aS'bowl'
p9972
aS'smoke'
p9973
aS'road'
p9974
aS'roof'
p9975
aS'new'
p9976
aS'sauce'
p9977
aS'sauce'
p9978
aS'door'
p9979
aS'chains'
p9980
aS'molly'
p9981
aS'whip'
p9982
aS'wings'
p9983
aS'pedal'
p9984
aS'floor'
p9985
aS'weed'
p9986
aS'air'
p9987
aS'smoke'
p9988
aS'seats'
p9989
ag8007
aS'raps'
p9990
aS'boy'
p9991
aS'boy'
p9992
aS'stairs'
p9993
aS'gate'
p9994
aS'finish'
p9995
aS'finish'
p9996
aS'water'
p9997
aS'water'
p9998
aS'kind'
p9999
aS'end'
p10000
aS'power'
p10001
aS'stupid'
p10002
aS'finish'
p10003
aS'finish'
p10004
aS'altar'
p10005
aS'Father'
p10006
aS'choir'
p10007
aS'offering'
p10008
aS'dad'
p10009
aS'Odyssey'
p10010
aS'new'
p10011
aS'people'
p10012
aS'come'
p10013
as(S'purchase'
p10014
tp10015
(lp10016
g331
as(S'what'
p10017
tp10018
(lp10019
S'it'
p10020
ag117
ag117
aS'we'
p10021
aS"I'm"
p10022
aS'your'
p10023
aS'that'
p10024
ag117
aS'it'
p10025
aS'booties'
p10026
aS'you'
p10027
aS'grown'
p10028
aS'you'
p10029
aS'you'
p10030
as(g117
tp10031
(lp10032
S'swear'
p10033
aS'could'
p10034
aS'die'
p10035
aS'get'
p10036
aS'do'
p10037
aS'just'
p10038
aS'was'
p10039
aS'might'
p10040
aS'could'
p10041
aS'know'
p10042
aS"ain't"
p10043
aS'took'
p10044
aS'got'
p10045
aS'feel'
p10046
aS'got'
p10047
aS'rolled'
p10048
aS'lay'
p10049
aS'think'
p10050
aS'buy'
p10051
aS'just'
p10052
aS'believe'
p10053
aS'was'
p10054
aS'gotta'
p10055
aS'used'
p10056
aS'would'
p10057
aS'wait'
p10058
aS'say'
p10059
aS'faked'
p10060
aS'called'
p10061
aS'will'
p10062
aS'will'
p10063
aS'love'
p10064
aS'was'
p10065
aS'could'
p10066
aS'would'
p10067
aS'changed'
p10068
aS'always'
p10069
aS'was'
p10070
aS'could'
p10071
aS'would'
p10072
aS'changed'
p10073
aS'always'
p10074
aS'know'
p10075
aS'look'
p10076
aS'know'
p10077
aS'look'
p10078
aS"don't"
p10079
aS'make'
p10080
aS'know'
p10081
aS'talked'
p10082
aS'get'
p10083
aS'know'
p10084
aS'know'
p10085
aS'never'
p10086
aS'thought'
p10087
aS'thought'
p10088
aS'was'
p10089
aS'was'
p10090
aS'once'
p10091
aS'was'
p10092
aS'was'
p10093
aS'once'
p10094
aS'was'
p10095
aS'remember'
p10096
aS'the'
p10097
aS'the'
p10098
aS'swear'
p10099
aS'can'
p10100
aS'can'
p10101
aS'love'
p10102
aS'might'
p10103
aS'got'
p10104
aS'get'
p10105
aS"ain't"
p10106
aS'call'
p10107
aS'swear'
p10108
aS'see'
p10109
aS'told'
p10110
aS'would'
p10111
aS'do'
p10112
aS'pursue'
p10113
aS'came'
p10114
aS'got'
p10115
aS'swear'
p10116
aS'the'
p10117
aS"ain't"
p10118
aS"ain't"
p10119
aS'bumped'
p10120
aS"wouldn't"
p10121
aS'cared'
p10122
aS'spend'
p10123
aS'was'
p10124
aS'pinned'
p10125
aS'bite'
p10126
aS'wanted'
p10127
aS'said'
p10128
aS'the'
p10129
aS'got'
p10130
aS'guess'
p10131
aS'stay'
p10132
aS"ain't"
p10133
aS'got'
p10134
aS"don't"
p10135
aS'just'
p10136
aS'even'
p10137
aS'feel'
p10138
aS'got'
p10139
aS'got'
p10140
aS'got'
p10141
aS"ain't"
p10142
aS'just'
p10143
aS"don't"
p10144
aS'feel'
p10145
aS'got'
p10146
aS'got'
p10147
aS'got'
p10148
aS'got'
p10149
aS'got'
p10150
aS'got'
p10151
aS'feel'
p10152
aS'got'
p10153
aS'got'
p10154
aS'got'
p10155
aS'got'
p10156
aS'got'
p10157
aS'got'
p10158
aS'used'
p10159
aS"couldn't"
p10160
aS'was'
p10161
aS'found'
p10162
aS'remember'
p10163
aS'remember'
p10164
aS'were'
p10165
aS"couldn't"
p10166
aS'am'
p10167
aS'mean'
p10168
aS'put'
p10169
aS'were'
p10170
aS'remember'
p10171
aS'remember'
p10172
aS'can'
p10173
aS'been'
p10174
aS'been'
p10175
aS'been'
p10176
aS'been'
p10177
aS'been'
p10178
aS'been'
p10179
aS'been'
p10180
aS'been'
p10181
aS'been'
p10182
aS'pull'
p10183
aS"ain't"
p10184
aS"don't"
p10185
aS'been'
p10186
aS'been'
p10187
aS'been'
p10188
aS'been'
p10189
aS'been'
p10190
aS'been'
p10191
aS'been'
p10192
aS'been'
p10193
aS'been'
p10194
aS"don't"
p10195
aS"don't"
p10196
aS'need'
p10197
aS'need'
p10198
aS'need'
p10199
aS"can't"
p10200
aS'been'
p10201
aS'been'
p10202
aS'been'
p10203
aS'been'
p10204
aS'been'
p10205
aS'been'
p10206
aS'been'
p10207
aS'been'
p10208
aS'been'
p10209
aS'cannot'
p10210
aS"don't"
p10211
aS'believe'
p10212
aS'seen'
p10213
aS'will'
p10214
aS'might'
p10215
aS"couldn't"
p10216
aS'used'
p10217
aS'was'
p10218
aS'spent'
p10219
aS'prayed'
p10220
aS'needed'
p10221
aS'build'
p10222
aS'took'
p10223
aS'was'
p10224
aS'needed'
p10225
aS'spit'
p10226
aS'spit'
p10227
aS'come'
p10228
aS'just'
p10229
aS'grab'
p10230
aS'tell'
p10231
aS'used'
p10232
aS'choke'
p10233
aS'shoulda'
p10234
aS'grew'
p10235
aS"don't"
p10236
aS'put'
p10237
aS"ain't"
p10238
aS'spend'
p10239
aS"don't"
p10240
aS'got'
p10241
aS'got'
p10242
aS'gave'
p10243
aS'give'
p10244
aS'take'
p10245
aS'push'
p10246
aS'gotta'
p10247
aS'gotta'
p10248
aS'push'
p10249
aS'got'
p10250
aS'keep'
p10251
aS'smoke'
p10252
aS'was'
p10253
aS'sleep'
p10254
aS'felt'
p10255
aS'know'
p10256
aS'prayed'
p10257
aS'see'
p10258
aS'prayed'
p10259
aS'see'
p10260
aS'need'
p10261
aS'got'
p10262
aS'got'
p10263
aS'got'
p10264
aS'could'
p10265
aS'cannot'
p10266
ag3705
aS'know'
p10267
aS'said'
p10268
aS'got'
p10269
aS'prayed'
p10270
aS'see'
p10271
aS'prayed'
p10272
aS'see'
p10273
aS'can'
p10274
aS'love'
p10275
aS'love'
p10276
aS'know'
p10277
aS'know'
p10278
aS'go'
p10279
aS'may'
p10280
aS'may'
p10281
aS'need'
p10282
aS'need'
p10283
aS'speak'
p10284
aS'get'
p10285
aS'speak'
p10286
aS'got'
p10287
aS'never'
p10288
aS'only'
p10289
aS"don't"
p10290
aS"don't"
p10291
aS"won't"
p10292
aS'speak'
p10293
aS'speak'
p10294
aS'think'
p10295
aS'used'
p10296
aS'used'
p10297
aS'used'
p10298
aS'still'
p10299
aS'must'
p10300
aS'can'
p10301
aS'had'
p10302
aS'made'
p10303
aS'gave'
p10304
aS'gave'
p10305
aS'gave'
p10306
as(S'meerkat'
p10307
tp10308
(lp10309
S'hakuna'
p10310
as(S'heads'
p10311
tp10312
(lp10313
S'with'
p10314
as(S'mommas'
p10315
tp10316
(lp10317
S'My'
p10318
as(S'Up\xe2'
p10319
tp10320
(lp10321
S'like'
p10322
as(S'month'
p10323
tp10324
(lp10325
S'by'
p10326
as(S'Stick'
p10327
tp10328
(lp10329
S'around'
p10330
aS'around'
p10331
as(S'them'
p10332
tp10333
(lp10334
S'from'
p10335
aS'My'
p10336
aS'79th'
p10337
aS'drugs'
p10338
aS'reviews'
p10339
aS'days'
p10340
as(S'marathon'
p10341
tp10342
(lp10343
S'we'
p10344
as(S'cooking'
p10345
tp10346
(lp10347
S'at'
p10348
as(S'offering'
p10349
tp10350
(lp10351
S'paid'
p10352
as(S'twisted'
p10353
tp10354
(lp10355
S'at'
p10356
as(S'ones'
p10357
tp10358
(lp10359
S'like'
p10360
as(S'cab'
p10361
tp10362
(lp10363
S"that's"
p10364
as(S'want'
p10365
tp10366
(lp10367
S'zero'
p10368
aS'no'
p10369
aS'no'
p10370
aS'no'
p10371
aS'no'
p10372
aS'no'
p10373
aS'no'
p10374
aS'no'
p10375
aS'no'
p10376
aS'no'
p10377
aS'no'
p10378
aS'no'
p10379
aS'no'
p10380
aS'no'
p10381
aS'no'
p10382
aS'no'
p10383
aS'no'
p10384
aS'no'
p10385
aS'no'
p10386
aS'no'
p10387
aS'no'
p10388
aS'no'
p10389
aS'no'
p10390
aS'no'
p10391
aS'no'
p10392
aS'no'
p10393
aS'no'
p10394
aS'no'
p10395
aS'no'
p10396
aS'no'
p10397
aS'no'
p10398
aS'no'
p10399
aS'no'
p10400
aS'no'
p10401
aS'no'
p10402
aS'no'
p10403
aS'no'
p10404
aS'no'
p10405
aS'no'
p10406
aS'no'
p10407
aS'no'
p10408
aS'no'
p10409
aS'no'
p10410
aS'no'
p10411
aS'no'
p10412
aS'four'
p10413
as(S'cause'
p10414
tp10415
(lp10416
S'the'
p10417
aS'my'
p10418
aS"I'm"
p10419
as(S'slums'
p10420
tp10421
(lp10422
S'like'
p10423
as(S'soda'
p10424
tp10425
(lp10426
S'poured'
p10427
as(S'wap'
p10428
tp10429
(lp10430
S'da'
p10431
aS'da'
p10432
aS'da'
p10433
aS'da'
p10434
aS'da'
p10435
as(S'warn'
p10436
tp10437
(lp10438
g117
as(S'Tippy'
p10439
tp10440
(lp10441
S'toes'
p10442
as(S'KOK'
p10443
tp10444
(lp10445
S'to'
p10446
as(S'leaving'
p10447
tp10448
(lp10449
S'right'
p10450
as(S'problem'
p10451
tp10452
(lp10453
S'want'
p10454
aS'with'
p10455
aS'want'
p10456
aS'with'
p10457
aS'want'
p10458
aS'with'
p10459
aS'want'
p10460
aS'with'
p10461
aS'want'
p10462
aS'with'
p10463
aS'want'
p10464
aS'with'
p10465
aS'want'
p10466
aS'with'
p10467
aS'want'
p10468
aS'with'
p10469
aS'want'
p10470
aS'with'
p10471
aS'want'
p10472
aS'with'
p10473
aS'want'
p10474
aS'with'
p10475
aS'want'
p10476
aS'with'
p10477
aS'want'
p10478
aS'with'
p10479
aS'want'
p10480
aS'with'
p10481
aS'want'
p10482
aS'with'
p10483
aS'want'
p10484
aS'with'
p10485
aS'want'
p10486
aS'with'
p10487
aS'want'
p10488
aS'with'
p10489
aS'want'
p10490
aS'with'
p10491
aS'want'
p10492
aS'with'
p10493
aS'want'
p10494
aS'with'
p10495
aS'want'
p10496
aS'with'
p10497
as(S'dream'
p10498
tp10499
(lp10500
S'you'
p10501
aS"girl's"
p10502
ag117
as(S'toe'
p10503
tp10504
(lp10505
S'tucks'
p10506
as(S"Y'all"
p10507
tp10508
(lp10509
S'know'
p10510
as(S'her'
p10511
tp10512
(lp10513
S'Man'
p10514
aS'becoming'
p10515
aS'momma'
p10516
aS'own'
p10517
ag117
aS'Let'
p10518
aS'the'
p10519
aS'percs'
p10520
ag331
aS'Jesus'
p10521
aS'lonely'
p10522
as(S'getting'
p10523
tp10524
(lp10525
S'new'
p10526
aS'pregnant'
p10527
aS'blocked'
p10528
aS'artsy-fartsy'
p10529
as(S'while'
p10530
tp10531
(lp10532
S'we'
p10533
as(S'Hillman'
p10534
tp10535
(lp10536
S'Igh'
p10537
as(S'Found'
p10538
tp10539
(lp10540
S'warmth'
p10541
as(S'Type'
p10542
tp10543
(lp10544
S'that'
p10545
as(S'Yonc\xc3'
p10546
tp10547
(lp10548
S'Man'
p10549
as(S'gotta'
p10550
tp10551
(lp10552
S'fight'
p10553
aS'stay'
p10554
aS'ask'
p10555
aS'see'
p10556
aS'do'
p10557
aS'do'
p10558
aS'say'
p10559
aS'be'
p10560
aS'be'
p10561
aS'see'
p10562
as(S'pathetics'
p10563
tp10564
(lp10565
S"Don't"
p10566
as(S'boys'
p10567
tp10568
(lp10569
S'My'
p10570
aS'None'
p10571
as(S'Chicago'
p10572
tp10573
(lp10574
S'shit'
p10575
aS'will'
p10576
as(S'mama'
p10577
tp10578
(lp10579
S'to'
p10580
aS'she'
p10581
as(S'Crazy'
p10582
tp10583
(lp10584
S'about'
p10585
as(S'pesticide'
p10586
tp10587
(lp10588
S'79th'
p10589
as(S'missed'
p10590
tp10591
(lp10592
S'the'
p10593
as(S'wrongs'
p10594
tp10595
(lp10596
S"I'm"
p10597
as(S'Mikey'
p10598
tp10599
(lp10600
S'Lil'
p10601
as(S'herd'
p10602
tp10603
(lp10604
S'This'
p10605
as(S'alibis'
p10606
tp10607
(lp10608
S'The'
p10609
as(S'What'
p10610
tp10611
(lp10612
S'you'
p10613
aS'you'
p10614
aS'you'
p10615
aS'did'
p10616
aS'the'
p10617
as(S'Bowen'
p10618
tp10619
(lp10620
S"I'm"
p10621
as(S'freedom'
p10622
tp10623
(lp10624
S"Don't"
p10625
aS'Hosanna'
p10626
aS'Found'
p10627
as(S'art'
p10628
tp10629
(lp10630
S'Growing'
p10631
as(S'Watch'
p10632
tp10633
(lp10634
S'brick'
p10635
as(S'finished'
p10636
tp10637
(lp10638
g117
as(S'weird'
p10639
tp10640
(lp10641
S'Inside'
p10642
as(S'bought'
p10643
tp10644
(lp10645
g331
as(S'Mufasa'
p10646
tp10647
(lp10648
S'No'
p10649
ag117
as(S'waist'
p10650
tp10651
(lp10652
S'through'
p10653
as(S'cousins'
p10654
tp10655
(lp10656
S'Shabach'
p10657
as(S'drinker'
p10658
tp10659
(lp10660
g117
as(S'fianc\xc3'
p10661
tp10662
(lp10663
g376
as(S'son'
p10664
tp10665
(lp10666
S'of'
p10667
aS'of'
p10668
as(S'You'
p10669
tp10670
(lp10671
S'gotta'
p10672
aS"don't"
p10673
aS"don't"
p10674
aS"don't"
p10675
aS"don't"
p10676
aS"don't"
p10677
aS'talk'
p10678
aS"don't"
p10679
aS"don't"
p10680
aS"don't"
p10681
aS"don't"
p10682
aS"don't"
p10683
aS"don't"
p10684
aS'old'
p10685
aS"don't"
p10686
aS"don't"
p10687
aS"don't"
p10688
aS"don't"
p10689
aS"don't"
p10690
aS"don't"
p10691
aS"don't"
p10692
aS"don't"
p10693
aS"don't"
p10694
aS"don't"
p10695
aS"don't"
p10696
aS"don't"
p10697
aS'are'
p10698
aS'are'
p10699
aS'need'
p10700
aS'must'
p10701
aS'always'
p10702
aS'were'
p10703
aS'buy'
p10704
aS'gotta'
p10705
aS"gon'"
p10706
aS"gon'"
p10707
aS'can'
p10708
aS"couldn't"
p10709
aS'said'
p10710
aS'came'
p10711
aS'used'
p10712
aS"ain't"
p10713
aS'just'
p10714
aS'had'
p10715
aS'Down'
p10716
aS'came'
p10717
aS'used'
p10718
aS'not'
p10719
aS'wobbly'
p10720
aS'just'
p10721
aS'just'
p10722
aS'just'
p10723
aS'should'
p10724
ag331
aS'meet'
p10725
aS'know'
p10726
aS'know'
p10727
aS'pat'
p10728
aS'deserve'
p10729
aS'hear'
p10730
aS'smell'
p10731
aS'smell'
p10732
aS'went'
p10733
aS"didn't"
p10734
aS'got'
p10735
aS'can'
p10736
aS'deserve'
p10737
aS'made'
p10738
aS'wash'
p10739
aS'must\xe2'
p10740
aS'got'
p10741
aS'ready'
p10742
as(S'pain'
p10743
tp10744
(lp10745
S'to'
p10746
as(S'screens'
p10747
tp10748
(lp10749
S'And'
p10750
as(S'peace'
p10751
tp10752
(lp10753
S'they'
p10754
as(S'Window'
p10755
tp10756
(lp10757
S'closed'
p10758
as(S"ridin'"
p10759
tp10760
(lp10761
S'through'
p10762
aS'through'
p10763
aS'through'
p10764
aS'through'
p10765
aS'with'
p10766
aS'like'
p10767
as(S'through'
p10768
tp10769
(lp10770
S'the'
p10771
aS'the'
p10772
aS'the'
p10773
aS'the'
p10774
aS'your'
p10775
aS'the'
p10776
aS'made'
p10777
aS'made'
p10778
aS'And'
p10779
as(S'city'
p10780
tp10781
(lp10782
S'doing'
p10783
aS'they'
p10784
aS'bitch'
p10785
aS'in'
p10786
as(S'Your'
p10787
tp10788
(lp10789
S'big'
p10790
aS'play'
p10791
as(S'Chance'
p10792
tp10793
(lp10794
S'The'
p10795
aS'Thugger'
p10796
aS'let'
p10797
as(S'uh'
p10798
tp10799
(lp10800
S'times'
p10801
as(S'stairs'
p10802
tp10803
(lp10804
S"I'mma"
p10805
as(S'mayor'
p10806
tp10807
(lp10808
S'rapper'
p10809
as(S'giving'
p10810
tp10811
(lp10812
S'out'
p10813
aS'that'
p10814
as(S'buy'
p10815
tp10816
(lp10817
g331
aS'my'
p10818
aS'tokens'
p10819
ag331
as(S'die'
p10820
tp10821
(lp10822
S"I'll"
p10823
aS'our'
p10824
as(S'tried'
p10825
tp10826
(lp10827
S'to'
p10828
as(S'song'
p10829
tp10830
(lp10831
S'do'
p10832
aS'air'
p10833
as(S'cash'
p10834
tp10835
(lp10836
S'money'
p10837
as(S'went'
p10838
tp10839
(lp10840
S'and'
p10841
aS'from'
p10842
aS'from'
p10843
aS'and'
p10844
as(S'gang'
p10845
tp10846
(lp10847
S'like'
p10848
aS'like'
p10849
as(S'shrug'
p10850
tp10851
(lp10852
S'at'
p10853
as(S'finish'
p10854
tp10855
(lp10856
S'line'
p10857
aS'mine'
p10858
aS'line'
p10859
aS'mine'
p10860
aS'line'
p10861
aS'mine'
p10862
aS'line'
p10863
aS'mine'
p10864
as(S'59th'
p10865
tp10866
(lp10867
S'floor'
p10868
as(S'kids'
p10869
tp10870
(lp10871
S'of'
p10872
ag117
aS'being'
p10873
aS'Why'
p10874
as(S'hater'
p10875
tp10876
(lp10877
S'Delivered'
p10878
as(S'pic'
p10879
tp10880
(lp10881
S'You'
p10882
as(S'possessions'
p10883
tp10884
(lp10885
S'Like'
p10886
as(S'Mama'
p10887
tp10888
(lp10889
g117
aS'You'
p10890
as(g3708
tp10891
(lp10892
S'Legit\xe2'
p10893
as(S'knocks'
p10894
tp10895
(lp10896
g117
as(S'Mystery'
p10897
tp10898
(lp10899
S'babylon'
p10900
as(S'officially'
p10901
tp10902
(lp10903
S'first'
p10904
as(S'tall'
p10905
tp10906
(lp10907
S'ayy'
p10908
as(S'writing'
p10909
tp10910
(lp10911
S'four'
p10912
as(S'goals'
p10913
tp10914
(lp10915
S'was'
p10916
as(S'waves'
p10917
tp10918
(lp10919
g117
as(S'think'
p10920
tp10921
(lp10922
S'of'
p10923
ag117
aS'the'
p10924
aS'they'
p10925
aS'the'
p10926
aS'we'
p10927
as(S'drive'
p10928
tp10929
(lp10930
S'an'
p10931
as(S'our'
p10932
tp10933
(lp10934
S'summer'
p10935
aS'summer'
p10936
aS'grandmommas'
p10937
aS'God'
p10938
aS'God'
p10939
aS'God'
p10940
aS'God'
p10941
aS'God'
p10942
aS'God'
p10943
aS'God'
p10944
aS'God'
p10945
aS'God'
p10946
aS'God'
p10947
aS'God'
p10948
aS'God'
p10949
aS'God'
p10950
aS'God'
p10951
aS'ways'
p10952
aS'child'
p10953
as(S'morn'
p10954
tp10955
(lp10956
S"I'm"
p10957
as(S'On'
p10958
tp10959
(lp10960
S'the'
p10961
as(S'come'
p10962
tp10963
(lp10964
S'and'
p10965
aS'for'
p10966
aS'to'
p10967
aS'in'
p10968
aS'down'
p10969
aS'down'
p10970
aS'down'
p10971
aS'down'
p10972
aS'down'
p10973
aS'down'
p10974
aS'down'
p10975
aS'down'
p10976
aS'down'
p10977
aS'down'
p10978
aS'down'
p10979
aS'down'
p10980
aS'down'
p10981
aS'down'
p10982
aS'down'
p10983
aS'ride'
p10984
aS'through'
p10985
aS'back'
p10986
aS'for'
p10987
ag331
aS'onin'
p10988
aS'up'
p10989
as(S'seamstress'
p10990
tp10991
(lp10992
S'Oh'
p10993
as(S'false'
p10994
tp10995
(lp10996
S'messiahs'
p10997
as(S'choke'
p10998
tp10999
(lp11000
S'Wish'
p11001
as(S'Goyard'
p11002
tp11003
(lp11004
S'and'
p11005
as(S'Barbershop'
p11006
tp11007
(lp11008
S'And'
p11009
as(S'Dad'
p11010
tp11011
(lp11012
S'was'
p11013
as(S'soft'
p11014
tp11015
(lp11016
S'as'
p11017
as(S"IOU's"
p11018
tp11019
(lp11020
S'or'
p11021
as(S'tell'
p11022
tp11023
(lp11024
S'you'
p11025
aS'me'
p11026
aS'me'
p11027
aS'her'
p11028
aS'me'
p11029
as(S'breaks'
p11030
tp11031
(lp11032
S'and'
p11033
as(S'79th'
p11034
tp11035
(lp11036
S'street'
p11037
aS'79th'
p11038
ag117
as(S'touch'
p11039
tp11040
(lp11041
S'me'
p11042
aS'me'
p11043
aS'down'
p11044
as(S'score'
p11045
tp11046
(lp11047
S'and'
p11048
as(S'backyard'
p11049
tp11050
(lp11051
S'Had'
p11052
as(S'years'
p11053
tp11054
(lp11055
S'seven'
p11056
aS'from'
p11057
as(S'difference'
p11058
tp11059
(lp11060
S'in'
p11061
as(S'lands'
p11062
tp11063
(lp11064
S'Soil'
p11065
as(S'swirlie'
p11066
tp11067
(lp11068
S'Wish'
p11069
as(S'whistle'
p11070
tp11071
(lp11072
S'me'
p11073
as(S'Be'
p11074
tp11075
(lp11076
S'free'
p11077
as(S'All'
p11078
tp11079
(lp11080
S'you'
p11081
aS'these'
p11082
aS'my'
p11083
aS'you'
p11084
ag117
ag117
aS'my'
p11085
aS'of'
p11086
aS'of'
p11087
aS'the'
p11088
aS'night'
p11089
aS'night'
p11090
aS'night'
p11091
aS'you'
p11092
aS'night'
p11093
aS'night'
p11094
aS'night'
p11095
aS'night'
p11096
aS'night'
p11097
aS'night'
p11098
aS'will'
p11099
aS'will'
p11100
aS'will'
p11101
aS'will'
p11102
aS'my'
p11103
aS'my'
p11104
aS'my'
p11105
aS'my'
p11106
as(S'Aye'
p11107
tp11108
(lp11109
S'aye'
p11110
as(S'grant'
p11111
tp11112
(lp11113
S'you'
p11114
as(S'catch'
p11115
tp11116
(lp11117
S'my'
p11118
as(S'hurt'
p11119
tp11120
(lp11121
S'me'
p11122
aS'You'
p11123
as(S'harm'
p11124
tp11125
(lp11126
S'Just'
p11127
as(S'glorify'
p11128
tp11129
(lp11130
S'Descend'
p11131
as(S'offer'
p11132
tp11133
(lp11134
S'Magnify'
p11135
as(S'Juicy'
p11136
tp11137
(lp11138
S'Fruit'
p11139
as(S'Lucifer'
p11140
tp11141
(lp11142
S'with'
p11143
as(S'grown'
p11144
tp11145
(lp11146
S'folks'
p11147
aS'folks'
p11148
aS'and'
p11149
as(S'Now'
p11150
tp11151
(lp11152
S"I'm"
p11153
aS"I'm"
p11154
ag117
aS'she'
p11155
ag117
ag117
as(S'Codeine'
p11156
tp11157
(lp11158
S'got'
p11159
as(S'land'
p11160
tp11161
(lp11162
S'Who'
p11163
as(S'ye'
p11164
tp11165
(lp11166
S'ah'
p11167
aS'ah'
p11168
as(S'need'
p11169
tp11170
(lp11171
S'the'
p11172
ag331
aS'is'
p11173
ag331
ag331
ag331
aS'cash'
p11174
aS'space'
p11175
aS'you'
p11176
ag331
aS'an'
p11177
aS'the'
p11178
aS'you'
p11179
aS'you'
p11180
as(S'blueprint'
p11181
tp11182
(lp11183
S'to'
p11184
as(S'Frooties'
p11185
tp11186
(lp11187
S'and'
p11188
as(S'Luke'
p11189
tp11190
(lp11191
S'with'
p11192
as(S'phone'
p11193
tp11194
(lp11195
S'call'
p11196
ag331
as(S'yacht'
p11197
tp11198
(lp11199
S'no'
p11200
as(S'Jesus'
p11201
tp11202
(lp11203
S'Carter'
p11204
aS'come'
p11205
aS'mountain'
p11206
aS'rescue'
p11207
as(S'rancher'
p11208
tp11209
(lp11210
S'kids'
p11211
as(S'puff'
p11212
tp11213
(lp11214
g117
as(S'you'
p11215
tp11216
(lp11217
S'could'
p11218
aS"it's"
p11219
aS"it's"
p11220
aS'tried'
p11221
aS'shoulda'
p11222
aS'What'
p11223
aS'were'
p11224
aS'thought'
p11225
aS'can'
p11226
aS'do'
p11227
aS'get'
p11228
aS'lukewarm'
p11229
aS'What'
p11230
aS'were'
p11231
aS'thought'
p11232
ag117
aS'So'
p11233
aS'be'
p11234
aS'favor'
p11235
aS'back'
p11236
aS'When'
p11237
aS'You'
p11238
aS"I'm"
p11239
aS'the'
p11240
ag331
aS'ready'
p11241
aS'ready'
p11242
aS'ready'
p11243
aS'ready'
p11244
aS'ready'
p11245
aS'ready'
p11246
aS'ready'
p11247
aS'ready'
p11248
aS'ready'
p11249
aS'ready'
p11250
aS'ready'
p11251
aS'ready'
p11252
aS'change'
p11253
aS'go'
p11254
aS'stay'
p11255
aS'miss'
p11256
aS'miss'
p11257
aS'miss'
p11258
aS'need'
p11259
aS'stop'
p11260
aS'do'
p11261
aS'go'
p11262
aS'start'
p11263
aS'color'
p11264
aS'bleed'
p11265
aS'color'
p11266
aS'bleed'
p11267
aS'know'
p11268
aS'Yeah'
p11269
aS'Yeah'
p11270
aS'lucky'
p11271
aS'like'
p11272
aS"don't"
p11273
aS'And'
p11274
aS'And'
p11275
aS"can't"
p11276
aS'And'
p11277
aS'And'
p11278
aS"can't"
p11279
aS'used'
p11280
aS'You'
p11281
aS'steady'
p11282
aS'As'
p11283
aS'were'
p11284
aS"thinkin'"
p11285
ag117
aS'You'
p11286
aS"We've"
p11287
aS'and'
p11288
aS'up'
p11289
aS'and'
p11290
aS'We'
p11291
aS"thinkin'"
p11292
ag117
aS'You'
p11293
aS"We've"
p11294
aS'drunk'
p11295
aS'wanna'
p11296
aS'finna'
p11297
aS'drunk'
p11298
aS'wanna'
p11299
aS'wanna'
p11300
aS'got'
p11301
aS'got'
p11302
aS'wanna'
p11303
aS'need'
p11304
aS'do'
p11305
aS'my'
p11306
aS"wasn't"
p11307
aS'just'
p11308
aS'just'
p11309
aS'just'
p11310
aS'just'
p11311
aS'just'
p11312
aS'just'
p11313
aS'think'
p11314
aS'need'
p11315
aS'is'
p11316
aS"ain't"
p11317
aS'to'
p11318
aS'gotta'
p11319
aS'was'
p11320
aS'deserve'
p11321
aS'back'
p11322
aS'all'
p11323
aS'dinner'
p11324
aS'deserve'
p11325
aS'Scars'
p11326
ag117
aS'you'
p11327
aS'looking'
p11328
aS'Come'
p11329
aS'take'
p11330
aS'wash'
p11331
aS'to'
p11332
aS'to'
p11333
aS'remember'
p11334
aS'gotta'
p11335
ag117
ag117
aS'You'
p11336
aS'got'
p11337
aS'got'
p11338
aS'ready'
p11339
aS'ready'
p11340
aS'ready'
p11341
aS'ready'
p11342
aS'ready'
p11343
aS'ready'
p11344
aS'ready'
p11345
aS'ready'
p11346
aS'ready'
p11347
aS'ready'
p11348
aS'ready'
p11349
aS'ready'
p11350
aS'ready'
p11351
aS'ready'
p11352
aS'ready'
p11353
aS'ready'
p11354
aS'ready'
p11355
aS'ready'
p11356
aS'ready'
p11357
aS'ready'
p11358
aS'ready'
p11359
aS'ready'
p11360
aS'ready'
p11361
aS'ready'
p11362
aS'ready'
p11363
aS'ready'
p11364
aS'ready'
p11365
aS'ready'
p11366
as(S'Way'
p11367
tp11368
(lp11369
S'back'
p11370
as(S'Do'
p11371
tp11372
(lp11373
S'the'
p11374
as(S'playing'
p11375
tp11376
(lp11377
S'when'
p11378
as(S'off'
p11379
tp11380
(lp11381
S'Wave'
p11382
aS'respect'
p11383
as(S"showin'"
p11384
tp11385
(lp11386
S'me'
p11387
as(S'tobacco'
p11388
tp11389
(lp11390
S'Where'
p11391
as(S'daughter'
p11392
tp11393
(lp11394
S"couldn't"
p11395
aS'can'
p11396
as(S'crib'
p11397
tp11398
(lp11399
S'in'
p11400
aS'Bunch'
p11401
aS'like'
p11402
aS'and'
p11403
as(S'Lord'
p11404
tp11405
(lp11406
S'free'
p11407
aS'give'
p11408
aS'in'
p11409
aS'rain'
p11410
as(S'Bitch'
p11411
tp11412
(lp11413
g117
aS"it's"
p11414
as(S'captain'
p11415
tp11416
(lp11417
S"I'm"
p11418
aS"I'm"
p11419
as(S'bigger'
p11420
tp11421
(lp11422
S'than'
p11423
as(S'speak'
p11424
tp11425
(lp11426
S'noble'
p11427
aS'of'
p11428
aS'of'
p11429
aS'to'
p11430
aS'to'
p11431
as(S'ships'
p11432
tp11433
(lp11434
S'You'
p11435
as(S'It'
p11436
tp11437
(lp11438
S'was'
p11439
aS'seems'
p11440
aS'seems'
p11441
aS'seems'
p11442
aS'seems'
p11443
aS'done'
p11444
aS'was'
p11445
aS'would'
p11446
aS"don't"
p11447
as(S'worried'
p11448
tp11449
(lp11450
S'when'
p11451
aS"'bout"
p11452
as(S'on'
p11453
tp11454
(lp11455
S'my'
p11456
aS'steroids'
p11457
aS'put'
p11458
aS'they'
p11459
aS'concrete'
p11460
ag331
aS'my'
p11461
aS'my'
p11462
aS'my'
p11463
aS'the'
p11464
aS'my'
p11465
aS'out'
p11466
aS'out'
p11467
aS'your'
p11468
aS'you'
p11469
aS'my'
p11470
aS'they'
p11471
aS'the'
p11472
aS'big'
p11473
aS'the'
p11474
aS'the'
p11475
aS'the'
p11476
aS'the'
p11477
aS'high'
p11478
aS'His'
p11479
aS'the'
p11480
aS'the'
p11481
aS'water'
p11482
aS'land'
p11483
aS'When'
p11484
aS'the'
p11485
aS'clothes'
p11486
aS'the'
p11487
aS'your'
p11488
aS'the'
p11489
aS'the'
p11490
aS'my'
p11491
ag331
aS'myself'
p11492
aS'Arguments'
p11493
aS'me'
p11494
aS'water'
p11495
ag117
ag117
as(S'shooters'
p11496
tp11497
(lp11498
S'come'
p11499
as(S'thousand'
p11500
tp11501
(lp11502
S'tears'
p11503
as(S"waitin'"
p11504
tp11505
(lp11506
S'in'
p11507
as(S'gonna'
p11508
tp11509
(lp11510
S'You'
p11511
aS'finish'
p11512
aS'finish'
p11513
aS'finish'
p11514
as(S'cousin'
p11515
tp11516
(lp11517
S'No'
p11518
as(S'racks'
p11519
tp11520
(lp11521
g117
aS"Don't"
p11522
as(S'second'
p11523
tp11524
(lp11525
S'Break'
p11526
aS'Break'
p11527
aS'to'
p11528
aS'Take'
p11529
aS'When'
p11530
as(S'Chris'
p11531
tp11532
(lp11533
S'Paul'
p11534
aS'Brown'
p11535
as(S'themselves'
p11536
tp11537
(lp11538
S'bosses'
p11539
as(S'Electrify'
p11540
tp11541
(lp11542
S'the'
p11543
as(S'If'
p11544
tp11545
(lp11546
S'she'
p11547
ag117
aS'one'
p11548
aS'one'
p11549
as(S'drunk'
p11550
tp11551
(lp11552
S'big'
p11553
aS'big'
p11554
as(S'jokes'
p11555
tp11556
(lp11557
S'You'
p11558
as(S'say'
p11559
tp11560
(lp11561
S'so'
p11562
aS'79'
p11563
aS"we're"
p11564
ag117
aS"I'm"
p11565
aS"I'm"
p11566
aS"Can't"
p11567
ag117
aS'now'
p11568
aS'that'
p11569
aS'The'
p11570
as(S'must\xe2'
p11571
tp11572
(lp11573
S've'
p11574
as(S'be'
p11575
tp11576
(lp11577
S'some'
p11578
aS'like'
p11579
aS'like'
p11580
aS'some'
p11581
aS'like'
p11582
aS'like'
p11583
aS'on'
p11584
aS'some'
p11585
aS'like'
p11586
aS'like'
p11587
aS'like'
p11588
aS'successful'
p11589
aS'mad'
p11590
aS'reconciled'
p11591
aS'in'
p11592
aS'me'
p11593
aS'asking'
p11594
aS'Maybe'
p11595
aS'Maybe'
p11596
aS'no'
p11597
aS'cooking'
p11598
aS'cracking'
p11599
aS'no'
p11600
aS'taking'
p11601
aS'overseas'
p11602
aS'on'
p11603
aS'racing'
p11604
aS'better'
p11605
aS'deeper'
p11606
aS'deeper'
p11607
aS'deeper'
p11608
aS'free'
p11609
aS'free'
p11610
aS'deeper'
p11611
aS'deeper'
p11612
aS'reborn'
p11613
aS'everything'
p11614
aS"I'm"
p11615
aS'all'
p11616
aS'Call'
p11617
as(S'Name'
p11618
tp11619
(lp11620
S'above'
p11621
aS'above'
p11622
as(S'dark'
p11623
tp11624
(lp11625
S'cause'
p11626
aS'with'
p11627
as(S'Milly'
p11628
tp11629
(lp11630
S"rockin'"
p11631
as(S"Alexand'"
p11632
tp11633
(lp11634
S'Wear'
p11635
aS'Wear'
p11636
aS'Wear'
p11637
as(S'grab'
p11638
tp11639
(lp11640
S'you'
p11641
aS'her'
p11642
as(S'valley'
p11643
tp11644
(lp11645
S'for'
p11646
as(S'sips'
p11647
tp11648
(lp11649
S'and'
p11650
as(S'little'
p11651
tp11652
(lp11653
S'bitch'
p11654
aS'bitch'
p11655
aS'bitch'
p11656
aS'bitch'
p11657
aS'mama'
p11658
aS'bitch'
p11659
aS'bitch'
p11660
aS'bitch'
p11661
aS'bitch'
p11662
aS'Xan'
p11663
aS'bean'
p11664
as(S'pat'
p11665
tp11666
(lp11667
S'my'
p11668
as(S'much'
p11669
tp11670
(lp11671
S'you'
p11672
aS'history'
p11673
aS'history'
p11674
aS'history'
p11675
aS"you'd"
p11676
as(S'dad'
p11677
tp11678
(lp11679
S'None'
p11680
aS'thing'
p11681
as(S'Angels'
p11682
tp11683
(lp11684
S'na'
p11685
as(S'famous'
p11686
tp11687
(lp11688
S'you'
p11689
as(S'tired'
p11690
tp11691
(lp11692
S'on'
p11693
as(S'rhymes'
p11694
tp11695
(lp11696
S'in'
p11697
as(S'should'
p11698
tp11699
(lp11700
S'use'
p11701
as(S'doing'
p11702
tp11703
(lp11704
S'toe'
p11705
aS'perms'
p11706
aS'front'
p11707
aS'the'
p11708
as(S'Elect'
p11709
tp11710
(lp11711
S"would've"
p11712
as(S'couplets'
p11713
tp11714
(lp11715
S'He'
p11716
as(S'race'
p11717
tp11718
(lp11719
S'Fuck'
p11720
aS'Now'
p11721
as(S'close'
p11722
tp11723
(lp11724
S"ain't"
p11725
aS'to'
p11726
aS'to'
p11727
as(S'row'
p11728
tp11729
(lp11730
S'my'
p11731
as(S'deeper'
p11732
tp11733
(lp11734
S'than'
p11735
aS'than'
p11736
aS'than'
p11737
aS'than'
p11738
aS'than'
p11739
aS'than'
p11740
as(S'gold'
p11741
tp11742
(lp11743
S'Like'
p11744
as.