ccollections
defaultdict
p0
(c__builtin__
list
p1
tp2
Rp3
(S'at'
p4
tp5
(lp6
S'eleven'
p7
aS'it'
p8
aS'it'
p9
aS'the'
p10
aS'my'
p11
aS'the'
p12
aS'the'
p13
aS'me'
p14
aS'times'
p15
aS'me'
p16
aS'me'
p17
aS'your'
p18
aS'the'
p19
aS'fight-weight'
p20
as(S'dip'
p21
tp22
(lp23
S'Keys'
p24
as(S'spaceship'
p25
tp26
(lp27
S'we'
p28
as(S'waited'
p29
tp30
(lp31
S'Yo'
p32
as(S'Unless'
p33
tp34
(lp35
S'you'
p36
as(S'difficult'
p37
tp38
(lp39
S"I'm"
p40
as(S"You'd"
p41
tp42
(lp43
S'remember'
p44
as(S'Yo'
p45
tp46
(lp47
S'I'
p48
ag48
aS'you'
p49
aS'matter'
p50
aS'you'
p51
ag48
aS'he'
p52
aS'ayo'
p53
aS'people'
p54
aS'yo'
p55
aS"thinkin'"
p56
aS"I'm"
p57
as(S'niggas'
p58
tp59
(lp60
S'on'
p61
aS'in'
p62
aS'us'
p63
aS'who'
p64
aS'what'
p65
aS"don't"
p66
aS'in'
p67
aS'on'
p68
aS'apologize'
p69
aS'is'
p70
aS'that'
p71
aS"ain't"
p72
aS'will'
p73
aS'and'
p74
aS'got'
p75
aS'see'
p76
aS'from'
p77
aS'don\xe2'
p78
aS'go'
p79
aS'go'
p80
aS'all'
p81
aS'all'
p82
aS'And'
p83
ag48
aS'gotta'
p84
aS'get'
p85
aS'get'
p86
aS"that'll"
p87
as(S'it'
p88
tp89
(lp90
S'was'
p91
ag48
aS'was'
p92
aS'all'
p93
aS'My'
p94
aS"let's"
p95
aS'was'
p96
aS'lasted'
p97
aS'was'
p98
aS'was'
p99
aS'would'
p100
aS"ain't"
p101
aS'How'
p102
aS'All'
p103
aS'When'
p104
aS'chill'
p105
aS'Let'
p106
aS'Slow'
p107
aS'yeah'
p108
aS'Gimme'
p109
aS'come'
p110
aS'run'
p111
aS'and'
p112
aS'these'
p113
aS'and'
p114
ag48
aS'soak'
p115
aS'Oh'
p116
aS'yet'
p117
aS"ain't"
p118
aS'look'
p119
ag48
ag48
aS'must'
p120
aS'Cash'
p121
aS'under'
p122
aS'could'
p123
aS'lit'
p124
aS'like'
p125
aS'like'
p126
aS'if'
p127
aS'in'
p128
aS'like'
p129
aS'up'
p130
aS'with'
p131
aS'cause'
p132
aS'with'
p133
aS'Roll'
p134
aS'home'
p135
aS'movin\xe2'
p136
aS'You'
p137
aS'Put'
p138
ag48
aS'now'
p139
ag48
aS'for'
p140
aS'some'
p141
aS'but'
p142
aS'up'
p143
aS'in'
p144
aS'in'
p145
aS'They'
p146
aS'though'
p147
aS'was'
p148
ag48
aS'Every'
p149
aS'you'
p150
aS'was'
p151
aS'open'
p152
aS'go'
p153
aS'in'
p154
as(S'go'
p155
tp156
(lp157
S'quick'
p158
aS'to'
p159
aS'That'
p160
aS'again'
p161
aS'ask'
p162
aS'let'
p163
aS'double-tap'
p164
aS'to'
p165
aS'first'
p166
aS'\xe2'
p167
aS'step'
p168
aS'step'
p169
aS'crazy'
p170
aS'up'
p171
aS'around'
p172
as(S'London'
p173
tp174
(lp175
S'Tokyo'
p176
as(S'now'
p177
tp178
(lp179
S"I'm"
p180
aS'You'
p181
aS'one'
p182
aS'he'
p183
aS'it\xe2'
p184
aS'you'
p185
aS"it's"
p186
aS"I'm"
p187
aS'And'
p188
aS'You'
p189
aS'Uhh'
p190
aS"it's"
p191
as(S'done'
p192
tp193
(lp194
g48
as(S'stain'
p195
tp196
(lp197
S'out'
p198
as(S'child'
p199
tp200
(lp201
S'with'
p202
as(S'm'
p203
tp204
(lp205
S'causing'
p206
aS'dumb'
p207
aS'winter'
p208
aS'winter'
p209
aS'not'
p210
aS'choppin\xe2'
p211
aS'always'
p212
ag167
as(S'When'
p213
tp214
(lp215
S"I'm"
p216
ag48
aS'the'
p217
as(S'slap'
p218
tp219
(lp220
S'to'
p221
as(S'way'
p222
tp223
(lp224
S'we'
p225
aS'smarter'
p226
aS'what'
p227
aS'what'
p228
aS'before'
p229
ag48
as(S'car'
p230
tp231
(lp232
S'keys'
p233
aS'that'
p234
as(S'if'
p235
tp236
(lp237
S'somehow'
p238
ag48
aS'my'
p239
ag48
aS'their'
p240
aS'my'
p241
ag48
aS"I'm"
p242
aS'he'
p243
aS'you'
p244
aS'you'
p245
aS'they'
p246
aS'they'
p247
aS'they'
p248
aS'you'
p249
aS'she'
p250
aS'a'
p251
aS'you\xe2'
p252
aS'the'
p253
as(S'cupcake'
p254
tp255
(lp256
S'My'
p257
as(S'shooter'
p258
tp259
(lp260
S'so'
p261
as(S'Wonderland'
p262
tp263
(lp264
S'on'
p265
as(S"they're"
p266
tp267
(lp268
S'neglected'
p269
as(S'jet'
p270
tp271
(lp272
S'You'
p273
as(S'ready'
p274
tp275
(lp276
S'and'
p277
aS'Hopped'
p278
aS'Soon'
p279
as(S'slaughter'
p280
tp281
(lp282
S'that'
p283
as(S"tellin'"
p284
tp285
(lp286
S'your'
p287
aS'me'
p288
as(S'truth'
p289
tp290
(lp291
S'if'
p292
as(S'peaceful'
p293
tp294
(lp295
S'As'
p296
as(S'Knicks'
p297
tp298
(lp299
S'game'
p300
as(S'college'
p301
tp302
(lp303
S'just'
p304
as(S'Lil'
p305
tp306
(lp307
S'Wayne'
p308
aS'Wayne'
p309
as(S'busy'
p310
tp311
(lp312
S'yo'
p313
aS'Hopped'
p314
as(S'red'
p315
tp316
(lp317
S'sign'
p318
as(S'fighter'
p319
tp320
(lp321
S'Get'
p322
as(S'hats'
p323
tp324
(lp325
S'off'
p326
as(S'decipher'
p327
tp328
(lp329
S'what'
p330
as(S"'09"
p331
tp332
(lp333
S'when'
p334
aS"wilin'"
p335
as(S"seein'"
p336
tp337
(lp338
S'them'
p339
as(S'string'
p340
tp341
(lp342
S'Ain\xe2'
p343
as(S'Lewinsky'
p344
tp345
(lp346
S'like'
p347
as(S'thong'
p348
tp349
(lp350
S'in'
p351
as(S'So'
p352
tp353
(lp354
S'in'
p355
aS'at'
p356
aS"I'ma"
p357
ag48
ag48
aS'make'
p358
aS'when'
p359
aS'drop'
p360
ag48
aS'when'
p361
as(S'Wayne'
p362
tp363
(lp364
g48
aS'give'
p365
aS'out'
p366
aS'record'
p367
as(S'mouth'
p368
tp369
(lp370
S'or'
p371
as(S'connect'
p372
tp373
(lp374
S'so'
p375
as(S'perc'
p376
tp377
(lp378
S"Flippin'"
p379
as(S'they'
p380
tp381
(lp382
S'really'
p383
aS'go'
p384
aS"don't"
p385
aS'know'
p386
aS'make'
p387
aS'give'
p388
aS'laced'
p389
aS'up'
p390
aS'last'
p391
aS'hate'
p392
aS'love'
p393
aS'want'
p394
aS'getting'
p395
aS'study'
p396
aS'money'
p397
aS'whips'
p398
aS'staring'
p399
aS'ran'
p400
aS'say'
p401
aS'could'
p402
aS"swearin'"
p403
aS'no'
p404
aS'start'
p405
aS'remember'
p406
aS'wished'
p407
aS"can't"
p408
aS'talk'
p409
aS'talk'
p410
aS'end'
p411
aS'jump'
p412
aS'picks'
p413
aS'was'
p414
aS'dick'
p415
aS'bricks'
p416
aS'bricks'
p417
aS'feelings'
p418
aS'know'
p419
aS'not'
p420
aS'raps'
p421
aS'flow'
p422
aS'mad'
p423
aS'put'
p424
aS'be'
p425
aS'allege'
p426
aS'can'
p427
aS'can'
p428
as(S'Wax'
p429
tp430
(lp431
S'off'
p432
as(S'pill'
p433
tp434
(lp435
S'and'
p436
aS"I'm"
p437
as(S'told'
p438
tp439
(lp440
S"'em"
p441
aS'Baby'
p442
aS"'em"
p443
aS'them'
p444
as(S'reflection'
p445
tp446
(lp447
S'of'
p448
as(S'one'
p449
tp450
(lp451
S'hut-hut'
p452
aS'that'
p453
aS'supposed'
p454
aS'down'
p455
aS'and'
p456
aS'die'
p457
aS"that's"
p458
as(S'hate'
p459
tp460
(lp461
S'the'
p462
aS'ya'
p463
aS'me'
p464
aS'you'
p465
aS'on'
p466
as(S'whip'
p467
tp468
(lp469
S'it'
p470
as(S'sucked'
p471
tp472
(lp473
S'These'
p474
as(S'mad'
p475
tp476
(lp477
S'bitches'
p478
aS'when'
p479
aS'at'
p480
aS'at'
p481
aS'that'
p482
as(S'forgiveness'
p483
tp484
(lp485
g48
as(S'kitten'
p486
tp487
(lp488
S'on'
p489
as(S'doors'
p490
tp491
(lp492
S'and'
p493
as(S'locked'
p494
tp495
(lp496
S"I'mma"
p497
as(S'live'
p498
tp499
(lp500
S'in'
p501
aS'in'
p502
aS'lavish'
p503
aS'where'
p504
aS'But'
p505
as(S'motto'
p506
tp507
(lp508
S'in'
p509
as(S'sons'
p510
tp511
(lp512
S'John'
p513
as(S'ways'
p514
tp515
(lp516
g48
as(S'B'
p517
tp518
(lp519
S'and'
p520
as(S'drinks'
p521
tp522
(lp523
S'on'
p524
aS'is'
p525
as(S'Hollywood'
p526
tp527
(lp528
S'with'
p529
aS'left'
p530
as(S'For'
p531
tp532
(lp533
S'they'
p534
aS'what'
p535
as(S'Ay'
p536
tp537
(lp538
S'Tell'
p539
aS"It's"
p540
aS'Might'
p541
as(S'Uhh'
p542
tp543
(lp544
S'do'
p545
as(S'shoe'
p546
tp547
(lp548
S'string'
p549
as(S'kinda'
p550
tp551
(lp552
S'hard'
p553
as(S'Queens'
p554
tp555
(lp556
S'where'
p557
as(S'position'
p558
tp559
(lp560
S'Make'
p561
as(S'raw'
p562
tp563
(lp564
S'it'
p565
as(S'throwing'
p566
tp567
(lp568
S'shade'
p569
as(S'into'
p570
tp571
(lp572
S'fake'
p573
as(S'burn'
p574
tp575
(lp576
S'that'
p577
as(S"didn't"
p578
tp579
(lp580
S'invite'
p581
aS'he'
p582
aS'budge'
p583
as(S'Gun'
p584
tp585
(lp586
S'in'
p587
as(S'New'
p588
tp589
(lp590
S'York'
p591
aS'York'
p592
as(S'Perc'
p593
tp594
(lp595
S'and'
p596
as(S'cocaine'
p597
tp598
(lp599
S'He'
p600
as(S'bricky'
p601
tp602
(lp603
S'If'
p604
as(S'allege'
p605
tp606
(lp607
g48
as(S'before'
p608
tp609
(lp610
S'me'
p611
ag48
aS'your'
p612
aS'your'
p613
aS'one'
p614
as(S'criticizing'
p615
tp616
(lp617
S'me'
p618
as(S'something'
p619
tp620
(lp621
g48
aS'real'
p622
aS'he'
p623
aS'he'
p624
aS'that'
p625
aS'that'
p626
aS'that'
p627
aS'that'
p628
as(S'sledge'
p629
tp630
(lp631
S'Fuck'
p632
as(S'eye'
p633
tp634
(lp635
S'contact'
p636
as(S'Man'
p637
tp638
(lp639
S'it'
p640
aS'this'
p641
as(S'matted'
p642
tp643
(lp644
S'Bitch'
p645
as(S'A'
p646
tp647
(lp648
S'Player'
p649
as(S'intimidate'
p650
tp651
(lp652
S'ya'
p653
as(S"sellin'"
p654
tp655
(lp656
S'female'
p657
as(S'women'
p658
tp659
(lp660
S'wassup'
p661
as(S'hoping'
p662
tp663
(lp664
S'that'
p665
as(S'Live'
p666
tp667
(lp668
S'in'
p669
as(S'test'
p670
tp671
(lp672
S'me'
p673
as(S'cutting'
p674
tp675
(lp676
S'them'
p677
as(S'said'
p678
tp679
(lp680
S'he'
p681
aS'you'
p682
aS'let\xe2'
p683
aS'Damn'
p684
aS'Damn'
p685
aS'Yes'
p686
aS'Teach'
p687
aS'thank'
p688
aS'you'
p689
aS'he'
p690
aS'this'
p691
ag48
as(S'came'
p692
tp693
(lp694
S'in'
p695
aS'dressed'
p696
aS'this'
p697
aS'for'
p698
aS'over'
p699
aS'out'
p700
aS'out'
p701
aS'in'
p702
aS'off'
p703
aS'in'
p704
as(S'first'
p705
tp706
(lp707
S'album'
p708
aS'go'
p709
ag48
as(S'sit'
p710
tp711
(lp712
S'back'
p713
aS'on'
p714
aS'up'
p715
as(S'forgive'
p716
tp717
(lp718
g48
as(S'Push'
p719
tp720
(lp721
S'you'
p722
as(S'gossip'
p723
tp724
(lp725
S'as'
p726
as(S'else'
p727
tp728
(lp729
S'matters'
p730
aS'could'
p731
as(S't'
p732
tp733
(lp734
S'fall'
p735
aS'give'
p736
aS'let'
p737
aS'mean'
p738
aS'let'
p739
aS'real'
p740
aS'tasteful'
p741
aS'learned'
p742
aS'burn'
p743
aS'wish'
p744
aS'fucking'
p745
aS'speaking'
p746
aS'regular'
p747
aS'got'
p748
aS'make'
p749
aS'They'
p750
as(S'beneficial'
p751
tp752
(lp753
S"I'mma"
p754
as(S'balcony'
p755
tp756
(lp757
S'and'
p758
as(S'humble'
p759
tp760
(lp761
S'Meet'
p762
as(S'Highland'
p763
tp764
(lp765
S'These'
p766
as(S'that'
p767
tp768
(lp769
S'as'
p770
ag48
aS'hurt'
p771
aS'She'
p772
aS"I'ma"
p773
ag48
aS'you'
p774
aS'we'
p775
aS'legendary'
p776
aS'nigga'
p777
aS'pipe'
p778
aS'ho'
p779
aS'ho'
p780
aS'coco'
p781
aS'Nature'
p782
aS'is'
p783
aS'work'
p784
aS'perc'
p785
aS'work'
p786
aS'D'
p787
aS'was'
p788
aS'list'
p789
aS'union'
p790
aS'D-Wade'
p791
aS'raw'
p792
aS'diet'
p793
aS'wire'
p794
aS'for'
p795
aS'Yo'
p796
aS'Spyder'
p797
aS'can'
p798
aS'can'
p799
aS'you'
p800
aS'you'
p801
ag48
aS'he'
p802
aS'bang'
p803
aS'he'
p804
aS"I'ma"
p805
aS'spaceship'
p806
aS'gift'
p807
aS'Ay'
p808
aS'Ay'
p809
aS'He'
p810
aS'yet'
p811
aS'yet'
p812
aS'yet'
p813
aS'They'
p814
ag48
aS'your'
p815
ag48
aS'you'
p816
aS'you'
p817
aS'your'
p818
ag48
aS'look'
p819
aS'he'
p820
aS'bitch'
p821
aS'new'
p822
aS'I\xe2'
p823
aS'I\xe2'
p824
aS'selfie'
p825
aS'Tri-State'
p826
aS'noise'
p827
aS'May-weather'
p828
aS'noise'
p829
aS'May-weather'
p830
aS'building'
p831
aS'Nicki'
p832
aS'hourglass'
p833
aS'big'
p834
aS'you'
p835
ag48
ag48
aS"can't"
p836
ag48
aS'Lil'
p837
aS'big'
p838
aS'back'
p839
aS'bitch'
p840
aS'nigga'
p841
aS'Bentley'
p842
aS'Jean'
p843
aS'little'
p844
as(S'long'
p845
tp846
(lp847
S'as'
p848
aS'as'
p849
aS'as'
p850
as(S'skated'
p851
tp852
(lp853
g48
as(S'Most'
p854
tp855
(lp856
S'of'
p857
as(S'Jay-Z'
p858
tp859
(lp860
S'and'
p861
as(S'drugs'
p862
tp863
(lp864
S'You'
p865
as(S'thrill'
p866
tp867
(lp868
S'of'
p869
as(S'finger'
p870
tp871
(lp872
S'that'
p873
aS'where'
p874
aS'roll'
p875
as(S'NyQuil'
p876
tp877
(lp878
S'Now'
p879
as(S'wax'
p880
tp881
(lp882
S'on'
p883
as(S'hood'
p884
tp885
(lp886
S'girls'
p887
as(S'movin\xe2'
p888
tp889
(lp890
S'be'
p891
as(S'give'
p892
tp893
(lp894
S'me'
p895
aS'it'
p896
aS'my'
p897
aS'these'
p898
ag251
aS"'em"
p899
aS'you'
p900
as(S'Rucker'
p901
tp902
(lp903
S'take'
p904
as(S'feeling'
p905
tp906
(lp907
S'like'
p908
as(S'might'
p909
tp910
(lp911
S'have'
p912
aS'kiss'
p913
as(S'rush'
p914
tp915
(lp916
S'and'
p917
as(S'Nature'
p918
tp919
(lp920
S'Look'
p921
as(S"Ain't"
p922
tp923
(lp924
S'no'
p925
aS'no'
p926
aS'gotta'
p927
aS'got'
p928
aS'gotta'
p929
as(S'tuition'
p930
tp931
(lp932
S"it's"
p933
as(S'all'
p934
tp935
(lp936
S'me'
p937
aS'if'
p938
aS'to'
p939
aS'over'
p940
aS'fictitious'
p941
aS'that'
p942
aS'them'
p943
aS'of'
p944
aS'this'
p945
aS'my'
p946
aS'of'
p947
aS'of'
p948
aS'your'
p949
aS'the'
p950
aS'along'
p951
aS'along'
p952
aS'in'
p953
aS'ready'
p954
aS'ready'
p955
aS'my'
p956
aS'this'
p957
aS'you'
p958
aS'about'
p959
aS'about'
p960
aS'your'
p961
aS'about'
p962
aS'about'
p963
as(S"trippin'"
p964
tp965
(lp966
S'off'
p967
as(S'Paid'
p968
tp969
(lp970
S'my'
p971
as(S'Cali'
p972
tp973
(lp974
S"fuckin'"
p975
as(S'senseless'
p976
tp977
(lp978
S'act'
p979
as(S'nature'
p980
tp981
(lp982
S'not'
p983
as(S'hype'
p984
tp985
(lp986
S'ya'
p987
as(S'fantasizing'
p988
tp989
(lp990
S'that'
p991
as(S'apologize'
p992
tp993
(lp994
S'when'
p995
as(S'for'
p996
tp997
(lp998
S'how'
p999
aS'you'
p1000
aS'you'
p1001
aS'your'
p1002
aS'his'
p1003
aS'some'
p1004
aS'all'
p1005
ag251
aS'me'
p1006
aS'nothing'
p1007
aS'something'
p1008
aS'me'
p1009
aS'me'
p1010
aS'you'
p1011
aS'you'
p1012
aS'love'
p1013
ag251
aS'the'
p1014
aS'You'
p1015
aS'So'
p1016
aS'Make'
p1017
aS'all'
p1018
aS"'em"
p1019
aS'us'
p1020
aS'the'
p1021
aS'you'
p1022
aS'you'
p1023
aS'me'
p1024
aS'And'
p1025
aS'Where'
p1026
as(S's'
p1027
tp1028
(lp1029
S'see'
p1030
aS'no'
p1031
aS'beneficial'
p1032
aS'life'
p1033
aS'kinda'
p1034
aS'real'
p1035
ag251
aS'out'
p1036
aS'out'
p1037
aS'out'
p1038
aS'out'
p1039
as(S'pissy'
p1040
tp1041
(lp1042
S'This'
p1043
as(S'other'
p1044
tp1045
(lp1046
S'but'
p1047
aS'dudes'
p1048
aS'day'
p1049
aS'niggas'
p1050
aS'niggas'
p1051
as(S'suckers'
p1052
tp1053
(lp1054
S'For'
p1055
as(S'pull'
p1056
tp1057
(lp1058
S'up'
p1059
aS'an'
p1060
as(S'could'
p1061
tp1062
(lp1063
S'just'
p1064
aS'fit'
p1065
aS'put'
p1066
aS'have'
p1067
aS'tell'
p1068
aS'tell'
p1069
aS'tell'
p1070
aS'tell'
p1071
aS'tell'
p1072
aS'never'
p1073
aS'never'
p1074
aS'tell'
p1075
aS'tell'
p1076
aS'get'
p1077
aS'get'
p1078
aS'be'
p1079
aS'cut'
p1080
ag48
as(S'automobile'
p1081
tp1082
(lp1083
S'Let'
p1084
aS'Let'
p1085
as(S'National'
p1086
tp1087
(lp1088
S'anthem'
p1089
as(S'pledge'
p1090
tp1091
(lp1092
S"You'll"
p1093
as(S"'bout"
p1094
tp1095
(lp1096
S'my'
p1097
aS'to'
p1098
aS'if'
p1099
aS"y'all"
p1100
as(S'broken'
p1101
tp1102
(lp1103
S'before'
p1104
as(S'Vest'
p1105
tp1106
(lp1107
S'Playtime'
p1108
as(S'felony'
p1109
tp1110
(lp1111
S'This'
p1112
as(S"that's"
p1113
tp1114
(lp1115
S'when'
p1116
aS'the'
p1117
ag251
aS'urban'
p1118
aS'real'
p1119
aS'his'
p1120
aS'two'
p1121
aS'three'
p1122
as(S'thank'
p1123
tp1124
(lp1125
S'you'
p1126
as(S'fireworks'
p1127
tp1128
(lp1129
S"I'm"
p1130
as(S'That'
p1131
tp1132
(lp1133
S'was'
p1134
aS'shit'
p1135
as(S"drippin'"
p1136
tp1137
(lp1138
S'out'
p1139
as(S'milli'
p1140
tp1141
(lp1142
S'on'
p1143
as(S'Even'
p1144
tp1145
(lp1146
S'the'
p1147
aS'though'
p1148
aS'though'
p1149
as(S'rich'
p1150
tp1151
(lp1152
S'so'
p1153
as(S'shot'
p1154
tp1155
(lp1156
S'missed'
p1157
as(S'check'
p1158
tp1159
(lp1160
S'you'
p1161
aS'Box'
p1162
as(S'Hopped'
p1163
tp1164
(lp1165
S'on'
p1166
aS'on'
p1167
as(S'loud'
p1168
tp1169
(lp1170
g48
aS'but'
p1171
as(S'wack'
p1172
tp1173
(lp1174
S'nigga'
p1175
as(S'room'
p1176
tp1177
(lp1178
S'when'
p1179
as(S'Margielas'
p1180
tp1181
(lp1182
S'Oh'
p1183
as(S'Quiz'
p1184
tp1185
(lp1186
S'Bad'
p1187
as(S'take'
p1188
tp1189
(lp1190
S'the'
p1191
aS'it'
p1192
aS'him'
p1193
aS'care'
p1194
as(S'real'
p1195
tp1196
(lp1197
S'it'
p1198
aS'niggas'
p1199
aS'niggas'
p1200
aS'wet'
p1201
aS'one'
p1202
aS'real'
p1203
aS'real'
p1204
aS'Gun'
p1205
aS'that'
p1206
aS'that'
p1207
aS'rap'
p1208
aS'bitches'
p1209
aS'niggas'
p1210
as(S'hands'
p1211
tp1212
(lp1213
S'call'
p1214
as(S'help'
p1215
tp1216
(lp1217
S'them'
p1218
as(S'there'
p1219
tp1220
(lp1221
S'was'
p1222
aS'was'
p1223
aS'was'
p1224
as(S'feature'
p1225
tp1226
(lp1227
S'on'
p1228
as(S'fresh'
p1229
tp1230
(lp1231
S'to'
p1232
aS'They\xe2'
p1233
aS'They\xe2'
p1234
as(S'pillow'
p1235
tp1236
(lp1237
S'seats'
p1238
as(S'last'
p1239
tp1240
(lp1241
S'day'
p1242
aS'name'
p1243
aS'pic'
p1244
as(S'breathe'
p1245
tp1246
(lp1247
S'and'
p1248
as(S'loose'
p1249
tp1250
(lp1251
S'You'
p1252
as(S'Benzy'
p1253
tp1254
(lp1255
g48
as(S'mind'
p1256
tp1257
(lp1258
S'But'
p1259
as(S'stupid'
p1260
tp1261
(lp1262
S'you'
p1263
aS'You'
p1264
aS'is'
p1265
as(S'gifts'
p1266
tp1267
(lp1268
S'from'
p1269
as(S'all-nighter'
p1270
tp1271
(lp1272
S'Tell'
p1273
as(S'Tour'
p1274
tp1275
(lp1276
S'with'
p1277
as(S'jelly'
p1278
tp1279
(lp1280
S'at'
p1281
as(S'World'
p1282
tp1283
(lp1284
S'Pat'
p1285
as(S'rundown'
p1286
tp1287
(lp1288
S'You'
p1289
as(S'dressed'
p1290
tp1291
(lp1292
S'to'
p1293
as(S'fuck'
p1294
tp1295
(lp1296
S'you'
p1297
aS'if'
p1298
aS'with'
p1299
aS'with'
p1300
aS'with'
p1301
aS'came'
p1302
ag48
aS'around'
p1303
aS'him'
p1304
aS'him'
p1305
aS'the'
p1306
aS'you'
p1307
aS'out'
p1308
aS'in'
p1309
aS'with'
p1310
aS'with'
p1311
aS'with'
p1312
aS'you'
p1313
ag251
aS'what'
p1314
ag251
ag251
as(S'legend'
p1315
tp1316
(lp1317
S'Just'
p1318
as(S'Mavericks'
p1319
tp1320
(lp1321
S'my'
p1322
as(S'Giuseppe'
p1323
tp1324
(lp1325
S'wedge'
p1326
as(S'sequel'
p1327
tp1328
(lp1329
S'And'
p1330
as(S'ballers'
p1331
tp1332
(lp1333
S'only'
p1334
as(S'nowhere'
p1335
tp1336
(lp1337
S'like'
p1338
as(S'issue'
p1339
tp1340
(lp1341
S'Soon'
p1342
aS'Eight'
p1343
as(S'Girls'
p1344
tp1345
(lp1346
S'Boy'
p1347
as(S'hell'
p1348
tp1349
(lp1350
g48
as(S'choppin\xe2'
p1351
tp1352
(lp1353
S'it'
p1354
as(S'Tokyo'
p1355
tp1356
(lp1357
S'Paris'
p1358
as(S'65'
p1359
tp1360
(lp1361
S'million'
p1362
as(S'Ass'
p1363
tp1364
(lp1365
S'so'
p1366
as(S'ungrateful'
p1367
tp1368
(lp1369
S"I'mma"
p1370
as(S'pulled'
p1371
tp1372
(lp1373
S'up'
p1374
aS'up'
p1375
as(S'Kevin'
p1376
tp1377
(lp1378
S'Hart'
p1379
as(S'money'
p1380
tp1381
(lp1382
S'One'
p1383
aS'getting'
p1384
aS'and'
p1385
aS'and'
p1386
aS'You'
p1387
aS'he'
p1388
aS'what'
p1389
aS'this'
p1390
ag48
aS'from'
p1391
as(S'Run'
p1392
tp1393
(lp1394
S'Tour'
p1395
aS'through'
p1396
as(S'motorcycles'
p1397
tp1398
(lp1399
S'Di-dick'
p1400
as(S"lookin'"
p1401
tp1402
(lp1403
S'back'
p1404
aS'to'
p1405
as(S'rekindle'
p1406
tp1407
(lp1408
S'that'
p1409
as(S'saying'
p1410
tp1411
(lp1412
S'and'
p1413
aS'She'
p1414
as(S'right'
p1415
tp1416
(lp1417
S'you'
p1418
aS'He'
p1419
aS'now'
p1420
aS'now'
p1421
aS'now'
p1422
as(S'jumping'
p1423
tp1424
(lp1425
S'from'
p1426
as(S'jack'
p1427
tp1428
(lp1429
S'rabbit'
p1430
aS'off'
p1431
as(S'knife'
p1432
tp1433
(lp1434
S'in'
p1435
as(S'some'
p1436
tp1437
(lp1438
S'ways'
p1439
aS'fucking'
p1440
aS'hood'
p1441
aS'Mac'
p1442
aS'more'
p1443
aS'shit'
p1444
aS'hot'
p1445
aS'inches'
p1446
aS'coins'
p1447
aS'dumb'
p1448
aS'dumb'
p1449
aS'What'
p1450
aS'niggas'
p1451
aS'children'
p1452
as(S'Alice'
p1453
tp1454
(lp1455
S'balance'
p1456
as(S'stall'
p1457
tp1458
(lp1459
S'for'
p1460
as(S'watched'
p1461
tp1462
(lp1463
S'how'
p1464
as(S'and'
p1465
tp1466
(lp1467
g48
aS'decipher'
p1468
aS'remember'
p1469
aS'fake'
p1470
aS"that's"
p1471
aS"I'll"
p1472
ag48
aS'cutting'
p1473
aS'my'
p1474
aS'they'
p1475
aS'shrugged'
p1476
aS'dishes'
p1477
aS'you'
p1478
aS'be'
p1479
aS"don't"
p1480
aS'tuition'
p1481
ag251
aS"I'm"
p1482
aS'an'
p1483
aS'things'
p1484
ag48
aS'we'
p1485
aS'let'
p1486
aS'Kate'
p1487
aS'Diddy'
p1488
ag48
aS'it'
p1489
aS'have'
p1490
aS'Young'
p1491
aS'they'
p1492
aS'dip'
p1493
aS'my'
p1494
ag48
ag48
ag251
aS'still'
p1495
ag48
aS'confide'
p1496
aS'say'
p1497
aS"it's"
p1498
aS"you're"
p1499
aS'fuck'
p1500
aS'he'
p1501
ag48
aS'fuck'
p1502
aS'he'
p1503
aS'vodka'
p1504
aS'slaughter'
p1505
aS'get'
p1506
aS'just'
p1507
aS'graceful'
p1508
aS'entitled'
p1509
aS'support'
p1510
aS'live'
p1511
aS'you'
p1512
aS'you'
p1513
aS'be'
p1514
ag48
ag48
ag48
aS'that\xe2'
p1515
aS'them'
p1516
aS'them'
p1517
aS'that'
p1518
aS'them'
p1519
aS'them'
p1520
aS'gossip'
p1521
aS'now'
p1522
aS'help'
p1523
aS"stayin'"
p1524
aS"layin'"
p1525
aS'watched'
p1526
aS'took'
p1527
aS'yes'
p1528
aS'get'
p1529
aS'plus'
p1530
aS'that'
p1531
aS'approach'
p1532
aS'you'
p1533
aS"don't"
p1534
aS'see'
p1535
aS"that's"
p1536
as(S'ball'
p1537
tp1538
(lp1539
S'like'
p1540
as(S'pretend'
p1541
tp1542
(lp1543
S'When'
p1544
as(S'drive'
p1545
tp1546
(lp1547
S'these'
p1548
as(S'Pinkprint'
p1549
tp1550
(lp1551
g48
aS"can't"
p1552
as(S'duck'
p1553
tp1554
(lp1555
S'nobody'
p1556
as(S'fraud'
p1557
tp1558
(lp1559
S'but'
p1560
as(S'wifey'
p1561
tp1562
(lp1563
S'material'
p1564
as(S'Saks'
p1565
tp1566
(lp1567
S'have'
p1568
as(S'move'
p1569
tp1570
(lp1571
S'work'
p1572
aS'out'
p1573
as(S'run'
p1574
tp1575
(lp1576
S'down'
p1577
aS'around'
p1578
aS'the'
p1579
as(S"Ridin'"
p1580
tp1581
(lp1582
S'through'
p1583
as(S'alone'
p1584
tp1585
(lp1586
S'bitch'
p1587
aS'contemplating'
p1588
as(S"swearin'"
p1589
tp1590
(lp1591
S'on'
p1592
as(S'diss'
p1593
tp1594
(lp1595
S'you'
p1596
aS'you'
p1597
aS'you'
p1598
aS'me'
p1599
as(S'taking'
p1600
tp1601
(lp1602
S'my'
p1603
aS'suckers'
p1604
as(S'since'
p1605
tp1606
(lp1607
g48
ag48
as(S'Hell'
p1608
tp1609
(lp1610
S'yeah'
p1611
as(S'Cuba'
p1612
tp1613
(lp1614
S'Ask'
p1615
as(S'Anybody'
p1616
tp1617
(lp1618
g48
as(S'Worried'
p1619
tp1620
(lp1621
S"'bout"
p1622
as(S'along'
p1623
tp1624
(lp1625
S"I'mma"
p1626
aS"I'mma"
p1627
as(S'King'
p1628
tp1629
(lp1630
S"I'm"
p1631
as(S'Everytime'
p1632
tp1633
(lp1634
g48
as(S"You'll"
p1635
tp1636
(lp1637
S'never'
p1638
as(S'frenzy'
p1639
tp1640
(lp1641
S'So'
p1642
as(S'ayo'
p1643
tp1644
(lp1645
S'tonight'
p1646
as(S'sweet'
p1647
tp1648
(lp1649
S'Oh'
p1650
as(S'gimme'
p1651
tp1652
(lp1653
S'brain'
p1654
as(S'tied'
p1655
tp1656
(lp1657
S'up'
p1658
as(S'sign'
p1659
tp1660
(lp1661
S'did'
p1662
as(S'cribs'
p1663
tp1664
(lp1665
S'in'
p1666
as(S'Slow'
p1667
tp1668
(lp1669
S"grindin'"
p1670
as(S'Ace'
p1671
tp1672
(lp1673
S'of'
p1674
aS'of'
p1675
as(S"Stingin'"
p1676
tp1677
(lp1678
S'with'
p1679
as(S'vids'
p1680
tp1681
(lp1682
S'You'
p1683
as(S'learned'
p1684
tp1685
(lp1686
S'that'
p1687
as(S'reinvent'
p1688
tp1689
(lp1690
g48
as(S'ok'
p1691
tp1692
(lp1693
S'you'
p1694
as(S'mistake'
p1695
tp1696
(lp1697
S'with'
p1698
as(S'million'
p1699
tp1700
(lp1701
S'Why'
p1702
aS'nigga'
p1703
aS'single'
p1704
as(S'hungry'
p1705
tp1706
(lp1707
S'who'
p1708
as(S'married'
p1709
tp1710
(lp1711
S'eighty'
p1712
as(S'Meagan'
p1713
tp1714
(lp1715
S'you'
p1716
as(S'fun'
p1717
tp1718
(lp1719
S'now'
p1720
as(S'mix-up'
p1721
tp1722
(lp1723
S'tell'
p1724
as(S'mine'
p1725
tp1726
(lp1727
S'Cause'
p1728
as(S'pockets'
p1729
tp1730
(lp1731
S'fatter'
p1732
as(S'eating'
p1733
tp1734
(lp1735
S'that'
p1736
as(S"nigga's"
p1737
tp1738
(lp1739
S'safe'
p1740
as(S"Flippin'"
p1741
tp1742
(lp1743
S'up'
p1744
as(S'analyzing'
p1745
tp1746
(lp1747
S'me'
p1748
as(S'breaker'
p1749
tp1750
(lp1751
S'won\xe2'
p1752
as(S'magic'
p1753
tp1754
(lp1755
S'If'
p1756
as(S'punchline'
p1757
tp1758
(lp1759
S'on'
p1760
as(S'buzz'
p1761
tp1762
(lp1763
S'So'
p1764
as(S'glacier'
p1765
tp1766
(lp1767
S'hits'
p1768
as(S'Shia'
p1769
tp1770
(lp1771
S'Labeouf'
p1772
as(S'videos'
p1773
tp1774
(lp1775
g48
as(S'moment'
p1776
tp1777
(lp1778
g48
as(S'gun'
p1779
tp1780
(lp1781
S'down'
p1782
as(S'envy'
p1783
tp1784
(lp1785
S'when'
p1786
as(S'club'
p1787
tp1788
(lp1789
S'like'
p1790
as(S"nothin'"
p1791
tp1792
(lp1793
S'else'
p1794
as(S'smiling'
p1795
tp1796
(lp1797
S'for'
p1798
as(S"raisin'"
p1799
tp1800
(lp1801
S'some'
p1802
as(S'pay'
p1803
tp1804
(lp1805
S'you'
p1806
ag251
aS'gotta'
p1807
as(S'topic'
p1808
tp1809
(lp1810
S'to'
p1811
aS'stay'
p1812
as(S'dick'
p1813
tp1814
(lp1815
S'He'
p1816
aS'sucked'
p1817
as(S'slick'
p1818
tp1819
(lp1820
S'that'
p1821
aS'that'
p1822
as(S'fatter'
p1823
tp1824
(lp1825
S'than'
p1826
as(S"couldn't"
p1827
tp1828
(lp1829
S'breathe'
p1830
aS'test'
p1831
aS'replace'
p1832
aS'relate'
p1833
aS'understand'
p1834
aS'defend'
p1835
aS'pretend'
p1836
aS'but'
p1837
aS'get'
p1838
aS'stop'
p1839
aS'see'
p1840
as(S'Then'
p1841
tp1842
(lp1843
g48
as(S'His'
p1844
tp1845
(lp1846
S'sister'
p1847
as(S'whores'
p1848
tp1849
(lp1850
S'know'
p1851
as(S'thing'
p1852
tp1853
(lp1854
S'tied'
p1855
as(S'tape'
p1856
tp1857
(lp1858
S'Yeah'
p1859
aS'Worried'
p1860
as(S'D-Wade'
p1861
tp1862
(lp1863
g48
as(S"Feelin'"
p1864
tp1865
(lp1866
S'myself'
p1867
as(S'geek'
p1868
tp1869
(lp1870
S"Ridin'"
p1871
as(S"'till"
p1872
tp1873
(lp1874
S'we'
p1875
as(S'mistakes'
p1876
tp1877
(lp1878
S'though'
p1879
as(S'keep'
p1880
tp1881
(lp1882
S'them'
p1883
ag251
aS'it'
p1884
aS'on'
p1885
ag251
aS'talking'
p1886
aS'talking'
p1887
aS"'em"
p1888
aS'the'
p1889
as(S'blank'
p1890
tp1891
(lp1892
S'stare'
p1893
as(S'balls'
p1894
tp1895
(lp1896
S'Dal'
p1897
as(S'freed'
p1898
tp1899
(lp1900
S'from'
p1901
as(S'Make'
p1902
tp1903
(lp1904
S'me'
p1905
aS'mistakes'
p1906
aS'room'
p1907
as(S'back'
p1908
tp1909
(lp1910
S'and'
p1911
aS'at'
p1912
aS'at'
p1913
aS'at'
p1914
aS'off'
p1915
aS'Red'
p1916
aS'Them'
p1917
aS'Ay'
p1918
aS'and'
p1919
aS'cause'
p1920
as(S'causing'
p1921
tp1922
(lp1923
g251
as(S'highest'
p1924
tp1925
(lp1926
S"sellin'"
p1927
as(S'Might'
p1928
tp1929
(lp1930
S'let'
p1931
as(S"ki's"
p1932
tp1933
(lp1934
S'car'
p1935
aS'of'
p1936
as(S'six'
p1937
tp1938
(lp1939
S'albums'
p1940
aS'Got'
p1941
as(S'We'
p1942
tp1943
(lp1944
S'did'
p1945
aS'was'
p1946
aS'run'
p1947
aS"ain't"
p1948
aS'still'
p1949
aS'fresh'
p1950
as(S'young'
p1951
tp1952
(lp1953
S'nigga'
p1954
as(S'These'
p1955
tp1956
(lp1957
S'girls'
p1958
aS'hoes'
p1959
aS'bitches'
p1960
aS'civilians'
p1961
aS'bitches'
p1962
aS'niggas'
p1963
aS'bitches'
p1964
aS'bitches'
p1965
aS'bitches'
p1966
aS'bitches'
p1967
as(S'duct'
p1968
tp1969
(lp1970
S'tape'
p1971
as(S'left'
p1972
tp1973
(lp1974
S'but'
p1975
aS'off'
p1976
as(S'bag'
p1977
tp1978
(lp1979
S'is'
p1980
aS'Ass'
p1981
as(S'Send'
p1982
tp1983
(lp1984
S'that'
p1985
as(S'Royce'
p1986
tp1987
(lp1988
S'pillow'
p1989
as(S'heavy'
p1990
tp1991
(lp1992
S"I'mma"
p1993
as(S'hybrid'
p1994
tp1995
(lp1996
S'These'
p1997
as(S'even'
p1998
tp1999
(lp2000
S'though'
p2001
aS'call'
p2002
aS'know'
p2003
aS'if'
p2004
aS'notice'
p2005
aS'wanna'
p2006
aS'if'
p2007
aS'if'
p2008
as(S'wanna'
p2009
tp2010
(lp2011
S'get'
p2012
aS'be'
p2013
aS'hype'
p2014
aS'use'
p2015
aS'be'
p2016
aS'listen'
p2017
aS'be'
p2018
aS'be'
p2019
aS'be'
p2020
aS'pound'
p2021
aS'go'
p2022
aS'catch'
p2023
aS'diss'
p2024
aS'play'
p2025
as(S'hoes'
p2026
tp2027
(lp2028
S"couldn't"
p2029
as(S'Spade'
p2030
tp2031
(lp2032
S'in'
p2033
as(S'bottles'
p2034
tp2035
(lp2036
S'with'
p2037
as(S'look'
p2038
tp2039
(lp2040
S'beyond'
p2041
aS'in'
p2042
aS'good'
p2043
aS'like'
p2044
aS'like'
p2045
aS'your'
p2046
as(S'wet'
p2047
tp2048
(lp2049
S'to'
p2050
as(S'than'
p2051
tp2052
(lp2053
S'life'
p2054
aS'Meagan'
p2055
ag251
aS'Vine'
p2056
aS"vacationin'"
p2057
aS'that'
p2058
as(S'Vine'
p2059
tp2060
(lp2061
S'vids'
p2062
aS'kid'
p2063
as(S'so'
p2064
tp2065
(lp2066
S'overprotective'
p2067
aS'reckless'
p2068
aS'little'
p2069
ag48
aS'can'
p2070
aS'legendary'
p2071
aS'we'
p2072
aS'we'
p2073
aS'apparent'
p2074
aS'ungrateful'
p2075
aS'they'
p2076
aS'when'
p2077
aS'fat'
p2078
as(S'Rolls'
p2079
tp2080
(lp2081
S'Royce'
p2082
as(S'Australia'
p2083
tp2084
(lp2085
S'Brisbane'
p2086
as(S'Player'
p2087
tp2088
(lp2089
S'you'
p2090
as(S"he's"
p2091
tp2092
(lp2093
S"'Caiah's"
p2094
as(S'bartender'
p2095
tp2096
(lp2097
S'say'
p2098
as(S'ballpoint'
p2099
tp2100
(lp2101
S'game'
p2102
as(S'Bad'
p2103
tp2104
(lp2105
S'bitches'
p2106
aS'bitches'
p2107
as(S'hangover'
p2108
tp2109
(lp2110
S'the'
p2111
as(S'aim'
p2112
tp2113
(lp2114
S'for'
p2115
as(S"vacationin'"
p2116
tp2117
(lp2118
S'and'
p2119
as(S'wounds'
p2120
tp2121
(lp2122
g48
as(S'oohwee'
p2123
tp2124
(lp2125
S"that's"
p2126
as(S'sixteen'
p2127
tp2128
(lp2129
S'any'
p2130
as(S'Was'
p2131
tp2132
(lp2133
S'in'
p2134
as(S'rapper'
p2135
tp2136
(lp2137
S'for'
p2138
as(S"don't"
p2139
tp2140
(lp2141
S'act'
p2142
aS'miss'
p2143
aS'you'
p2144
aS'never'
p2145
aS'duck'
p2146
aS'give'
p2147
aS'tell'
p2148
aS'fuck'
p2149
aS'fuck'
p2150
aS'know'
p2151
aS'be'
p2152
aS'be'
p2153
aS'know'
p2154
aS'wanna'
p2155
aS'mess'
p2156
aS'ever'
p2157
aS'like'
p2158
aS'like'
p2159
aS'lose'
p2160
aS'know'
p2161
aS'yell'
p2162
aS'know'
p2163
aS'watch'
p2164
aS'got'
p2165
aS'see'
p2166
aS'tell'
p2167
aS'fuck'
p2168
aS'break'
p2169
aS'get'
p2170
as(S"grindin'"
p2171
tp2172
(lp2173
S"I'm"
p2174
as(S'Playtime'
p2175
tp2176
(lp2177
S'been'
p2178
as(S'understands'
p2179
tp2180
(lp2181
S'why'
p2182
as(S'curve'
p2183
tp2184
(lp2185
S'that'
p2186
as(S'no'
p2187
tp2188
(lp2189
S'E-Z'
p2190
aS'cruise'
p2191
aS"smilin'"
p2192
aS'bitch'
p2193
aS'meals'
p2194
aS'meals'
p2195
aS'friends'
p2196
aS'different'
p2197
aS'more'
p2198
aS'more'
p2199
aS'they'
p2200
aS'more'
p2201
aS'you'
p2202
ag48
as(S'without'
p2203
tp2204
(lp2205
g251
as(S'playtime'
p2206
tp2207
(lp2208
S'been'
p2209
as(S'suck'
p2210
tp2211
(lp2212
S'so'
p2213
as(S'bi-coastal'
p2214
tp2215
(lp2216
S'Scoop'
p2217
as(S'Where'
p2218
tp2219
(lp2220
S'it'
p2221
aS'you'
p2222
as(S'act'
p2223
tp2224
(lp2225
S'of'
p2226
aS'the'
p2227
aS'like'
p2228
as(S'his'
p2229
tp2230
(lp2231
S'eyes'
p2232
aS'little'
p2233
aS'breakfast'
p2234
aS'face'
p2235
aS'grills'
p2236
aS'rifle'
p2237
aS'ass'
p2238
aS'name'
p2239
aS'grills'
p2240
aS'fault'
p2241
aS'loss'
p2242
as(S'card'
p2243
tp2244
(lp2245
S"that'll"
p2246
as(S'baddest'
p2247
tp2248
(lp2249
S'bitches'
p2250
aS'American'
p2251
aS'bitch'
p2252
as(S'Look'
p2253
tp2254
(lp2255
S'at'
p2256
as(S'bring'
p2257
tp2258
(lp2259
S'Donna'
p2260
as(S'wanting'
p2261
tp2262
(lp2263
S'for'
p2264
aS'that'
p2265
as(S'Bellamy'
p2266
tp2267
(lp2268
S'They'
p2269
as(S'how'
p2270
tp2271
(lp2272
S'they'
p2273
aS'you'
p2274
aS'it'
p2275
aS'to'
p2276
as(S'watch'
p2277
tp2278
(lp2279
S'your'
p2280
aS'me'
p2281
aS'your'
p2282
aS'all'
p2283
as(S'remain'
p2284
tp2285
(lp2286
S'icon-stat'
p2287
as(S'Young'
p2288
tp2289
(lp2290
S'Yucka'
p2291
as(S'Rap'
p2292
tp2293
(lp2294
S'legend'
p2295
aS'who'
p2296
as(S'biggest'
p2297
tp2298
(lp2299
S'Bitches'
p2300
as(S'Bushwick'
p2301
tp2302
(lp2303
S'niggas'
p2304
as(S'myself'
p2305
tp2306
(lp2307
S'jack'
p2308
aS'back'
p2309
aS'jack'
p2310
as(S'raps'
p2311
tp2312
(lp2313
S'and'
p2314
as(S'salute'
p2315
tp2316
(lp2317
S'her'
p2318
as(S'mean'
p2319
tp2320
(lp2321
S'that'
p2322
ag48
aS'ass'
p2323
aS'to'
p2324
aS'look'
p2325
as(S'Mac'
p2326
tp2327
(lp2328
S'sauce'
p2329
as(S'Got'
p2330
tp2331
(lp2332
g251
aS'me'
p2333
ag251
ag251
as(S'arm'
p2334
tp2335
(lp2336
S'on'
p2337
as(S'heard'
p2338
tp2339
(lp2340
S'niggas'
p2341
as(S'lasted'
p2342
tp2343
(lp2344
S'That'
p2345
as(S'skate'
p2346
tp2347
(lp2348
S'cause'
p2349
as(S'Yes'
p2350
tp2351
(lp2352
g48
aS'daddy'
p2353
as(S'kiss'
p2354
tp2355
(lp2356
S'miss'
p2357
aS'the'
p2358
as(S'Them'
p2359
tp2360
(lp2361
S'island'
p2362
as(S'talk'
p2363
tp2364
(lp2365
S'slick'
p2366
aS'slick'
p2367
as(S'Hit'
p2368
tp2369
(lp2370
S'you'
p2371
aS'me'
p2372
as(S'leave'
p2373
tp2374
(lp2375
S'this'
p2376
ag48
aS'the'
p2377
as(S'their'
p2378
tp2379
(lp2380
S'name'
p2381
aS'name'
p2382
as(S'fat'
p2383
tp2384
(lp2385
S'damn'
p2386
as(S'Australian'
p2387
tp2388
(lp2389
S'And'
p2390
as(S'York'
p2391
tp2392
(lp2393
S'City'
p2394
aS'City'
p2395
as(S'ass'
p2396
tp2397
(lp2398
S'is'
p2399
aS'like'
p2400
aS'like'
p2401
aS'to'
p2402
aS'make'
p2403
as(S"thinkin'"
p2404
tp2405
(lp2406
S'out'
p2407
aS'they'
p2408
aS'they'
p2409
as(S'popping'
p2410
tp2411
(lp2412
S'tags'
p2413
as(S'study'
p2414
tp2415
(lp2416
S'Makaveli'
p2417
as(S'bi-bitches'
p2418
tp2419
(lp2420
S"couldn't"
p2421
as(S'feel'
p2422
tp2423
(lp2424
S'not'
p2425
aS'like'
p2426
aS'like'
p2427
as(S'school\xe2'
p2428
tp2429
(lp2430
g1027
ag1027
as(S'Had'
p2431
tp2432
(lp2433
S'to'
p2434
as(S'shrugged'
p2435
tp2436
(lp2437
S'Blood'
p2438
as(S'update'
p2439
tp2440
(lp2441
S'Hut-hut'
p2442
aS'your'
p2443
as(S'supposed'
p2444
tp2445
(lp2446
S'to'
p2447
as(S'support'
p2448
tp2449
(lp2450
S'you'
p2451
as(S'wash'
p2452
tp2453
(lp2454
S'rag'
p2455
as(S'watching'
p2456
tp2457
(lp2458
S'Belly'
p2459
as(S'soul'
p2460
tp2461
(lp2462
S'Where'
p2463
aS"I'm"
p2464
aS'Pretty'
p2465
as(S'tissue'
p2466
tp2467
(lp2468
S'For'
p2469
as(S'understand'
p2470
tp2471
(lp2472
S'you'
p2473
aS'and'
p2474
as(S'tower'
p2475
tp2476
(lp2477
g48
as(S'mans'
p2478
tp2479
(lp2480
S'that'
p2481
as(S'rumors'
p2482
tp2483
(lp2484
S'of'
p2485
as(S'Ali'
p2486
tp2487
(lp2488
S'of'
p2489
as(S'bad'
p2490
tp2491
(lp2492
S'habit'
p2493
aS'toss'
p2494
aS'but'
p2495
aS'little'
p2496
aS'they'
p2497
aS'bitch'
p2498
aS'like'
p2499
aS"It's"
p2500
as(S'doin\xe2'
p2501
tp2502
(lp2503
S'wasn\xe2'
p2504
as(S'Karan'
p2505
tp2506
(lp2507
S'with'
p2508
as(S'plus'
p2509
tp2510
(lp2511
S'they'
p2512
as(S'wanted'
p2513
tp2514
(lp2515
S'to'
p2516
as(S'Winter'
p2517
tp2518
(lp2519
S'Wonderland'
p2520
as(S"'Caiah"
p2521
tp2522
(lp2523
S'to'
p2524
aS'is'
p2525
as(S'whips'
p2526
tp2527
(lp2528
S'putting'
p2529
as(S'wamables'
p2530
tp2531
(lp2532
S'nigga'
p2533
aS'these'
p2534
as(g251
tp2535
(lp2536
S'movie'
p2537
aS'sequel'
p2538
aS'senseless'
p2539
aS'pill'
p2540
aS'fact'
p2541
aS'heart'
p2542
aS'record'
p2543
aS'wedding'
p2544
aS'peasant'
p2545
aS'bow'
p2546
aS'present'
p2547
aS'mistake'
p2548
aS'magician'
p2549
aS'beautician'
p2550
aS'good'
p2551
aS'black'
p2552
aS'bad'
p2553
aS'bad'
p2554
aS'number'
p2555
aS'Rap'
p2556
aS'glacier'
p2557
aS'laser'
p2558
aS'cupcake'
p2559
aS'setup'
p2560
aS'punchline'
p2561
aS'fuck'
p2562
aS'G5'
p2563
aS'update'
p2564
aS'problem'
p2565
aS'Perc'
p2566
aS'ho'
p2567
aS'bitch'
p2568
aS'nigga'
p2569
aS'big'
p2570
aS'ninja'
p2571
aS'machete'
p2572
aS'UPS'
p2573
aS"widow's"
p2574
aS'keep'
p2575
aS'linebacker'
p2576
aS'lighter'
p2577
aS'bad'
p2578
aS'lucky'
p2579
aS'bitch'
p2580
aS'friend'
p2581
aS'teacher'
p2582
aS'fan'
p2583
aS'real'
p2584
aS'humble'
p2585
aS'sundown'
p2586
aS'lot'
p2587
aS'buzz'
p2588
aS'ghetto'
p2589
aS'piece'
p2590
aS'ninja'
p2591
aS'cop'
p2592
aS'hashtag'
p2593
aS'palace'
p2594
aS'half'
p2595
aS'pill'
p2596
aS'tower'
p2597
aS'nigga\xe2'
p2598
aS'Benzy'
p2599
aS'frenzy'
p2600
aS'fraud'
p2601
aS'python'
p2602
aS'quarter'
p2603
aS'bill'
p2604
aS'blank'
p2605
aS'heart'
p2606
aS'felony'
p2607
aS'million'
p2608
aS'drug'
p2609
aS'tissue'
p2610
aS'matter'
p2611
aS'ditch'
p2612
aS'regular'
p2613
aS'regular'
p2614
aS'knife'
p2615
aS'deposit'
p2616
aS'mix-up'
p2617
aS'poet'
p2618
aS'bottle'
p2619
aS'monster'
p2620
aS'bad'
p2621
aS'magician'
p2622
aS'website'
p2623
aS'milli'
p2624
aS'65'
p2625
aS'single'
p2626
aS'single'
p2627
aS'stand-up'
p2628
aS'wack'
p2629
aS'man'
p2630
aS'dentist'
p2631
aS'lot'
p2632
aS'nigga'
p2633
aS'feature'
p2634
aS'lap'
p2635
aS'leg'
p2636
aS'ledge'
p2637
aS'pledge'
p2638
aS'lightskin'
p2639
aS'sledge'
p2640
aS'recess'
p2641
aS'seesaw'
p2642
aS'game'
p2643
aS'hybrid'
p2644
as(S'was'
p2645
tp2646
(lp2647
S"'o-six"
p2648
aS'all'
p2649
aS'ready'
p2650
aS'my'
p2651
aS'good'
p2652
aS'magic'
p2653
ag251
aS'just'
p2654
aS'just'
p2655
ag251
ag251
aS'late'
p2656
aS'Pop'
p2657
aS'me'
p2658
aS'in'
p2659
aS'analyzing'
p2660
aS'criticizing'
p2661
aS'fantasizing'
p2662
aS'wifey'
p2663
aS'liking'
p2664
aS'looking'
p2665
aS"gettin'"
p2666
aS'keeping'
p2667
aS'doin\xe2'
p2668
aS'based'
p2669
aS'caught'
p2670
aS'caught'
p2671
aS'with'
p2672
aS"killin'"
p2673
aS'doing'
p2674
aS'home'
p2675
aS'something'
p2676
aS'something'
p2677
aS'just'
p2678
aS'hoping'
p2679
aS'something'
p2680
aS'gettin\xe2'
p2681
aS"playin'"
p2682
aS'just'
p2683
as(S'toy'
p2684
tp2685
(lp2686
S'named'
p2687
as(S'fleek'
p2688
tp2689
(lp2690
S'pretty'
p2691
aS'Pretty'
p2692
as(S'Rihmeek'
p2693
tp2694
(lp2695
S"I'mma"
p2696
as(S'peasant'
p2697
tp2698
(lp2699
S'Got'
p2700
as(S"B'Day"
p2701
tp2702
(lp2703
S'These'
p2704
as(S'sick'
p2705
tp2706
(lp2707
S'when'
p2708
as(S'My'
p2709
tp2710
(lp2711
S'child'
p2712
aS'man'
p2713
aS'name'
p2714
aS'only'
p2715
as(S'MacLaren'
p2716
tp2717
(lp2718
S'with'
p2719
as(S'hotter'
p2720
tp2721
(lp2722
S'than'
p2723
as(S'invite'
p2724
tp2725
(lp2726
S'him'
p2727
as(S'proposed'
p2728
tp2729
(lp2730
g48
as(S'days'
p2731
tp2732
(lp2733
S'man'
p2734
as(S'Saw'
p2735
tp2736
(lp2737
S"That's"
p2738
as(S'house'
p2739
tp2740
(lp2741
S'is'
p2742
as(S'Gotta'
p2743
tp2744
(lp2745
S'protect'
p2746
as(S'Twist'
p2747
tp2748
(lp2749
S'where'
p2750
as(S'too'
p2751
tp2752
(lp2753
S'Fuck'
p2754
ag48
aS'much'
p2755
aS'clutch'
p2756
aS'busy'
p2757
as(S'whacks'
p2758
tp2759
(lp2760
S'off'
p2761
as(S'Big'
p2762
tp2763
(lp2764
S'dope'
p2765
as(S'copped'
p2766
tp2767
(lp2768
S'me'
p2769
as(S'four'
p2770
tp2771
(lp2772
S"I'm"
p2773
as(S'most'
p2774
tp2775
(lp2776
g48
aS'of'
p2777
as(S'show'
p2778
tp2779
(lp2780
S'forgiveness'
p2781
aS'it'
p2782
aS'bitches'
p2783
aS'it'
p2784
as(S'bridges'
p2785
tp2786
(lp2787
S'you'
p2788
as(S'wire'
p2789
tp2790
(lp2791
S'to'
p2792
as(S'shorter'
p2793
tp2794
(lp2795
S'than'
p2796
as(S'sneakers'
p2797
tp2798
(lp2799
S'on'
p2800
as(S'beyond'
p2801
tp2802
(lp2803
S'what'
p2804
as(S'queen'
p2805
tp2806
(lp2807
S"it's"
p2808
aS'niggas'
p2809
aS'niggas'
p2810
as(S'cost'
p2811
tp2812
(lp2813
S'25k'
p2814
as(S'putting'
p2815
tp2816
(lp2817
S'kitten'
p2818
as(S"twerkin'"
p2819
tp2820
(lp2821
S'it'
p2822
as(S'G5'
p2823
tp2824
(lp2825
S'is'
p2826
as(g167
tp2827
(lp2828
S'em'
p2829
aS'em'
p2830
aS'Cause'
p2831
aS'Cause'
p2832
aS'Cause'
p2833
aS'Cause'
p2834
aS'bout'
p2835
aS'em'
p2836
aS'head'
p2837
aS'em'
p2838
aS'em'
p2839
as(S'mix'
p2840
tp2841
(lp2842
S'it'
p2843
as(S'me-tell'
p2844
tp2845
(lp2846
S'me'
p2847
as(S'yes'
p2848
tp2849
(lp2850
g48
aS'my'
p2851
as(S'spaghetti'
p2852
tp2853
(lp2854
g48
as(S'hit'
p2855
tp2856
(lp2857
S'the'
p2858
aS'him'
p2859
aS'it'
p2860
ag251
aS'you'
p2861
as(S'care'
p2862
tp2863
(lp2864
S'of'
p2865
as(S'setup'
p2866
tp2867
(lp2868
S'for'
p2869
as(S'Missed'
p2870
tp2871
(lp2872
S'my'
p2873
as(S'wassup'
p2874
tp2875
(lp2876
S'Is'
p2877
as(S'flow'
p2878
tp2879
(lp2880
g48
aS'Yo'
p2881
aS'shitty'
p2882
as(S'cut'
p2883
tp2884
(lp2885
S'me'
p2886
aS'you'
p2887
aS'her'
p2888
as(S'hot'
p2889
tp2890
(lp2891
S'shit'
p2892
as(S'abusive'
p2893
tp2894
(lp2895
S'by'
p2896
as(S'Skype'
p2897
tp2898
(lp2899
S'ya'
p2900
as(S'union'
p2901
tp2902
(lp2903
S'they'
p2904
as(S'eyelid'
p2905
tp2906
(lp2907
g48
as(S'talking'
p2908
tp2909
(lp2910
S'about'
p2911
aS'about'
p2912
aS'about'
p2913
aS'and'
p2914
as(S'had'
p2915
tp2916
(lp2917
S'to'
p2918
aS'the'
p2919
aS'enough'
p2920
aS'Eminem'
p2921
aS'Kanye'
p2922
aS'them'
p2923
aS'what'
p2924
ag251
aS'all'
p2925
as(S'dentist'
p2926
tp2927
(lp2928
S'Your'
p2929
as(S'Belly'
p2930
tp2931
(lp2932
S"God's"
p2933
as(S"livin'"
p2934
tp2935
(lp2936
S'bi-coastal'
p2937
as(S'my'
p2938
tp2939
(lp2940
S'daughter'
p2941
aS'little'
p2942
aS'business'
p2943
aS'mother'
p2944
aS'all'
p2945
aS'insecurities'
p2946
aS'ego'
p2947
aS'jump'
p2948
aS'free'
p2949
aS'Asian'
p2950
aS'panties'
p2951
aS'ass'
p2952
aS'dues'
p2953
aS'Kate'
p2954
aS'tax'
p2955
aS'Maybach'
p2956
aS'mask'
p2957
aS'records'
p2958
aS'finger'
p2959
aS'skirt'
p2960
aS'call'
p2961
aS'life'
p2962
aS'ass'
p2963
aS'butt'
p2964
aS'sons'
p2965
aS'man'
p2966
aS'idea'
p2967
aS'son'
p2968
aS'dividend'
p2969
aS'niggas'
p2970
aS"B'Day"
p2971
aS'name'
p2972
aS'own'
p2973
aS'pocket'
p2974
aS'pocket'
p2975
aS'face'
p2976
aS'tits'
p2977
aS'millions'
p2978
aS'Rolls'
p2979
aS'son'
p2980
aS'last'
p2981
aS'mean'
p2982
aS'hands'
p2983
aS'palace'
p2984
aS'style'
p2985
aS'videos'
p2986
aS'mind'
p2987
aS'Canadian'
p2988
aS'purse'
p2989
aS'automobile'
p2990
aS'sex'
p2991
aS'salad'
p2992
aS'automobile'
p2993
aS'sex'
p2994
aS'order'
p2995
aS'friends'
p2996
aS'contacts'
p2997
aS'boots'
p2998
aS'eyes'
p2999
aS'sneakers'
p3000
aS'niggas'
p3001
aS'shoe'
p3002
aS'dick'
p3003
aS'hand'
p3004
aS'closet'
p3005
aS'spot'
p3006
aS'way'
p3007
aS'wrist'
p3008
aS'bitches'
p3009
aS'bitches'
p3010
aS'real'
p3011
aS'wamables'
p3012
aS'wamables'
p3013
aS'ass'
p3014
aS'EP'
p3015
aS'lap'
p3016
aS'Birkin'
p3017
aS'Giuseppe'
p3018
aS'pockets'
p3019
as(S"fuckin'"
p3020
tp3021
(lp3022
S"wit'"
p3023
aS'with'
p3024
as(S'doves'
p3025
tp3026
(lp3027
S'You'
p3028
as(S'based'
p3029
tp3030
(lp3031
S'off'
p3032
as(S'rivals'
p3033
tp3034
(lp3035
S'But'
p3036
as(S'walk'
p3037
tp3038
(lp3039
S'in'
p3040
as(S'sexy'
p3041
tp3042
(lp3043
S'he'
p3044
as(S'Daddy'
p3045
tp3046
(lp3047
S"I'm"
p3048
as(S'Brisbane'
p3049
tp3050
(lp3051
S'Your'
p3052
as(S'route'
p3053
tp3054
(lp3055
S'Uhn'
p3056
as(S'lightskin'
p3057
tp3058
(lp3059
S'nigga'
p3060
as(S'Hart'
p3061
tp3062
(lp3063
S"y'all"
p3064
as(S'ambition'
p3065
tp3066
(lp3067
S'This'
p3068
as(S'bricks'
p3069
tp3070
(lp3071
S'up'
p3072
aS'up'
p3073
as(S'G-code'
p3074
tp3075
(lp3076
S'Bitches'
p3077
as(S'em'
p3078
tp3079
(lp3080
g48
aS'You'
p3081
aS'to'
p3082
aS'niggas'
p3083
aS'niggas'
p3084
as(S'bitches'
p3085
tp3086
(lp3087
S"don't"
p3088
aS'will'
p3089
aS'where'
p3090
aS'who'
p3091
aS'we'
p3092
aS'blow'
p3093
aS'trying'
p3094
aS'got'
p3095
aS'suck'
p3096
aS'BJ'
p3097
aS'is'
p3098
aS'get'
p3099
aS'will'
p3100
aS"ain't"
p3101
aS"ain't"
p3102
aS'is'
p3103
aS'in'
p3104
aS"can't"
p3105
aS'all'
p3106
aS'will'
p3107
aS'and'
p3108
aS'and'
p3109
aS'is'
p3110
aS"can't"
p3111
aS'Just'
p3112
aS'Why'
p3113
aS'is'
p3114
aS'in'
p3115
aS"gon'"
p3116
aS"thinkin'"
p3117
aS"thinkin'"
p3118
aS'loud'
p3119
as(S'Alexander'
p3120
tp3121
(lp3122
S'made'
p3123
aS'McQueen'
p3124
as(S'seven'
p3125
tp3126
(lp3127
S'years'
p3128
as(S'looked'
p3129
tp3130
(lp3131
S'down'
p3132
aS'in'
p3133
as(S'out'
p3134
tp3135
(lp3136
S'your'
p3137
aS'and'
p3138
aS'in'
p3139
aS'of'
p3140
aS'here'
p3141
ag251
aS"don't"
p3142
aS'and'
p3143
aS'All'
p3144
aS'Niggas'
p3145
ag167
aS'and'
p3146
aS'All'
p3147
aS'Niggas'
p3148
aS'This'
p3149
aS'and'
p3150
aS'still'
p3151
aS'You'
p3152
ag167
aS'and'
p3153
aS'still'
p3154
aS'You'
p3155
aS'All'
p3156
aS"lookin'"
p3157
aS'my'
p3158
aS"'09"
p3159
aS'Lewinsky'
p3160
ag48
ag48
ag48
aS'They'
p3161
aS'skated'
p3162
aS'loud'
p3163
aS'in'
p3164
aS'in'
p3165
as(S'Queen'
p3166
tp3167
(lp3168
S'and'
p3169
aS'Bey'
p3170
aS"I'm"
p3171
ag517
aS'come'
p3172
as(S'Oh'
p3173
tp3174
(lp3175
S'you'
p3176
aS'Is'
p3177
aS'these'
p3178
as(S"slammin'"
p3179
tp3180
(lp3181
S'doors'
p3182
as(S"God's"
p3183
tp3184
(lp3185
S'son'
p3186
as(S'shared'
p3187
tp3188
(lp3189
S'and'
p3190
as(S'deli'
p3191
tp3192
(lp3193
S'If'
p3194
as(S'relate'
p3195
tp3196
(lp3197
g48
as(S'agendas'
p3198
tp3199
(lp3200
S'Rock'
p3201
as(S'Clubs'
p3202
tp3203
(lp3204
S'Hit'
p3205
as(S'diet'
p3206
tp3207
(lp3208
S'is'
p3209
as(S'eat'
p3210
tp3211
(lp3212
S'my'
p3213
aS'it'
p3214
aS'it'
p3215
as(S'shoes'
p3216
tp3217
(lp3218
S'My'
p3219
as(S'flying'
p3220
tp3221
(lp3222
S'Is'
p3223
as(S'brake'
p3224
tp3225
(lp3226
S'lines'
p3227
as(S'Eminem'
p3228
tp3229
(lp3230
S'on'
p3231
as(S'Donna'
p3232
tp3233
(lp3234
S'Karan'
p3235
as(S'big'
p3236
tp3237
(lp3238
S'kahuna'
p3239
aS'titties'
p3240
aS'butt'
p3241
aS'problem'
p3242
aS'boys'
p3243
aS'boy'
p3244
aS'boy'
p3245
as(S'late'
p3246
tp3247
(lp3248
S'Dinner'
p3249
aS'to'
p3250
aS'night'
p3251
as(S'bae'
p3252
tp3253
(lp3254
S'you'
p3255
as(S'Every'
p3256
tp3257
(lp3258
S'time'
p3259
as(S'weed'
p3260
tp3261
(lp3262
S"I'm"
p3263
as(S'fourth'
p3264
tp3265
(lp3266
S'flow'
p3267
as(S'Dal'
p3268
tp3269
(lp3270
S'Mavericks'
p3271
as(S"Can't"
p3272
tp3273
(lp3274
S'stop'
p3275
as(S'Pussy'
p3276
tp3277
(lp3278
S'put'
p3279
as(S"let's"
p3280
tp3281
(lp3282
S'leave'
p3283
aS'pull'
p3284
as(S'though'
p3285
tp3286
(lp3287
S'they'
p3288
aS'orgasmic'
p3289
aS'Ayo'
p3290
aS'what'
p3291
aS'you'
p3292
aS'Tell'
p3293
aS"Can't"
p3294
as(S'vents'
p3295
tp3296
(lp3297
S'man'
p3298
as(S'let'
p3299
tp3300
(lp3301
S'you'
p3302
aS'the'
p3303
aS'you'
p3304
aS'me'
p3305
aS'Saks'
p3306
aS'that'
p3307
aS'them'
p3308
aS"'em"
p3309
aS'me'
p3310
aS'me'
p3311
aS'him'
p3312
aS'me'
p3313
aS'him'
p3314
aS'him'
p3315
ag251
aS'me'
p3316
as(S'rent'
p3317
tp3318
(lp3319
S'in'
p3320
aS'this'
p3321
as(S'blow'
p3322
tp3323
(lp3324
S'me'
p3325
as(S'Perry'
p3326
tp3327
(lp3328
S"I'm"
p3329
as(S'promoters'
p3330
tp3331
(lp3332
S'brought'
p3333
as(S'dope'
p3334
tp3335
(lp3336
S'girls'
p3337
aS'dealer'
p3338
as(S"Overdosin'"
p3339
tp3340
(lp3341
S'no'
p3342
as(S'NYU'
p3343
tp3344
(lp3345
g48
as(S"prayin'"
p3346
tp3347
(lp3348
S'for'
p3349
as(S'tools'
p3350
tp3351
(lp3352
S'out'
p3353
aS'out'
p3354
as(S'teacher'
p3355
tp3356
(lp3357
S'and'
p3358
as(S"wasn't"
p3359
tp3360
(lp3361
S'looking'
p3362
as(S'inches'
p3363
tp3364
(lp3365
S'Put'
p3366
as(S'Thi-this'
p3367
tp3368
(lp3369
S'dude'
p3370
as(S"Sayin'"
p3371
tp3372
(lp3373
S'we'
p3374
aS'that'
p3375
as(S'V'
p3376
tp3377
(lp3378
S'in-vent'
p3379
aS'like'
p3380
as(S'Kate'
p3381
tp3382
(lp3383
S'Perry'
p3384
aS'Plus'
p3385
as(S'safe'
p3386
tp3387
(lp3388
S'put'
p3389
as(S'record'
p3390
tp3391
(lp3392
S'it'
p3393
aS"I'm"
p3394
aS'Man'
p3395
as(S'smashing'
p3396
tp3397
(lp3398
S'windows'
p3399
as(S'Jag'
p3400
tp3401
(lp3402
S'and'
p3403
aS'Mayweather'
p3404
as(S'Pass'
p3405
tp3406
(lp3407
S'you'
p3408
as(S'your'
p3409
tp3410
(lp3411
S'cards'
p3412
aS'face'
p3413
aS'arm'
p3414
aS'mans'
p3415
aS'soul'
p3416
aS'face'
p3417
aS'nutrition'
p3418
aS'mission'
p3419
aS'rent'
p3420
aS'wife'
p3421
aS'vixen'
p3422
aS'lips'
p3423
aS'first'
p3424
aS'gun'
p3425
aS'status'
p3426
aS'time'
p3427
aS'rivals'
p3428
aS'darkest'
p3429
aS'dawn'
p3430
aS'darkest'
p3431
aS'dawn'
p3432
aS'nigga'
p3433
aS'mouth'
p3434
aS'house'
p3435
aS'nigga'
p3436
aS'chair'
p3437
aS'mileages'
p3438
aS'crack'
p3439
aS'leg'
p3440
aS'hand'
p3441
aS'bitch'
p3442
as(S"I'ma"
p3443
tp3444
(lp3445
S'let'
p3446
aS'need'
p3447
aS'let'
p3448
aS'get'
p3449
aS'mix'
p3450
aS'always'
p3451
as(S'bow'
p3452
tp3453
(lp3454
S'on'
p3455
as(S'Lance'
p3456
tp3457
(lp3458
S'Stephenson'
p3459
as(S'public'
p3460
tp3461
(lp3462
S"Couldn't"
p3463
as(S'near'
p3464
tp3465
(lp3466
S'me'
p3467
as(S'wants'
p3468
tp3469
(lp3470
S'rumors'
p3471
as(S'nigga'
p3472
tp3473
(lp3474
S'like'
p3475
aS'you'
p3476
aS'teach'
p3477
aS'diss'
p3478
aS'These'
p3479
aS'Excuse'
p3480
aS'if'
p3481
aS'let'
p3482
aS"buggin'"
p3483
aS'put'
p3484
aS"'fore"
p3485
aS'ho'
p3486
aS'get'
p3487
aS'lose'
p3488
aS'oohwee'
p3489
aS"I'm"
p3490
aS"ain't"
p3491
aS'drool'
p3492
aS'bed'
p3493
aS'fuck'
p3494
as(S'Detroit'
p3495
tp3496
(lp3497
S'Big'
p3498
as(S'maddest'
p3499
tp3500
(lp3501
S"nothin'"
p3502
as(S'pigs'
p3503
tp3504
(lp3505
S'flying'
p3506
as(S'keeping'
p3507
tp3508
(lp3509
S'me'
p3510
as(S'Hut-hut'
p3511
tp3512
(lp3513
S'one'
p3514
as(S"I've"
p3515
tp3516
(lp3517
S'been'
p3518
as(S'punchlines'
p3519
tp3520
(lp3521
S'or'
p3522
as(S'used'
p3523
tp3524
(lp3525
S'to'
p3526
aS'to'
p3527
as(S'minute'
p3528
tp3529
(lp3530
S'So'
p3531
aS'they'
p3532
as(S'island'
p3533
tp3534
(lp3535
S'girls'
p3536
ag48
as(S'work'
p3537
tp3538
(lp3539
S'the'
p3540
aS"trippin'"
p3541
aS"Takin'"
p3542
aS'through'
p3543
as(S"layin'"
p3544
tp3545
(lp3546
S'out'
p3547
as(S'planning'
p3548
tp3549
(lp3550
g251
as(S'by'
p3551
tp3552
(lp3553
S'nature'
p3554
aS'you'
p3555
aS'my'
p3556
aS'the'
p3557
aS'the'
p3558
aS'ain\xe2'
p3559
as(S'cop'
p3560
tp3561
(lp3562
S'badge'
p3563
aS'cribs'
p3564
as(S'toys'
p3565
tp3566
(lp3567
S'out'
p3568
aS'out'
p3569
as(S'start'
p3570
tp3571
(lp3572
S'to'
p3573
aS"raisin'"
p3574
as(S'Meet'
p3575
tp3576
(lp3577
S'me'
p3578
aS'me'
p3579
as(S'heart'
p3580
tp3581
(lp3582
S'breaker'
p3583
aS'laced'
p3584
ag48
as(S'popped'
p3585
tp3586
(lp3587
g251
as(S'Spyder'
p3588
tp3589
(lp3590
S'You'
p3591
as(S'unless'
p3592
tp3593
(lp3594
S'they'
p3595
as(S'brought'
p3596
tp3597
(lp3598
S'Wayne'
p3599
as(S'Why'
p3600
tp3601
(lp3602
S"didn't"
p3603
aS'these'
p3604
aS'the'
p3605
aS'they'
p3606
aS'you'
p3607
as(S"you're"
p3608
tp3609
(lp3610
S"beggin'"
p3611
aS"workin'"
p3612
aS'away'
p3613
aS'wasting'
p3614
as(S'competing'
p3615
tp3616
(lp3617
S'since'
p3618
as(S'wasting'
p3619
tp3620
(lp3621
S'your'
p3622
as(S'apparent'
p3623
tp3624
(lp3625
S'in'
p3626
as(S"gettin'"
p3627
tp3628
(lp3629
S'gifts'
p3630
aS'plaques'
p3631
aS'some'
p3632
aS'money'
p3633
as(S'crying'
p3634
tp3635
(lp3636
S'game'
p3637
aS'game'
p3638
aS'Get'
p3639
as(S'classy'
p3640
tp3641
(lp3642
S'and'
p3643
as(S'Bruckner'
p3644
tp3645
(lp3646
S"It's"
p3647
as(S'pocket'
p3648
tp3649
(lp3650
g48
aS'so'
p3651
aS'I\xe2'
p3652
as(S'Everything'
p3653
tp3654
(lp3655
S'you'
p3656
as(S'GP'
p3657
tp3658
(lp3659
S'real'
p3660
as(S'got'
p3661
tp3662
(lp3663
S'fame'
p3664
aS'to'
p3665
aS'me'
p3666
aS'that'
p3667
aS'punchlines'
p3668
aS"B's"
p3669
aS'nothing'
p3670
aS'diabetes'
p3671
aS'your'
p3672
aS'them'
p3673
ag251
aS"ki's"
p3674
aS'the'
p3675
ag251
aS'baggage'
p3676
aS'friends'
p3677
aS'was'
p3678
aS'me'
p3679
aS"'til"
p3680
aS"'til"
p3681
aS'jokes'
p3682
ag251
aS"'em"
p3683
aS'that'
p3684
aS'drive'
p3685
aS'good'
p3686
aS'no'
p3687
as(S'loss'
p3688
tp3689
(lp3690
S'young'
p3691
as(S'whole'
p3692
tp3693
(lp3694
S'style'
p3695
as(S'roll'
p3696
tp3697
(lp3698
S'down'
p3699
aS'Ask'
p3700
as(S'python'
p3701
tp3702
(lp3703
S'strap'
p3704
as(S'fit'
p3705
tp3706
(lp3707
S'in'
p3708
as(S'slide'
p3709
tp3710
(lp3711
S'in'
p3712
as(S'size'
p3713
tp3714
(lp3715
S'of'
p3716
as(S'skirt'
p3717
tp3718
(lp3719
S'and'
p3720
as(S'records'
p3721
tp3722
(lp3723
S"that's"
p3724
as(S'people'
p3725
tp3726
(lp3727
S'saying'
p3728
aS'Life'
p3729
aS'for'
p3730
aS'will'
p3731
as(S'Front'
p3732
tp3733
(lp3734
S'like'
p3735
as(S'Kings'
p3736
tp3737
(lp3738
S'of'
p3739
as(S'butter'
p3740
tp3741
(lp3742
S'Benz'
p3743
as(S"wilin'"
p3744
tp3745
(lp3746
S"I'm"
p3747
as(S'speaking'
p3748
tp3749
(lp3750
S'I\xe2'
p3751
as(S'winter'
p3752
tp3753
(lp3754
S'fresh'
p3755
aS'fresh'
p3756
as(S'salad'
p3757
tp3758
(lp3759
S'like'
p3760
as(S'call'
p3761
tp3762
(lp3763
S'me'
p3764
aS'list'
p3765
aS'me'
p3766
aS'they'
p3767
as(S'They'
p3768
tp3769
(lp3770
S'think'
p3771
aS'want'
p3772
aS"ain't"
p3773
aS'love'
p3774
aS'see'
p3775
aS'say'
p3776
aS'say'
p3777
aS'say'
p3778
aS'say'
p3779
aS'know'
p3780
aS'said'
p3781
aS'want'
p3782
aS'diss'
p3783
aS"couldn't"
p3784
as(S'nage'
p3785
tp3786
(lp3787
S'with'
p3788
as(S'away'
p3789
tp3790
(lp3791
g48
as(S'reflect'
p3792
tp3793
(lp3794
S'on'
p3795
as(S'coco'
p3796
tp3797
(lp3798
S'Why'
p3799
as(S'cat'
p3800
tp3801
(lp3802
S'He'
p3803
as(S'Peanut'
p3804
tp3805
(lp3806
S'butter'
p3807
as(S'showing'
p3808
tp3809
(lp3810
S'yet'
p3811
as(S'talented'
p3812
tp3813
(lp3814
S"I'm"
p3815
as(S'tears'
p3816
tp3817
(lp3818
S'roll'
p3819
as(S'won'
p3820
tp3821
(lp3822
S'now'
p3823
as(S'status'
p3824
tp3825
(lp3826
S'Cause'
p3827
as(S'miss'
p3828
tp3829
(lp3830
S'the'
p3831
aS'each'
p3832
aS'him'
p3833
aS'you'
p3834
aS'you'
p3835
aS'Nicki'
p3836
as(S'this'
p3837
tp3838
(lp3839
S'clear'
p3840
aS'imprint'
p3841
aS'is'
p3842
aS'love'
p3843
aS'shit'
p3844
aS"learnin'"
p3845
aS'We'
p3846
aS'song'
p3847
aS'bitch'
p3848
aS'bitch'
p3849
aS'the'
p3850
aS'what'
p3851
aS'what'
p3852
aS'day'
p3853
aS'nigga'
p3854
aS'wrist'
p3855
aS'bitch'
p3856
aS'bitch'
p3857
aS'is'
p3858
aS'is'
p3859
aS'money'
p3860
ag251
ag48
aS'hope'
p3861
as(S'own'
p3862
tp3863
(lp3864
S'column'
p3865
aS'party'
p3866
as(S'chill'
p3867
tp3868
(lp3869
S'out'
p3870
aS'And'
p3871
aS'And'
p3872
as(S'Welcome'
p3873
tp3874
(lp3875
S'to'
p3876
as(S'feast'
p3877
tp3878
(lp3879
S'off'
p3880
as(S'lips'
p3881
tp3882
(lp3883
S'Dividing'
p3884
aS'in'
p3885
as(S'Ask'
p3886
tp3887
(lp3888
S'Jay'
p3889
aS'me'
p3890
as(S'drug'
p3891
tp3892
(lp3893
S'that'
p3894
as(S'hidden'
p3895
tp3896
(lp3897
S'in'
p3898
as(S'celly'
p3899
tp3900
(lp3901
S'watching'
p3902
as(S'approach'
p3903
tp3904
(lp3905
g48
as(S'fo-fours'
p3906
tp3907
(lp3908
S"I'm"
p3909
as(S'laughing'
p3910
tp3911
(lp3912
S'when'
p3913
as(S'Gee'
p3914
tp3915
(lp3916
S'we'
p3917
as(S'lifted'
p3918
tp3919
(lp3920
S'Live'
p3921
as(S'someone'
p3922
tp3923
(lp3924
S'to'
p3925
as(S'change'
p3926
tp3927
(lp3928
S'their'
p3929
aS'for'
p3930
aS'for'
p3931
as(S'tough'
p3932
tp3933
(lp3934
S'but'
p3935
as(S'daffodils'
p3936
tp3937
(lp3938
S"I'm"
p3939
as(S'rappers'
p3940
tp3941
(lp3942
S"ain't"
p3943
as(S'hard'
p3944
tp3945
(lp3946
g48
aS'to'
p3947
as(S'tight'
p3948
tp3949
(lp3950
g48
as(S"that'll"
p3951
tp3952
(lp3953
S'let'
p3954
aS'break'
p3955
as(S'ego'
p3956
tp3957
(lp3958
S'Missed'
p3959
as(S'magician'
p3960
tp3961
(lp3962
S'Paid'
p3963
aS"I'm"
p3964
as(S'things'
p3965
tp3966
(lp3967
S'of'
p3968
as(S'wished'
p3969
tp3970
(lp3971
S'you'
p3972
as(S'panel'
p3973
tp3974
(lp3975
S'for'
p3976
as(S'straight'
p3977
tp3978
(lp3979
S'These'
p3980
ag48
as(S'integrity'
p3981
tp3982
(lp3983
S"Don't"
p3984
as(S'poet'
p3985
tp3986
(lp3987
S'pop'
p3988
as(S'next'
p3989
tp3990
(lp3991
S'day'
p3992
as(S'African'
p3993
tp3994
(lp3995
S'European'
p3996
as(S'order'
p3997
tp3998
(lp3999
S'back'
p4000
as(S'poster'
p4001
tp4002
(lp4003
S'girls'
p4004
as(S'VIPs'
p4005
tp4006
(lp4007
S'nigga'
p4008
as(S"Takin'"
p4009
tp4010
(lp4011
S'trips'
p4012
as(S'insecurities'
p4013
tp4014
(lp4015
S'and'
p4016
as(S'flawless'
p4017
tp4018
(lp4019
S'we'
p4020
as(S'ticking'
p4021
tp4022
(lp4023
S'you'
p4024
as(S'night'
p4025
tp4026
(lp4027
S'on'
p4028
aS'that'
p4029
as(S'sake'
p4030
tp4031
(lp4032
S'If'
p4033
as(S"gon'"
p4034
tp4035
(lp4036
S'be'
p4037
aS'hangover'
p4038
aS'get'
p4039
aS'hate'
p4040
as(S'bank'
p4041
tp4042
(lp4043
S"it's"
p4044
as(S'around'
p4045
tp4046
(lp4047
S'him'
p4048
aS'with'
p4049
aS'and'
p4050
aS'shorter'
p4051
aS'like'
p4052
as(S'To'
p4053
tp4054
(lp4055
S'Be'
p4056
as(S'Niggas'
p4057
tp4058
(lp4059
S'trying'
p4060
aS'want'
p4061
aS'be'
p4062
aS'be'
p4063
aS'know'
p4064
aS'know'
p4065
as(S'heat'
p4066
tp4067
(lp4068
S'in'
p4069
as(S'banging'
p4070
tp4071
(lp4072
S'that'
p4073
aS'that'
p4074
as(S'wrist'
p4075
tp4076
(lp4077
S'game'
p4078
aS'bricky'
p4079
aS'off'
p4080
as(S'calling'
p4081
tp4082
(lp4083
S'me'
p4084
as(S'stare'
p4085
tp4086
(lp4087
S'and'
p4088
as(S'Miss'
p4089
tp4090
(lp4091
S'the'
p4092
as(S"doin'"
p4093
tp4094
(lp4095
S'good'
p4096
as(S'He'
p4097
tp4098
(lp4099
S'be'
p4100
aS'said'
p4101
aS'said'
p4102
aS'got'
p4103
aS'could'
p4104
aS'was'
p4105
aS'said'
p4106
aS"don't"
p4107
aS'tryna'
p4108
aS'tryna'
p4109
aS"don't"
p4110
aS'wanna'
p4111
aS'gonna'
p4112
aS'can'
p4113
aS'toss'
p4114
aS'can'
p4115
aS'say'
p4116
aS'got'
p4117
aS'copped'
p4118
aS'not'
p4119
as(S'eleven'
p4120
tp4121
(lp4122
S'you'
p4123
as(S"D'ed"
p4124
tp4125
(lp4126
S'up'
p4127
as(S'dividend'
p4128
tp4129
(lp4130
S'is'
p4131
as(S'replace'
p4132
tp4133
(lp4134
S'But'
p4135
as(S'fucked'
p4136
tp4137
(lp4138
S'Wayne'
p4139
aS'Drake'
p4140
as(S'bottle'
p4141
tp4142
(lp4143
S'service'
p4144
aS'service'
p4145
aS'of'
p4146
as(S'rag'
p4147
tp4148
(lp4149
S'If'
p4150
as(S'Metta'
p4151
tp4152
(lp4153
S'World'
p4154
as(S'industry'
p4155
tp4156
(lp4157
S'parties'
p4158
as(S'Nothing'
p4159
tp4160
(lp4161
S"ain't"
p4162
as(S'feelings'
p4163
tp4164
(lp4165
S"can't"
p4166
as(S'peak'
p4167
tp4168
(lp4169
S"It's"
p4170
as(S'protect'
p4171
tp4172
(lp4173
S'me'
p4174
as(S'Jelani'
p4175
tp4176
(lp4177
S'will'
p4178
as(S'telling'
p4179
tp4180
(lp4181
S'me'
p4182
aS'me'
p4183
aS'me'
p4184
aS'me'
p4185
aS'me'
p4186
as(S'Diddy'
p4187
tp4188
(lp4189
S"I'm"
p4190
aS'retire'
p4191
as(S'Sheets'
p4192
tp4193
(lp4194
S'all'
p4195
as(S"stayin'"
p4196
tp4197
(lp4198
S'or'
p4199
aS'out'
p4200
as(S'Roll'
p4201
tp4202
(lp4203
S'that'
p4204
as(S'South'
p4205
tp4206
(lp4207
S'African'
p4208
as(S'always'
p4209
tp4210
(lp4211
S'love'
p4212
aS'love'
p4213
aS'keep'
p4214
aS'make'
p4215
aS'make'
p4216
aS'at'
p4217
aS'keep'
p4218
as(S'when'
p4219
tp4220
(lp4221
S'you'
p4222
aS"I'm"
p4223
aS"you're"
p4224
aS'you'
p4225
aS'he'
p4226
ag251
aS'they'
p4227
aS'you'
p4228
aS'you'
p4229
aS"you're"
p4230
aS'we'
p4231
aS'them'
p4232
aS'And'
p4233
aS'really'
p4234
aS'it\xe2'
p4235
aS'they'
p4236
aS'they'
p4237
aS'they'
p4238
aS'I\xe2'
p4239
ag48
ag48
aS'niggas'
p4240
aS'you'
p4241
aS'promoters'
p4242
aS'the'
p4243
as(S'Soon'
p4244
tp4245
(lp4246
S'as'
p4247
aS'as'
p4248
as(S"playin'"
p4249
tp4250
(lp4251
S'with'
p4252
aS'out'
p4253
as(S'eyes'
p4254
tp4255
(lp4256
S'the'
p4257
aS"You'd"
p4258
as(S'wife'
p4259
tp4260
(lp4261
S'be'
p4262
as(S'paid'
p4263
tp4264
(lp4265
S'for'
p4266
as(S'vixen'
p4267
tp4268
(lp4269
S'give'
p4270
as(S'notice'
p4271
tp4272
(lp4273
S"'em"
p4274
as(S'Texas'
p4275
tp4276
(lp4277
S'feed'
p4278
as(S'kid'
p4279
tp4280
(lp4281
S'They'
p4282
as(S'Makaveli'
p4283
tp4284
(lp4285
S'Peanut'
p4286
as(S'Floyd\xe2'
p4287
tp4288
(lp4289
g1027
ag1027
as(S'gettin\xe2'
p4290
tp4291
(lp4292
S'they'
p4293
as(S'syringes'
p4294
tp4295
(lp4296
S'He'
p4297
as(S'am'
p4298
tp4299
(lp4300
g48
ag251
aS'the'
p4301
aS'the'
p4302
aS'in'
p4303
ag251
aS'not'
p4304
aS'not'
p4305
as(S'indict'
p4306
tp4307
(lp4308
S'her'
p4309
as(S'appeal'
p4310
tp4311
(lp4312
S'Say'
p4313
aS'He'
p4314
as(S'seats'
p4315
tp4316
(lp4317
S'Why'
p4318
as(S'mess'
p4319
tp4320
(lp4321
S'with'
p4322
as(S'benches'
p4323
tp4324
(lp4325
S'So'
p4326
as(S'will'
p4327
tp4328
(lp4329
S'always'
p4330
aS'never'
p4331
aS'remember'
p4332
aS'love'
p4333
aS'be'
p4334
aS'shoot'
p4335
aS'get'
p4336
aS'miss'
p4337
as(S'girl'
p4338
tp4339
(lp4340
S'in'
p4341
aS'He'
p4342
as(S'ride'
p4343
tp4344
(lp4345
S'motorcycles'
p4346
as(S'he'
p4347
tp4348
(lp4349
S'wanted'
p4350
aS'ask'
p4351
aS"ain't"
p4352
aS'saw'
p4353
aS'whacks'
p4354
aS'in'
p4355
aS'just'
p4356
aS'be'
p4357
aS'can'
p4358
aS"ain't"
p4359
aS'in'
p4360
aS'want'
p4361
aS"playin'"
p4362
aS'shoot'
p4363
aS'was'
p4364
aS'live'
p4365
aS'was'
p4366
aS'say'
p4367
aS"tellin'"
p4368
aS'telling'
p4369
aS'love'
p4370
aS"don't"
p4371
aS'want'
p4372
aS'can'
p4373
aS'calling'
p4374
aS'slang'
p4375
aS'say'
p4376
aS'telling'
p4377
aS'telling'
p4378
aS'love'
p4379
aS"don't"
p4380
aS'want'
p4381
aS'can'
p4382
aS'sexy'
p4383
aS'planking'
p4384
aS'ordered'
p4385
aS'say'
p4386
aS're-up'
p4387
aS'would'
p4388
aS'married'
p4389
as(S'imprint'
p4390
tp4391
(lp4392
S'Just'
p4393
as(S'Jay'
p4394
tp4395
(lp4396
S'who'
p4397
as(S"I'd"
p4398
tp4399
(lp4400
S'give'
p4401
aS'm\xc3'
p4402
as(S'stand-up'
p4403
tp4404
(lp4405
S'or'
p4406
as(S'lit'
p4407
tp4408
(lp4409
S'without'
p4410
as(S'matter'
p4411
tp4412
(lp4413
S'of'
p4414
aS'of'
p4415
as(S'contact'
p4416
tp4417
(lp4418
S'Everything'
p4419
as(S'Automatic'
p4420
tp4421
(lp4422
S'bottle'
p4423
as(S'cherish'
p4424
tp4425
(lp4426
S'these'
p4427
as(S'Benz'
p4428
tp4429
(lp4430
S'got'
p4431
as(S'uppercut'
p4432
tp4433
(lp4434
S"I'm"
p4435
as(S'But'
p4436
tp4437
(lp4438
g48
aS'fuck'
p4439
aS'is'
p4440
aS'he'
p4441
aS'when'
p4442
aS'what'
p4443
aS'you'
p4444
aS'we'
p4445
ag48
ag48
aS'there'
p4446
aS'there'
p4447
aS'there'
p4448
aS'I\xe2'
p4449
aS'all'
p4450
ag48
aS'watch'
p4451
aS'bi-bitches'
p4452
as(S'percocets'
p4453
tp4454
(lp4455
g48
as(S'Real'
p4456
tp4457
(lp4458
S'country-ass'
p4459
aS'niggas'
p4460
as(S'slugs'
p4461
tp4462
(lp4463
S'Welcome'
p4464
as(S'gooder'
p4465
tp4466
(lp4467
S'than'
p4468
as(S'happy'
p4469
tp4470
(lp4471
S'they'
p4472
as(S'service'
p4473
tp4474
(lp4475
S'so'
p4476
aS'he'
p4477
as(S'grills'
p4478
tp4479
(lp4480
S'and'
p4481
aS'and'
p4482
as(S'caught'
p4483
tp4484
(lp4485
S'up'
p4486
aS'up'
p4487
as(S'play'
p4488
tp4489
(lp4490
S'your'
p4491
aS'with'
p4492
aS'you'
p4493
aS'the'
p4494
aS'with'
p4495
aS'Pinkprint'
p4496
ag251
as(S'Or'
p4497
tp4498
(lp4499
S'we'
p4500
as(S'sauce'
p4501
tp4502
(lp4503
S'On'
p4504
as(S'Birkin'
p4505
tp4506
(lp4507
S'where'
p4508
aS'bag'
p4509
as(S'somebody'
p4510
tp4511
(lp4512
S'that'
p4513
as(S'tonight'
p4514
tp4515
(lp4516
S'is'
p4517
as(S'classic'
p4518
tp4519
(lp4520
S'But'
p4521
as(S'female'
p4522
tp4523
(lp4524
S'rapper'
p4525
as(S'funny'
p4526
tp4527
(lp4528
S"That's"
p4529
aS"I'mma"
p4530
as(S'Rock'
p4531
tp4532
(lp4533
S'with'
p4534
as(S'sitting'
p4535
tp4536
(lp4537
S'with'
p4538
as(S'gift'
p4539
tp4540
(lp4541
S'is'
p4542
as(S'it\xe2'
p4543
tp4544
(lp4545
g1027
ag1027
ag1027
ag1027
as(S'dudes'
p4546
tp4547
(lp4548
S'the'
p4549
aS'is'
p4550
aS'out'
p4551
aS'out'
p4552
as(S'still'
p4553
tp4554
(lp4555
S'show'
p4556
aS"gettin'"
p4557
aS'respect'
p4558
aS"didn't"
p4559
aS'getting'
p4560
aS'don\xe2'
p4561
aS'banging'
p4562
aS'banging'
p4563
aS'got'
p4564
aS'the'
p4565
aS'the'
p4566
aS'the'
p4567
as(S'hut-hut'
p4568
tp4569
(lp4570
S'two'
p4571
as(S'make'
p4572
tp4573
(lp4574
S'this'
p4575
aS'me'
p4576
ag251
aS'it'
p4577
aS'it'
p4578
aS'them'
p4579
aS'sure'
p4580
aS'sure'
p4581
aS'him'
p4582
aS'sure'
p4583
aS'me'
p4584
aS'eye'
p4585
ag251
ag251
aS'me'
p4586
aS'that'
p4587
aS'it'
p4588
ag251
as(S'bill'
p4589
tp4590
(lp4591
S'in'
p4592
as(S'American'
p4593
tp4594
(lp4595
S'girls'
p4596
as(S'ice'
p4597
tp4598
(lp4599
S'skate'
p4600
aS'and'
p4601
as(S'boy'
p4602
tp4603
(lp4604
g48
aS'bitches'
p4605
as(S'toss'
p4606
tp4607
(lp4608
S'Lemme'
p4609
aS'my'
p4610
as(S'closet'
p4611
tp4612
(lp4613
S'Anybody'
p4614
as(S'eighty'
p4615
tp4616
(lp4617
S'thousand'
p4618
as(S'suppose'
p4619
tp4620
(lp4621
g48
as(S'ask'
p4622
tp4623
(lp4624
S'or'
p4625
aS'the'
p4626
aS'on'
p4627
aS'on'
p4628
as(S'recess'
p4629
tp4630
(lp4631
S'playtime'
p4632
as(S'single'
p4633
tp4634
(lp4635
S'sold'
p4636
aS'soul'
p4637
aS'soul'
p4638
as(S'Put'
p4639
tp4640
(lp4641
S'it'
p4642
aS'you'
p4643
aS'your'
p4644
as(S'Bridge-y'
p4645
tp4646
(lp4647
S'New'
p4648
aS'New'
p4649
as(S'K-fed'
p4650
tp4651
(lp4652
S'And'
p4653
as(S'sister'
p4654
tp4655
(lp4656
S'said'
p4657
aS'not'
p4658
as(S"'fore"
p4659
tp4660
(lp4661
g48
as(S"beggin'"
p4662
tp4663
(lp4664
g48
aS'me'
p4665
as(S'competition'
p4666
tp4667
(lp4668
S'They'
p4669
as(S'yet'
p4670
tp4671
(lp4672
S'Football'
p4673
aS'Wrist'
p4674
aS'You'
p4675
aS'All'
p4676
aS'Niggas'
p4677
aS'Self-righteous'
p4678
as(S'violence'
p4679
tp4680
(lp4681
S'His'
p4682
as(S'colleges'
p4683
tp4684
(lp4685
S'bust'
p4686
as(S'aggy'
p4687
tp4688
(lp4689
S'These'
p4690
as(S'thought'
p4691
tp4692
(lp4693
S'you'
p4694
aS'eventually'
p4695
as(S'mission'
p4696
tp4697
(lp4698
S'You'
p4699
as(S'sex'
p4700
tp4701
(lp4702
S'appeal'
p4703
aS'appeal'
p4704
aS'fake'
p4705
aS'Real'
p4706
as(S'ring'
p4707
tp4708
(lp4709
S'finger'
p4710
as(S'miles'
p4711
tp4712
(lp4713
S'go'
p4714
as(S'under'
p4715
tp4716
(lp4717
S'my'
p4718
as(S"earnin'"
p4719
tp4720
(lp4721
S"I'm"
p4722
as(S'windows'
p4723
tp4724
(lp4725
S'and'
p4726
as(S'us'
p4727
tp4728
(lp4729
S'straight'
p4730
aS'all'
p4731
ag48
aS'But'
p4732
ag48
aS'at'
p4733
as(S'Tri-State'
p4734
tp4735
(lp4736
g167
as(S'or'
p4737
tp4738
(lp4739
S'am'
p4740
aS"goin'"
p4741
aS'flow'
p4742
aS'the'
p4743
aS'my'
p4744
aS'that'
p4745
aS'that'
p4746
aS'is'
p4747
as(S'imitate'
p4748
tp4749
(lp4750
S'ya'
p4751
as(S'selfie'
p4752
tp4753
(lp4754
S'got'
p4755
as(S'Bill'
p4756
tp4757
(lp4758
S'Bellamy'
p4759
as(S'tax'
p4760
tp4761
(lp4762
S'bracket'
p4763
as(S'earned'
p4764
tp4765
(lp4766
S'that'
p4767
as(S'acting'
p4768
tp4769
(lp4770
S'money'
p4771
aS'funny'
p4772
as(S'tackle'
p4773
tp4774
(lp4775
S'for'
p4776
as(S'home'
p4777
tp4778
(lp4779
S'and'
p4780
aS'alone'
p4781
as(S'damn'
p4782
tp4783
(lp4784
g48
aS"I'mma"
p4785
as(S'tits'
p4786
tp4787
(lp4788
S'He'
p4789
as(S'Nicki'
p4790
tp4791
(lp4792
S'Minaj'
p4793
aS"it's"
p4794
aS'they'
p4795
ag251
aS'Wrist'
p4796
aS'Not'
p4797
aS'still'
p4798
aS'still'
p4799
as(S'rugs'
p4800
tp4801
(lp4802
S'We'
p4803
as(S'Bible'
p4804
tp4805
(lp4806
S'that'
p4807
as(S'Yucka'
p4808
tp4809
(lp4810
S'taking'
p4811
as(S'same'
p4812
tp4813
(lp4814
S'even'
p4815
aS'route'
p4816
as(S'rabbit'
p4817
tp4818
(lp4819
S"Feelin'"
p4820
as(S'floor'
p4821
tp4822
(lp4823
S'and'
p4824
as(S'planet'
p4825
tp4826
(lp4827
S'South'
p4828
as(S'Balenciagas'
p4829
tp4830
(lp4831
S'on'
p4832
as(S'you\xe2'
p4833
tp4834
(lp4835
S're'
p4836
as(S'but'
p4837
tp4838
(lp4839
S"there'll"
p4840
ag48
aS"it's"
p4841
aS'enough'
p4842
aS"I'm"
p4843
aS'you'
p4844
aS"I'm"
p4845
aS'tape'
p4846
aS"I'm"
p4847
aS'it'
p4848
aS"I'm"
p4849
aS'you'
p4850
aS'we'
p4851
aS'he'
p4852
aS'niggas'
p4853
aS'they'
p4854
aS"I'mma"
p4855
aS"I'mma"
p4856
aS'he'
p4857
aS'that'
p4858
aS'tell'
p4859
ag48
ag48
ag48
ag48
aS"runnin'"
p4860
aS'no'
p4861
aS'get'
p4862
ag48
aS'when'
p4863
as(S'lighter'
p4864
tp4865
(lp4866
S"let's"
p4867
as(S'won\xe2'
p4868
tp4869
(lp4870
g732
as(S'UPS'
p4871
tp4872
(lp4873
S'connect'
p4874
as(S'these'
p4875
tp4876
(lp4877
S'nights'
p4878
aS'people'
p4879
aS'days'
p4880
aS'other'
p4881
aS'Chanel'
p4882
aS'bitches'
p4883
aS'dudes'
p4884
aS'bitches'
p4885
aS'bitches'
p4886
aS'bitches'
p4887
aS'bitches'
p4888
aS'bitches'
p4889
aS'bitches'
p4890
aS'bitches'
p4891
as(S'already'
p4892
tp4893
(lp4894
S'seen'
p4895
as(S'parties'
p4896
tp4897
(lp4898
S'and'
p4899
as(S'seesaw'
p4900
tp4901
(lp4902
S'Bitches'
p4903
as(S'two'
p4904
tp4905
(lp4906
S'with'
p4907
aS'big'
p4908
aS'of'
p4909
aS'and'
p4910
as(S'badge'
p4911
tp4912
(lp4913
S'He'
p4914
as(S'friend'
p4915
tp4916
(lp4917
S'be'
p4918
as(S'oceans'
p4919
tp4920
(lp4921
S'They'
p4922
as(S'only'
p4923
tp4924
(lp4925
S'real'
p4926
aS'one'
p4927
aS'took'
p4928
aS'motto'
p4929
as(S'snow'
p4930
tp4931
(lp4932
S'Let'
p4933
as(S'lot'
p4934
tp4935
(lp4936
S'of'
p4937
aS'of'
p4938
as(S'love'
p4939
tp4940
(lp4941
S"'em"
p4942
aS'my'
p4943
aS'me'
p4944
aS'him'
p4945
aS'then'
p4946
aS'Sheets'
p4947
aS'you'
p4948
aS'and'
p4949
aS'with'
p4950
aS'me'
p4951
aS'and'
p4952
ag48
aS'with'
p4953
aS'my'
p4954
aS'my'
p4955
aS'you'
p4956
aS'you'
p4957
as(S'angel'
p4958
tp4959
(lp4960
S'looking'
p4961
as(S'lavish'
p4962
tp4963
(lp4964
S'with'
p4965
as(S'party'
p4966
tp4967
(lp4968
S'bitch'
p4969
aS'and'
p4970
as(S'fan'
p4971
tp4972
(lp4973
S'too'
p4974
as(S'in'
p4975
tp4976
(lp4977
S'vents'
p4978
aS'his'
p4979
aS'some'
p4980
aS'love'
p4981
aS'your'
p4982
aS'the'
p4983
aS'Let'
p4984
aS'my'
p4985
aS'love'
p4986
aS'my'
p4987
aS'sit'
p4988
aS'like'
p4989
aS'this'
p4990
aS'the'
p4991
aS'Margielas'
p4992
aS'this'
p4993
aS'my'
p4994
aS'my'
p4995
aS'the'
p4996
aS'them'
p4997
aS'the'
p4998
aS'me'
p4999
aS'me'
p5000
aS'Hollywood'
p5001
aS'that'
p5002
ag48
aS'the'
p5003
aS'Queens'
p5004
aS'my'
p5005
aS'love'
p5006
aS'when'
p5007
aS'them'
p5008
aS'me'
p5009
aS'me'
p5010
aS'my'
p5011
aS'love'
p5012
aS'his'
p5013
aS'Detroit'
p5014
aS'shootouts'
p5015
ag251
aS'my'
p5016
aS'my'
p5017
aS'the'
p5018
aS'my'
p5019
aS'the'
p5020
aS'the'
p5021
aS'life'
p5022
aS'the'
p5023
ag251
aS'the'
p5024
aS'the'
p5025
aS'the'
p5026
aS'it'
p5027
aS'the'
p5028
aS'it'
p5029
aS'it'
p5030
aS'my'
p5031
aS'something'
p5032
aS'Australia'
p5033
ag251
aS'my'
p5034
aS'Paris'
p5035
aS'the'
p5036
aS'the'
p5037
aS'pocket'
p5038
aS'they'
p5039
aS'that'
p5040
aS'beast'
p5041
aS'Not'
p5042
ag48
aS'your'
p5043
aS'that'
p5044
aS'the'
p5045
aS'my'
p5046
aS'my'
p5047
aS'my'
p5048
ag251
aS'Cali'
p5049
aS'the'
p5050
aS'Hollywood'
p5051
as(S'clap'
p5052
tp5053
(lp5054
S'clap'
p5055
aS'make'
p5056
as(S'more'
p5057
tp5058
(lp5059
S'than'
p5060
ag48
ag48
aS'snow'
p5061
aS"coastin'"
p5062
aS"toastin'"
p5063
aS'integrity'
p5064
as(S'name'
p5065
tp5066
(lp5067
S'was'
p5068
aS'is'
p5069
aS'Barbie'
p5070
aS'Barbie'
p5071
aS'to'
p5072
aS'Romaine'
p5073
as(S'also'
p5074
tp5075
(lp5076
S'Keep'
p5077
as(S'tour'
p5078
tp5079
(lp5080
S'just'
p5081
as(S"repo'd"
p5082
tp5083
(lp5084
g48
as(S'law'
p5085
tp5086
(lp5087
S'but'
p5088
as(S'book'
p5089
tp5090
(lp5091
S'sex'
p5092
as(S'wasn\xe2'
p5093
tp5094
(lp5095
g732
ag732
as(S"whippin'"
p5096
tp5097
(lp5098
S'all'
p5099
aS'all'
p5100
as(S'business'
p5101
tp5102
(lp5103
S"I'm"
p5104
as(S'light-weight'
p5105
tp5106
(lp5107
S'I\xe2'
p5108
as(S"would've"
p5109
tp5110
(lp5111
S'have'
p5112
as(S'Damn'
p5113
tp5114
(lp5115
S'Nicki'
p5116
aS'bae'
p5117
as(S'again'
p5118
tp5119
(lp5120
S"it's"
p5121
as(S'death'
p5122
tp5123
(lp5124
S'down'
p5125
aS'on'
p5126
as(S'Bentley'
p5127
tp5128
(lp5129
S'from'
p5130
as(S'lucky'
p5131
tp5132
(lp5133
S'nigga'
p5134
as(S'put'
p5135
tp5136
(lp5137
S'the'
p5138
aS'the'
p5139
aS'the'
p5140
aS'it'
p5141
aS'your'
p5142
aS'your'
p5143
aS'his'
p5144
aS'me'
p5145
aS'my'
p5146
aS'you'
p5147
aS'it'
p5148
as(S'Another'
p5149
tp5150
(lp5151
S'slap'
p5152
as(S'tryna'
p5153
tp5154
(lp5155
S'kick'
p5156
aS'stick'
p5157
as(S'Cock'
p5158
tp5159
(lp5160
S'back'
p5161
as(S'rock'
p5162
tp5163
(lp5164
S'is'
p5165
as(S'finna'
p5166
tp5167
(lp5168
S'lie'
p5169
aS'lie'
p5170
as(S"murkin'"
p5171
tp5172
(lp5173
S'it'
p5174
as(S'missing'
p5175
tp5176
(lp5177
S'no'
p5178
aS'no'
p5179
as(S"cuttin'"
p5180
tp5181
(lp5182
S'school'
p5183
as(S'Family'
p5184
tp5185
(lp5186
S'ties'
p5187
as(S"'til"
p5188
tp5189
(lp5190
S"it's"
p5191
aS"it's"
p5192
as(S'fact'
p5193
tp5194
(lp5195
S"I'd"
p5196
ag48
as(S'expose'
p5197
tp5198
(lp5199
S'you'
p5200
as(S'idea'
p5201
tp5202
(lp5203
S'of'
p5204
as(S'touchdown'
p5205
tp5206
(lp5207
S'on'
p5208
as(S'sing'
p5209
tp5210
(lp5211
S'Make'
p5212
as(S'breakfast'
p5213
tp5214
(lp5215
S'Everytime'
p5216
as(S'shade'
p5217
tp5218
(lp5219
S'like'
p5220
as(S'toll'
p5221
tp5222
(lp5223
S"Ain't"
p5224
as(S'head'
p5225
tp5226
(lp5227
S'in'
p5228
aS'like'
p5229
aS'and'
p5230
as(S'--'
p5231
tp5232
(lp5233
S'he'
p5234
as(S'ghetto'
p5235
tp5236
(lp5237
S'girl'
p5238
as(S'Self-righteous'
p5239
tp5240
(lp5241
S'and'
p5242
as(S'Scoop'
p5243
tp5244
(lp5245
S'me'
p5246
as(S'Baby'
p5247
tp5248
(lp5249
S'Jay-Z'
p5250
aS'hit'
p5251
as(S'sleep'
p5252
tp5253
(lp5254
S'now'
p5255
as(S'trips'
p5256
tp5257
(lp5258
S'with'
p5259
aS'Automatic'
p5260
as(S'kick'
p5261
tp5262
(lp5263
S'it'
p5264
as(S'dividends'
p5265
tp5266
(lp5267
S'get'
p5268
as(S'bangable'
p5269
tp5270
(lp5271
S"I'm"
p5272
as(S'Stephenson'
p5273
tp5274
(lp5275
S"I'm"
p5276
as(S'boots'
p5277
tp5278
(lp5279
S'with'
p5280
as(S'Wrist'
p5281
tp5282
(lp5283
S'icy'
p5284
aS'game'
p5285
aS'on'
p5286
as(S'pretty'
p5287
tp5288
(lp5289
S'on'
p5290
as(S'time'
p5291
tp5292
(lp5293
S'But'
p5294
aS'is'
p5295
aS'before'
p5296
ag48
aS'to'
p5297
as(S'children'
p5298
tp5299
(lp5300
S'These'
p5301
as(S'really'
p5302
tp5303
(lp5304
S'meant'
p5305
aS"takin'"
p5306
aS'they'
p5307
aS'telling'
p5308
as(S'break'
p5309
tp5310
(lp5311
S'mine'
p5312
ag251
aS'your'
p5313
ag251
as(S'new'
p5314
tp5315
(lp5316
S'thing'
p5317
as(S'hear'
p5318
tp5319
(lp5320
S'me'
p5321
as(S"feelin'"
p5322
tp5323
(lp5324
S'myself'
p5325
aS'myself'
p5326
as(S'stop'
p5327
tp5328
(lp5329
S'that'
p5330
aS'me'
p5331
aS'me'
p5332
as(S'end'
p5333
tp5334
(lp5335
S'up'
p5336
as(S'E-Z'
p5337
tp5338
(lp5339
S'Pass'
p5340
as(S'debated'
p5341
tp5342
(lp5343
g48
as(S'ninja'
p5344
tp5345
(lp5346
g48
aS'He'
p5347
as(S'man'
p5348
tp5349
(lp5350
S"I've"
p5351
aS'do'
p5352
aS"fuck's"
p5353
aS'full'
p5354
aS'on'
p5355
aS'to'
p5356
ag48
as(S'jump'
p5357
tp5358
(lp5359
S'shot'
p5360
aS'on'
p5361
as(S"mil'"
p5362
tp5363
(lp5364
S'in'
p5365
as(S'habit'
p5366
tp5367
(lp5368
S'I-I'
p5369
as(S'never'
p5370
tp5371
(lp5372
S'be'
p5373
aS'understands'
p5374
aS'show'
p5375
aS'left'
p5376
aS'be'
p5377
aS'get'
p5378
aS'fucked'
p5379
aS'fucked'
p5380
aS'indict'
p5381
aS'have'
p5382
aS'got'
p5383
aS'make'
p5384
aS'make'
p5385
aS'pay'
p5386
aS'miss'
p5387
aS"chicken'd"
p5388
aS'need'
p5389
aS'catch'
p5390
as(S'enough'
p5391
tp5392
(lp5393
S'but'
p5394
aS'of'
p5395
aS'for'
p5396
as(S'took'
p5397
tp5398
(lp5399
g251
aS'him'
p5400
aS'the'
p5401
as(S'hand'
p5402
tp5403
(lp5404
S'But'
p5405
aS'up'
p5406
as(S'sweat'
p5407
tp5408
(lp5409
S'me'
p5410
as(S'do'
p5411
tp5412
(lp5413
S'they'
p5414
aS'balls'
p5415
aS'gimme'
p5416
aS'what'
p5417
aS'and'
p5418
aS'you'
p5419
aS'sing'
p5420
aS'it'
p5421
aS'you'
p5422
aS'is'
p5423
aS'what'
p5424
as(S'everyday'
p5425
tp5426
(lp5427
S'it'
p5428
aS'but'
p5429
as(S'Uhn'
p5430
tp5431
(lp5432
S'but'
p5433
as(S'present'
p5434
tp5435
(lp5436
S'Yeah'
p5437
aS'that'
p5438
as(S'crack'
p5439
tp5440
(lp5441
S'like'
p5442
as(S'Dinner'
p5443
tp5444
(lp5445
S'with'
p5446
as(S'cards'
p5447
tp5448
(lp5449
S'right'
p5450
as(S'where'
p5451
tp5452
(lp5453
S'you'
p5454
aS'the'
p5455
aS'the'
p5456
aS'the'
p5457
aS'the'
p5458
aS'you'
p5459
ag48
as(S'keys'
p5460
tp5461
(lp5462
S'got'
p5463
as(S'road'
p5464
tp5465
(lp5466
S"I'mma"
p5467
as(S'North'
p5468
tp5469
(lp5470
S'Pole'
p5471
as(S'to'
p5472
tp5473
(lp5474
S'reinvent'
p5475
aS'preschool'
p5476
ag251
aS'stay'
p5477
aS'kill'
p5478
aS'go'
p5479
aS'college'
p5480
aS'say'
p5481
aS'you'
p5482
aS'the'
p5483
aS'use'
p5484
aS'lose'
p5485
aS'the'
p5486
aS'imitate'
p5487
aS'love'
p5488
aS'just'
p5489
aS'give'
p5490
aS'Had'
p5491
aS'show'
p5492
aS'my'
p5493
aS'topic'
p5494
aS'pop'
p5495
aS'the'
p5496
aS'us'
p5497
aS'Diddy'
p5498
aS'your'
p5499
aS'put'
p5500
aS'do'
p5501
aS"livin'"
p5502
aS'tell'
p5503
aS'play'
p5504
aS'get'
p5505
aS'live'
p5506
aS'kill'
p5507
aS'chill'
p5508
aS'ride'
p5509
aS'sleep'
p5510
aS'chill'
p5511
aS'get'
p5512
aS'death'
p5513
aS'the'
p5514
aS'miss'
p5515
aS'diss'
p5516
aS'cut'
p5517
aS'take'
p5518
aS'fuck'
p5519
aS'make'
p5520
aS'go'
p5521
aS'party'
p5522
aS'come'
p5523
aS'play'
p5524
aS'do'
p5525
aS'take'
p5526
aS'fuck'
p5527
aS'go'
p5528
aS'keep'
p5529
aS'make'
p5530
as(S'liking'
p5531
tp5532
(lp5533
S'my'
p5534
as(S'Minaj'
p5535
tp5536
(lp5537
S'when'
p5538
as(S'see'
p5539
tp5540
(lp5541
S'intent'
p5542
aS'But'
p5543
aS'what'
p5544
aS'they'
p5545
aS'you'
p5546
aS'the'
p5547
aS'me'
p5548
aS'me'
p5549
aS'competition'
p5550
aS'your'
p5551
aS'Saw'
p5552
aS'me'
p5553
as(S'tell'
p5554
tp5555
(lp5556
S'niggas'
p5557
aS'them'
p5558
aS"I'm"
p5559
ag251
aS'just'
p5560
aS"'em"
p5561
aS'you'
p5562
aS'the'
p5563
aS'you'
p5564
aS'you'
p5565
aS'you'
p5566
aS'that'
p5567
ag48
ag48
aS'you'
p5568
aS'he'
p5569
aS'me'
p5570
ag167
ag251
aS'me'
p5571
as(S'spot'
p5572
tp5573
(lp5574
S'until'
p5575
as(S'sped'
p5576
tp5577
(lp5578
S'off'
p5579
as(S'And'
p5580
tp5581
(lp5582
S"I'm"
p5583
aS"that's"
p5584
ag48
aS"I'm"
p5585
aS'tell'
p5586
aS'you'
p5587
aS'they'
p5588
aS'my'
p5589
aS'he'
p5590
aS'when'
p5591
aS'he'
p5592
aS'we'
p5593
ag48
ag48
ag48
aS'no'
p5594
aS'what'
p5595
aS'nah'
p5596
as(S'let\xe2'
p5597
tp5598
(lp5599
g1027
as(S'material'
p5600
tp5601
(lp5602
S'He'
p5603
as(S'John'
p5604
tp5605
(lp5606
S'and'
p5607
as(S'Dividing'
p5608
tp5609
(lp5610
S'them'
p5611
as(S'sell'
p5612
tp5613
(lp5614
S'it'
p5615
as(S'style'
p5616
tp5617
(lp5618
S'in'
p5619
aS'and'
p5620
as(S'Excuse'
p5621
tp5622
(lp5623
S'my'
p5624
as(S'number'
p5625
tp5626
(lp5627
S'two'
p5628
as(S'going'
p5629
tp5630
(lp5631
S'in'
p5632
aS'nowhere'
p5633
as(S'free'
p5634
tp5635
(lp5636
S'throw'
p5637
as(S'compete'
p5638
tp5639
(lp5640
S'with'
p5641
as(S'chair'
p5642
tp5643
(lp5644
S'right'
p5645
as(S'shoot'
p5646
tp5647
(lp5648
S'it'
p5649
aS'up'
p5650
as(S'website'
p5651
tp5652
(lp5653
S'but'
p5654
as(S'day'
p5655
tp5656
(lp5657
S'he'
p5658
aS'You'
p5659
aS'But'
p5660
aS'So'
p5661
as(S'staring'
p5662
tp5663
(lp5664
S'at'
p5665
as(S'Bitches'
p5666
tp5667
(lp5668
S"ain't"
p5669
aS"ain't"
p5670
aS"ain't"
p5671
aS"ain't"
p5672
aS'wanna'
p5673
as(S'chickens'
p5674
tp5675
(lp5676
S'unless'
p5677
as(S'I\xe2'
p5678
tp5679
(lp5680
S'll'
p5681
ag203
ag203
ag203
ag203
ag203
ag203
ag203
ag203
as(S'another'
p5682
tp5683
(lp5684
S'uppercut'
p5685
as(S'jab'
p5686
tp5687
(lp5688
S'like'
p5689
aS'like'
p5690
as(S'planking'
p5691
tp5692
(lp5693
S'on'
p5694
as(S"'Caiah's"
p5695
tp5696
(lp5697
S'little'
p5698
as(S'winter-time'
p5699
tp5700
(lp5701
S'or'
p5702
aS'or'
p5703
as(S'Get'
p5704
tp5705
(lp5706
S'head'
p5707
aS'it'
p5708
aS'locked'
p5709
aS'this'
p5710
as(S'greatest'
p5711
tp5712
(lp5713
S'Muhammad'
p5714
as(S'nutrition'
p5715
tp5716
(lp5717
S'Get'
p5718
as(S'lap'
p5719
tp5720
(lp5721
S'Now'
p5722
aS'let'
p5723
as(S'Ayo'
p5724
tp5725
(lp5726
g48
aS'drinks'
p5727
aS'they'
p5728
as(S'Keys'
p5729
tp5730
(lp5731
S'to'
p5732
as(S'finish'
p5733
tp5734
(lp5735
S'your'
p5736
as(S'high-saditty'
p5737
tp5738
(lp5739
g48
as(S'intent'
p5740
tp5741
(lp5742
S'Then'
p5743
as(S'panties'
p5744
tp5745
(lp5746
S'because'
p5747
as(S'titties'
p5748
tp5749
(lp5750
S'big'
p5751
as(S'fake'
p5752
tp5753
(lp5754
S'industry'
p5755
aS'agendas'
p5756
aS'scary'
p5757
aS'worry'
p5758
aS'niggas'
p5759
as(S'made'
p5760
tp5761
(lp5762
S'her'
p5763
aS'Lil'
p5764
aS'me'
p5765
aS'All'
p5766
aS'all'
p5767
as(S"Don't"
p5768
tp5769
(lp5770
S'write'
p5771
aS'make'
p5772
as(S'chewed'
p5773
tp5774
(lp5775
S'out'
p5776
aS'out'
p5777
as(S'meals'
p5778
tp5779
(lp5780
S'Come'
p5781
aS'Come'
p5782
as(S"it's"
p5783
tp5784
(lp5785
S'the'
p5786
aS'all'
p5787
aS'hard'
p5788
aS'gooder'
p5789
aS'ok'
p5790
aS'good'
p5791
aS'tight'
p5792
aS'sunny'
p5793
aS'sweet'
p5794
aS'just'
p5795
aS'so'
p5796
aS'you'
p5797
aS'you'
p5798
aS'too'
p5799
aS'too'
p5800
aS'real'
p5801
aS'real'
p5802
aS"gon'"
p5803
aS'gone'
p5804
aS'like'
p5805
aS'gone'
p5806
aS'just'
p5807
aS'worth'
p5808
aS'time'
p5809
as(S'yo'
p5810
tp5811
(lp5812
S'Man'
p5813
aS'Cause'
p5814
aS'cause'
p5815
aS'Twist'
p5816
as(S"won't"
p5817
tp5818
(lp5819
S'forget'
p5820
as(S'of'
p5821
tp5822
(lp5823
S'violence'
p5824
aS'me'
p5825
aS'them'
p5826
aS'Clubs'
p5827
aS'Spade'
p5828
aS'what'
p5829
aS'All'
p5830
aS'Rap'
p5831
aS'that'
p5832
aS'that'
p5833
ag251
aS'that'
p5834
aS'fact'
p5835
aS'you'
p5836
aS'them'
p5837
aS'bags'
p5838
aS'the'
p5839
aS'us'
p5840
aS'my'
p5841
aS'that'
p5842
aS'my'
p5843
aS'my'
p5844
aS'it'
p5845
aS'the'
p5846
aS'time'
p5847
aS'these'
p5848
aS'my'
p5849
aS'Mo\xc3'
p5850
aS'car'
p5851
aS'these'
p5852
aS'me'
p5853
aS'bitches'
p5854
as(S'looking'
p5855
tp5856
(lp5857
S'over'
p5858
aS'like'
p5859
aS'for'
p5860
aS'for'
p5861
as(S'contacts'
p5862
tp5863
(lp5864
S'You'
p5865
as(S'overprotective'
p5866
tp5867
(lp5868
S'The'
p5869
as(S'top'
p5870
tp5871
(lp5872
S'40'
p5873
aS'is'
p5874
aS'and'
p5875
as(S'Canadian'
p5876
tp5877
(lp5878
S'Girls'
p5879
as(S'bust'
p5880
tp5881
(lp5882
S'back'
p5883
aS'it'
p5884
as(S"ain't"
p5885
tp5886
(lp5887
S'even'
p5888
aS'play'
p5889
aS'no'
p5890
aS'even'
p5891
aS'got'
p5892
aS'snowing'
p5893
aS'sitting'
p5894
aS'getting'
p5895
aS'eating'
p5896
aS'talking'
p5897
aS'never'
p5898
aS'say'
p5899
aS'missing'
p5900
aS'talking'
p5901
aS'missing'
p5902
aS'going'
p5903
aS'leaving'
p5904
aS'earned'
p5905
aS'never'
p5906
aS'even'
p5907
aS'mean'
p5908
aS'wanna'
p5909
aS'How'
p5910
aS'Bill'
p5911
aS'stupid'
p5912
aS'stupid'
p5913
aS'stupid'
p5914
aS'even'
p5915
aS'got'
p5916
aS'got'
p5917
aS"talkin'"
p5918
aS'gotta'
p5919
aS'never'
p5920
ag251
aS"takin'"
p5921
aS'ever'
p5922
aS'them'
p5923
aS'finna'
p5924
aS'finna'
p5925
aS'bangable'
p5926
aS"fuckin'"
p5927
as(S'use'
p5928
tp5929
(lp5930
S'the'
p5931
aS'you'
p5932
as(S'ya'
p5933
tp5934
(lp5935
S'Not'
p5936
ag48
aS'But'
p5937
aS'rider'
p5938
aS'you'
p5939
ag48
aS'but'
p5940
aS'You'
p5941
as(S'confide'
p5942
tp5943
(lp5944
S'in'
p5945
as(S'sold'
p5946
tp5947
(lp5948
g48
as(S'Mo\xc3'
p5949
tp5950
(lp5951
g732
as(S'Cause'
p5952
tp5953
(lp5954
S'since'
p5955
aS'what'
p5956
aS'I\xe2'
p5957
aS'we'
p5958
aS"it's"
p5959
aS"it's"
p5960
ag48
aS"it's"
p5961
ag48
aS'them'
p5962
aS'them'
p5963
aS'them'
p5964
aS'them'
p5965
as(S'assume'
p5966
tp5967
(lp5968
S'the'
p5969
as(S'bed'
p5970
tp5971
(lp5972
S"I'ma"
p5973
as(S'Ain\xe2'
p5974
tp5975
(lp5976
g732
ag732
as(S"tippin'"
p5977
tp5978
(lp5979
S'you'
p5980
as(S'seasoning'
p5981
tp5982
(lp5983
S'And'
p5984
as(S'hour'
p5985
tp5986
(lp5987
S'come'
p5988
aS'come'
p5989
as(S'purse'
p5990
tp5991
(lp5992
S'bitch'
p5993
as(S'icy'
p5994
tp5995
(lp5996
S'but'
p5997
aS'but'
p5998
as(S'nothing'
p5999
tp6000
(lp6001
S'for'
p6002
ag48
as(S'stay'
p6003
tp6004
(lp6005
S'with'
p6006
aS'in'
p6007
as(S"smilin'"
p6008
tp6009
(lp6010
S'faces'
p6011
as(S'Santa'
p6012
tp6013
(lp6014
S'Claus'
p6015
as(S'dealer'
p6016
tp6017
(lp6018
S'money'
p6019
as(S'full'
p6020
tp6021
(lp6022
S'he'
p6023
as(S"takin'"
p6024
tp6025
(lp6026
S'that'
p6027
aS'that'
p6028
as(S'Gimme'
p6029
tp6030
(lp6031
S'brain'
p6032
as(S"learnin'"
p6033
tp6034
(lp6035
S'here'
p6036
aS'You'
p6037
as(S'Dun-d-d-dun-dun-d-d-dun-dun'
p6038
tp6039
(lp6040
S'Thi-this'
p6041
aS'Yo'
p6042
as(S'ties'
p6043
tp6044
(lp6045
S'broken'
p6046
as(S'legendary'
p6047
tp6048
(lp6049
S'this'
p6050
aS'But'
p6051
as(S'low'
p6052
tp6053
(lp6054
S'Or'
p6055
as(S"Couldn't"
p6056
tp6057
(lp6058
S'believe'
p6059
as(S'open'
p6060
tp6061
(lp6062
S'wounds'
p6063
aS'for'
p6064
as(S'worry'
p6065
tp6066
(lp6067
S"'bout"
p6068
as(S"That's"
p6069
tp6070
(lp6071
S'why'
p6072
ag251
aS'one'
p6073
as(S'clear'
p6074
tp6075
(lp6076
S"I'm"
p6077
as(S'regulars'
p6078
tp6079
(lp6080
S'He'
p6081
as(S'three'
p6082
tp6083
(lp6084
S'four'
p6085
as(S"I'll"
p6086
tp6087
(lp6088
S'always'
p6089
aS'be'
p6090
as(S'rap'
p6091
tp6092
(lp6093
S'but'
p6094
as(S'linebacker'
p6095
tp6096
(lp6097
S'tell'
p6098
as(S'rifle'
p6099
tp6100
(lp6101
S'Pussy'
p6102
as(S'trap'
p6103
tp6104
(lp6105
g48
as(S'illest'
p6106
tp6107
(lp6108
S'cause'
p6109
as(S'flammable'
p6110
tp6111
(lp6112
S'Bad'
p6113
as(S'bracket'
p6114
tp6115
(lp6116
S'Got'
p6117
as(S'Eight'
p6118
tp6119
(lp6120
S'When'
p6121
aS'mil'
p6122
as(S'Cherish'
p6123
tp6124
(lp6125
S'these'
p6126
aS'these'
p6127
as(S'faces'
p6128
tp6129
(lp6130
S'here'
p6131
as(S'times'
p6132
tp6133
(lp6134
g48
as(S'good'
p6135
tp6136
(lp6137
S'with'
p6138
aS'while'
p6139
aS'when'
p6140
aS'for'
p6141
aS'girl'
p6142
aS'on'
p6143
aS'in'
p6144
aS'now'
p6145
aS'vision'
p6146
aS'with'
p6147
aS'sex'
p6148
as(S'like'
p6149
tp6150
(lp6151
S'somehow'
p6152
aS"'Caiah"
p6153
aS"he's"
p6154
ag251
aS'you'
p6155
ag251
ag251
aS'NYU'
p6156
ag251
ag251
aS'seasoning'
p6157
aS"it's"
p6158
aS'my'
p6159
ag251
aS'spaghetti'
p6160
aS'Yo'
p6161
ag251
aS'ya'
p6162
ag251
aS'Metta'
p6163
ag251
aS'syringes'
p6164
ag251
ag251
aS"'em"
p6165
aS'Dun-d-d-dun-dun-d-d-dun-dun'
p6166
aS'his'
p6167
aS"'em"
p6168
aS'Dun-d-d-dun-dun-d-d-dun-dun'
p6169
aS'tanks'
p6170
aS'you'
p6171
ag251
aS'Gin\xc3\xb3bili'
p6172
aS'what'
p6173
aS'she'
p6174
aS'my'
p6175
aS'school\xe2'
p6176
aS'school\xe2'
p6177
aS'Floyd\xe2'
p6178
aS'Floyd\xe2'
p6179
ag48
aS"cuttin'"
p6180
aS'it'
p6181
aS"I'm"
p6182
ag251
aS'the'
p6183
aS'percocets'
p6184
aS'to'
p6185
ag251
as(S'would'
p6186
tp6187
(lp6188
S'let'
p6189
aS'have'
p6190
aS'change'
p6191
aS'change'
p6192
aS'come'
p6193
aS'lie'
p6194
aS'show'
p6195
aS'never'
p6196
aS'become'
p6197
as(S'can\xe2'
p6198
tp6199
(lp6200
g732
ag732
ag732
as(S'truck'
p6201
tp6202
(lp6203
S'late'
p6204
as(S'an'
p6205
tp6206
(lp6207
S'empire'
p6208
aS'all-nighter'
p6209
aS'eyelid'
p6210
aS'island'
p6211
as(S'bagged'
p6212
tp6213
(lp6214
S'him'
p6215
as(S'hammer'
p6216
tp6217
(lp6218
S'nigga'
p6219
as(S'him'
p6220
tp6221
(lp6222
S'Why'
p6223
aS'he'
p6224
aS'And'
p6225
aS'And'
p6226
aS'Gee'
p6227
ag48
aS'for'
p6228
ag48
aS'touch'
p6229
aS'in'
p6230
aS'eat'
p6231
aS'with'
p6232
aS'hit'
p6233
aS'buy'
p6234
aS'in'
p6235
aS'eat'
p6236
aS'take'
p6237
aS'on'
p6238
ag48
as(S'high'
p6239
tp6240
(lp6241
S'as'
p6242
aS'Just'
p6243
as(S'mask'
p6244
tp6245
(lp6246
S'off'
p6247
as(S'Teach'
p6248
tp6249
(lp6250
S'me'
p6251
as(S'She'
p6252
tp6253
(lp6254
S'never'
p6255
ag251
as(S'daddy'
p6256
tp6257
(lp6258
g48
as(S'lie'
p6259
tp6260
(lp6261
S'and'
p6262
aS'no'
p6263
aS'like'
p6264
as(S"should've"
p6265
tp6266
(lp6267
S'asked'
p6268
aS'asked'
p6269
as(S'black'
p6270
tp6271
(lp6272
S'card'
p6273
aS'matted'
p6274
aS'K-fed'
p6275
as(S'25k'
p6276
tp6277
(lp6278
S'bitch'
p6279
as(S'lose'
p6280
tp6281
(lp6282
S'your'
p6283
aS'control'
p6284
aS'Ayo'
p6285
aS'me'
p6286
as(S'pills'
p6287
tp6288
(lp6289
S'for'
p6290
aS'in'
p6291
as(S'preschool'
p6292
tp6293
(lp6294
S'Cherish'
p6295
as(g787
tp6296
(lp6297
S'yo'
p6298
aS'Cause'
p6299
as(S'How'
p6300
tp6301
(lp6302
S'come'
p6303
aS'To'
p6304
as(S'leg'
p6305
tp6306
(lp6307
S'Couple'
p6308
aS'Push'
p6309
as(S'Moscato'
p6310
tp6311
(lp6312
S'and'
p6313
as(S'quick'
p6314
tp6315
(lp6316
S'Just'
p6317
as(S'pipe'
p6318
tp6319
(lp6320
g48
as(S'drool'
p6321
tp6322
(lp6323
S'like'
p6324
as(S'retire'
p6325
tp6326
(lp6327
S'the'
p6328
as(S'icon-stat'
p6329
tp6330
(lp6331
S'Balenciagas'
p6332
as(S'somehow'
p6333
tp6334
(lp6335
g48
aS"they're"
p6336
as(S'trying'
p6337
tp6338
(lp6339
S'to'
p6340
aS'me'
p6341
as(S"goin'"
p6342
tp6343
(lp6344
g48
as(S'Motherfuckers'
p6345
tp6346
(lp6347
S'who'
p6348
as(S'Who'
p6349
tp6350
(lp6351
S'had'
p6352
aS'had'
p6353
aS'the'
p6354
aS'made'
p6355
aS'wants'
p6356
aS'wanna'
p6357
as(S'Pop'
p6358
tp6359
(lp6360
S'Quiz'
p6361
aS'bottles'
p6362
as(S'become'
p6363
tp6364
(lp6365
S'the'
p6366
as(S'hits'
p6367
tp6368
(lp6369
S'like'
p6370
as(S'nobody'
p6371
tp6372
(lp6373
S'but'
p6374
as(S'Keep'
p6375
tp6376
(lp6377
S"gettin'"
p6378
as(S'teach'
p6379
tp6380
(lp6381
S'me'
p6382
as(S'can'
p6383
tp6384
(lp6385
S'play'
p6386
aS'tell'
p6387
ag48
aS'see'
p6388
aS'tell'
p6389
aS'add'
p6390
aS'check'
p6391
aS'tell'
p6392
aS'grab'
p6393
aS'tell'
p6394
aS'grab'
p6395
aS'drop'
p6396
aS'do'
p6397
aS'live'
p6398
as(S'vodka'
p6399
tp6400
(lp6401
S"I'ma"
p6402
as(S'clutch'
p6403
tp6404
(lp6405
S'Who'
p6406
as(S'fame'
p6407
tp6408
(lp6409
S'they'
p6410
as(S'snowing'
p6411
tp6412
(lp6413
S'yet'
p6414
as(S'Chanel'
p6415
tp6416
(lp6417
S'bags'
p6418
as(S'ate'
p6419
tp6420
(lp6421
g48
as(S'pussy'
p6422
tp6423
(lp6424
g251
aS'miles'
p6425
aS'off'
p6426
as(S'Gin\xc3\xb3bili'
p6427
tp6428
(lp6429
S'you'
p6430
as(S'Shyne'
p6431
tp6432
(lp6433
S'did'
p6434
as(S'Say'
p6435
tp6436
(lp6437
S'he'
p6438
as(S'invented'
p6439
tp6440
(lp6441
S'And'
p6442
as(S'saw'
p6443
tp6444
(lp6445
S'me'
p6446
aS'me'
p6447
as(S'we'
p6448
tp6449
(lp6450
S'did'
p6451
aS'kiss'
p6452
aS'go'
p6453
aS'love'
p6454
aS'in'
p6455
aS"slammin'"
p6456
aS"don't"
p6457
aS'had'
p6458
aS'be'
p6459
aS'dope'
p6460
aS'flawless'
p6461
aS'the'
p6462
aS"don't"
p6463
aS'good'
p6464
aS'good'
p6465
aS'never'
p6466
aS'done'
p6467
aS'about'
p6468
aS'say'
p6469
aS"gon'"
p6470
aS'will'
p6471
aS'can'
p6472
aS'had'
p6473
aS'shared'
p6474
aS'move'
p6475
as(S'diabetes'
p6476
tp6477
(lp6478
S'You'
p6479
as(S'Not'
p6480
tp6481
(lp6482
S'cause'
p6483
aS'that'
p6484
ag251
as(S'stick'
p6485
tp6486
(lp6487
S'it'
p6488
as(S'ago'
p6489
tp6490
(lp6491
S"that's"
p6492
as(S'quarter'
p6493
tp6494
(lp6495
S"mil'"
p6496
as(S'reckless'
p6497
tp6498
(lp6499
S'He'
p6500
as(S'hope'
p6501
tp6502
(lp6503
S'for'
p6504
as(S'mil'
p6505
tp6506
(lp6507
S'on'
p6508
as(S'baggage'
p6509
tp6510
(lp6511
S'Winter'
p6512
as(S'Caucasian'
p6513
tp6514
(lp6515
S'doves'
p6516
as(S'gifted'
p6517
tp6518
(lp6519
S'This'
p6520
as(S'dude'
p6521
tp6522
(lp6523
S'named'
p6524
as(S'bang'
p6525
tp6526
(lp6527
S'bang'
p6528
aS'bang'
p6529
ag48
as(S"B's"
p6530
tp6531
(lp6532
S"Stingin'"
p6533
as(S'entitled'
p6534
tp6535
(lp6536
S'but'
p6537
as(S'As'
p6538
tp6539
(lp6540
S'long'
p6541
as(S're-up'
p6542
tp6543
(lp6544
S'on'
p6545
as(S'fifty'
p6546
tp6547
(lp6548
S'Pop'
p6549
as(S'dawn'
p6550
tp6551
(lp6552
S'But'
p6553
aS'But'
p6554
as(S'shit'
p6555
tp6556
(lp6557
S'wasn\xe2'
p6558
aS'is'
p6559
aS'he'
p6560
aS'Send'
p6561
aS'by'
p6562
aS'by'
p6563
aS'ain\xe2'
p6564
aS"ain't"
p6565
as(S'Is'
p6566
tp6567
(lp6568
S'pigs'
p6569
aS'these'
p6570
aS'you'
p6571
as(S'me'
p6572
tp6573
(lp6574
S'but'
p6575
aS'Niggas'
p6576
aS'And'
p6577
aS'yes'
p6578
ag48
aS'Let'
p6579
aS'make'
p6580
aS'feel'
p6581
aS'Even'
p6582
aS'the'
p6583
aS'and'
p6584
aS'you'
p6585
aS'You'
p6586
aS'loose'
p6587
aS'go'
p6588
aS'to'
p6589
aS'sit'
p6590
aS'see'
p6591
aS'way'
p6592
aS"twitchin'"
p6593
aS"seein'"
p6594
aS'when'
p6595
aS'nigga'
p6596
aS'All'
p6597
aS'even'
p6598
aS'Lance'
p6599
aS'then'
p6600
aS"Ain't"
p6601
aS'these'
p6602
aS'They'
p6603
aS'Baby'
p6604
aS'Queen'
p6605
aS'on'
p6606
aS'at'
p6607
aS'and'
p6608
aS'and'
p6609
ag48
aS'Yo'
p6610
aS'And'
p6611
ag48
aS"I'm"
p6612
aS'Yo'
p6613
aS'Cock'
p6614
aS'hit'
p6615
aS'what'
p6616
aS'in'
p6617
aS'out'
p6618
aS'Alice'
p6619
aS'update'
p6620
ag48
ag48
aS'and'
p6621
aS'He'
p6622
aS'Alexander'
p6623
aS'stylish'
p6624
aS'to'
p6625
aS"it's"
p6626
aS'play'
p6627
aS'NyQuil'
p6628
aS'Balmain'
p6629
aS'to'
p6630
aS"it's"
p6631
aS'We'
p6632
aS'So'
p6633
aS'hate'
p6634
aS'way'
p6635
aS"poppin'"
p6636
aS'if'
p6637
aS'What'
p6638
ag48
ag48
aS'up'
p6639
aS'Go'
p6640
aS'this'
p6641
aS'what'
p6642
aS'they'
p6643
aS'salute'
p6644
ag251
aS"don't"
p6645
aS'You'
p6646
aS'to'
p6647
aS'but'
p6648
aS'expose'
p6649
aS'right'
p6650
aS'how'
p6651
ag48
ag48
ag48
aS'Yo'
p6652
aS'pissed'
p6653
aS'then'
p6654
aS'gynecologist'
p6655
aS'see'
p6656
aS'break'
p6657
aS'in'
p6658
aS'even'
p6659
aS'with'
p6660
as(S'Pretty'
p6661
tp6662
(lp6663
S'gang'
p6664
aS'women'
p6665
as(S'hashtag'
p6666
tp6667
(lp6668
S'He'
p6669
as(S'Paris'
p6670
tp6671
(lp6672
S'let'
p6673
aS'Stadiums'
p6674
as(S'They\xe2'
p6675
tp6676
(lp6677
S'll'
p6678
aS'll'
p6679
as(S'she'
p6680
tp6681
(lp6682
S'tough'
p6683
aS'could'
p6684
as(S'stars'
p6685
tp6686
(lp6687
S'is'
p6688
as(S'Pulled'
p6689
tp6690
(lp6691
S'up'
p6692
as(S"poppin'"
p6693
tp6694
(lp6695
S'pills'
p6696
as(S'figure'
p6697
tp6698
(lp6699
S'though'
p6700
as(S'been'
p6701
tp6702
(lp6703
S'competing'
p6704
aS'sixteen'
p6705
aS'classic'
p6706
aS'bad'
p6707
aS'hotter'
p6708
aS'over'
p6709
aS'over'
p6710
as(S'five'
p6711
tp6712
(lp6713
S'million'
p6714
as(S'brung'
p6715
tp6716
(lp6717
S'MacLaren'
p6718
as(S'vision'
p6719
tp6720
(lp6721
S'but'
p6722
as(S'sunny'
p6723
tp6724
(lp6725
S'Who'
p6726
as(S'Muhammad'
p6727
tp6728
(lp6729
S'Ali'
p6730
as(S'rough'
p6731
tp6732
(lp6733
S'You'
p6734
as(S'Football'
p6735
tp6736
(lp6737
S'touchdown'
p6738
as(S'parent'
p6739
tp6740
(lp6741
S'in'
p6742
as(S'lines'
p6743
tp6744
(lp6745
g48
as(S'that\xe2'
p6746
tp6747
(lp6748
g1027
as(S'dumb'
p6749
tp6750
(lp6751
S'shit'
p6752
aS'shit'
p6753
aS'high'
p6754
as(S'bags'
p6755
tp6756
(lp6757
S'is'
p6758
aS'but'
p6759
as(S'empire'
p6760
tp6761
(lp6762
S'also'
p6763
as(S"there'll"
p6764
tp6765
(lp6766
S'never'
p6767
as(S'who'
p6768
tp6769
(lp6770
S'is'
p6771
aS"don't"
p6772
ag48
aS'he'
p6773
aS'be'
p6774
aS'else'
p6775
as(S'lost'
p6776
tp6777
(lp6778
S'my'
p6779
as(S'pop'
p6780
tp6781
(lp6782
g251
aS'it'
p6783
aS'and'
p6784
aS'pills'
p6785
aS'me'
p6786
as(S'seen'
p6787
tp6788
(lp6789
S'that'
p6790
aS'my'
p6791
aS'how'
p6792
as(S'albums'
p6793
tp6794
(lp6795
S'no'
p6796
as(S'deposit'
p6797
tp6798
(lp6799
S'Tell'
p6800
as(S'nickname'
p6801
tp6802
(lp6803
S'these'
p6804
as(S"Birkin'd"
p6805
tp6806
(lp6807
S'it'
p6808
as(S'Yeah'
p6809
tp6810
(lp6811
S"it's"
p6812
aS'nigga'
p6813
aS'that'
p6814
as(S"widow's"
p6815
tp6816
(lp6817
S'peak'
p6818
as(S'try'
p6819
tp6820
(lp6821
S'to'
p6822
as(S'City'
p6823
tp6824
(lp6825
S'Nicki'
p6826
aS'Nicki'
p6827
as(S'life'
p6828
tp6829
(lp6830
S'itself'
p6831
aS'man'
p6832
aS'is'
p6833
aS'is'
p6834
aS'thong'
p6835
as(S'why'
p6836
tp6837
(lp6838
S"I'm"
p6839
aS"I'm"
p6840
as(S'E'
p6841
tp6842
(lp6843
S'We'
p6844
as(S'gassed'
p6845
tp6846
(lp6847
S'like'
p6848
as(S'as'
p6849
tp6850
(lp6851
S'long'
p6852
aS"I'm"
p6853
aS'seven'
p6854
aS'hell'
p6855
aS'you'
p6856
aS'long'
p6857
aS'your'
p6858
ag48
as(S'kill'
p6859
tp6860
(lp6861
S'him'
p6862
aS'Who'
p6863
as(S'orgasmic'
p6864
tp6865
(lp6866
S'Here'
p6867
as(S"I'mma"
p6868
tp6869
(lp6870
S'fuck'
p6871
aS'bring'
p6872
ag251
aS'write'
p6873
aS'Skype'
p6874
aS'have'
p6875
aS'have'
p6876
aS'keep'
p6877
aS'forgive'
p6878
aS'dead'
p6879
aS'remain'
p6880
aS'ask'
p6881
aS'ask'
p6882
aS'hurt'
p6883
as(S'fall'
p6884
tp6885
(lp6886
S'for'
p6887
aS'in'
p6888
as(S"chicken'd"
p6889
tp6890
(lp6891
S'out'
p6892
as(S'Stadiums'
p6893
tp6894
(lp6895
S'with'
p6896
as(S'Asian'
p6897
tp6898
(lp6899
S'rugs'
p6900
aS'Australian'
p6901
as(S'is'
p6902
tp6903
(lp6904
g251
aS'the'
p6905
aS'The'
p6906
aS'you'
p6907
aS'to'
p6908
ag251
aS'fake'
p6909
ag251
aS'by'
p6910
aS'the'
p6911
ag251
aS'on'
p6912
aS'my'
p6913
aS'ring'
p6914
aS'These'
p6915
aS'Cutlet'
p6916
aS'funny'
p6917
aS'the'
p6918
aS'rough'
p6919
aS'Kevin'
p6920
aS'the'
p6921
aS'got'
p6922
aS'the'
p6923
aS'the'
p6924
aS'for'
p6925
aS'what'
p6926
aS'on'
p6927
aS'on'
p6928
aS"don't"
p6929
aS'when'
p6930
aS'ticking'
p6931
aS'you'
p6932
aS'this'
p6933
aS'light-weight'
p6934
aS'on'
p6935
aS'the'
p6936
aS'ambition'
p6937
aS'fifty'
p6938
aS'laced'
p6939
aS'you'
p6940
aS'open'
p6941
aS'flammable'
p6942
as(S'Cash'
p6943
tp6944
(lp6945
S'money'
p6946
as(S'not'
p6947
tp6948
(lp6949
S'difficult'
p6950
aS'into'
p6951
aS'what'
p6952
aS'Nicki'
p6953
aS'cause'
p6954
aS'showing'
p6955
aS'the'
p6956
ag251
ag251
ag251
aS'here'
p6957
aS'Nicki'
p6958
as(S'dead'
p6959
tp6960
(lp6961
S'the'
p6962
as(S'respect'
p6963
tp6964
(lp6965
S'you'
p6966
aS'but'
p6967
aS'the'
p6968
as(S'with'
p6969
tp6970
(lp6971
S'that'
p6972
aS'me'
p6973
aS'people'
p6974
aS'Aaron'
p6975
aS'drugs'
p6976
aS'the'
p6977
aS'slugs'
p6978
aS'it'
p6979
aS'it'
p6980
aS'If'
p6981
aS'some'
p6982
aS'some'
p6983
aS'my'
p6984
aS'that'
p6985
aS'all'
p6986
aS'the'
p6987
aS'them'
p6988
aS"'em"
p6989
aS'my'
p6990
aS'them'
p6991
aS'mad'
p6992
ag48
aS'them'
p6993
aS'us'
p6994
aS'the'
p6995
aS'me'
p6996
aS'me'
p6997
aS'Shia'
p6998
aS'the'
p6999
ag251
aS'them'
p7000
aS'some'
p7001
aS'the'
p7002
aS'his'
p7003
aS'the'
p7004
aS'his'
p7005
aS'his'
p7006
aS'the'
p7007
aS'you'
p7008
ag251
aS'me'
p7009
aS'you'
p7010
aS'some'
p7011
aS'Queen'
p7012
aS'Nicki'
p7013
aS'my'
p7014
ag251
aS'the'
p7015
aS'you'
p7016
aS'them'
p7017
ag251
aS'that'
p7018
aS'an'
p7019
as(S'mother'
p7020
tp7021
(lp7022
S'more'
p7023
as(S'get'
p7024
tp7025
(lp7026
S'it'
p7027
aS'it'
p7028
aS'someone'
p7029
ag251
aS'what'
p7030
aS'it'
p7031
aS'the'
p7032
aS'you'
p7033
aS'the'
p7034
aS'twisted'
p7035
aS'lifted'
p7036
aS'what'
p7037
aS'low'
p7038
aS'the'
p7039
aS"D'ed"
p7040
aS'mad'
p7041
aS'chewed'
p7042
aS'chewed'
p7043
aS'it'
p7044
aS'it'
p7045
aS'my'
p7046
aS"repo'd"
p7047
aS'the'
p7048
aS'money'
p7049
aS'pissy'
p7050
aS'near'
p7051
aS'me'
p7052
aS'the'
p7053
ag251
aS'that'
p7054
aS'gassed'
p7055
as(S'itself'
p7056
tp7057
(lp7058
S'and'
p7059
as(S'contemplating'
p7060
tp7061
(lp7062
S"Overdosin'"
p7063
as(S'face'
p7064
tp7065
(lp7066
S'and'
p7067
aS'another'
p7068
aS"it's"
p7069
aS'he'
p7070
aS'like'
p7071
as(S'album'
p7072
tp7073
(lp7074
S'Who'
p7075
aS'You'
p7076
as(S'rider'
p7077
tp7078
(lp7079
S'you'
p7080
as(S'figured'
p7081
tp7082
(lp7083
S'if'
p7084
ag48
as(S"It's"
p7085
tp7086
(lp7087
S'like'
p7088
aS'just'
p7089
aS'just'
p7090
aS'bottle'
p7091
aS'showtime'
p7092
as(S'octagon'
p7093
tp7094
(lp7095
S'stop'
p7096
as(S"killin'"
p7097
tp7098
(lp7099
S'it'
p7100
as(S'meant'
p7101
tp7102
(lp7103
S'Cherish'
p7104
aS'it'
p7105
as(S'Couple'
p7106
tp7107
(lp7108
S'Bushwick'
p7109
as(S'Boeing'
p7110
tp7111
(lp7112
S'jet'
p7113
as(S'matters'
p7114
tp7115
(lp7116
S'And'
p7117
as(S'Come'
p7118
tp7119
(lp7120
S'through'
p7121
aS'through'
p7122
as(S'school'
p7123
tp7124
(lp7125
S'and'
p7126
as(S'proof'
p7127
tp7128
(lp7129
S'Cause'
p7130
as(S'neglected'
p7131
tp7132
(lp7133
g48
as(S"fuck's"
p7134
tp7135
(lp7136
S'sake'
p7137
as(S'then'
p7138
tp7139
(lp7140
S'you'
p7141
ag48
aS'they'
p7142
aS'nigga'
p7143
as(S'any'
p7144
tp7145
(lp7146
S'minute'
p7147
aS'Meet'
p7148
as(S'thinking'
p7149
tp7150
(lp7151
S'about'
p7152
as(S"ownin'"
p7153
tp7154
(lp7155
S'that'
p7156
as(S'ordered'
p7157
tp7158
(lp7159
S'that'
p7160
as(S'beast'
p7161
tp7162
(lp7163
S'mode'
p7164
as(S'girls'
p7165
tp7166
(lp7167
S"lookin'"
p7168
aS'we'
p7169
aS'for'
p7170
aS'are'
p7171
aS'bad'
p7172
aS'is'
p7173
aS'run'
p7174
as(S"wit'"
p7175
tp7176
(lp7177
S'the'
p7178
as(S'Life'
p7179
tp7180
(lp7181
S'is'
p7182
as(S"can't"
p7183
tp7184
(lp7185
S'get'
p7186
aS'come'
p7187
aS'get'
p7188
aS'fuck'
p7189
aS'be'
p7190
aS'be'
p7191
aS'let'
p7192
aS'rent'
p7193
as(S'from'
p7194
tp7195
(lp7196
S'now'
p7197
aS'Santa'
p7198
aS'my'
p7199
aS'topic'
p7200
aS'all'
p7201
aS'the'
p7202
aS'Cuba'
p7203
aS'Aye'
p7204
aS'Clap'
p7205
as(S'dishes'
p7206
tp7207
(lp7208
S"Sayin'"
p7209
as(S"twitchin'"
p7210
tp7211
(lp7212
S'finish'
p7213
as(S'about'
p7214
tp7215
(lp7216
S'me'
p7217
aS'the'
p7218
aS"Eiffel's"
p7219
aS'to'
p7220
ag251
aS'that'
p7221
aS'it'
p7222
aS'my'
p7223
aS'my'
p7224
aS'pool'
p7225
aS'good'
p7226
as(S'throw'
p7227
tp7228
(lp7229
S'Miss'
p7230
as(S'forget'
p7231
tp7232
(lp7233
S'but'
p7234
as(S'must'
p7235
tp7236
(lp7237
S'be'
p7238
aS'have'
p7239
as(S'Cutlet'
p7240
tp7241
(lp7242
S'Let'
p7243
as(S'This'
p7244
tp7245
(lp7246
S'what'
p7247
aS"ain't"
p7248
aS'shit'
p7249
aS'the'
p7250
aS'shit'
p7251
as(S'shitty'
p7252
tp7253
(lp7254
S"Don't"
p7255
as(S'ever'
p7256
tp7257
(lp7258
S'play'
p7259
aS'enough'
p7260
as(S'McQueen'
p7261
tp7262
(lp7263
S'he'
p7264
as(S'Let'
p7265
tp7266
(lp7267
S'me'
p7268
aS'me'
p7269
aS'me'
p7270
aS'that'
p7271
aS'it'
p7272
aS'him'
p7273
aS'him'
p7274
as(S'The'
p7275
tp7276
(lp7277
S'more'
p7278
aS'Pinkprint'
p7279
aS'Run'
p7280
as(S'kahuna'
p7281
tp7282
(lp7283
S'go'
p7284
as(S'pissed'
p7285
tp7286
(lp7287
S'off'
p7288
as(S'friends'
p7289
tp7290
(lp7291
S'for'
p7292
aS'They'
p7293
aS'in'
p7294
as(S'll'
p7295
tp7296
(lp7297
S'be'
p7298
aS'get'
p7299
aS'get'
p7300
as(S'palace'
p7301
tp7302
(lp7303
S'London'
p7304
aS'Bo-bought'
p7305
as(S'Plus'
p7306
tp7307
(lp7308
S'Eight'
p7309
as(S'Lemme'
p7310
tp7311
(lp7312
S'get'
p7313
as(S'here'
p7314
tp7315
(lp7316
S'we'
p7317
aS'is'
p7318
aS'lookin\xe2'
p7319
aS'to'
p7320
aS'right'
p7321
as(S'column'
p7322
tp7323
(lp7324
S'Who'
p7325
as(S"'em"
p7326
tp7327
(lp7328
S'Family'
p7329
aS'and'
p7330
aS'eat'
p7331
aS'five'
p7332
aS'tackle'
p7333
aS'boney'
p7334
aS'boney'
p7335
aS'it\xe2'
p7336
aS'Yo'
p7337
aS'cop'
p7338
aS'fuck'
p7339
aS'If'
p7340
aS'aggy'
p7341
ag48
aS'hidden'
p7342
aS'bad'
p7343
as(S'Drake'
p7344
tp7345
(lp7346
S'On'
p7347
as(S'Claus'
p7348
tp7349
(lp7350
S'at'
p7351
as(S'strap'
p7352
tp7353
(lp7354
S'You'
p7355
as(S'know'
p7356
tp7357
(lp7358
S'that'
p7359
aS'Jelani'
p7360
aS"it's"
p7361
ag48
aS'it'
p7362
aS'--'
p7363
aS'Just'
p7364
aS'it'
p7365
aS"it's"
p7366
aS'what'
p7367
aS'what'
p7368
aS'if'
p7369
aS'if'
p7370
aS'it'
p7371
aS'that'
p7372
aS'they'
p7373
aS'if'
p7374
aS'them'
p7375
aS'my'
p7376
as(S'civilians'
p7377
tp7378
(lp7379
S'what'
p7380
as(S'ran'
p7381
tp7382
(lp7383
S'through'
p7384
as(S'over'
p7385
tp7386
(lp7387
S'him'
p7388
aS'the'
p7389
aS'don\xe2'
p7390
aS'oceans'
p7391
aS'fuck'
p7392
aS'fuck'
p7393
as(S'Just'
p7394
tp7395
(lp7396
S'yesterday'
p7397
aS'finished'
p7398
aS'go'
p7399
aS'on'
p7400
aS'heard'
p7401
aS'my'
p7402
as(S'control'
p7403
tp7404
(lp7405
S'you'
p7406
aS"Ain't"
p7407
as(S'darkest'
p7408
tp7409
(lp7410
S'hour'
p7411
aS'hour'
p7412
as(S'each'
p7413
tp7414
(lp7415
S'other'
p7416
as(S'sure'
p7417
tp7418
(lp7419
S'Ayo'
p7420
aS'Rihmeek'
p7421
aS'the'
p7422
as(S'dare'
p7423
tp7424
(lp7425
S'me'
p7426
as(S'fault'
p7427
tp7428
(lp7429
S'But'
p7430
as(S'nah'
p7431
tp7432
(lp7433
S'man'
p7434
as(S'are'
p7435
tp7436
(lp7437
S'my'
p7438
as(S'scary'
p7439
tp7440
(lp7441
S'Got'
p7442
as(S'different'
p7443
tp7444
(lp7445
S'from'
p7446
as(S'worth'
p7447
tp7448
(lp7449
S'when'
p7450
as(S'lying'
p7451
tp7452
(lp7453
S'get'
p7454
as(S"'o-six"
p7455
tp7456
(lp7457
S'Ten'
p7458
as(S'connection'
p7459
tp7460
(lp7461
S'and'
p7462
as(S'yeah'
p7463
tp7464
(lp7465
g48
aS'them'
p7466
as(S'believe'
p7467
tp7468
(lp7469
S'that'
p7470
as(S'nigga\xe2'
p7471
tp7472
(lp7473
g1027
as(S'gone'
p7474
tp7475
(lp7476
S'They'
p7477
aS'They'
p7478
as(S'did'
p7479
tp7480
(lp7481
S'it'
p7482
aS'it'
p7483
aS"I'd"
p7484
aS'Bitches'
p7485
aS'it'
p7486
aS'Bitch'
p7487
aS'These'
p7488
as(S'best'
p7489
tp7490
(lp7491
g48
as(S'down'
p7492
tp7493
(lp7494
S'Yes'
p7495
aS'you'
p7496
aS"I'ma"
p7497
aS'you'
p7498
aS'Run'
p7499
aS'to'
p7500
aS"it's"
p7501
as(S'laced'
p7502
tp7503
(lp7504
S'with'
p7505
aS'with'
p7506
aS'Yo'
p7507
as(S'boney'
p7508
tp7509
(lp7510
S'he'
p7511
aS'he'
p7512
as(S'Bey'
p7513
tp7514
(lp7515
S'and'
p7516
as(S'half'
p7517
tp7518
(lp7519
g251
as(S'dues'
p7520
tp7521
(lp7522
S'and'
p7523
as(S'nights'
p7524
tp7525
(lp7526
S'cherish'
p7527
as(S'in-vent'
p7528
tp7529
(lp7530
g48
as(S'ledge'
p7531
tp7532
(lp7533
S'Put'
p7534
as(S'feed'
p7535
tp7536
(lp7537
S'him'
p7538
as(S'counting'
p7539
tp7540
(lp7541
S'for'
p7542
as(S'eventually'
p7543
tp7544
(lp7545
S'you'
p7546
as(S'gynecologist'
p7547
tp7548
(lp7549
S'But'
p7550
as(S'Labeouf'
p7551
tp7552
(lp7553
S'shy-and-the-buff'
p7554
as(S'Here'
p7555
tp7556
(lp7557
S'we'
p7558
as(S'picks'
p7559
tp7560
(lp7561
S'up'
p7562
as(S'leeway'
p7563
tp7564
(lp7565
S'My'
p7566
as(S"buggin'"
p7567
tp7568
(lp7569
S'Cause'
p7570
aS'Cause'
p7571
as(S'rely'
p7572
tp7573
(lp7574
S'on'
p7575
as(S"bouncin'"
p7576
tp7577
(lp7578
S'it'
p7579
as(S'Troy'
p7580
tp7581
(lp7582
S'used'
p7583
as(S"coastin'"
p7584
tp7585
(lp7586
S'no'
p7587
as(S'Balmain'
p7588
tp7589
(lp7590
S"I'm"
p7591
as(S'plaques'
p7592
tp7593
(lp7594
S'from'
p7595
as(S'Maybach'
p7596
tp7597
(lp7598
S'black'
p7599
as(S'movie'
p7600
tp7601
(lp7602
S'but'
p7603
as(S'just'
p7604
tp7605
(lp7606
S'sit'
p7607
aS"buggin'"
p7608
aS"'bout"
p7609
aS'rekindle'
p7610
aS'to'
p7611
aS'his'
p7612
ag251
aS'planning'
p7613
aS"tellin'"
p7614
aS'abusive'
p7615
aS'act'
p7616
aS'put'
p7617
aS'ate'
p7618
aS'not'
p7619
aS'be'
p7620
aS'by'
p7621
aS'me'
p7622
aS'me'
p7623
aS'the'
p7624
aS'wanna'
p7625
aS'wanna'
p7626
aS'wanna'
p7627
aS'wanna'
p7628
aS'wanna'
p7629
aS'cruise'
p7630
aS'reflect'
p7631
aS'figured'
p7632
aS'figured'
p7633
ag251
aS"couldn't"
p7634
aS'us'
p7635
aS'to'
p7636
aS'watch'
p7637
aS'his'
p7638
as(S'type'
p7639
tp7640
(lp7641
S'of'
p7642
as(S'fucking'
p7643
tp7644
(lp7645
S'proof'
p7646
aS'heavy'
p7647
aS'miss'
p7648
aS'with'
p7649
aS'with'
p7650
as(S'better'
p7651
tp7652
(lp7653
S'just'
p7654
aS'move'
p7655
as(S'pushing'
p7656
tp7657
(lp7658
S'daffodils'
p7659
as(S'Ten'
p7660
tp7661
(lp7662
S'years'
p7663
as(S"I'm"
p7664
tp7665
(lp7666
S'good'
p7667
aS'peaceful'
p7668
aS'taking'
p7669
aS'not'
p7670
aS'just'
p7671
aS'not'
p7672
aS'so'
p7673
aS'just'
p7674
aS'around'
p7675
aS'just'
p7676
aS"bouncin'"
p7677
aS"ridin'"
p7678
aS"murkin'"
p7679
aS"twerkin'"
p7680
aS'on'
p7681
aS'with'
p7682
aS'back'
p7683
aS"feelin'"
p7684
aS"feelin'"
p7685
aS'icy'
p7686
aS"prayin'"
p7687
aS'still'
p7688
aS'the'
p7689
aS'in'
p7690
aS'getting'
p7691
aS'throwing'
p7692
aS'just'
p7693
aS'the'
p7694
aS'in'
p7695
aS'high-saditty'
p7696
aS'popping'
p7697
aS'pulling'
p7698
aS'late'
p7699
aS'fucking'
p7700
aS'in'
p7701
aS'in'
p7702
aS'getting'
p7703
ag251
aS'busy'
p7704
aS'not'
p7705
aS'gonna'
p7706
aS'high'
p7707
aS'on'
p7708
aS'on'
p7709
aS"ownin'"
p7710
aS'in'
p7711
aS'on'
p7712
aS"tippin'"
p7713
aS'too'
p7714
aS'still'
p7715
aS'good'
p7716
aS'in'
p7717
aS'all'
p7718
aS'all'
p7719
aS'all'
p7720
aS'all'
p7721
aS'out'
p7722
aS'hungry'
p7723
aS'out'
p7724
as(S"y'all"
p7725
tp7726
(lp7727
S'niggas'
p7728
aS'be'
p7729
as(S'ditch'
p7730
tp7731
(lp7732
S'I\xe2'
p7733
as(S'Tell'
p7734
tp7735
(lp7736
S'me-tell'
p7737
aS'the'
p7738
ag167
ag167
aS"'em"
p7739
as(S'noise'
p7740
tp7741
(lp7742
S'out'
p7743
aS'out'
p7744
as(S'European'
p7745
tp7746
(lp7747
S'Asian'
p7748
as(S'defend'
p7749
tp7750
(lp7751
S'What'
p7752
as(S'drop'
p7753
tp7754
(lp7755
S'the'
p7756
aS'the'
p7757
as(S'game'
p7758
tp7759
(lp7760
S'stall'
p7761
aS'we'
p7762
aS'heart'
p7763
aS'where'
p7764
aS'made'
p7765
aS'you'
p7766
aS'now'
p7767
ag48
aS'is'
p7768
aS'will'
p7769
aS'finger'
p7770
aS'Go'
p7771
aS"'09"
p7772
as(S'40'
p7773
tp7774
(lp7775
g48
as(S'the'
p7776
tp7777
(lp7778
g3376
aS'heat'
p7779
aS'same'
p7780
aS'reflection'
p7781
aS'look'
p7782
aS'last'
p7783
aS'ones'
p7784
aS'most'
p7785
aS'more'
p7786
aS'both'
p7787
aS'game'
p7788
aS'way'
p7789
ag787
aS'game'
p7790
aS'floor'
p7791
aS'Ace'
p7792
aS'Ace'
p7793
aS'clubs'
p7794
aS'crying'
p7795
aS'crying'
p7796
aS'toll'
p7797
aS'face'
p7798
aS'head'
p7799
aS'position'
p7800
aS'rundown'
p7801
aS'North'
p7802
aS'Kings'
p7803
aS'Queen'
p7804
aS'Queen'
p7805
aS'poster'
p7806
aS'big'
p7807
aS'top'
p7808
aS'rock'
p7809
aS'first'
p7810
aS'fuck'
p7811
aS'game'
p7812
aS'fuck'
p7813
aS'Boeing'
p7814
aS'illest'
p7815
aS'biggest'
p7816
aS'King'
p7817
aS'celly'
p7818
aS'deli'
p7819
aS'Rucker'
p7820
aS'Bruckner'
p7821
aS'money'
p7822
aS"nigga's"
p7823
aS'six'
p7824
ag3376
aS'parent'
p7825
aS'best'
p7826
aS'queen'
p7827
aS'puff'
p7828
aS'mic'
p7829
aS'fighter'
p7830
aS'weed'
p7831
aS'road'
p7832
aS'only'
p7833
aS'truck'
p7834
aS'city'
p7835
aS'clubs'
p7836
aS'baddest'
p7837
aS'maddest'
p7838
aS'bag'
p7839
aS'truth'
p7840
aS'other'
p7841
aS'two'
p7842
aS'one'
p7843
aS'kitty'
p7844
aS'benches'
p7845
aS'wash'
p7846
aS'baddest'
p7847
aS'planet'
p7848
aS'law'
p7849
aS'way'
p7850
aS'Jag'
p7851
aS'jab'
p7852
aS'way'
p7853
aS'Jag'
p7854
aS'jab'
p7855
aS'night'
p7856
aS'present'
p7857
aS'gifted'
p7858
aS'stars'
p7859
aS'drinks'
p7860
aS'bartender'
p7861
aS'next'
p7862
aS'pop'
p7863
aS'top'
p7864
aS'shoes'
p7865
aS'game'
p7866
aS'bridges'
p7867
aS'Bible'
p7868
aS'issue'
p7869
aS'bad'
p7870
aS'envy'
p7871
aS'hills'
p7872
aS'rush'
p7873
aS'thrill'
p7874
aS'crib'
p7875
aS'public'
p7876
aS'song'
p7877
aS'lies'
p7878
aS'tears'
p7879
aS'fuck'
p7880
aS'fuck'
p7881
aS'song'
p7882
aS'pussy'
p7883
aS'moment'
p7884
aS'Knicks'
p7885
aS'club'
p7886
aS'winter-time'
p7887
aS'winter-time'
p7888
aS'size'
p7889
aS'G-code'
p7890
aS'type'
p7891
aS'stain'
p7892
aS'same'
p7893
aS'game'
p7894
aS'Bridge-y'
p7895
aS'queen'
p7896
aS'Bridge-y'
p7897
aS'queen'
p7898
aS'greatest'
p7899
aS'highest'
p7900
aS'record'
p7901
aS'ballpoint'
p7902
aS'baddest'
p7903
aS'colleges'
p7904
aS'pussy'
p7905
aS'fuck'
p7906
aS'panel'
p7907
aS'trap'
p7908
aS'balcony'
p7909
aS'hammer'
p7910
aS'black'
p7911
aS'red'
p7912
aS'game'
p7913
aS'Queen'
p7914
as(S'sundown'
p7915
tp7916
(lp7917
S'You'
p7918
as(S'cruise'
p7919
tp7920
(lp7921
S'control'
p7922
aS'We'
p7923
as(S'what'
p7924
tp7925
(lp7926
S'people'
p7927
aS'they'
p7928
aS'they'
p7929
aS'happens'
p7930
aS'Another'
p7931
aS"you're"
p7932
ag48
aS'they'
p7933
ag48
aS'up'
p7934
aS'you'
p7935
aS'if'
p7936
aS'he'
p7937
aS'he'
p7938
aS'you'
p7939
aS'you'
p7940
aS'you'
p7941
aS'you'
p7942
aS'you'
p7943
aS'bank'
p7944
aS'you'
p7945
aS'you'
p7946
aS'we'
p7947
aS'you'
p7948
aS'Shyne'
p7949
aS"it's"
p7950
aS'is'
p7951
aS'they'
p7952
aS'they'
p7953
aS'they'
p7954
ag48
as(g48
tp7955
(lp7956
S'had'
p7957
aS'put'
p7958
aS'put'
p7959
aS'look'
p7960
aS'see'
p7961
aS'just'
p7962
aS'swear'
p7963
aS'looked'
p7964
aS'suppose'
p7965
aS'lost'
p7966
aS"didn't"
p7967
aS'just'
p7968
aS'got'
p7969
aS'love'
p7970
aS'get'
p7971
aS'get'
p7972
aS'pop'
p7973
aS'still'
p7974
aS'love'
p7975
aS'could'
p7976
aS'work'
p7977
aS'feel'
p7978
aS'want'
p7979
aS'feel'
p7980
aS'know'
p7981
aS'can\xe2'
p7982
aS'can\xe2'
p7983
aS'said'
p7984
aS'ain\xe2'
p7985
aS'need'
p7986
aS'fall'
p7987
aS'thought'
p7988
aS'hate'
p7989
aS'wanna'
p7990
aS'know'
p7991
aS'know'
p7992
aS'intimidate'
p7993
aS"couldn't"
p7994
aS'want'
p7995
aS'be'
p7996
aS'bagged'
p7997
aS"Birkin'd"
p7998
aS'curve'
p7999
aS'whip'
p8000
aS'be'
p8001
aS'say'
p8002
aS'said'
p8003
aS'do'
p8004
aS'said'
p8005
aS'have'
p8006
aS'be'
p8007
aS'am'
p8008
aS'be'
p8009
aS'never'
p8010
aS'never'
p8011
aS'did'
p8012
aS"don't"
p8013
aS'walk'
p8014
aS"don't"
p8015
aS'was'
p8016
aS'fuck'
p8017
aS"don't"
p8018
aS'gotta'
p8019
aS'popped'
p8020
aS'said'
p8021
aS'nickname'
p8022
aS'tell'
p8023
aS'get'
p8024
aS"don't"
p8025
aS'mean'
p8026
aS'do'
p8027
aS'do'
p8028
aS"don't"
p8029
aS'got'
p8030
aS'pay'
p8031
aS'can'
p8032
aS'got'
p8033
aS'say'
p8034
aS'brung'
p8035
aS'think'
p8036
aS"don't"
p8037
aS'am'
p8038
aS'am'
p8039
aS'make'
p8040
aS'just'
p8041
aS"ain't"
p8042
aS'never'
p8043
aS"don't"
p8044
aS'just'
p8045
aS'just'
p8046
aS'say'
p8047
aS'fucking'
p8048
aS'just'
p8049
aS'wanna'
p8050
aS'would'
p8051
aS'just'
p8052
aS'would'
p8053
aS'speak'
p8054
aS'still'
p8055
aS'already'
p8056
aS'could'
p8057
aS'could'
p8058
aS'could'
p8059
aS'was'
p8060
aS"wasn't"
p8061
aS'was'
p8062
aS'would'
p8063
aS"can't"
p8064
aS'came'
p8065
aS'had'
p8066
aS'only'
p8067
aS"ain't"
p8068
aS'pulled'
p8069
aS'hit'
p8070
aS"ain't"
p8071
aS'let'
p8072
aS'make'
p8073
aS"ain't"
p8074
aS'pulled'
p8075
aS'told'
p8076
aS'still'
p8077
aS'just'
p8078
aS"won't"
p8079
aS'sped'
p8080
aS'see'
p8081
aS'pop'
p8082
aS'hit'
p8083
aS'was'
p8084
aS'told'
p8085
aS'said'
p8086
aS'was'
p8087
aS'told'
p8088
aS'was'
p8089
aS"should've"
p8090
aS'just'
p8091
aS'just'
p8092
aS'was'
p8093
aS"couldn't"
p8094
aS'just'
p8095
aS"couldn't"
p8096
aS"couldn't"
p8097
aS'was'
p8098
aS'could'
p8099
aS"ain't"
p8100
aS"ain't"
p8101
aS"should've"
p8102
aS'ball'
p8103
aS'put'
p8104
aS'might'
p8105
aS'took'
p8106
aS'could'
p8107
aS"ain't"
p8108
aS'do'
p8109
aS'come'
p8110
aS'call'
p8111
aS'came'
p8112
aS'start'
p8113
aS"couldn't"
p8114
aS'did'
p8115
aS'still'
p8116
aS'am'
p8117
aS'am'
p8118
aS"don't"
p8119
aS"don't"
p8120
aS'am'
p8121
aS'am'
p8122
aS'came'
p8123
aS"couldn't"
p8124
aS'been'
p8125
aS'been'
p8126
aS'sat'
p8127
aS'leave'
p8128
aS'came'
p8129
aS'told'
p8130
aS'would'
p8131
aS'never'
p8132
aS'know'
p8133
aS'made'
p8134
aS'made'
p8135
aS'must'
p8136
aS"ain't"
p8137
aS"ain't"
p8138
aS"don't"
p8139
aS"can't"
p8140
aS'might'
p8141
aS"ain't"
p8142
aS'floss'
p8143
aS"ain't"
p8144
aS'invented'
p8145
aS"ain't"
p8146
aS'meant'
p8147
aS'try'
p8148
aS'had'
p8149
aS'could'
p8150
aS"don't"
p8151
aS"ain't"
p8152
aS"ain't"
p8153
aS'know'
p8154
aS'like'
p8155
aS'like'
p8156
aS'know'
p8157
aS"ain't"
p8158
aS'feast'
p8159
aS'did'
p8160
aS'live'
p8161
aS'mean'
p8162
aS'came'
p8163
as(S'them'
p8164
tp8165
(lp8166
S"It's"
p8167
aS'brake'
p8168
aS'fireworks'
p8169
aS'niggas'
p8170
aS"ki's"
p8171
aS'ballers'
p8172
aS'whores'
p8173
aS'real'
p8174
aS'chickens'
p8175
aS'bitches'
p8176
aS'jelly'
p8177
aS'girls'
p8178
aS'looking'
p8179
aS'dividends'
p8180
aS'trips'
p8181
aS'VIPs'
p8182
aS'change'
p8183
aS'wanna'
p8184
aS'clubs'
p8185
aS'regulars'
p8186
aS'pushing'
p8187
aS'big'
p8188
aS'dudes'
p8189
aS'tools'
p8190
aS'dudes'
p8191
aS'tools'
p8192
aS'boys'
p8193
aS'toys'
p8194
aS'boys'
p8195
aS'toys'
p8196
aS'but'
p8197
aS'fo-fours'
p8198
aS'that'
p8199
aS'other'
p8200
aS'other'
p8201
aS'bitches'
p8202
as(S'list'
p8203
tp8204
(lp8205
S"I'm"
p8206
aS'It'
p8207
as(S'twisted'
p8208
tp8209
(lp8210
S'Myx'
p8211
as(S'ones'
p8212
tp8213
(lp8214
S'that'
p8215
as(S'want'
p8216
tp8217
(lp8218
S"'Caiah"
p8219
aS'is'
p8220
aS'that'
p8221
aS'that'
p8222
aS'some'
p8223
ag251
aS'to'
p8224
ag251
aS'something'
p8225
aS'something'
p8226
aS'all'
p8227
aS'respect'
p8228
aS'me'
p8229
as(S'cause'
p8230
tp8231
(lp8232
g48
ag48
aS"I'm"
p8233
aS'my'
p8234
aS'he'
p8235
aS'we'
p8236
ag48
ag48
as(S'swear'
p8237
tp8238
(lp8239
S'it'
p8240
as(S'add'
p8241
tp8242
(lp8243
S'to'
p8244
as(S'fictitious'
p8245
tp8246
(lp8247
S"Sayin'"
p8248
as(S'be'
p8249
tp8250
(lp8251
g251
aS'smashing'
p8252
aS'loved'
p8253
aS'back'
p8254
aS'laughing'
p8255
aS'thinking'
p8256
aS"talkin'"
p8257
aS'really'
p8258
aS"learnin'"
p8259
aS"earnin'"
p8260
aS"whippin'"
p8261
aS"whippin'"
p8262
aS'happy'
p8263
aS'wanting'
p8264
aS'counting'
p8265
aS'jumping'
p8266
aS'like'
p8267
aS'acting'
p8268
aS'ya'
p8269
aS'somebody'
p8270
ag251
ag251
aS'your'
p8271
aS'the'
p8272
aS'your'
p8273
aS'going'
p8274
aS'in'
p8275
aS'If'
p8276
aS'classy'
p8277
aS'sick'
p8278
aS'mad'
p8279
aS'freed'
p8280
aS'around'
p8281
aS'delayed'
p8282
aS'debated'
p8283
aS'fucking'
p8284
aS'wanting'
p8285
aS"talkin'"
p8286
as(S'monster'
p8287
tp8288
(lp8289
S'this'
p8290
as(S'crazy'
p8291
tp8292
(lp8293
S'if'
p8294
as(S'soak'
p8295
tp8296
(lp8297
S'in'
p8298
as(S'leaving'
p8299
tp8300
(lp8301
S"'till"
p8302
as(S'problem'
p8303
tp8304
(lp8305
S'Who'
p8306
aS'Hit'
p8307
as(S'loved'
p8308
tp8309
(lp8310
S"I'll"
p8311
as(S'pool'
p8312
tp8313
(lp8314
S'life'
p8315
as(S'listen'
p8316
tp8317
(lp8318
S'when'
p8319
as(S'her'
p8320
tp8321
(lp8322
S'fourth'
p8323
aS'own'
p8324
aS'Get'
p8325
aS'Ain\xe2'
p8326
aS'wrist'
p8327
as(S'kitty'
p8328
tp8329
(lp8330
S'cat'
p8331
as(S'getting'
p8332
tp8333
(lp8334
S'money'
p8335
aS'leeway'
p8336
aS'six'
p8337
aS'any'
p8338
aS'acting'
p8339
aS'money'
p8340
as(S'while'
p8341
tp8342
(lp8343
S'it'
p8344
as(S'fight-weight'
p8345
tp8346
(lp8347
S'Wrist'
p8348
as(S'gotta'
p8349
tp8350
(lp8351
S'sweat'
p8352
aS'rely'
p8353
aS'say'
p8354
aS'sell'
p8355
aS'compete'
p8356
aS'pay'
p8357
aS'book'
p8358
as(S'boys'
p8359
tp8360
(lp8361
S'want'
p8362
aS'out'
p8363
aS'out'
p8364
as(S'country-ass'
p8365
tp8366
(lp8367
S'nigga'
p8368
as(S'balance'
p8369
tp8370
(lp8371
S"I'mma"
p8372
as(S'missed'
p8373
tp8374
(lp8375
S'my'
p8376
as(S'up'
p8377
tp8378
(lp8379
S'my'
p8380
aS'straight'
p8381
aS'to'
p8382
aS'with'
p8383
aS'nigga'
p8384
aS'in'
p8385
aS"I'm"
p8386
aS'in'
p8387
aS'in'
p8388
aS'in'
p8389
aS'in'
p8390
aS'in'
p8391
aS'on'
p8392
aS'on'
p8393
aS'the'
p8394
aS'like'
p8395
aS'in'
p8396
aS'with'
p8397
aS'even'
p8398
aS'Tell'
p8399
ag48
aS'if'
p8400
aS'now'
p8401
as(S'graceful'
p8402
tp8403
(lp8404
g48
as(S'Jean'
p8405
tp8406
(lp8407
S'Vest'
p8408
as(S'ain\xe2'
p8409
tp8410
(lp8411
g732
ag732
ag732
ag732
as(S'urban'
p8412
tp8413
(lp8414
S"Ain't"
p8415
as(S'What'
p8416
tp8417
(lp8418
S'we'
p8419
aS'the'
p8420
aS'you'
p8421
aS'the'
p8422
as(S'millions'
p8423
tp8424
(lp8425
S"I'm"
p8426
as(S'finished'
p8427
tp8428
(lp8429
S'writing'
p8430
as(S'both'
p8431
tp8432
(lp8433
S'of'
p8434
aS'and'
p8435
as(S'remember'
p8436
tp8437
(lp8438
S'the'
p8439
aS'this'
p8440
aS'all'
p8441
aS'our'
p8442
as(S'son'
p8443
tp8444
(lp8445
S'but'
p8446
ag48
ag48
as(S'You'
p8447
tp8448
(lp8449
S'said'
p8450
aS'just'
p8451
aS"ain't"
p8452
aS'was'
p8453
aS'make'
p8454
aS'got'
p8455
aS'bitches'
p8456
aS'my'
p8457
aS'can'
p8458
aS'seen'
p8459
aS'niggas'
p8460
aS'want'
p8461
aS'niggas'
p8462
aS'should'
p8463
aS"ain't"
p8464
aS'could'
p8465
aS'could'
p8466
aS'said'
p8467
aS'get'
p8468
aS'could'
p8469
ag251
aS'was'
p8470
aS'was'
p8471
aS'mad'
p8472
aS'watch'
p8473
aS'bitches'
p8474
aS'could'
p8475
aS'could'
p8476
aS'bitches'
p8477
aS'better'
p8478
ag251
aS'know'
p8479
as(S'Box'
p8480
tp8481
(lp8482
S'spring'
p8483
as(S'Want'
p8484
tp8485
(lp8486
S'it'
p8487
as(S'wedge'
p8488
tp8489
(lp8490
S'check'
p8491
as(S'Barbie'
p8492
tp8493
(lp8494
S'bitch'
p8495
aS'bitch'
p8496
as(S"ridin'"
p8497
tp8498
(lp8499
S"I'm"
p8500
as(S'through'
p8501
tp8502
(lp8503
S'Texas'
p8504
ag48
aS'the'
p8505
aS'and'
p8506
aS'and'
p8507
aS'that'
p8508
as(S"talkin'"
p8509
tp8510
(lp8511
S'so'
p8512
aS'about'
p8513
aS'bout'
p8514
as(S'city'
p8515
tp8516
(lp8517
S'want'
p8518
as(S'wedding'
p8519
tp8520
(lp8521
S'Caucasian'
p8522
as(S'Your'
p8523
tp8524
(lp8525
S'time'
p8526
aS'whole'
p8527
as(S'laser'
p8528
tp8529
(lp8530
S"Drippin'"
p8531
as(S'buy'
p8532
tp8533
(lp8534
S'me'
p8535
aS'this'
p8536
as(S'die'
p8537
tp8538
(lp8539
g167
as(S'hourglass'
p8540
tp8541
(lp8542
S'figure'
p8543
as(S'Di-dick'
p8544
tp8545
(lp8546
S'bigger'
p8547
as(S'lies'
p8548
tp8549
(lp8550
g48
as(S'song'
p8551
tp8552
(lp8553
S'alone'
p8554
ag48
aS'Pulled'
p8555
as(S'step'
p8556
tp8557
(lp8558
S'they'
p8559
aS'they'
p8560
as(S'gang'
p8561
tp8562
(lp8563
S'always'
p8564
as(S'happens'
p8565
tp8566
(lp8567
S'if'
p8568
as(S'Myx'
p8569
tp8570
(lp8571
S'Moscato'
p8572
as(S'budge'
p8573
tp8574
(lp8575
S'Cause'
p8576
as(S'pic'
p8577
tp8578
(lp8579
S'go'
p8580
as(S'Blood'
p8581
tp8582
(lp8583
S"drippin'"
p8584
as(S'mileages'
p8585
tp8586
(lp8587
S'pussy'
p8588
as(S'Spur'
p8589
tp8590
(lp8591
S'of'
p8592
as(S'pound'
p8593
tp8594
(lp8595
S'it'
p8596
as(S'Today'
p8597
tp8598
(lp8599
S"I'm"
p8600
as(S'coins'
p8601
tp8602
(lp8603
S'Was'
p8604
as(S'tasteful'
p8605
tp8606
(lp8607
S'Even'
p8608
as(S"Drippin'"
p8609
tp8610
(lp8611
S'on'
p8612
as(S'Kanye'
p8613
tp8614
(lp8615
S'saying'
p8616
as(S'writing'
p8617
tp8618
(lp8619
S'this'
p8620
as(S'ho'
p8621
tp8622
(lp8623
S'ho'
p8624
aS'let'
p8625
aS'know'
p8626
aS'just'
p8627
aS"I'm"
p8628
as(S'coming'
p8629
tp8630
(lp8631
S'in'
p8632
as(S'think'
p8633
tp8634
(lp8635
S'that'
p8636
aS"it's"
p8637
aS"I'mma"
p8638
as(S"workin'"
p8639
tp8640
(lp8641
S'with'
p8642
as(S'floss'
p8643
tp8644
(lp8645
S'everyday'
p8646
as(S'Fuck'
p8647
tp8648
(lp8649
S'with'
p8650
aS'what'
p8651
as(S'our'
p8652
tp8653
(lp8654
S'connection'
p8655
as(S"toastin'"
p8656
tp8657
(lp8658
S'over'
p8659
as(S'On'
p8660
tp8661
(lp8662
S'The'
p8663
aS'my'
p8664
as(S'come'
p8665
tp8666
(lp8667
S'you'
p8668
aS'down'
p8669
aS'slide'
p8670
aS'and'
p8671
aS'before'
p8672
aS'before'
p8673
aS'by'
p8674
aS'and'
p8675
as(S'named'
p8676
tp8677
(lp8678
S'Troy'
p8679
aS'Michael'
p8680
as(S'Pat'
p8681
tp8682
(lp8683
S'pat'
p8684
as(S'Kitty'
p8685
tp8686
(lp8687
S'on'
p8688
as(S'yell'
p8689
tp8690
(lp8691
S'at'
p8692
as(S'until'
p8693
tp8694
(lp8695
g48
as(S'spring'
p8696
tp8697
(lp8698
S'cost'
p8699
as(S'touch'
p8700
tp8701
(lp8702
S'it'
p8703
as(S'years'
p8704
tp8705
(lp8706
S'from'
p8707
aS'ago'
p8708
as(S'EP'
p8709
tp8710
(lp8711
S'What'
p8712
as(S'clubs'
p8713
tp8714
(lp8715
S'Now'
p8716
aS'with'
p8717
ag48
as(S'double-tap'
p8718
tp8719
(lp8720
S'that'
p8721
as(S'm\xc3'
p8722
tp8723
(lp8724
S'nage'
p8725
as(S'bout'
p8726
tp8727
(lp8728
S'to'
p8729
aS'fuck'
p8730
as(S'have'
p8731
tp8732
(lp8733
S'been'
p8734
aS'been'
p8735
aS'it'
p8736
aS'both'
p8737
aS'them'
p8738
ag251
aS'fun'
p8739
aS'you'
p8740
aS'to'
p8741
aS'to'
p8742
aS'to'
p8743
aS'about'
p8744
as(S'Be'
p8745
tp8746
(lp8747
g646
as(S'machete'
p8748
tp8749
(lp8750
S'Hell'
p8751
as(S'butt'
p8752
tp8753
(lp8754
S'fake'
p8755
aS'too'
p8756
as(S'All'
p8757
tp8758
(lp8759
S'this'
p8760
ag48
aS'this'
p8761
aS'the'
p8762
aS'sixes'
p8763
aS'sixes'
p8764
aS'of'
p8765
aS'this'
p8766
as(S'Aye'
p8767
tp8768
(lp8769
S'yo'
p8770
as(S'write'
p8771
tp8772
(lp8773
S'ya'
p8774
aS'they'
p8775
as(S'catch'
p8776
tp8777
(lp8778
g251
aS'me'
p8779
as(S'hurt'
p8780
tp8781
(lp8782
S'me'
p8783
aS"'em"
p8784
as(S'mode'
p8785
tp8786
(lp8787
S'respect'
p8788
as(S'Clap'
p8789
tp8790
(lp8791
S'clap'
p8792
as(S'wish'
p8793
tp8794
(lp8795
S'death'
p8796
as(S'sat'
p8797
tp8798
(lp8799
S'back'
p8800
as(S'brain'
p8801
tp8802
(lp8803
S'assume'
p8804
aS'like'
p8805
as(S'Now'
p8806
tp8807
(lp8808
S'we'
p8809
aS"that's"
p8810
aS'that'
p8811
aS'put'
p8812
as(S'sixes'
p8813
tp8814
(lp8815
S'like'
p8816
aS'like'
p8817
as(S'Michael'
p8818
tp8819
(lp8820
S'used'
p8821
as(S'need'
p8822
tp8823
(lp8824
S'some'
p8825
aS'you'
p8826
aS'got'
p8827
ag251
as(S"Eiffel's"
p8828
tp8829
(lp8830
S'Real'
p8831
as(S'I-I'
p8832
tp8833
(lp8834
S'do'
p8835
as(S'regular'
p8836
tp8837
(lp8838
S'rich'
p8839
aS'bitch'
p8840
aS'shooter'
p8841
as(S'puff'
p8842
tp8843
(lp8844
S'Daddy'
p8845
as(S'you'
p8846
tp8847
(lp8848
S'proposed'
p8849
aS'can\xe2'
p8850
ag48
aS'think'
p8851
aS'Gotta'
p8852
aS'gotta'
p8853
aS'thought'
p8854
aS'was'
p8855
aS'cut'
p8856
aS'break'
p8857
aS'would'
p8858
aS'though'
p8859
aS'had'
p8860
aS'with'
p8861
aS'hate'
p8862
aS'lose'
p8863
aS'got'
p8864
aS"'bout"
p8865
aS"stayin'"
p8866
aS"ain't"
p8867
aS'never'
p8868
aS'speak'
p8869
aS'just'
p8870
aS'look'
p8871
aS"beggin'"
p8872
aS'can'
p8873
aS'make'
p8874
aS'was'
p8875
aS'make'
p8876
aS'to'
p8877
aS'right'
p8878
aS'so'
p8879
aS'be'
p8880
aS'Bitches'
p8881
aS'niggas'
p8882
aS"I'm"
p8883
aS'to'
p8884
aS"That's"
p8885
aS'feeling'
p8886
aS'so'
p8887
aS'my'
p8888
aS'rappers'
p8889
aS'seen'
p8890
aS'should'
p8891
aS'need'
p8892
aS'on'
p8893
ag251
aS'most'
p8894
aS'when'
p8895
aS'leave'
p8896
aS'something'
p8897
aS'and'
p8898
aS'Cause'
p8899
ag48
aS'always'
p8900
aS'like'
p8901
aS'could'
p8902
aS'niggas'
p8903
aS'won'
p8904
aS'coming'
p8905
ag48
aS'always'
p8906
aS'want'
p8907
aS"ain't"
p8908
aS'was'
p8909
aS'be'
p8910
aS'be'
p8911
aS'was'
p8912
aS'was'
p8913
aS'was'
p8914
aS'would'
p8915
aS'out'
p8916
aS'waited'
p8917
aS'came'
p8918
aS'came'
p8919
aS'buy'
p8920
aS'paid'
p8921
aS'aim'
p8922
aS'or'
p8923
aS'Even'
p8924
aS'was'
p8925
aS'out'
p8926
aS'ain\xe2'
p8927
aS'came'
p8928
aS'when'
p8929
aS'and'
p8930
aS'when'
p8931
aS'out'
p8932
aS'They'
p8933
aS"doin'"
p8934
aS'Niggas'
p8935
aS'Niggas'
p8936
aS'But'
p8937
aS'got'
p8938
aS'was'
p8939
aS'in'
p8940
aS"ain't"
p8941
aS'got'
p8942
ag48
aS"don't"
p8943
aS'got'
p8944
aS'saw'
p8945
aS'looked'
p8946
aS"couldn't"
p8947
aS"ain't"
p8948
aS'had'
p8949
aS'would'
p8950
aS'really'
p8951
aS'telling'
p8952
aS'lying'
p8953
ag48
aS"ain't"
p8954
aS"don't"
p8955
aS'got'
p8956
aS'bitches'
p8957
aS'bitches'
p8958
aS'bitches'
p8959
aS'Front'
p8960
ag48
aS'but'
p8961
aS'bitch'
p8962
aS'see'
p8963
aS'keep'
p8964
aS'better'
p8965
aS'bitch'
p8966
aS'here'
p8967
aS'in'
p8968
aS'hear'
p8969
aS'dare'
p8970
aS'Nothing'
p8971
aS'And'
p8972
aS'But'
p8973
aS'do'
p8974
aS"ain't"
p8975
aS'keep'
p8976
aS'keep'
p8977
aS"gon'"
p8978
aS'smiling'
p8979
aS'on'
p8980
aS"gettin'"
p8981
aS'get'
p8982
aS'off'
p8983
as(S'piece'
p8984
tp8985
(lp8986
S'like'
p8987
as(S'beautician'
p8988
tp8989
(lp8990
S'got'
p8991
as(S'showtime'
p8992
tp8993
(lp8994
S'bitch'
p8995
as(S'off'
p8996
tp8997
(lp8998
S'cause'
p8999
aS'He'
p9000
aS'wax'
p9001
aS'National'
p9002
aS'then'
p9003
aS'Kitty'
p9004
aS'that'
p9005
aS'in'
p9006
aS'of'
p9007
aS'Motherfuckers'
p9008
ag48
aS'GP'
p9009
aS'the'
p9010
aS'You'
p9011
aS'an'
p9012
aS'Highland'
p9013
as(S'crib'
p9014
tp9015
(lp9016
S'and'
p9017
as(S'Bitch'
p9018
tp9019
(lp9020
S'never'
p9021
aS"don't"
p9022
as(S'bigger'
p9023
tp9024
(lp9025
S'than'
p9026
as(S'speak'
p9027
tp9028
(lp9029
S'of'
p9030
aS'Unless'
p9031
as(S'mic'
p9032
tp9033
(lp9034
S'and'
p9035
as(S'tags'
p9036
tp9037
(lp9038
S'everyday'
p9039
as(S'Bo-bought'
p9040
tp9041
(lp9042
S'me'
p9043
as(S'It'
p9044
tp9045
(lp9046
S'was'
p9047
as(S'Go'
p9048
tp9049
(lp9050
S'get'
p9051
aS'and'
p9052
as(S'tanks'
p9053
tp9054
(lp9055
S'is'
p9056
as(S'on'
p9057
tp9058
(lp9059
S'my'
p9060
aS'my'
p9061
aS'your'
p9062
aS'my'
p9063
aS'Wax'
p9064
aS'fleek'
p9065
aS'fleek'
p9066
aS'geek'
p9067
aS'top'
p9068
aS'that'
p9069
aS'this'
p9070
aS'her'
p9071
aS'duct'
p9072
ag251
aS'the'
p9073
aS'the'
p9074
ag251
aS'the'
p9075
aS'lips'
p9076
aS'them'
p9077
aS'the'
p9078
ag251
aS'my'
p9079
aS'the'
p9080
aS'some'
p9081
aS'some'
p9082
aS'you'
p9083
aS'me'
p9084
ag6841
aS'me'
p9085
aS'the'
p9086
ag167
aS"'em"
p9087
ag167
aS'my'
p9088
aS'the'
p9089
aS'the'
p9090
aS"Ain't"
p9091
aS'Spur'
p9092
aS'You'
p9093
aS'He'
p9094
aS'tour'
p9095
aS'crying'
p9096
aS'that'
p9097
aS'my'
p9098
aS'ice'
p9099
aS'them'
p9100
aS'ice'
p9101
aS'the'
p9102
aS'the'
p9103
aS'me'
p9104
aS'my'
p9105
aS'the'
p9106
aS'my'
p9107
as(S'May-weather'
p9108
tp9109
(lp9110
S'like'
p9111
aS'like'
p9112
as(S'bitch'
p9113
tp9114
(lp9115
S'is'
p9116
aS"I'm"
p9117
aS"I'm"
p9118
aS'my'
p9119
aS'Alexander'
p9120
aS'Want'
p9121
aS'niggas'
p9122
aS'album'
p9123
aS'and'
p9124
aS'understand'
p9125
ag48
aS'keep'
p9126
ag251
aS'issue'
p9127
aS'niggas'
p9128
aS'So'
p9129
aS'in'
p9130
aS"I'm"
p9131
aS'if'
p9132
aS'to'
p9133
aS'tell'
p9134
aS"I'm"
p9135
aS'came'
p9136
as(S'thousand'
p9137
tp9138
(lp9139
S'in'
p9140
as(S'gonna'
p9141
tp9142
(lp9143
S'have'
p9144
aS'bust'
p9145
as(S'cousin'
p9146
tp9147
(lp9148
S'to'
p9149
as(S'lookin\xe2'
p9150
tp9151
(lp9152
S'so'
p9153
as(S'Red'
p9154
tp9155
(lp9156
S'octagon'
p9157
as(S'shy-and-the-buff'
p9158
tp9159
(lp9160
S'Most'
p9161
as(S"runnin'"
p9162
tp9163
(lp9164
S'and'
p9165
as(S'Romaine'
p9166
tp9167
(lp9168
S'And'
p9169
as(S'stylish'
p9170
tp9171
(lp9172
S'Now'
p9173
as(S'shootouts'
p9174
tp9175
(lp9176
S'with'
p9177
as(S'If'
p9178
tp9179
(lp9180
S'it'
p9181
aS"I'm"
p9182
ag48
aS'you'
p9183
aS'he'
p9184
aS'he'
p9185
aS'you'
p9186
ag48
as(S'hills'
p9187
tp9188
(lp9189
S'on'
p9190
as(S'jokes'
p9191
tp9192
(lp9193
S'it\xe2'
p9194
as(S'say'
p9195
tp9196
(lp9197
S'We'
p9198
aS'Yeah'
p9199
aS'it'
p9200
aS'some'
p9201
aS'damn'
p9202
aS'Birkin'
p9203
aS'this'
p9204
aS"I'm"
p9205
aS'He'
p9206
aS'He'
p9207
aS'he'
p9208
aS'my'
p9209
aS'when'
p9210
aS'you'
p9211
aS'that'
p9212
aS'you'
p9213
aS'that'
p9214
aS'the'
p9215
as(S'yesterday'
p9216
tp9217
(lp9218
g48
as(S'Boy'
p9219
tp9220
(lp9221
S'toy'
p9222
as(S'slang'
p9223
tp9224
(lp9225
S'cocaine'
p9226
as(S'Mayweather'
p9227
tp9228
(lp9229
S'with'
p9230
as(S'don\xe2'
p9231
tp9232
(lp9233
g732
ag732
ag732
as(S'One'
p9234
tp9235
(lp9236
S'minute'
p9237
as(S'grab'
p9238
tp9239
(lp9240
S'So'
p9241
aS'So'
p9242
as(S'little'
p9243
tp9244
(lp9245
S'cousin'
p9246
aS'angel'
p9247
aS'sister'
p9248
aS'but'
p9249
aS'bitch'
p9250
aS'Vine'
p9251
as(S'pat'
p9252
tp9253
(lp9254
S'on'
p9255
as(S'because'
p9256
tp9257
(lp9258
S'my'
p9259
as(S're'
p9260
tp9261
(lp9262
S'talented'
p9263
as(S'Pole'
p9264
tp9265
(lp9266
S'Today'
p9267
as(S'much'
p9268
tp9269
(lp9270
S'and'
p9271
as(S'anthem'
p9272
tp9273
(lp9274
S'hats'
p9275
as(S'Aaron'
p9276
tp9277
(lp9278
S"would've"
p9279
as(S'pulling'
p9280
tp9281
(lp9282
S'up'
p9283
as(S'should'
p9284
tp9285
(lp9286
S'pull'
p9287
aS'let'
p9288
as(S'building'
p9289
tp9290
(lp9291
S'You'
p9292
as(S'asked'
p9293
tp9294
(lp9295
S'all'
p9296
aS'all'
p9297
as(S'doing'
p9298
tp9299
(lp9300
S'it'
p9301
as(S'smarter'
p9302
tp9303
(lp9304
S'like'
p9305
as(S'daughter'
p9306
tp9307
(lp9308
S'to'
p9309
as(S'delayed'
p9310
tp9311
(lp9312
S'Yo'
p9313
as(S'BJ'
p9314
tp9315
(lp9316
S'They'
p9317
as.