ccollections
defaultdict
p0
(c__builtin__
list
p1
tp2
Rp3
(S'guy'
p4
tp5
(lp6
S'sky'
p7
as(S'and'
p8
tp9
(lp10
S'steeple'
p11
as(S'Cause'
p12
tp13
(lp14
S'I'
p15
as(S'ever'
p16
tp17
(lp18
S'pie'
p19
as(S'steeple'
p20
tp21
(lp22
g15
as(g15
tp23
(lp24
S'never'
p25
aS'a'
p26
as(S'Listen'
p27
tp28
(lp29
S'up'
p30
as(S'church'
p31
tp32
(lp33
S'and'
p34
as(g26
tp35
(lp36
S'guy'
p37
as(S'never'
p38
tp39
(lp40
S'ever'
p41
as(S'people'
p42
tp43
(lp44
S'church'
p45
as(S'up'
p46
tp47
(lp48
S'people'
p49
as(S'pie'
p50
tp51
(lp52
S'Cause'
p53
as.