ccollections
defaultdict
p0
(c__builtin__
list
p1
tp2
Rp3
(S'at'
p4
tp5
(lp6
S'your'
p7
aS'Princeton'
p8
aS'me'
p9
aS'the'
p10
aS'As'
p11
aS'midnight'
p12
aS'once'
p13
aS'the'
p14
aS'your'
p15
aS'work'
p16
aS'the'
p17
aS'least'
p18
aS'last'
p19
aS'power'
p20
aS'all'
p21
aS'least'
p22
aS'dawn'
p23
aS'the'
p24
aS'the'
p25
aS'Yorktown'
p26
aS'sea'
p27
aS'the'
p28
as(S'glances'
p29
tp30
(lp31
S'off'
p32
as(S'America'
p33
tp34
(lp35
S'forgot'
p36
aS'We'
p37
aS'you'
p38
as(S'Handsome'
p39
tp40
(lp41
S'boy'
p42
as(S'Yo'
p43
tp44
(lp45
S'yo'
p46
aS'I\xe2'
p47
aS'I\xe2'
p48
aS'let\xe2'
p49
aS'if'
p50
aS'Turns'
p51
as(S'ammunition'
p52
tp53
(lp54
S'is'
p55
as(S'it'
p56
tp57
(lp58
S'to'
p59
aS'debt-ridden'
p60
aS'How\xe2'
p61
aS'Show'
p62
aS'with'
p63
aS'lovin\xe2'
p64
aS'yes'
p65
aS'ain\xe2'
p66
aS'sets'
p67
aS'or'
p68
aS'feels'
p69
aS'gonna'
p70
aS'comin\xe2'
p71
aS'be'
p72
aS'like'
p73
aS'with'
p74
aS'was'
p75
aS'a'
p76
aS'feels'
p77
aS'right'
p78
ag76
aS'Peach'
p79
aS'I'
p80
aS'feels'
p81
aS'gets'
p82
aS'It\xe2'
p83
aS'To'
p84
aS'See'
p85
aS'Hercules'
p86
aS'all'
p87
aS'all'
p88
aS'If'
p89
aS'Uh'
p90
aS'made'
p91
aS'is'
p92
aS'If'
p93
ag76
aS'You'
p94
aS'I\xe2'
p95
aS'goeth'
p96
aS'out'
p97
aS'Should'
p98
ag80
aS'away'
p99
aS'While'
p100
aS'we'
p101
ag80
aS'out'
p102
aS'If'
p103
aS'happened'
p104
aS'was'
p105
aS'again'
p106
aS'seems'
p107
aS'slide'
p108
aS'I\xe2'
p109
aS'slide'
p110
aS'glances'
p111
aS'You'
p112
aS'on'
p113
aS'up'
p114
aS'feels'
p115
aS'gets'
p116
aS'coming'
p117
aS'be'
p118
aS'up'
p119
as(S'go'
p120
tp121
(lp122
S'boom'
p123
aS'back'
p124
aS'back'
p125
aS'back'
p126
aS'gotta'
p127
aS'man'
p128
aS'And'
p129
aS'So'
p130
aS'toe'
p131
aS'visit'
p132
aS'now'
p133
aS'Grab'
p134
aS'to'
p135
as(S'does'
p136
tp137
(lp138
g76
aS'he'
p139
aS'the'
p140
aS'he'
p141
aS'the'
p142
aS'betrays'
p143
aS'Hamilton'
p144
aS'Hamilton'
p145
ag76
as(S"She'd"
p146
tp147
(lp148
S'be'
p149
as(S'now'
p150
tp151
(lp152
S'as'
p153
aS'See'
p154
aS'go'
p155
aS'somebody'
p156
aS'is'
p157
aS'you'
p158
aS'in'
p159
aS'no'
p160
ag80
aS'Pops'
p161
aS'I\xe2'
p162
aS'together'
p163
as(S'battlefield'
p164
tp165
(lp166
S'in'
p167
aS'waving'
p168
as(S'shovel'
p169
tp170
(lp171
S'it'
p172
as(S'jury'
p173
tp174
(lp175
S'I\xe2'
p176
as(S'vice-president'
p177
tp178
(lp179
S'Washington'
p180
as(S'apply'
p181
tp182
(lp183
S'to'
p184
as(S'Washington'
p185
tp186
(lp187
S'hires'
p188
aS'named'
p189
aS'cannot'
p190
aS'smile'
p191
aS'behind'
p192
aS'in'
p193
aS'isn\xe2'
p194
aS'can\xe2'
p195
aS'is'
p196
as(S'Only'
p197
tp198
(lp199
S'nineteen'
p200
ag76
as(S'Ooh'
p201
tp202
(lp203
S'Who'
p204
aS'who'
p205
aS'if'
p206
as(S'done'
p207
tp208
(lp209
S'something'
p210
aS'So'
p211
aS'Gotta'
p212
aS'You'
p213
ag80
aS'nothing'
p214
aS'Take'
p215
as(S'deny'
p216
tp217
(lp218
S'us'
p219
as(S'fathers'
p220
tp221
(lp222
S'til'
p223
as(S'loudmouth'
p224
tp225
(lp226
S'bother'
p227
as(S'bride'
p228
tp229
(lp230
S'Nice'
p231
as(S'When'
p232
tp233
(lp234
S'he'
p235
ag80
aS'we'
p236
aS'you'
p237
aS'we'
p238
aS'we'
p239
aS'the'
p240
as(S'sins'
p241
tp242
(lp243
S'Ready'
p244
as(S'Don\xe2'
p245
tp246
(lp247
S't'
p248
ag248
ag248
ag248
ag248
ag248
ag248
as(S'polish'
p249
tp250
(lp251
g80
as(S'ya\xe2'
p252
tp253
(lp254
S'frocks'
p255
as(S'abolitionists'
p256
tp257
(lp258
S'Give'
p259
as(S'way'
p260
tp261
(lp262
S'to'
p263
aS'to'
p264
aS'out'
p265
aS'he'
p266
aS'back'
p267
as(S'Ya'
p268
tp269
(lp270
S'best'
p271
as(S'if'
p272
tp273
(lp274
S'you'
p275
aS'it'
p276
aS'it'
p277
aS'you'
p278
aS'Burr'
p279
aS'we'
p280
aS'I\xe2'
p281
aS'the'
p282
aS'you'
p283
aS'you'
p284
aS'he'
p285
aS'he\xe2'
p286
aS'isn\xe2'
p287
ag80
aS'they'
p288
aS'this'
p289
aS'they'
p290
as(S'later'
p291
tp292
(lp293
S'see'
p294
as(S'yes\xe2'
p295
tp296
(lp297
g80
as(S'cent'
p298
tp299
(lp300
S'of'
p301
aS'that'
p302
as(S'redder'
p303
tp304
(lp305
S'with'
p306
as(S'pull'
p307
tp308
(lp309
S'up'
p310
aS'the'
p311
as(S'opponent'
p312
tp313
(lp314
S'Your'
p315
as(S'scholar'
p316
tp317
(lp318
S'The'
p319
as(S'either'
p320
tp321
(lp322
S'gonna'
p323
aS'that'
p324
as(S'till'
p325
tp326
(lp327
S'I\xe2'
p328
ag80
as(S'mortally'
p329
tp330
(lp331
S'wounded'
p332
as(S'created'
p333
tp334
(lp335
S'quite'
p336
as(S'Two'
p337
tp338
(lp339
S'years'
p340
aS'pints'
p341
as(S'ready'
p342
tp343
(lp344
S'to'
p345
aS'for'
p346
as(S'slaughter'
p347
tp348
(lp349
S'This'
p350
as(S'melody'
p351
tp352
(lp353
S'See'
p354
aS'Burr'
p355
as(S'winds'
p356
tp357
(lp358
S'Laurens'
p359
as(S'truth'
p360
tp361
(lp362
S'is'
p363
as(S'career'
p364
tp365
(lp366
S'is'
p367
as(S'extreme'
p368
tp369
(lp370
S'you'
p371
as(S'duel'
p372
tp373
(lp374
S'They'
p375
aS'will'
p376
as(S'college'
p377
tp378
(lp379
S'Aaron'
p380
as(S'struggled'
p381
tp382
(lp383
S'and'
p384
as(S'revolutionary'
p385
tp386
(lp387
S'set'
p388
aS'manumission'
p389
aS'covenant'
p390
as(S'happen'
p391
tp392
(lp393
S'when'
p394
as(S'red'
p395
tp396
(lp397
S'she'
p398
as(S'e'
p399
tp400
(lp401
S'deniability'
p402
as(S'Lee'
p403
tp404
(lp405
S'Makes'
p406
aS'was'
p407
aS'was'
p408
as(S'reckoning'
p409
tp410
(lp411
S'to'
p412
as(S'alone'
p413
tp414
(lp415
S'to'
p416
as(S'introduction'
p417
tp418
(lp419
S'When'
p420
as(S'duels'
p421
tp422
(lp423
S'are'
p424
as(S'mouth'
p425
tp426
(lp427
g80
aS'If'
p428
aS'before'
p429
as(S'they'
p430
tp431
(lp432
S'placed'
p433
aS'said'
p434
aS'passed'
p435
aS'tax'
p436
aS'tell'
p437
aS'didn\xe2'
p438
aS'fought'
p439
aS'fight'
p440
aS'say'
p441
aS'know'
p442
aS'see'
p443
aS'can'
p444
aS'apologize'
p445
aS'don\xe2'
p446
aS'don\xe2'
p447
aS'can'
p448
as(S'minutes'
p449
tp450
(lp451
S'maybe'
p452
aS'Ev\xe2'
p453
as(S'church'
p454
tp455
(lp456
S'bells'
p457
as(S'group'
p458
tp459
(lp460
S'of'
p461
as(S'trench'
p462
tp463
(lp464
S'While'
p465
aS'Ingenuitive'
p466
as(S'College'
p467
tp468
(lp469
g80
ag80
as(S'yourself'
p470
tp471
(lp472
S'He'
p473
as(S'saved'
p474
tp475
(lp476
S'some'
p477
as(S'sky\xe2'
p478
tp479
(lp480
S'Every'
p481
as(S'essays'
p482
tp483
(lp484
S'against'
p485
as(S'mad'
p486
tp487
(lp488
S'scrutiny'
p489
aS'as'
p490
as(S'join'
p491
tp492
(lp493
S'the'
p494
aS'us'
p495
aS'us'
p496
as(S'remind'
p497
tp498
(lp499
S'you'
p500
aS'you'
p501
as(S'live'
p502
tp503
(lp504
S'past'
p505
aS'another'
p506
aS'ration'
p507
as(S'Yorktown'
p508
tp509
(lp510
S'They'
p511
aS'cut'
p512
as(S'tailor\xe2'
p513
tp514
(lp515
S's'
p516
as(S'uniquely'
p517
tp518
(lp519
S'situated'
p520
as(S'true'
p521
tp522
(lp523
S'You'
p524
as(S'sets'
p525
tp526
(lp527
S'of'
p528
aS'us'
p529
ag76
as(S'crooked'
p530
tp531
(lp532
S'Schuyler\xe2'
p533
as(S'murder'
p534
tp535
(lp536
S'trial'
p537
as(S'shy'
p538
tp539
(lp540
g80
as(S'For'
p541
tp542
(lp543
S'someone'
p544
aS'the'
p545
aS'just'
p546
ag76
aS'this'
p547
as(S'Honestly'
p548
tp549
(lp550
S'it\xe2'
p551
as(S'Centralizing'
p552
tp553
(lp554
S'national'
p555
as(S'shoe'
p556
tp557
(lp558
S'fits'
p559
aS'fits'
p560
as(S'commonplace'
p561
tp562
(lp563
S'\xe2'
p564
as(S'Talk'
p565
tp566
(lp567
S'less'
p568
as(S'ly'
p569
tp570
(lp571
S'shouldn\xe2'
p572
aS'did'
p573
aS'shouldn\xe2'
p574
as(S'modern'
p575
tp576
(lp577
S'major'
p578
as(S'man\xe2'
p579
tp580
(lp581
g516
as(S'satisfied'
p582
tp583
(lp584
g80
as(S'Ben'
p585
tp586
(lp587
S'Franklin'
p588
as(S'Pick'
p589
tp590
(lp591
g76
as(S'ideals'
p592
tp593
(lp594
S'we'
p595
aS'of'
p596
aS'blind'
p597
as(S'flag'
p598
tp599
(lp600
S'higher'
p601
as(S'Escorted'
p602
tp603
(lp604
S'me'
p605
as(S'devices'
p606
tp607
(lp608
S'Indecisive'
p609
as(S'position'
p610
tp611
(lp612
S'show'
p613
aS'Though'
p614
aS'to'
p615
aS'Looking'
p616
as(S'throwing'
p617
tp618
(lp619
S'away'
p620
aS'away'
p621
aS'away'
p622
as(S'split'
p623
tp624
(lp625
S'full'
p626
as(S'Turns'
p627
tp628
(lp629
S'out'
p630
as(S'mainland'
p631
tp632
(lp633
g564
as(S'into'
p634
tp635
(lp636
g76
aS'the'
p637
aS'more'
p638
aS'my'
p639
aS'factions'
p640
aS'the'
p641
as(S'tween'
p642
tp643
(lp644
S'recruits'
p645
as(S'burn'
p646
tp647
(lp648
g564
as(S'turns'
p649
tp650
(lp651
S'around'
p652
as(S'New'
p653
tp654
(lp655
S'York'
p656
aS'York'
p657
aS'York'
p658
aS'York'
p659
aS'York'
p660
aS'York\xe2'
p661
aS'York'
p662
aS'Jersey\xe2'
p663
aS'Yorkers'
p664
as(S'em'
p665
tp666
(lp667
S'and'
p668
aS'of'
p669
aS'we'
p670
aS'Don\xe2'
p671
aS'But'
p672
aS'The'
p673
aS'blind'
p674
aS'in'
p675
aS'Drop'
p676
aS'up'
p677
aS'Escapin\xe2'
p678
aS'Enragin\xe2'
p679
aS'I\xe2'
p680
aS'where'
p681
aS'in'
p682
as(S'total'
p683
tp684
(lp685
S'agreement'
p686
as(S'maybe'
p687
tp688
(lp689
S'three'
p690
as(S'before'
p691
tp692
(lp693
S'they'
p694
ag80
aS'the'
p695
aS'he'
p696
aS'you'
p697
aS'the'
p698
aS'the'
p699
as(S'henchmen'
p700
tp701
(lp702
S'Ev\xe2'
p703
as(S'camaraderie'
p704
tp705
(lp706
S'and'
p707
as(S'While'
p708
tp709
(lp710
S'we\xe2'
p711
aS'you'
p712
aS'we'
p713
as(S'smile'
p714
tp715
(lp716
S'We'
p717
as(S'something'
p718
tp719
(lp720
S'to'
p721
aS'new'
p722
aS'wrong'
p723
aS'he\xe2'
p724
aS'you'
p725
as(S'day\xe2'
p726
tp727
(lp728
g516
as(S"Ev'ry"
p729
tp730
(lp731
S'action'
p732
as(S'eye'
p733
tp734
(lp735
S'aim'
p736
aS'Tryin\xe2'
p737
aS'aim'
p738
aS'aim'
p739
as(S'nice'
p740
tp741
(lp742
S'While'
p743
aS'declaration'
p744
aS'President'
p745
as(S'Eacker'
p746
tp747
(lp748
S'Made'
p749
aS'is'
p750
aS'How'
p751
as(S'A'
p752
tp753
(lp754
S'voice'
p755
aS'colony'
p756
aS'bunch'
p757
aS'winter\xe2'
p758
aS'dream'
p759
aS'bit'
p760
aS'thousand'
p761
aS'tailor'
p762
aS'new'
p763
aS'civics'
p764
aS'game'
p765
aS'man'
p766
aS'place'
p767
as(S'my'
p768
tp769
(lp770
S'parents\xe2'
p771
aS'shot'
p772
aS'shot'
p773
aS'country'
p774
aS'shot'
p775
aS'goal'
p776
aS'mind'
p777
aS'life'
p778
aS'ascendancy'
p779
aS'chance'
p780
aS'sleep'
p781
aS'story'
p782
aS'guard'
p783
aS'elegance'
p784
aS'case'
p785
aS'station'
p786
aS'sister\xe2'
p787
aS'sister'
p788
aS'own'
p789
aS'apprenticeship'
p790
aS'people'
p791
aS'feet'
p792
aS'hand'
p793
aS'men'
p794
aS'Eliza\xe2'
p795
aS'Eliza\xe2'
p796
aS'son'
p797
aS'friends'
p798
aS"brother's"
p799
aS'shoe'
p800
aS'wife'
p801
aS'life'
p802
aS'God'
p803
aS'father-in-law'
p804
aS'wife'
p805
aS'prospects'
p806
aS'papers'
p807
aS'checkered'
p808
aS'scent'
p809
aS'good'
p810
aS'answers'
p811
aS'pops'
p812
aS'brain\xe2'
p813
aS'mind'
p814
aS'own'
p815
aS'father'
p816
aS'father\xe2'
p817
aS'father'
p818
aS'father'
p819
aS'very'
p820
aS'guns'
p821
aS'father'
p822
aS'voice'
p823
aS'vote'
p824
aS'opinion'
p825
aS'sleeve'
p826
aS'best'
p827
aS'political'
p828
aS'daughter'
p829
aS'feet'
p830
aS'gun'
p831
aS'first'
p832
aS'enemy'
p833
aS'shot'
p834
aS'legacy'
p835
aS'time\xe2'
p836
aS'mother'
p837
aS'practical'
p838
aS'right'
p839
as(S'whisky'
p840
tp841
(lp842
S'Thomas'
p843
as(S'Proximity'
p844
tp845
(lp846
S'to'
p847
as(S'leads'
p848
tp849
(lp850
g76
as(S'divvy'
p851
tp852
(lp853
S'up'
p854
as(S'spit'
p855
tp856
(lp857
S'I\xe2'
p858
as(S'fires'
p859
tp860
(lp861
S'Hamilton'
p862
as(S"world's"
p863
tp864
(lp865
S'gonna'
p866
as(S'test'
p867
tp868
(lp869
S'of'
p870
as(S'Philip'
p871
tp872
(lp873
S'Schuyler'
p874
aS'take'
p875
aS'your'
p876
ag80
as(S'Admistration'
p877
tp878
(lp879
S'Jefferson\xe2'
p880
as(S'file'
p881
tp882
(lp883
S'Tens'
p884
as(S'lower'
p885
tp886
(lp887
S'your'
p888
as(S'George'
p889
tp890
(lp891
S'turns'
p892
aS'attack'
p893
aS'Washington'
p894
aS'Eacker'
p895
as(S'being'
p896
tp897
(lp898
g76
ag76
aS'slaughtered'
p899
aS'honest'
p900
aS'one'
p901
as(S'said'
p902
tp903
(lp904
S'This'
p905
ag564
aS'in'
p906
aS'Then'
p907
ag564
aS'That\xe2'
p908
aS'about'
p909
aS'and'
p910
aS'what'
p911
aS'You'
p912
as(S'common'
p913
tp914
(lp915
S'Just'
p916
aS'We\xe2'
p917
as(S'first'
p918
tp919
(lp920
S'refrain'
p921
aS'black'
p922
aS'time'
p923
aS'duel'
p924
aS'position'
p925
aS'friend'
p926
aS'murder'
p927
as(S'anything'
p928
tp929
(lp930
S'at'
p931
aS'that'
p932
aS'you'
p933
as(S'sit'
p934
tp935
(lp936
S'We\xe2'
p937
as(S'would\xe2'
p938
tp939
(lp940
S'Blow'
p941
as(S'Street'
p942
tp943
(lp944
S'thinks'
p945
aS'robs'
p946
as(S'gossip'
p947
tp948
(lp949
S'in'
p950
as(S'passion'
p951
tp952
(lp953
S'The'
p954
as(S'else'
p955
tp956
(lp957
S'We\xe2'
p958
aS'was'
p959
aS'we'
p960
as(S'Something'
p961
tp962
(lp963
S'to'
p964
as(S'rything'
p965
tp966
(lp967
S'we'
p968
as(S'Yorkers'
p969
tp970
(lp971
S'like'
p972
as(S'that'
p973
tp974
(lp975
S'we\xe2'
p976
aS'you\xe2'
p977
aS'runs'
p978
aS'I\xe2'
p979
aS'This'
p980
ag76
aS'His'
p981
ag80
ag80
aS'aside'
p982
aS'is'
p983
ag80
aS'France'
p984
aS'my'
p985
aS'or'
p986
aS'this'
p987
aS'benefits'
p988
aS'has'
p989
aS'we\xe2'
p990
aS'Alexander'
p991
aS'he'
p992
aS'what'
p993
ag80
ag76
aS'wasn\xe2'
p994
aS'I\xe2'
p995
aS'wasn\xe2'
p996
aS'Yeah'
p997
aS'is'
p998
aS'Aaron'
p999
aS'from'
p1000
aS'he'
p1001
aS'will'
p1002
aS'hell'
p1003
aS'duels'
p1004
aS'we\xe2'
p1005
as(S'wrong'
p1006
tp1007
(lp1008
S'sir'
p1009
aS'you\xe2'
p1010
as(S'fast'
p1011
tp1012
(lp1013
S'It'
p1014
aS'and'
p1015
aS'Someone'
p1016
as(S'every'
p1017
tp1018
(lp1019
S'day'
p1020
aS'treatise'
p1021
aS'book'
p1022
aS'word'
p1023
aS'expectation'
p1024
aS'day\xe2'
p1025
aS'day'
p1026
aS'day'
p1027
aS'revolution'
p1028
aS'check'
p1029
as(S'winning'
p1030
tp1031
(lp1032
g80
as(S'vet'
p1033
tp1034
(lp1035
S'Unite'
p1036
as(S"Wasn't"
p1037
tp1038
(lp1039
S'the'
p1040
as(S'inexperienced'
p1041
tp1042
(lp1043
S'and'
p1044
as(S'slaughtered'
p1045
tp1046
(lp1047
S'and'
p1048
as(S'creation'
p1049
tp1050
(lp1051
S'I\xe2'
p1052
as(S'confoundin\xe2'
p1053
tp1054
(lp1055
S'the'
p1056
as(S'voices'
p1057
tp1058
(lp1059
S'You'
p1060
as(S'bloodstains'
p1061
tp1062
(lp1063
S'And'
p1064
as(S'Ross\xe2'
p1065
tp1066
(lp1067
S'flag'
p1068
as(S'handle'
p1069
tp1070
(lp1071
S'our'
p1072
as(S'give'
p1073
tp1074
(lp1075
S'us'
p1076
aS'it'
p1077
aS'us'
p1078
aS'it'
p1079
aS'me'
p1080
aS'it'
p1081
as(S'proud'
p1082
tp1083
(lp1084
S'Let\xe2'
p1085
ag80
aS'son'
p1086
as(S'shits'
p1087
tp1088
(lp1089
S'the'
p1090
aS'Hey'
p1091
as(S'military'
p1092
tp1093
(lp1094
S'mess'
p1095
as(S'feeling'
p1096
tp1097
(lp1098
S'of'
p1099
as(S'planting'
p1100
tp1101
(lp1102
S'And'
p1103
aS'seeds'
p1104
as(S'might'
p1105
tp1106
(lp1107
S'let'
p1108
aS'redeem'
p1109
as(S'Mr'
p1110
tp1111
(lp1112
S'Age'
p1113
aS'President'
p1114
aS'President'
p1115
aS'nice'
p1116
aS'James'
p1117
aS'George'
p1118
as(S'hire'
p1119
tp1120
(lp1121
S'you'
p1122
as(S'yours'
p1123
tp1124
(lp1125
g80
as(S'brains'
p1126
tp1127
(lp1128
S'but'
p1129
aS'as'
p1130
as(S'who\xe2'
p1131
tp1132
(lp1133
g516
ag516
ag516
as(S'Tradin\xe2'
p1134
tp1135
(lp1136
S'sugar'
p1137
as(S'orphan'
p1138
tp1139
(lp1140
S'son'
p1141
aS'Of'
p1142
aS'God'
p1143
aS'son'
p1144
aS'Immigrant'
p1145
aS'More'
p1146
aS'Bastard'
p1147
aS'of'
p1148
aS'immigrants'
p1149
as(S'expectation'
p1150
tp1151
(lp1152
S'Every'
p1153
as(S'socks'
p1154
tp1155
(lp1156
S'Ok'
p1157
as(S'absurd'
p1158
tp1159
(lp1160
S'sir'
p1161
as(S'Has'
p1162
tp1163
(lp1164
S'something'
p1165
as(S'all'
p1166
tp1167
(lp1168
S'the'
p1169
aS'knuckleheads'
p1170
aS'in'
p1171
aS'proud'
p1172
aS'the'
p1173
aS'the'
p1174
aS'the'
p1175
aS'Lining'
p1176
aS'the'
p1177
aS'Yo'
p1178
aS'his'
p1179
aS'scattered'
p1180
aS'lose'
p1181
aS'You'
p1182
aS'Beware'
p1183
aS'day'
p1184
aS'watching'
p1185
aS'If'
p1186
aS'away'
p1187
aS'look'
p1188
aS'strip'
p1189
aS'away'
p1190
aS'the'
p1191
aS'said'
p1192
aS'is'
p1193
aS'the'
p1194
aS'the'
p1195
as(S'retreat'
p1196
tp1197
(lp1198
g80
as(S'isn\xe2'
p1199
tp1200
(lp1201
g248
ag248
ag248
as(S'Spot'
p1202
tp1203
(lp1204
S'in'
p1205
as(S'You\xe2'
p1206
tp1207
(lp1208
S're'
p1209
aS've'
p1210
aS'd'
p1211
aS'll'
p1212
aS're'
p1213
aS've'
p1214
aS're'
p1215
as(S'liberty'
p1216
tp1217
(lp1218
S'and'
p1219
aS'behind'
p1220
as(S'excellency'
p1221
tp1222
(lp1223
S'sir'
p1224
aS'you'
p1225
as(S'wittiest'
p1226
tp1227
(lp1228
S'and'
p1229
as(S'words'
p1230
tp1231
(lp1232
S'enterprising'
p1233
aS'Burr'
p1234
as(S'parties'
p1235
tp1236
(lp1237
S'to'
p1238
aS'to'
p1239
as(S'Sittin\xe2'
p1240
tp1241
(lp1242
S'there'
p1243
as(S'financials'
p1244
tp1245
(lp1246
S'You'
p1247
as(S'retreatin\xe2'
p1248
tp1249
(lp1250
S'and'
p1251
as(S'for'
p1252
tp1253
(lp1254
S'something'
p1255
aS'yourself'
p1256
aS'his'
p1257
aS'every'
p1258
aS'the'
p1259
ag76
aS'you'
p1260
aS'Can'
p1261
aS'You'
p1262
aS'If'
p1263
aS'nothing'
p1264
aS'Ooh'
p1265
ag76
aS'our'
p1266
ag76
aS'this'
p1267
aS'one'
p1268
aS'French'
p1269
aS'the'
p1270
aS'more'
p1271
aS'these'
p1272
aS'less'
p1273
aS'any'
p1274
aS'labor'
p1275
aS'Angelica'
p1276
aS'grabs'
p1277
aS'land'
p1278
aS'freedom'
p1279
aS'someone'
p1280
aS'the'
p1281
aS'your'
p1282
aS'shame'
p1283
ag76
aS'advice'
p1284
aS'our'
p1285
aS'doing'
p1286
aS'me'
p1287
aS'me'
p1288
aS'further'
p1289
aS'America\xe2'
p1290
aS'more'
p1291
aS'your'
p1292
aS'you'
p1293
aS'you'
p1294
aS'your'
p1295
aS'the'
p1296
aS'his'
p1297
aS'his'
p1298
as(S'reach'
p1299
tp1300
(lp1301
S'my'
p1302
aS'for'
p1303
ag76
as(g516
tp1304
(lp1305
S'your'
p1306
aS'landlord'
p1307
aS'asking'
p1308
ag76
aS'the'
p1309
aS'hard'
p1310
aS'raise'
p1311
aS'imminent'
p1312
aS'he'
p1313
aS'College'
p1314
aS'getting'
p1315
aS'apprentice'
p1316
aS'my'
p1317
aS'hatch'
p1318
aS'get'
p1319
aS'it'
p1320
aS'plenty'
p1321
aS'the'
p1322
aS'the'
p1323
aS'an'
p1324
aS'nothing'
p1325
aS'only'
p1326
aS'the'
p1327
aS'take'
p1328
aS'steal'
p1329
aS'alright'
p1330
aS'men'
p1331
aS'skill'
p1332
aS'ball'
p1333
aS'The'
p1334
aS'Ben'
p1335
ag752
ag76
ag76
ag76
aS'penniless'
p1336
aS'flying'
p1337
aS'face'
p1338
aS'after'
p1339
aS'his'
p1340
ag76
aS'not'
p1341
aS'expecting'
p1342
aS'expecting'
p1343
aS'either'
p1344
aS'right'
p1345
aS'what'
p1346
aS'the'
p1347
aS'been'
p1348
aS'gotta'
p1349
aS'debts'
p1350
aS'in'
p1351
aS'too'
p1352
aS'candidacy'
p1353
aS'really'
p1354
aS'when'
p1355
aS'when'
p1356
aS'saying'
p1357
aS'seat'
p1358
aS'door'
p1359
aS'head'
p1360
aS'gonna'
p1361
ag76
ag76
ag76
aS'been'
p1362
aS'fractured'
p1363
aS'doubled'
p1364
ag76
aS'Admistration'
p1365
aS'the'
p1366
aS'when'
p1367
aS'fine'
p1368
aS'go'
p1369
aS'College'
p1370
aS'not'
p1371
aS'legacy'
p1372
ag76
aS'like'
p1373
aS'truly'
p1374
aS'life'
p1375
aS'blood'
p1376
aS'go'
p1377
aS'in'
p1378
aS'very'
p1379
aS'not'
p1380
aS'the'
p1381
aS'gonna'
p1382
aS'just'
p1383
aS'so'
p1384
aS'new'
p1385
aS'kind'
p1386
aS'despised'
p1387
aS'an'
p1388
aS'right'
p1389
aS'ability'
p1390
aS'what'
p1391
aS'him'
p1392
aS'planting'
p1393
aS'up'
p1394
aS'with'
p1395
aS'your'
p1396
aS'reckoning'
p1397
aS'alright'
p1398
aS'unafraid'
p1399
aS'constantly'
p1400
aS'favorite'
p1401
aS'he'
p1402
aS'high'
p1403
aS'absurd'
p1404
as(S'other'
p1405
tp1406
(lp1407
S'side'
p1408
aS'side'
p1409
aS'founding'
p1410
aS'in'
p1411
aS'side'
p1412
aS'side'
p1413
aS'side'
p1414
aS'side'
p1415
aS'side'
p1416
as(S'woulda'
p1417
tp1418
(lp1419
S'been'
p1420
as(S'attractive'
p1421
tp1422
(lp1423
S'in'
p1424
as(S'Another'
p1425
tp1426
(lp1427
S'immigrant'
p1428
as(S'Sir'
p1429
tp1430
(lp1431
g80
aS'Permission'
p1432
ag80
aS'Close'
p1433
aS'entrust'
p1434
aS'Draft'
p1435
ag80
aS'he'
p1436
aS'you\xe2'
p1437
as(S'leading'
p1438
tp1439
(lp1440
S'when'
p1441
aS'The'
p1442
as(S'belong'
p1443
tp1444
(lp1445
S'How'
p1446
as(S'ardently'
p1447
tp1448
(lp1449
S'abuse'
p1450
as(S'together'
p1451
tp1452
(lp1453
S'we'
p1454
as(S'shoulder'
p1455
tp1456
(lp1457
S'Ev\xe2'
p1458
aS'his'
p1459
as(S'great'
p1460
tp1461
(lp1462
S'renown'
p1463
aS'You\xe2'
p1464
aS'unfinished'
p1465
as(S'whoreson'
p1466
tp1467
(lp1468
S'Somehow'
p1469
as(S'reasons'
p1470
tp1471
(lp1472
S'for'
p1473
as(S'squat'
p1474
tp1475
(lp1476
S'on'
p1477
as(S'That'
p1478
tp1479
(lp1480
S'depends'
p1481
aS'would'
p1482
aS'doesn\xe2'
p1483
aS'elevates'
p1484
aS'was'
p1485
aS'someday'
p1486
aS'is'
p1487
as(S'coming'
p1488
tp1489
(lp1490
S'do'
p1491
as(S'disquieting'
p1492
tp1493
(lp1494
S'you'
p1495
as(S'blind'
p1496
tp1497
(lp1498
S'you'
p1499
aS'in'
p1500
as(S'rich'
p1501
tp1502
(lp1503
S'folks'
p1504
aS'son'
p1505
aS'My'
p1506
as(S'nineteen'
p1507
tp1508
(lp1509
S'but'
p1510
aS'but'
p1511
as(S'Until'
p1512
tp1513
(lp1514
S'those'
p1515
aS'he'
p1516
as(S'shot'
p1517
tp1518
(lp1519
g80
aS'Hey'
p1520
aS'I\xe2'
p1521
aS'Burr'
p1522
aS'to'
p1523
aS'Your'
p1524
aS'is'
p1525
as(S'Like'
p1526
tp1527
(lp1528
S'you'
p1529
as(S'government'
p1530
tp1531
(lp1532
g80
aS'assume'
p1533
aS'where'
p1534
aS'size'
p1535
aS'funds'
p1536
as(S'spray'
p1537
tp1538
(lp1539
S'and'
p1540
as(S'service'
p1541
tp1542
(lp1543
S'sir'
p1544
as(S'farther'
p1545
tp1546
(lp1547
S'by'
p1548
as(S'hundred'
p1549
tp1550
(lp1551
S'degree'
p1552
as(S'loud'
p1553
tp1554
(lp1555
S'Sometimes'
p1556
as(S'retractions'
p1557
tp1558
(lp1559
g80
as(S'penniless'
p1560
tp1561
(lp1562
S'he\xe2'
p1563
aS'Ha'
p1564
as(S'room'
p1565
tp1566
(lp1567
S'The'
p1568
aS'where'
p1569
as(S'providence'
p1570
tp1571
(lp1572
S'impoverished'
p1573
as(S'take'
p1574
tp1575
(lp1576
S'an'
p1577
aS'Brooklyn'
p1578
ag76
aS'him'
p1579
aS'British'
p1580
ag76
aS'their'
p1581
aS'your'
p1582
aS'it'
p1583
aS'it'
p1584
aS'someone\xe2'
p1585
aS'another'
p1586
aS'deadly'
p1587
as(S'ami'
p1588
tp1589
(lp1590
S'je'
p1591
as(S'debt'
p1592
tp1593
(lp1594
S'Fight'
p1595
aS'is'
p1596
aS'you'
p1597
as(S'plot'
p1598
tp1599
(lp1600
S'blacker'
p1601
as(S'state\xe2'
p1602
tp1603
(lp1604
g516
as(S'Who\xe2'
p1605
tp1606
(lp1607
g516
ag516
as(S'help'
p1608
tp1609
(lp1610
S'you'
p1611
aS'you'
p1612
as(S'there'
p1613
tp1614
(lp1615
S'was'
p1616
aS'will'
p1617
aS'waiting'
p1618
aS'isn\xe2'
p1619
aS'useless'
p1620
aS'like'
p1621
aS'anything'
p1622
aS'is'
p1623
as(S'P'
p1624
tp1625
(lp1626
S'Van'
p1627
as(S'creator'
p1628
tp1629
(lp1630
S'of'
p1631
as(S'Negotiate'
p1632
tp1633
(lp1634
g76
as(S'folks'
p1635
tp1636
(lp1637
S'love'
p1638
aS'to'
p1639
as(S'skittish'
p1640
tp1641
(lp1642
S'as'
p1643
as(S'punched'
p1644
tp1645
(lp1646
S'him'
p1647
aS'the'
p1648
as(S'course'
p1649
tp1650
(lp1651
S'of'
p1652
aS'I\xe2'
p1653
aS'It\xe2'
p1654
ag76
as(S'last'
p1655
tp1656
(lp1657
S'that\xe2'
p1658
aS'unmask'
p1659
aS'week'
p1660
aS'chance'
p1661
aS'face'
p1662
aS'chance'
p1663
as(S'fractions'
p1664
tp1665
(lp1666
S'We'
p1667
as(S'mind'
p1668
tp1669
(lp1670
S'is'
p1671
aS'You'
p1672
aS'If'
p1673
aS'is'
p1674
aS'Don\xe2'
p1675
as(S'state'
p1676
tp1677
(lp1678
S'of'
p1679
aS'my'
p1680
as(S'stupid'
p1681
tp1682
(lp1683
S'I\xe2'
p1684
aS'So'
p1685
as(S'trouble'
p1686
tp1687
(lp1688
S'and'
p1689
aS'with'
p1690
as(S'stand'
p1691
tp1692
(lp1693
S'You'
p1694
aS'for'
p1695
aS'We'
p1696
aS'with'
p1697
aS'And'
p1698
aS'with'
p1699
aS'Stand'
p1700
aS'up'
p1701
aS'up'
p1702
as(S'sacred'
p1703
tp1704
(lp1705
S'mission'
p1706
as(S'abet'
p1707
tp1708
(lp1709
S'it'
p1710
as(S'those'
p1711
tp1712
(lp1713
S'in'
p1714
aS'funds'
p1715
as(S'Scratch'
p1716
tp1717
(lp1718
S'that'
p1719
as(S'staff'
p1720
tp1721
(lp1722
S'Don\xe2'
p1723
ag80
as(S'waving'
p1724
tp1725
(lp1726
S'Betsy'
p1727
as(S'political'
p1728
tp1729
(lp1730
S'pursuits'
p1731
as(S'opposite'
p1732
tp1733
(lp1734
S'reactions'
p1735
aS'reaction'
p1736
as(S'moi'
p1737
tp1738
(lp1739
S'Brrrah'
p1740
as(S'ruined'
p1741
tp1742
(lp1743
S'pride'
p1744
as(S'committed'
p1745
tp1746
(lp1747
S'suicide'
p1748
aS'treason'
p1749
as(S'Head'
p1750
tp1751
(lp1752
S'full'
p1753
as(S'fuck'
p1754
tp1755
(lp1756
S'back'
p1757
as(S'return'
p1758
tp1759
(lp1760
S'they'
p1761
as(S'papers'
p1762
tp1763
(lp1764
S'are'
p1765
as(S'shoulda'
p1766
tp1767
(lp1768
S'watched'
p1769
as(S'apprentice'
p1770
tp1771
(lp1772
S'And'
p1773
as(S'tide'
p1774
tp1775
(lp1776
S'Oh'
p1777
as(S'depends'
p1778
tp1779
(lp1780
S'Who\xe2'
p1781
as(S'system'
p1782
tp1783
(lp1784
S'You'
p1785
as(S'courage'
p1786
tp1787
(lp1788
S'you'
p1789
aS'you'
p1790
aS'you'
p1791
as(S'Somehow'
p1792
tp1793
(lp1794
S'endorse'
p1795
aS'defeat'
p1796
as(S'Draft'
p1797
tp1798
(lp1799
S'the'
p1800
as(S'case'
p1801
tp1802
(lp1803
S'As'
p1804
as(S'slip'
p1805
tp1806
(lp1807
S'Guns'
p1808
as(S'Grab'
p1809
tp1810
(lp1811
S'your'
p1812
as(S'Time'
p1813
tp1814
(lp1815
S'to'
p1816
as(S'side'
p1817
tp1818
(lp1819
S'panicky'
p1820
ag564
aS'Laurens'
p1821
aS'My'
p1822
aS'He\xe2'
p1823
aS'Washington'
p1824
aS'The'
p1825
as(S'est'
p1826
tp1827
(lp1828
S'moi'
p1829
as(S'takes'
p1830
tp1831
(lp1832
S'rook'
p1833
as(S'civics'
p1834
tp1835
(lp1836
S'lesson'
p1837
as(S'hell'
p1838
tp1839
(lp1840
S'is'
p1841
aS'it'
p1842
aS'yes\xe2'
p1843
aS'or'
p1844
as(S'cabinet'
p1845
tp1846
(lp1847
g80
aS'post'
p1848
as(S'forthcoming'
p1849
tp1850
(lp1851
S'on'
p1852
as(S'escort'
p1853
tp1854
(lp1855
S'their'
p1856
as(S'resilience'
p1857
tp1858
(lp1859
S'Or'
p1860
as(S'restitution'
p1861
tp1862
(lp1863
S'Started'
p1864
as(S'strip'
p1865
tp1866
(lp1867
S'down'
p1868
as(S'has'
p1869
tp1870
(lp1871
S'granted'
p1872
aS'promised'
p1873
aS'no'
p1874
aS'to'
p1875
aS'sent'
p1876
aS'to'
p1877
aS'to'
p1878
aS'its'
p1879
aS'to'
p1880
aS'to'
p1881
aS'its'
p1882
aS'my'
p1883
aS'beliefs'
p1884
aS'none'
p1885
aS'poisoned'
p1886
aS'more'
p1887
aS'to'
p1888
as(S'key'
p1889
tp1890
(lp1891
S'and'
p1892
aS'endorsement'
p1893
as(S'makin\xe2'
p1894
tp1895
(lp1896
S'Redcoats'
p1897
as(S'task'
p1898
tp1899
(lp1900
S'Somebody'
p1901
as(S'money'
p1902
tp1903
(lp1904
S'so'
p1905
aS'around'
p1906
aS'and'
p1907
aS'dresses'
p1908
aS'for'
p1909
as(S'Somebody'
p1910
tp1911
(lp1912
S'give'
p1913
aS'has'
p1914
as(S'advice'
p1915
tp1916
(lp1917
S'Talk'
p1918
aS'This'
p1919
as(S'mass'
p1920
tp1921
(lp1922
S'mutiny'
p1923
aS'so'
p1924
as(S'saying'
p1925
tp1926
(lp1927
S'Alex'
p1928
aS'sir'
p1929
ag564
as(S'draw'
p1930
tp1931
(lp1932
S'the'
p1933
as(S'right'
p1934
tp1935
(lp1936
S'hand'
p1937
aS'on'
p1938
aS'The'
p1939
aS'You'
p1940
ag752
aS'Mr'
p1941
aS'There'
p1942
aS'hand'
p1943
aS'hand'
p1944
aS'now'
p1945
aS'They\xe2'
p1946
as(S'extorted'
p1947
tp1948
(lp1949
S'me'
p1950
as(S'Ok'
p1951
tp1952
(lp1953
S'Blow'
p1954
as(S'such'
p1955
tp1956
(lp1957
S'rigor'
p1958
as(S'Queen'
p1959
tp1960
(lp1961
S'and'
p1962
as(S'carriages'
p1963
tp1964
(lp1965
S'and'
p1966
as(S'Escapin\xe2'
p1967
tp1968
(lp1969
S'em'
p1970
as(S'helpless'
p1971
tp1972
(lp1973
S'And'
p1974
as(S'account'
p1975
tp1976
(lp1977
S'for'
p1978
as(S'suicide'
p1979
tp1980
(lp1981
S'Left'
p1982
as(S'Sam'
p1983
tp1984
(lp1985
S'Adams'
p1986
as(S'soldier'
p1987
tp1988
(lp1989
S'with'
p1990
as(S'some'
p1991
tp1992
(lp1993
S'free'
p1994
aS'knowledge'
p1995
aS'pants'
p1996
aS'get'
p1997
aS'assistance'
p1998
aS'questions'
p1999
aS'friends'
p2000
aS'spies'
p2001
aS'things'
p2002
aS'dirt'
p2003
aS'money'
p2004
aS'notes'
p2005
aS'pistols'
p2006
aS'thought'
p2007
as(S'stall'
p2008
tp2009
(lp2010
S'for'
p2011
as(S'watched'
p2012
tp2013
(lp2014
S'your'
p2015
aS'Hamilton'
p2016
aS'as'
p2017
as(S'York\xe2'
p2018
tp2019
(lp2020
g516
as(S'and'
p2021
tp2022
(lp2023
g76
ag76
aS'carted'
p2024
aS'kept'
p2025
aS'devastation'
p2026
aS'The'
p2027
aS'his'
p2028
aS'readin\xe2'
p2029
aS'rum'
p2030
aS'all'
p2031
aS'horses'
p2032
aS'hungry'
p2033
aS'astonish'
p2034
aS'me'
p2035
ag80
aS'you'
p2036
aS'we'
p2037
aS'death'
p2038
aS'sorrow'
p2039
aS'slummin\xe2'
p2040
aS'gawk'
p2041
aS'tell'
p2042
aS'eloquence'
p2043
aS'rob'
p2044
aS'the'
p2045
aS'Boom'
p2046
aS"There's"
p2047
aS'We'
p2048
aS'We'
p2049
aS'horses'
p2050
aS'Henry'
p2051
aS'tell'
p2052
aS'on'
p2053
aS'distracted'
p2054
ag76
aS'it\xe2'
p2055
aS'he'
p2056
aS'see'
p2057
aS'she'
p2058
aS'the'
p2059
aS'the'
p2060
aS'my'
p2061
aS'bravery'
p2062
aS'choose'
p2063
aS'places'
p2064
aS'my'
p2065
aS'we'
p2066
aS'stay'
p2067
aS'then'
p2068
ag80
aS'church'
p2069
aS'the'
p2070
aS'competitive'
p2071
aS'said'
p2072
ag80
aS'up'
p2073
aS'guns'
p2074
aS'half'
p2075
aS'he'
p2076
aS'if'
p2077
aS'King-less'
p2078
aS'ask'
p2079
aS'we'
p2080
aS'preens'
p2081
aS'dresses'
p2082
aS'cock'
p2083
aS'making'
p2084
aS'abet'
p2085
aS'kiss'
p2086
aS'sons'
p2087
aS'when'
p2088
aS'sullied'
p2089
aS'astonish'
p2090
aS'brains'
p2091
aS'so'
p2092
aS'go'
p2093
ag80
aS'clearly'
p2094
aS'you'
p2095
aS'all'
p2096
ag76
aS'no'
p2097
aS'rise'
p2098
aS'my'
p2099
aS'place'
p2100
aS'no'
p2101
ag76
aS'love'
p2102
aS'burn'
p2103
aS'scatter'
p2104
aS'fluent'
p2105
aS'dry'
p2106
aS'immature'
p2107
aS'ruinous'
p2108
as(S'Local'
p2109
tp2110
(lp2111
S'merchants'
p2112
as(S'ball'
p2113
tp2114
(lp2115
S'And'
p2116
as(S'grievance'
p2117
tp2118
(lp2119
S'Here\xe2'
p2120
as(S'Marquis'
p2121
tp2122
(lp2123
S'de'
p2124
as(S'gon\xe2'
p2125
tp2126
(lp2127
S'happen'
p2128
aS'listen'
p2129
as(S'shame'
p2130
tp2131
(lp2132
S'But'
p2133
as(S'dissidents'
p2134
tp2135
(lp2136
S'This'
p2137
as(S'drive'
p2138
tp2139
(lp2140
S'the'
p2141
as(S'reaction'
p2142
tp2143
(lp2144
S'John'
p2145
as(S'speculation'
p2146
tp2147
(lp2148
S'An'
p2149
as(S'piss'
p2150
tp2151
(lp2152
S'in'
p2153
aS'off'
p2154
as(S'move'
p2155
tp2156
(lp2157
S'under'
p2158
aS'as'
p2159
aS'our'
p2160
as(S'run'
p2161
tp2162
(lp2163
S'their'
p2164
aS'or'
p2165
aS'to'
p2166
aS'Immigrants'
p2167
aS'against'
p2168
aS'back'
p2169
aS'or'
p2170
as(S'fine'
p2171
tp2172
(lp2173
S"She'd"
p2174
aS'And'
p2175
aS'Yes'
p2176
as(S'west'
p2177
tp2178
(lp2179
S'Yes'
p2180
as(S'Wise'
p2181
tp2182
(lp2183
S'up'
p2184
as(S'disadvantage'
p2185
tp2186
(lp2187
g80
as(S'callin\xe2'
p2188
tp2189
(lp2190
S'the'
p2191
as(S'supply'
p2192
tp2193
(lp2194
S'lines'
p2195
as(S'say'
p2196
tp2197
(lp2198
S'Bonsoir'
p2199
aS'how'
p2200
aS'anarchy'
p2201
aS"I'm"
p2202
aS'no'
p2203
aS'He\xe2'
p2204
ag80
aS'my'
p2205
aS'That'
p2206
aS'anything'
p2207
aS'I\xe2'
p2208
as(S'contraband'
p2209
tp2210
(lp2211
S'We'
p2212
as(S'far'
p2213
tp2214
(lp2215
S'away'
p2216
as(S'sent'
p2217
tp2218
(lp2219
g76
aS'the'
p2220
aS'for'
p2221
as(S'two-party'
p2222
tp2223
(lp2224
S'system'
p2225
as(S'bottom'
p2226
tp2227
(lp2228
S'His'
p2229
as(S'Brooklyn'
p2230
tp2231
(lp2232
S'Knight'
p2233
as(S'redefining'
p2234
tp2235
(lp2236
S'bravery'
p2237
as(S'Understand'
p2238
tp2239
(lp2240
S'It\xe2'
p2241
as(S'Bay'
p2242
tp2243
(lp2244
S'and'
p2245
aS'How'
p2246
as(S'along'
p2247
tp2248
(lp2249
S'to'
p2250
as(S'King'
p2251
tp2252
(lp2253
S'Casse'
p2254
aS'George'
p2255
aS'whose'
p2256
aS'Louis\xe2'
p2257
as(S'keeps'
p2258
tp2259
(lp2260
S'shittin\xe2'
p2261
as(S'brew'
p2262
tp2263
(lp2264
S'son'
p2265
as(S'French'
p2266
tp2267
(lp2268
S'aid'
p2269
aS'Thomas'
p2270
aS'figure'
p2271
ag80
as(S'Take'
p2272
tp2273
(lp2274
S'Philip'
p2275
aS'the'
p2276
aS'my'
p2277
as(S'Started'
p2278
tp2279
(lp2280
S'workin\xe2'
p2281
as(S'plenty'
p2282
tp2283
(lp2284
S'Scratch'
p2285
as(S'treatise'
p2286
tp2287
(lp2288
S'on'
p2289
as(S'toi'
p2290
tp2291
(lp2292
S'Who\xe2'
p2293
as(S'British'
p2294
tp2295
(lp2296
S'cannons'
p2297
aS'take'
p2298
aS'cut'
p2299
aS'From'
p2300
aS'cannons'
p2301
aS'forces'
p2302
aS'money'
p2303
aS'away'
p2304
aS'government'
p2305
aS'henchmen'
p2306
as(S'expecting'
p2307
tp2308
(lp2309
S'me'
p2310
aS'We'
p2311
as(S'damages'
p2312
tp2313
(lp2314
S'We'
p2315
as(S'gunshot'
p2316
tp2317
(lp2318
S'give'
p2319
as(S'E-R'
p2320
tp2321
(lp2322
S'we'
p2323
as(S'Slow'
p2324
tp2325
(lp2326
S'down'
p2327
as(S'succeed'
p2328
tp2329
(lp2330
S'there'
p2331
as(S'labor'
p2332
tp2333
(lp2334
g564
as(S'learned'
p2335
tp2336
(lp2337
S'to'
p2338
aS'that'
p2339
as(S'Franklin'
p2340
tp2341
(lp2342
S'with'
p2343
as(S'bleeding'
p2344
tp2345
(lp2346
S'as'
p2347
as(S'daughters'
p2348
tp2349
(lp2350
S'and'
p2351
aS'Peggy'
p2352
as(S'goal'
p2353
tp2354
(lp2355
S'My'
p2356
as(S'Sometimes'
p2357
tp2358
(lp2359
g80
as(S'American'
p2360
tp2361
(lp2362
S'experiment'
p2363
aS'experiment'
p2364
aS'promise'
p2365
aS'credit'
p2366
as(S'amounts\xe2'
p2367
tp2368
(lp2369
S'To'
p2370
as(S'Manhattan'
p2371
tp2372
(lp2373
S'in'
p2374
as(S'Made'
p2375
tp2376
(lp2377
g76
as(S'Duel'
p2378
tp2379
(lp2380
S'before'
p2381
as(S'ryone'
p2382
tp2383
(lp2384
S'give'
p2385
as(S'house'
p2386
tp2387
(lp2388
g564
as(S'Almost'
p2389
tp2390
(lp2391
g76
as(S'Ha'
p2392
tp2393
(lp2394
S'That'
p2395
aS'You'
p2396
as(S'merchants'
p2397
tp2398
(lp2399
S'deny'
p2400
as(S'bayonet'
p2401
tp2402
(lp2403
S'The'
p2404
as(S'dying'
p2405
tp2406
(lp2407
S'wish'
p2408
as(S'mine'
p2409
tp2410
(lp2411
S'She'
p2412
aS'If'
p2413
aS'You'
p2414
as(S'apprenticeship'
p2415
tp2416
(lp2417
g80
as(S'Montgomery'
p2418
tp2419
(lp2420
S'Until'
p2421
as(S'neighbor'
p2422
tp2423
(lp2424
S'Your'
p2425
as(S'eight'
p2426
tp2427
(lp2428
S'nine'
p2429
as(S'scent'
p2430
tp2431
(lp2432
S'thick'
p2433
aS'of'
p2434
aS'that\xe2'
p2435
as(S'whore'
p2436
tp2437
(lp2438
S'and'
p2439
aS'Go'
p2440
as(S'eating'
p2441
tp2442
(lp2443
S'our'
p2444
as(S'since'
p2445
tp2446
(lp2447
S'the'
p2448
as(S'corner'
p2449
tp2450
(lp2451
S'That\xe2'
p2452
as(S'constantly'
p2453
tp2454
(lp2455
S'confusin\xe2'
p2456
as(S'deniability'
p2457
tp2458
(lp2459
S'Now'
p2460
aS'Duel'
p2461
as(S'against'
p2462
tp2463
(lp2464
S'or'
p2465
aS'slavery'
p2466
aS'the'
p2467
aS'my'
p2468
aS'oppressors'
p2469
aS'tyranny'
p2470
aS'your'
p2471
aS'me'
p2472
as(S'pursuit'
p2473
tp2474
(lp2475
S'of'
p2476
as(S'Maybe'
p2477
tp2478
(lp2479
S'that'
p2480
aS'the'
p2481
as(S'de'
p2482
tp2483
(lp2484
S'Lafayette'
p2485
as(S'doctor'
p2486
tp2487
(lp2488
S'that'
p2489
aS'turned'
p2490
aS'on'
p2491
as(S'livin\xe2'
p2492
tp2493
(lp2494
S'fast'
p2495
as(S'Smile'
p2496
tp2497
(lp2498
S'more'
p2499
as(S'Thanks'
p2500
tp2501
(lp2502
S'to'
p2503
as(S'forgotten'
p2504
tp2505
(lp2506
S'Spot'
p2507
as(S'dag'
p2508
tp2509
(lp2510
g80
ag80
as(S'ability'
p2511
tp2512
(lp2513
S'The'
p2514
as(S'moment'
p2515
tp2516
(lp2517
S'last'
p2518
aS'it\xe2'
p2519
aS'and'
p2520
aS'of'
p2521
as(S'brother'
p2522
tp2523
(lp2524
S'was'
p2525
as(S'decided'
p2526
tp2527
(lp2528
S'to\xe2'
p2529
as(S'dismisses'
p2530
tp2531
(lp2532
S'me'
p2533
as(S'hid'
p2534
tp2535
(lp2536
S'the'
p2537
as(S'honest'
p2538
tp2539
(lp2540
S'stand'
p2541
aS'I\xe2'
p2542
as(S'envy'
p2543
tp2544
(lp2545
S'of'
p2546
as(S'southern'
p2547
tp2548
(lp2549
S'tip'
p2550
as(S'squalor'
p2551
tp2552
(lp2553
S'Grow'
p2554
as(S'Redcoats'
p2555
tp2556
(lp2557
S'redder'
p2558
as(S'Hey'
p2559
tp2560
(lp2561
S'yo'
p2562
aS'neighbor'
p2563
aS'turn'
p2564
aS'and'
p2565
ag80
as(S'unafraid'
p2566
tp2567
(lp2568
S'to'
p2569
as(S'brand-new'
p2570
tp2571
(lp2572
S'nation'
p2573
as(S'Essentially'
p2574
tp2575
(lp2576
S'they'
p2577
as(S'onarchy'
p2578
tp2579
(lp2580
S'Onarchy'
p2581
as(S'pay'
p2582
tp2583
(lp2584
S'for'
p2585
aS'him'
p2586
as(S'century'
p2587
tp2588
(lp2589
S'Enter'
p2590
as(S'thinkin\xe2'
p2591
tp2592
(lp2593
S'past'
p2594
as(S'vengeance'
p2595
tp2596
(lp2597
S'and'
p2598
as(S'one'
p2599
tp2600
(lp2601
S'spot'
p2602
aS'man'
p2603
aS'can'
p2604
aS'So'
p2605
aS'Who'
p2606
aS'So'
p2607
aS'Through'
p2608
aS'shot'
p2609
aS'put'
p2610
aS'knows'
p2611
aS'else'
p2612
aS'trusts'
p2613
aS'knows'
p2614
aS'shoots'
p2615
aS'thought'
p2616
aS'shoots'
p2617
aS'has'
p2618
as(S'Can'
p2619
tp2620
(lp2621
g80
ag80
aS'leave'
p2622
aS'we'
p2623
as(S'publishes'
p2624
tp2625
(lp2626
S'his'
p2627
as(S'Then'
p2628
tp2629
(lp2630
g76
aS'we'
p2631
aS'King'
p2632
ag80
ag80
ag80
aS'I\xe2'
p2633
aS'slowly'
p2634
aS'count'
p2635
as(S'kind'
p2636
tp2637
(lp2638
S'If'
p2639
aS'of'
p2640
as(S'toe'
p2641
tp2642
(lp2643
S'to'
p2644
aS'Alexander'
p2645
as(S'His'
p2646
tp2647
(lp2648
S'enemies'
p2649
aS'daughters'
p2650
aS'hands'
p2651
aS'plan'
p2652
as(S'funds'
p2653
tp2654
(lp2655
S'France'
p2656
ag80
ag80
as(S'sleeve'
p2657
tp2658
(lp2659
S'Even'
p2660
as(S'turn'
p2661
tp2662
(lp2663
S'and'
p2664
aS'n\xe2'
p2665
aS'around'
p2666
aS'around'
p2667
aS'the'
p2668
as(S'gun'
p2669
tp2670
(lp2671
S'to'
p2672
aS'The'
p2673
aS'We'
p2674
aS'and'
p2675
aS'towards'
p2676
aS'with'
p2677
aS'or'
p2678
as(S'appelle'
p2679
tp2680
(lp2681
S'Lafayette'
p2682
as(S'old'
p2683
tp2684
(lp2685
S'today'
p2686
as(S'self'
p2687
tp2688
(lp2689
S'starter'
p2690
as(S'better'
p2691
tp2692
(lp2693
S'To'
p2694
as(S'Confession'
p2695
tp2696
(lp2697
S'time'
p2698
as(S'they\xe2'
p2699
tp2700
(lp2701
S're'
p2702
aS're'
p2703
as(S'Monticello'
p2704
tp2705
(lp2706
S'If'
p2707
as(S'drip'
p2708
tp2709
(lp2710
S'dripping'
p2711
as(S'places'
p2712
tp2713
(lp2714
S'to'
p2715
as(S'Jesus'
p2716
tp2717
(lp2718
S'between'
p2719
as(S'apologize'
p2720
tp2721
(lp2722
S'we'
p2723
aS'for'
p2724
aS'no'
p2725
as(S'Enragin\xe2'
p2726
tp2727
(lp2728
S'em'
p2729
as(S'intercourse'
p2730
tp2731
(lp2732
S'over'
p2733
as(S'back'
p2734
tp2735
(lp2736
S'we'
p2737
aS'to'
p2738
aS'to'
p2739
aS'to'
p2740
aS'up'
p2741
aS'home'
p2742
aS'in'
p2743
aS'where'
p2744
aS'we'
p2745
aS'home'
p2746
aS'with'
p2747
ag80
ag80
aS'Alexander'
p2748
as(S'contrary'
p2749
tp2750
(lp2751
g80
as(S'pedestal'
p2752
tp2753
(lp2754
S'Writin\xe2'
p2755
as(S'candidacy'
p2756
tp2757
(lp2758
S'Look'
p2759
as(S'response'
p2760
tp2761
(lp2762
S'We'
p2763
as(S'quill'
p2764
tp2765
(lp2766
S'is'
p2767
as(S'six'
p2768
tp2769
(lp2770
S'seven'
p2771
as(S'further'
p2772
tp2773
(lp2774
S'action'
p2775
as(S'No'
p2776
tp2777
(lp2778
S'more'
p2779
aS'he'
p2780
aS'one'
p2781
aS'one'
p2782
aS'He\xe2'
p2783
aS'I\xe2'
p2784
aS'one'
p2785
aS'one'
p2786
as(S'young'
p2787
tp2788
(lp2789
S'scrappy'
p2790
aS'man'
p2791
aS'man'
p2792
as(S'afford'
p2793
tp2794
(lp2795
S'Scammin\xe2'
p2796
aS'another'
p2797
as(S"I'm"
p2798
tp2799
(lp2800
S'fine'
p2801
as(S'agree'
p2802
tp2803
(lp2804
S'that'
p2805
as(S'left'
p2806
tp2807
(lp2808
S'to'
p2809
aS'behind'
p2810
aS'alone'
p2811
as(S'trusting'
p2812
tp2813
(lp2814
S'or'
p2815
as(S'preens'
p2816
tp2817
(lp2818
S'and'
p2819
as(S'third'
p2820
tp2821
(lp2822
S'of'
p2823
as(S'Unite'
p2824
tp2825
(lp2826
S'the'
p2827
as(S'truly'
p2828
tp2829
(lp2830
S'free'
p2831
ag76
as(S'Angelica'
p2832
tp2833
(lp2834
S'Eliza'
p2835
aS'he'
p2836
aS'Missing'
p2837
as(S'rendezvous'
p2838
tp2839
(lp2840
S'with'
p2841
as(S'find'
p2842
tp2843
(lp2844
S'anyone'
p2845
aS'you'
p2846
as(S'like'
p2847
tp2848
(lp2849
g80
aS'my'
p2850
aS'Lancelot'
p2851
aS'you'
p2852
aS'it'
p2853
ag76
ag76
aS'Moses'
p2854
aS'you'
p2855
ag76
aS'you'
p2856
aS'to'
p2857
ag80
ag76
aS'to'
p2858
aS'you'
p2859
aS'new'
p2860
aS'fake'
p2861
aS'to'
p2862
aS'to'
p2863
aS'fractions'
p2864
aS'the'
p2865
aS'me'
p2866
aS'my'
p2867
aS'that'
p2868
ag76
aS'his'
p2869
aS'Adams'
p2870
aS'that'
p2871
aS'75'
p2872
ag76
ag76
as(S'Van'
p2873
tp2874
(lp2875
S'Ness'
p2876
as(S'Try'
p2877
tp2878
(lp2879
S'not'
p2880
as(S'Nathaniel'
p2881
tp2882
(lp2883
S'Green'
p2884
aS'Pendleton'
p2885
as(S'even'
p2886
tp2887
(lp2888
S'grow'
p2889
aS'know'
p2890
aS'orphan'
p2891
as(S'factions'
p2892
tp2893
(lp2894
S'Try'
p2895
as(S'shiny'
p2896
tp2897
(lp2898
S'piece'
p2899
as(S'obfuscates'
p2900
tp2901
(lp2902
S'he'
p2903
as(S'beat'
p2904
tp2905
(lp2906
S'without'
p2907
aS'no'
p2908
as(S'Talked'
p2909
tp2910
(lp2911
S'about'
p2912
as(S'Inside'
p2913
tp2914
(lp2915
S'he'
p2916
as(S'look'
p2917
tp2918
(lp2919
S'hot'
p2920
aS'They\xe2'
p2921
aS'forward'
p2922
aS'pretty'
p2923
aS'it'
p2924
as(S'undeniable'
p2925
tp2926
(lp2927
S'But'
p2928
as(S'marksman\xe2'
p2929
tp2930
(lp2931
g516
as(S'Through'
p2932
tp2933
(lp2934
S'the'
p2935
as(S'boom'
p2936
tp2937
(lp2938
S'Any'
p2939
as(S'fool'
p2940
tp2941
(lp2942
S'around'
p2943
as(S'defend'
p2944
tp2945
(lp2946
S'America'
p2947
as(S'crack'
p2948
tp2949
(lp2950
S'under'
p2951
as(S'than'
p2952
tp2953
(lp2954
S'the'
p2955
aS'the'
p2956
as(S'sun'
p2957
tp2958
(lp2959
S'is'
p2960
as(S'sister'
p2961
tp2962
(lp2963
S'you\xe2'
p2964
aS'That'
p2965
aS'like'
p2966
as(S'guard'
p2967
tp2968
(lp2969
S'up'
p2970
aS'and'
p2971
aS'founder'
p2972
as(S'occasion'
p2973
tp2974
(lp2975
S'of'
p2976
as(S'general'
p2977
tp2978
(lp2979
S'The'
p2980
as(S'letter'
p2981
tp2982
(lp2983
S'and'
p2984
aS'finds'
p2985
aS'but'
p2986
as(S'happ\xe2'
p2987
tp2988
(lp2989
S'ning'
p2990
as(S'coal'
p2991
tp2992
(lp2993
S'Tryin\xe2'
p2994
as(S'redeem'
p2995
tp2996
(lp2997
S'you'
p2998
as(S'sisters'
p2999
tp3000
(lp3001
S'are'
p3002
as(S'competitive'
p3003
tp3004
(lp3005
S'The'
p3006
aS'If'
p3007
as(S'headline'
p3008
tp3009
(lp3010
S'your'
p3011
as(S'let'
p3012
tp3013
(lp3014
S'me'
p3015
aS'them'
p3016
aS'me'
p3017
aS'it'
p3018
aS'some'
p3019
ag76
aS'your'
p3020
aS'it'
p3021
aS'the'
p3022
aS'it'
p3023
aS'it'
p3024
aS'me'
p3025
as(S'battles'
p3026
tp3027
(lp3028
S'and'
p3029
as(S'what\xe2'
p3030
tp3031
(lp3032
S'll'
p3033
ag516
as(S'longing'
p3034
tp3035
(lp3036
S'for'
p3037
as(S'the'
p3038
tp3039
(lp3040
S'middle'
p3041
aS'Caribbean'
p3042
aS'waves'
p3043
aS'drain'
p3044
aS'word'
p3045
aS'mainland'
p3046
aS'scent'
p3047
aS'cousin'
p3048
aS'shelf'
p3049
aS'things'
p3050
aS'future'
p3051
aS'harbor'
p3052
aS'bottom'
p3053
aS'financials'
p3054
aS'bursar'
p3055
aS'revolution'
p3056
aS'place'
p3057
aS'revolutionary'
p3058
aS'King'
p3059
aS'best'
p3060
aS'revolution'
p3061
aS'prodigy'
p3062
aS'revolution\xe2'
p3063
aS'rough'
p3064
aS'name'
p3065
aS'A-L-E-X-A-N-D'
p3066
aS'other'
p3067
aS'rebellion'
p3068
aS'same'
p3069
aS'first'
p3070
aS'situation'
p3071
aS'kettle'
p3072
aS'pot'
p3073
aS'odds'
p3074
aS'gods'
p3075
aS'ammunition'
p3076
aS'mouth'
p3077
aS'movement'
p3078
aS'hungriest'
p3079
aS'blood'
p3080
aS'action'
p3081
aS'street'
p3082
aS'bleedin\xe2'
p3083
aS'state'
p3084
aS'face'
p3085
aS'first'
p3086
aS'poor'
p3087
aS'students'
p3088
aS'common'
p3089
aS'man'
p3090
aS'city'
p3091
aS'guys'
p3092
aS'Caribbean'
p3093
aS'only'
p3094
aS'battlefield'
p3095
aS'only'
p3096
aS'people'
p3097
aS'model'
p3098
aS'elephant'
p3099
aS'room'
p3100
aS'British'
p3101
aS'people'
p3102
aS'bleeding'
p3103
aS'British'
p3104
aS'Battery'
p3105
aS'damages'
p3106
aS'stamina'
p3107
aS'cannon'
p3108
aS'blood'
p3109
aS'shit'
p3110
aS'cannon'
p3111
aS'southern'
p3112
aS'British'
p3113
aS'city'
p3114
aS'face'
p3115
aS'men'
p3116
aS'distance'
p3117
aS'neck'
p3118
aS'British'
p3119
aS'door'
p3120
aS'contrary'
p3121
aS'load'
p3122
aS'help'
p3123
aS'inside'
p3124
aS'guys'
p3125
aS'element'
p3126
aS'occasion'
p3127
aS'bastard'
p3128
aS'right'
p3129
aS'father'
p3130
aS'ladies'
p3131
aS'Schuyler'
p3132
aS'envy'
p3133
aS'hell'
p3134
aS'catch'
p3135
aS'light'
p3136
aS'seat'
p3137
aS'one'
p3138
aS'oldest'
p3139
aS'wittiest'
p3140
aS'gossip'
p3141
aS'General'
p3142
aS'British'
p3143
aS'choice'
p3144
aS'bed'
p3145
aS'Battle'
p3146
aS'jaws'
p3147
aS'revolution'
p3148
aS'field'
p3149
aS'job'
p3150
aS'chance'
p3151
aS'other'
p3152
aS'end'
p3153
aS'job'
p3154
aS'bullets'
p3155
aS'night'
p3156
aS'moment'
p3157
aS'business'
p3158
aS'American'
p3159
aS'winds'
p3160
aS'British'
p3161
aS'inside'
p3162
aS'British'
p3163
aS'Sons'
p3164
aS'ruffians'
p3165
aS'shit'
p3166
aS'fuck'
p3167
aS'terms'
p3168
aS'streets'
p3169
aS'drinking'
p3170
aS'bastard'
p3171
aS'colonies'
p3172
aS'other'
p3173
aS'President'
p3174
aS'chance'
p3175
aS'ambassador'
p3176
aS'American'
p3177
aS'pursuit'
p3178
aS'government'
p3179
aS'shoe'
p3180
aS'South'
p3181
aS'shade'
p3182
aS'ground'
p3183
aS'land'
p3184
aS'free'
p3185
aS'present'
p3186
aS'hell'
p3187
aS'debts'
p3188
aS'union'
p3189
aS'South'
p3190
aS'planting'
p3191
aS'war'
p3192
aS'French'
p3193
aS'President'
p3194
aS'national'
p3195
aS'letter'
p3196
aS'up'
p3197
aS'things'
p3198
aS'opportunity'
p3199
aS'death'
p3200
aS'fall'
p3201
aS'time'
p3202
aS'ideals'
p3203
aS'nation'
p3204
aS'brink'
p3205
aS'middle'
p3206
aS'French'
p3207
aS'statement'
p3208
aS'world'
p3209
aS'line'
p3210
aS'stress'
p3211
aS'press'
p3212
aS'pits'
p3213
aS'trigger'
p3214
aS'gun'
p3215
aS'size'
p3216
aS'government\xe2'
p3217
aS'trouble'
p3218
aS'scent'
p3219
aS'South'
p3220
aS'house'
p3221
aS'cabinet'
p3222
aS'difference'
p3223
aS'short-tempered'
p3224
aS'coast'
p3225
aS'New'
p3226
aS'Adam\xe2'
p3227
aS'runner-up'
p3228
aS'vice-president'
p3229
aS'check'
p3230
aS'evidence'
p3231
aS'headline'
p3232
aS'law'
p3233
aS'room'
p3234
aS'pockets'
p3235
aS'dogs'
p3236
aS'latest'
p3237
aS'same'
p3238
aS'resemblance'
p3239
aS'show'
p3240
aS'dueling'
p3241
aS'shit'
p3242
aS'peace'
p3243
aS'river'
p3244
aS'time'
p3245
aS'air'
p3246
aS'whole'
p3247
aS'rest'
p3248
aS'pleasantries'
p3249
aS'eye'
p3250
aS'courage'
p3251
aS'sky\xe2'
p3252
aS'bed'
p3253
aS'guy'
p3254
aS'North'
p3255
aS'problem'
p3256
aS'same'
p3257
aS'country'
p3258
aS'beginning'
p3259
aS'reason'
p3260
aS'public'
p3261
aS'Hudson'
p3262
aS'terrain'
p3263
aS'world'
p3264
aS'time'
p3265
aS'trigger'
p3266
aS'record'
p3267
aS'world'
p3268
aS'same'
p3269
aS'slaughter'
p3270
aS'eye'
p3271
aS'courage'
p3272
aS'last'
p3273
aS'beginning'
p3274
aS'other'
p3275
aS'other'
p3276
aS'other'
p3277
aS'other'
p3278
aS'other'
p3279
aS'quagmire'
p3280
aS'battlefield'
p3281
aS'British'
p3282
aS'reins'
p3283
aS'balance'
p3284
aS'bench'
p3285
aS'letter'
p3286
aS'sooner'
p3287
aS'better'
p3288
aS'field'
p3289
aS'tide'
p3290
aS'same'
p3291
aS'sun'
p3292
aS'sky'
p3293
aS'moment'
p3294
aS'record'
p3295
aS'eye'
p3296
aS'courage'
p3297
aS'very'
p3298
aS'top'
p3299
aS'man'
p3300
aS'jury'
p3301
aS'first'
p3302
as(S'may'
p3303
tp3304
(lp3305
S'have'
p3306
aS'have'
p3307
as(S'plantin\xe2'
p3308
tp3309
(lp3310
S'tobacco'
p3311
as(S'higher'
p3312
tp3313
(lp3314
S'Summon'
p3315
aS'Summon'
p3316
aS'Yo'
p3317
aS'Summon'
p3318
as(S'aim'
p3319
tp3320
(lp3321
S'no'
p3322
aS'your'
p3323
aS'It\xe2'
p3324
aS'no'
p3325
aS'no'
p3326
as(S'handles'
p3327
tp3328
(lp3329
S'the'
p3330
as(S'rights'
p3331
tp3332
(lp3333
S'as'
p3334
as(S'site'
p3335
tp3336
(lp3337
S'You'
p3338
as(S'messy'
p3339
tp3340
(lp3341
S'But'
p3342
as(S'poor'
p3343
tp3344
(lp3345
S'They'
p3346
ag80
as(S'hero'
p3347
tp3348
(lp3349
S'and'
p3350
as(S'Left'
p3351
tp3352
(lp3353
S'him'
p3354
as(S'weapon'
p3355
tp3356
(lp3357
S'in'
p3358
aS'An'
p3359
as(S'betrays'
p3360
tp3361
(lp3362
S'the'
p3363
as(S'disparaged'
p3364
tp3365
(lp3366
S'my'
p3367
as(S'Bit'
p3368
tp3369
(lp3370
S'of'
p3371
as(S'whose'
p3372
tp3373
(lp3374
S'men'
p3375
aS'head'
p3376
as(S'hesitant'
p3377
tp3378
(lp3379
S'with'
p3380
as(S'air'
p3381
tp3382
(lp3383
S'This'
p3384
as(S'no'
p3385
tp3386
(lp3387
S'polish'
p3388
aS'defendants'
p3389
aS'one'
p3390
aS'sons'
p3391
aS'sweat'
p3392
aS'introduction'
p3393
aS'to'
p3394
aS'to'
p3395
aS'satisfaction'
p3396
aS'more'
p3397
aS'higher'
p3398
aS'one'
p3399
aS'one'
p3400
aS'higher'
p3401
aS'beat'
p3402
aS'melody'
p3403
aS'need'
p3404
aS'one'
p3405
aS'higher'
p3406
as(S'without'
p3407
tp3408
(lp3409
g76
ag76
ag76
aS'Washington'
p3410
as(S'Where'
p3411
tp3412
(lp3413
g80
aS'all'
p3414
aS'my'
p3415
aS'France'
p3416
aS'do'
p3417
aS'is'
p3418
as(S'act'
p3419
tp3420
(lp3421
S'of'
p3422
aS'surprised'
p3423
as(S'Without'
p3424
tp3425
(lp3426
g76
ag76
as(S'Guns'
p3427
tp3428
(lp3429
S'and'
p3430
aS'And'
p3431
as(S'rather'
p3432
tp3433
(lp3434
S'give'
p3435
aS'not'
p3436
aS'skip'
p3437
as(S'his'
p3438
tp3439
(lp3440
S'guard'
p3441
aS'future'
p3442
aS'temple'
p3443
aS'brain'
p3444
aS'first'
p3445
aS'pain'
p3446
aS'father'
p3447
aS'mother'
p3448
aS'late'
p3449
aS'hands'
p3450
aS'rep'
p3451
aS'descendants'
p3452
aS'fam\xe2'
p3453
aS'answer'
p3454
aS'pants'
p3455
aS'status'
p3456
aS'bride'
p3457
aS'correspondence'
p3458
aS'devices'
p3459
aS'station'
p3460
aS'fits'
p3461
aS'pocket'
p3462
aS'eyes'
p3463
aS'enterprise'
p3464
aS'mouth'
p3465
aS'cabinet'
p3466
aS'reputation'
p3467
aS'toss'
p3468
aS'response'
p3469
aS'legacy'
p3470
aS'box'
p3471
aS'own'
p3472
aS'chances'
p3473
aS'enemy'
p3474
aS'crew'
p3475
aS'brain'
p3476
aS'gun'
p3477
aS'glasses'
p3478
aS'words'
p3479
aS'life'
p3480
aS'rise'
p3481
as(S'Look'
p3482
tp3483
(lp3484
S'when'
p3485
aS'in'
p3486
ag564
aS'him'
p3487
ag564
as(S'bring'
p3488
tp3489
(lp3490
S'freedom'
p3491
aS'the'
p3492
aS'him'
p3493
as(S'slavery'
p3494
tp3495
(lp3496
S'And'
p3497
aS'When'
p3498
as(S"There's"
p3499
tp3500
(lp3501
S'another'
p3502
as(S'brandish'
p3503
tp3504
(lp3505
g80
as(S'destroy'
p3506
tp3507
(lp3508
S'his'
p3509
as(S'across'
p3510
tp3511
(lp3512
S'the'
p3513
aS'the'
p3514
as(S'how'
p3515
tp3516
(lp3517
S'you'
p3518
ag80
aS'you'
p3519
aS'to'
p3520
aS'come'
p3521
aS'to'
p3522
aS'to'
p3523
aS'he'
p3524
aS'you\xe2'
p3525
aS'many'
p3526
as(S'watch'
p3527
tp3528
(lp3529
S'them'
p3530
aS'all'
p3531
aS'the'
p3532
aS'the'
p3533
as(S'Young'
p3534
tp3535
(lp3536
S'man\xe2'
p3537
as(S'aggressive'
p3538
tp3539
(lp3540
S'and'
p3541
as(S'sort'
p3542
tp3543
(lp3544
S'of'
p3545
as(S'fantasies'
p3546
tp3547
(lp3548
S'of'
p3549
as(S'scream'
p3550
tp3551
(lp3552
S'in'
p3553
as(S'luck'
p3554
tp3555
(lp3556
S'with'
p3557
aS'You'
p3558
as(S'knew'
p3559
tp3560
(lp3561
S'that'
p3562
aS'it'
p3563
ag80
as(S'Geniuses'
p3564
tp3565
(lp3566
S'lower'
p3567
as(S'Got'
p3568
tp3569
(lp3570
g76
as(S'goes'
p3571
tp3572
(lp3573
S'the'
p3574
aS'the'
p3575
as(S'opportunity'
p3576
tp3577
(lp3578
g80
as(S'Laurens'
p3579
tp3580
(lp3581
S'in'
p3582
ag80
aS'Mulligan'
p3583
aS'is'
p3584
aS'leads'
p3585
as(S'granted'
p3586
tp3587
(lp3588
S'us'
p3589
as(S'traction'
p3590
tp3591
(lp3592
S'Poor'
p3593
as(S'fightin\xe2'
p3594
tp3595
(lp3596
S'I\xe2'
p3597
as(S'heard'
p3598
tp3599
(lp3600
S'your'
p3601
aS'ya'
p3602
aS'With'
p3603
aS'the'
p3604
as(S'robs'
p3605
tp3606
(lp3607
g564
as(S'lasted'
p3608
tp3609
(lp3610
S'two'
p3611
as(S'Ready'
p3612
tp3613
(lp3614
S'for'
p3615
as(S'legal'
p3616
tp3617
(lp3618
S'action'
p3619
aS'in'
p3620
as(S'connected'
p3621
tp3622
(lp3623
S'it'
p3624
as(S'Yes'
p3625
tp3626
(lp3627
g80
aS'Your'
p3628
aS'sir'
p3629
ag80
as(S'thing'
p3630
tp3631
(lp3632
S'he'
p3633
aS'Mr'
p3634
as(S'keg'
p3635
tp3636
(lp3637
S'about'
p3638
as(S'talk'
p3639
tp3640
(lp3641
S'you\xe2'
p3642
aS'Take'
p3643
aS'about'
p3644
as(S'Francophile'
p3645
tp3646
(lp3647
S'at'
p3648
as(S'leave'
p3649
tp3650
(lp3651
S'their'
p3652
as(S'their'
p3653
tp3654
(lp3655
S'own'
p3656
aS'mouths'
p3657
aS'carriages'
p3658
aS'advantages'
p3659
aS'cannons'
p3660
aS'staff'
p3661
aS'measurements'
p3662
aS'men'
p3663
aS'hour'
p3664
aS'luck'
p3665
aS'fingerprints'
p3666
aS'remains'
p3667
aS'gifts'
p3668
as(S'second-in-command'
p3669
tp3670
(lp3671
S'I\xe2'
p3672
as(S'cannons'
p3673
tp3674
(lp3675
S'go'
p3676
aS'Boom'
p3677
aS'when'
p3678
as(S'Fight'
p3679
tp3680
(lp3681
S'the'
p3682
as(S'York'
p3683
tp3684
(lp3685
S'you'
p3686
aS'City'
p3687
aS'City'
p3688
aS'City'
p3689
aS'and'
p3690
aS'Post'
p3691
as(S'ass'
p3692
tp3693
(lp3694
S'as'
p3695
as(S'pages'
p3696
tp3697
(lp3698
S'for'
p3699
as(S'study'
p3700
tp3701
(lp3702
S'when'
p3703
as(S'itemized'
p3704
tp3705
(lp3706
S'list'
p3707
as(S'It\xe2'
p3708
tp3709
(lp3710
g516
ag516
ag516
ag516
ag516
ag516
ag516
ag516
ag516
ag516
as(S'Post'
p3711
tp3712
(lp3713
S'ardently'
p3714
as(S'lay'
p3715
tp3716
(lp3717
S'down'
p3718
as(S'lawyer'
p3719
tp3720
(lp3721
S'My'
p3722
as(S'Henry'
p3723
tp3724
(lp3725
S'Knox'
p3726
as(S'Madison'
p3727
tp3728
(lp3729
S'you\xe2'
p3730
as(S'Any'
p3731
tp3732
(lp3733
S'hope'
p3734
as(S'feel'
p3735
tp3736
(lp3737
g76
as(S'workin\xe2'
p3738
tp3739
(lp3740
S'clerkin\xe2'
p3741
aS'on'
p3742
as(S'readin\xe2'
p3743
tp3744
(lp3745
S'every'
p3746
ag564
as(S'practicing'
p3747
tp3748
(lp3749
S'all'
p3750
as(S'scattered'
p3751
tp3752
(lp3753
S'to'
p3754
as(S'Vernon'
p3755
tp3756
(lp3757
S'Monsieur'
p3758
as(S'front'
p3759
tp3760
(lp3761
S'of'
p3762
aS'of'
p3763
aS'of'
p3764
as(S'Half-dead'
p3765
tp3766
(lp3767
S"sittin'"
p3768
as(S'consistency'
p3769
tp3770
(lp3771
g80
as(S'cannot'
p3772
tp3773
(lp3774
S'be'
p3775
aS'be'
p3776
aS'let'
p3777
aS'let'
p3778
as(S'dueling'
p3779
tp3780
(lp3781
S'ground'
p3782
as(S'America\xe2'
p3783
tp3784
(lp3785
g516
as(S'n\xe2'
p3786
tp3787
(lp3788
S'go'
p3789
aS'see'
p3790
as(S'firing'
p3791
tp3792
(lp3793
S'on'
p3794
as(S'making'
p3795
tp3796
(lp3797
S'American'
p3798
aS'my'
p3799
aS'hist\xe2'
p3800
as(S'watching'
p3801
tp3802
(lp3803
S'he'
p3804
aS'him'
p3805
aS'from'
p3806
as(S'reason'
p3807
tp3808
(lp3809
S'no'
p3810
as(S'soul'
p3811
tp3812
(lp3813
S'what'
p3814
as(S'alright'
p3815
tp3816
(lp3817
S'you'
p3818
aS'Time'
p3819
as(S'send'
p3820
tp3821
(lp3822
S'him'
p3823
as(S'understand'
p3824
tp3825
(lp3826
S'Stand'
p3827
as(S'Did'
p3828
tp3829
(lp3830
S'you'
p3831
aS'your'
p3832
as(S'parentheses'
p3833
tp3834
(lp3835
S'Don\xe2'
p3836
as(S'Leading'
p3837
tp3838
(lp3839
S'keep'
p3840
as(S'rumors'
p3841
tp3842
(lp3843
S'only'
p3844
as(S'Age'
p3845
tp3846
(lp3847
S'of'
p3848
as(S'Peggy'
p3849
tp3850
(lp3851
S'Angelica'
p3852
as(S'winter\xe2'
p3853
tp3854
(lp3855
g516
as(S'm\xe2'
p3856
tp3857
(lp3858
S'appelle'
p3859
ag80
as(S'doin\xe2'
p3860
tp3861
(lp3862
S'this'
p3863
as(S'immigrant'
p3864
tp3865
(lp3866
S'Comin\xe2'
p3867
aS'embezzling'
p3868
aS'you'
p3869
as(S'wanted'
p3870
tp3871
(lp3872
S'to'
p3873
aS'to'
p3874
aS'to'
p3875
as(S'ten-dollar'
p3876
tp3877
(lp3878
S'Founding'
p3879
as(S'Burr'
p3880
tp3881
(lp3882
S'sir'
p3883
aS'Give'
p3884
aS'the'
p3885
aS'what\xe2'
p3886
aS'check'
p3887
aS'Sir'
p3888
aS'Yes'
p3889
aS'Sir'
p3890
aS'or'
p3891
aS'Since'
p3892
aS'with'
p3893
aS'as'
p3894
ag80
aS'sir'
p3895
aS'has'
p3896
aS'my'
p3897
aS'With'
p3898
as(S'require'
p3899
tp3900
(lp3901
S'Then'
p3902
aS'Then'
p3903
aS'Even'
p3904
as(S'fragile'
p3905
tp3906
(lp3907
S'to'
p3908
as(S'particular'
p3909
tp3910
(lp3911
S'stances'
p3912
as(S'forget'
p3913
tp3914
(lp3915
S'from'
p3916
aS'Lafayette'
p3917
aS'Lafayette\xe2'
p3918
as(S'hungriest'
p3919
tp3920
(lp3921
S'brothers'
p3922
as(S'Enough'
p3923
tp3924
(lp3925
S'enough'
p3926
as(S'signed'
p3927
tp3928
(lp3929
g76
ag76
aS'on'
p3930
as(S'France'
p3931
tp3932
(lp3933
S'will'
p3934
aS'has'
p3935
ag80
aS'But'
p3936
aS'In'
p3937
aS'is'
p3938
aS'is'
p3939
aS'Yeah'
p3940
aS'for'
p3941
as(g76
tp3942
(lp3943
S'bastard'
p3944
aS'whore'
p3945
aS'Scotsman'
p3946
aS'forgotten'
p3947
aS'hero'
p3948
aS'scholar'
p3949
aS'father'
p3950
aS'lot'
p3951
aS'lot'
p3952
aS'lot'
p3953
aS'self'
p3954
aS'trading'
p3955
aS'part'
p3956
aS'hurricane'
p3957
aS'pencil'
p3958
aS'testament'
p3959
aS'collection'
p3960
aS'cousin'
p3961
aS'cent'
p3962
aS'ship'
p3963
aS'new'
p3964
aS'new'
p3965
aS'buddy'
p3966
aS'blur'
p3967
aS'war'
p3968
aS'drink'
p3969
aS'couple'
p3970
aS'verse'
p3971
aS'stand'
p3972
aS'sit'
p3973
aS'get'
p3974
aS'scholarship'
p3975
aS'lot'
p3976
aS'diamond'
p3977
aS'shiny'
p3978
aS'gun'
p3979
aS'flame'
p3980
aS'spending'
p3981
aS'revolution'
p3982
aS'monarchy'
p3983
aS'tailor\xe2'
p3984
aS'stallion'
p3985
aS'lot'
p3986
aS'plot'
p3987
aS'squat'
p3988
aS'position'
p3989
aS'group'
p3990
aS'crowd'
p3991
aS'memory'
p3992
aS'beat'
p3993
aS'melody'
p3994
aS'flask'
p3995
aS'moment'
p3996
aS'guarantee'
p3997
aS'nation'
p3998
aS'kid'
p3999
aS'war'
p4000
aS'command'
p4001
aS'second'
p4002
aS'millisecond'
p4003
aS'second'
p4004
aS'modern'
p4005
aS'pedestal'
p4006
aS'stop'
p4007
aS'stand'
p4008
aS'captain'
p4009
aS'bullet'
p4010
aS'distance'
p4011
aS'couple'
p4012
aS'young'
p4013
aS'hunger'
p4014
aS'martyr'
p4015
aS'third'
p4016
aS'powder'
p4017
aS'whore'
p4018
aS'phenomenon'
p4019
aS'quill'
p4020
aS'sister'
p4021
aS'question'
p4022
aS'key'
p4023
aS'kite'
p4024
aS'bit'
p4025
aS'dance'
p4026
aS'posture'
p4027
aS'bit'
p4028
aS'stance'
p4029
aS'Bit'
p4030
aS'flirt'
p4031
aS'give'
p4032
aS'chance'
p4033
aS'girl'
p4034
aS'world'
p4035
aS'Schuyler'
p4036
aS'song'
p4037
aS'ship'
p4038
aS'test'
p4039
aS'stand'
p4040
aS'command'
p4041
aS'General'
p4042
aS'hundred'
p4043
aS'stalemate'
p4044
aS'pot'
p4045
aS'run'
p4046
aS'memory'
p4047
aS'friend'
p4048
aS'command'
p4049
aS'new'
p4050
aS'stray'
p4051
aS'bayonet'
p4052
aS'spy'
p4053
aS'precedent'
p4054
aS'two-party'
p4055
aS'real'
p4056
aS'real'
p4057
aS'financial'
p4058
aS'boost'
p4059
aS'sedative'
p4060
aS'slaver'
p4061
aS'trench'
p4062
aS'plan'
p4063
aS'hatter'
p4064
aS'week'
p4065
aS'bastard'
p4066
aS'break'
p4067
aS'Democratic-Republican'
p4068
aS'friend'
p4069
aS'promise'
p4070
aS'treaty'
p4071
aS'chance'
p4072
aS'promise'
p4073
aS'hand'
p4074
aS'military'
p4075
aS'treaty'
p4076
aS'King'
p4077
aS'basket'
p4078
aS'difference'
p4079
aS'little'
p4080
aS'smart'
p4081
aS'lawyer'
p4082
aS'fire'
p4083
aS'thousand'
p4084
aS'Mr'
p4085
aS'word'
p4086
aS'yes'
p4087
aS'prosperous'
p4088
aS'corner'
p4089
aS'sordid'
p4090
aS'record'
p4091
aS'cent'
p4092
aS'Mr'
p4093
aS'speech'
p4094
aS'crowd'
p4095
aS'couple'
p4096
aS'play'
p4097
aS'fox'
p4098
aS'scoundrel'
p4099
aS'peace'
p4100
aS'man'
p4101
aS'goner'
p4102
aS'man'
p4103
aS'poet'
p4104
aS'little'
p4105
aS'Hamilton'
p4106
aS'question'
p4107
aS'Francophile'
p4108
aS'less'
p4109
aS'key'
p4110
aS'beer'
p4111
aS'stir'
p4112
aS'difficult'
p4113
aS'more'
p4114
aS'guy'
p4115
aS'doctor'
p4116
aS'man'
p4117
aS'mission'
p4118
aS'soldier'
p4119
aS'marksman\xe2'
p4120
aS'terrible'
p4121
aS'memory'
p4122
aS'legacy'
p4123
aS'garden'
p4124
aS'song'
p4125
aS'difference'
p4126
aS'glimpse'
p4127
aS'soldiers\xe2'
p4128
aS'friend'
p4129
aS'peace\xe2'
p4130
aS'time'
p4131
aS'peace'
p4132
aS'doctor'
p4133
aS'ragtag'
p4134
aS'shower'
p4135
aS'global'
p4136
aS'secret'
p4137
aS'trench'
p4138
aS'place'
p4139
aS'note'
p4140
as(S'river'
p4141
tp4142
(lp4143
S'in'
p4144
as(S'Eventually'
p4145
tp4146
(lp4147
S'you\xe2'
p4148
as(S'was'
p4149
tp4150
(lp4151
S'longing'
p4152
aS'ready'
p4153
aS'ten'
p4154
aS'seeking'
p4155
aS'stupid'
p4156
aS'my'
p4157
ag76
aS'poor'
p4158
aS'the'
p4159
ag76
aS'saying'
p4160
aS'just'
p4161
aS'younger'
p4162
aS'right'
p4163
aS'left'
p4164
ag76
aS'weak'
p4165
aS'awake'
p4166
aS'up'
p4167
aS'your'
p4168
aS'mine'
p4169
aS'in'
p4170
aS'my'
p4171
aS'goin\xe2'
p4172
aS'not'
p4173
aS'the'
p4174
aS'happ\xe2'
p4175
aS'wearing'
p4176
aS'inexperienced'
p4177
as(S'done\xe2'
p4178
tp4179
(lp4180
S'Jefferson'
p4181
as(S'benefits'
p4182
tp4183
(lp4184
S'The'
p4185
as(S'Away'
p4186
tp4187
(lp4188
S'across'
p4189
as(S'spent'
p4190
tp4191
(lp4192
g76
as(S'slowly'
p4193
tp4194
(lp4195
S'and'
p4196
as(S'bit'
p4197
tp4198
(lp4199
S'of'
p4200
aS'of'
p4201
aS'of'
p4202
as(S'consolidate'
p4203
tp4204
(lp4205
S'their'
p4206
as(S'sick'
p4207
tp4208
(lp4209
S'the'
p4210
as(S'My'
p4211
tp4212
(lp4213
S'power'
p4214
aS'forces'
p4215
aS'only'
p4216
aS'father'
p4217
aS'defendants'
p4218
aS'God'
p4219
aS'name'
p4220
aS'friend'
p4221
aS'fellow'
p4222
aS'son'
p4223
as(S'clearly'
p4224
tp4225
(lp4226
S'aim'
p4227
as(S'ragtag'
p4228
tp4229
(lp4230
S'volunteer'
p4231
as(S'bunch'
p4232
tp4233
(lp4234
S'of'
p4235
as(S'just'
p4236
tp4237
(lp4238
S'to'
p4239
aS'to'
p4240
aS'like'
p4241
aS'to'
p4242
aS'to'
p4243
ag76
aS'lost'
p4244
aS'like'
p4245
aS'wanna'
p4246
aS'up'
p4247
aS'defeatist'
p4248
ag76
as(S'here\xe2'
p4249
tp4250
(lp4251
g516
as(S'thirty'
p4252
tp4253
(lp4254
S'years'
p4255
as(S'n'
p4256
tp4257
(lp4258
S'fightin\xe2'
p4259
aS'writin\xe2'
p4260
as(S'Poor'
p4261
tp4262
(lp4263
S'Alexander'
p4264
as(S'record'
p4265
tp4266
(lp4267
S'of'
p4268
aS'straight'
p4269
aS'straight\xe2'
p4270
as(S'colder'
p4271
tp4272
(lp4273
g80
as(S'Gotta'
p4274
tp4275
(lp4276
S'start'
p4277
aS'be'
p4278
as(S'weak'
p4279
tp4280
(lp4281
g80
as(S'too'
p4282
tp4283
(lp4284
S'loud'
p4285
aS'many'
p4286
aS'fragile'
p4287
as(S'four'
p4288
tp4289
(lp4290
S'sets'
p4291
aS'five'
p4292
as(S'resorted'
p4293
tp4294
(lp4295
S'to'
p4296
as(S'show'
p4297
tp4298
(lp4299
S'me'
p4300
aS'you'
p4301
aS'me'
p4302
aS'Ya\xe2'
p4303
aS'now'
p4304
aS'it'
p4305
aS'I\xe2'
p4306
as(S'Close'
p4307
tp4308
(lp4309
S'the'
p4310
as(S'Poppin\xe2'
p4311
tp4312
(lp4313
g76
as(S'Good'
p4314
tp4315
(lp4316
S'luck'
p4317
as(S'Privatley'
p4318
tp4319
(lp4320
S'calls'
p4321
as(S'follow'
p4322
tp4323
(lp4324
S'the'
p4325
aS'suit'
p4326
as(S'statement'
p4327
tp4328
(lp4329
S'of'
p4330
as(S'Are'
p4331
tp4332
(lp4333
S'you'
p4334
aS'we'
p4335
aS'these'
p4336
aS'you'
p4337
aS'my'
p4338
aS'you'
p4339
as(S'beyond'
p4340
tp4341
(lp4342
S'scary'
p4343
as(S'defeat'
p4344
tp4345
(lp4346
S'Charles'
p4347
ag76
as(S'shed'
p4348
tp4349
(lp4350
S'begin'
p4351
as(S'screams'
p4352
tp4353
(lp4354
S'and'
p4355
as(S'Peach'
p4356
tp4357
(lp4358
S'fuzz'
p4359
as(S'testament'
p4360
tp4361
(lp4362
S'to'
p4363
as(S'President'
p4364
tp4365
(lp4366
S'Ev\xe2'
p4367
aS'Reticent\xe2'
p4368
aS'You'
p4369
aS'is'
p4370
aS'We\xe2'
p4371
aS'Adams'
p4372
as(S'fronts'
p4373
tp4374
(lp4375
S'But'
p4376
as(g564
tp4377
(lp4378
S'Get'
p4379
aS'When'
p4380
aS'Come'
p4381
aS'Lock'
p4382
ag76
ag76
ag4256
ag4256
aS'em'
p4383
aS'em'
p4384
aS'em'
p4385
aS'til'
p4386
ag76
aS'Til'
p4387
aS'cause'
p4388
aS'Life'
p4389
aS'We'
p4390
aS'em'
p4391
aS'em'
p4392
aS'We'
p4393
aS'Yeah'
p4394
aS'well'
p4395
aS'She'
p4396
aS'hell'
p4397
aS'How'
p4398
aS'in'
p4399
aS'Uh'
p4400
aS'Enough'
p4401
aS'em'
p4402
aS'em'
p4403
aS'Well'
p4404
aS'I\xe2'
p4405
aS'virtue\xe2'
p4406
aS'Dear'
p4407
aS'bout'
p4408
aS'em'
p4409
ag80
aS'specially'
p4410
aS'tween'
p4411
aS'em'
p4412
aS'em'
p4413
aS'em'
p4414
aS'em'
p4415
as(S'Ingenuitive'
p4416
tp4417
(lp4418
S'and'
p4419
as(S'Since'
p4420
tp4421
(lp4422
S'when'
p4423
aS'being'
p4424
as(S'answers'
p4425
tp4426
(lp4427
S'to'
p4428
as(S'yes'
p4429
tp4430
(lp4431
g80
aS'Um'
p4432
ag564
as(S'landlord'
p4433
tp4434
(lp4435
S'Tradin\xe2'
p4436
as(S'imminent'
p4437
tp4438
(lp4439
S'What'
p4440
as(S'founding'
p4441
tp4442
(lp4443
S'fathers'
p4444
as(S'm'
p4445
tp4446
(lp4447
S'Alexander'
p4448
aS'at'
p4449
aS'getting'
p4450
aS'not'
p4451
aS'an'
p4452
aS'John'
p4453
aS'workin\xe2'
p4454
aS'free'
p4455
ag564
aS'just'
p4456
aS'young'
p4457
aS'not'
p4458
ag564
ag76
ag76
aS'joining'
p4459
aS'with'
p4460
aS'past'
p4461
aS'passionately'
p4462
aS'laughin\xe2'
p4463
aS'thinkin\xe2'
p4464
aS'the'
p4465
aS'Leading'
p4466
aS'in'
p4467
aS'being'
p4468
aS'working'
p4469
ag564
ag76
aS'the'
p4470
aS'the'
p4471
ag76
ag76
aS'given'
p4472
aS'runnin\xe2'
p4473
aS'afraid'
p4474
aS'frightened'
p4475
aS'super'
p4476
aS'in'
p4477
aS'only'
p4478
aS'lookin'
p4479
aS'making'
p4480
aS'tryin\xe2'
p4481
aS'not'
p4482
aS'watchin\xe2'
p4483
ag76
ag76
aS'sorry'
p4484
ag76
aS'facing'
p4485
ag76
aS'going'
p4486
aS'chasing'
p4487
ag76
aS'running'
p4488
aS'running'
p4489
aS'takin'
p4490
aS'never'
p4491
aS'Watch'
p4492
aS'curious'
p4493
as(S'opinion'
p4494
tp4495
(lp4496
g80
as(S'holler'
p4497
tp4498
(lp4499
S'just'
p4500
as(S'strategy'
p4501
tp4502
(lp4503
S'play'
p4504
as(S'mon'
p4505
tp4506
(lp4507
S'ami'
p4508
as(S'tyranny'
p4509
tp4510
(lp4511
g80
as(S'Seventeen'
p4512
tp4513
(lp4514
S'ninety-one'
p4515
as(S'cut'
p4516
tp4517
(lp4518
S'the'
p4519
aS'supply'
p4520
aS'them'
p4521
as(S'chasing'
p4522
tp4523
(lp4524
S'what'
p4525
as(S'stands'
p4526
tp4527
(lp4528
S'on'
p4529
as(S'Scammin\xe2'
p4530
tp4531
(lp4532
S'for'
p4533
as(S'hot'
p4534
tp4535
(lp4536
S'Laurens'
p4537
as(S'pencil'
p4538
tp4539
(lp4540
S'to'
p4541
as(S'friends'
p4542
tp4543
(lp4544
S'before'
p4545
aS'Laurens'
p4546
aS'all'
p4547
aS'See'
p4548
aS'attempt'
p4549
as(S'thinks'
p4550
tp4551
(lp4552
S'you\xe2'
p4553
as(S'union'
p4554
tp4555
(lp4556
S'gets'
p4557
aS'gets'
p4558
as(S'talking'
p4559
tp4560
(lp4561
S'let'
p4562
as(S'had'
p4563
tp4564
(lp4565
g76
aS'quite'
p4566
ag76
ag76
aS'the'
p4567
aS'me'
p4568
aS'only'
p4569
aS'to'
p4570
aS'only'
p4571
as(S'arrived'
p4572
tp4573
(lp4574
S'with'
p4575
as(S'advance'
p4576
tp4577
(lp4578
S'instead'
p4579
aS'you'
p4580
as(S'Mister'
p4581
tp4582
(lp4583
S'Lafayette'
p4584
aS'Eacker'
p4585
as(S'came'
p4586
tp4587
(lp4588
S'and'
p4589
aS'and'
p4590
aS'from'
p4591
aS'along'
p4592
aS'to'
p4593
as(S'Weapon'
p4594
tp4595
(lp4596
S'in'
p4597
as(S'explode'
p4598
tp4599
(lp4600
g80
as(S'Monsieur'
p4601
tp4602
(lp4603
S'Hamilton'
p4604
aS'Lafayette'
p4605
as(S'Most'
p4606
tp4607
(lp4608
S'disputes'
p4609
aS'disputes'
p4610
as(S'Show'
p4611
tp4612
(lp4613
S'time'
p4614
aS'time'
p4615
aS'time'
p4616
as(S'pursuits'
p4617
tp4618
(lp4619
S'Most'
p4620
as(S'introduce'
p4621
tp4622
(lp4623
S'him'
p4624
as(S'walk'
p4625
tp4626
(lp4627
S'these'
p4628
as(S'abandoning'
p4629
tp4630
(lp4631
S'Kips'
p4632
as(S'Imagine'
p4633
tp4634
(lp4635
S'what'
p4636
as(S'harbor'
p4637
tp4638
(lp4639
S'now'
p4640
as(S'could'
p4641
tp4642
(lp4643
S'prove'
p4644
aS'be'
p4645
aS'you'
p4646
aS'grab'
p4647
aS'tell'
p4648
aS'have'
p4649
as(S'Frankly'
p4650
tp4651
(lp4652
S'it\xe2'
p4653
as(S'harder'
p4654
tp4655
(lp4656
S'By'
p4657
aS'I\xe2'
p4658
as(S'Confer'
p4659
tp4660
(lp4661
S'with'
p4662
as(S'medicine'
p4663
tp4664
(lp4665
S'Damn'
p4666
as(S'public'
p4667
tp4668
(lp4669
S'eye'
p4670
as(S'devastation'
p4671
tp4672
(lp4673
S'reigned'
p4674
as(S'hands'
p4675
tp4676
(lp4677
S'on'
p4678
aS'started'
p4679
as(S'search'
p4680
tp4681
(lp4682
S'of'
p4683
as(S'called'
p4684
tp4685
(lp4686
S'you'
p4687
as(S'hav'
p4688
tp4689
(lp4690
S'How'
p4691
as(S'attack'
p4692
tp4693
(lp4694
S'the'
p4695
as(S'speaker'
p4696
tp4697
(lp4698
S'He'
p4699
as(S'Alexander'
p4700
tp4701
(lp4702
S'Hamilton'
p4703
aS'is'
p4704
aS'Hamilton'
p4705
aS'rumors'
p4706
aS'Hamilton'
p4707
aS'Hamilton'
p4708
aS'Hamilton'
p4709
aS'Hamilton'
p4710
as(S'martyr'
p4711
tp4712
(lp4713
S'Dying'
p4714
as(S'treason'
p4715
tp4716
(lp4717
S'and'
p4718
as(S'seven'
p4719
tp4720
(lp4721
S'eight'
p4722
as(S'out'
p4723
tp4724
(lp4725
S'of'
p4726
aS'the'
p4727
aS'of'
p4728
aS'Burr'
p4729
aS'Have'
p4730
aS'of'
p4731
aS'your'
p4732
aS'your'
p4733
aS'of'
p4734
aS'of'
p4735
aS'and'
p4736
aS'who\xe2'
p4737
aS'from'
p4738
aS'of'
p4739
aS'we'
p4740
as(S'changed'
p4741
tp4742
(lp4743
S'parties'
p4744
aS'parties'
p4745
as(S'crowd'
p4746
tp4747
(lp4748
g80
ag80
as(S'Oh'
p4749
tp4750
(lp4751
S'well'
p4752
aS'am'
p4753
aS'Wall'
p4754
aS'Alexander'
p4755
as(S'immigrants'
p4756
tp4757
(lp4758
S'Can'
p4759
as(S'someone\xe2'
p4760
tp4761
(lp4762
g516
ag516
as(S'Lafayette\xe2'
p4763
tp4764
(lp4765
g516
as(S'stagger'
p4766
tp4767
(lp4768
S'home'
p4769
as(S'symphony'
p4770
tp4771
(lp4772
S'you'
p4773
as(S'fam\xe2'
p4774
tp4775
(lp4776
S'ly'
p4777
as(S'chess'
p4778
tp4779
(lp4780
S'Where'
p4781
as(S'emerge'
p4782
tp4783
(lp4784
S'victorious'
p4785
as(S'Scotsman'
p4786
tp4787
(lp4788
S'dropped'
p4789
as(S'With'
p4790
tp4791
(lp4792
S'every'
p4793
aS'someone'
p4794
aS'my'
p4795
aS'his'
p4796
as(S'flying'
p4797
tp4798
(lp4799
S'by'
p4800
as(S'dig'
p4801
tp4802
(lp4803
S'me'
p4804
as(S'Even'
p4805
tp4806
(lp4807
S'if'
p4808
aS'though'
p4809
as(S'Non-stop'
p4810
tp4811
(lp4812
S'Gentlemen'
p4813
as(S'Of'
p4814
tp4815
(lp4816
S'course'
p4817
aS'meddling'
p4818
as(S'diuretic'
p4819
tp4820
(lp4821
S'How'
p4822
as(S'late'
p4823
tp4824
(lp4825
S'mother\xe2'
p4826
as(S'lead'
p4827
tp4828
(lp4829
S'to'
p4830
aS'your'
p4831
ag564
as(S'feels'
p4832
tp4833
(lp4834
S'more'
p4835
aS'like'
p4836
aS'more'
p4837
aS'more'
p4838
as(S'runner-up'
p4839
tp4840
(lp4841
S'which'
p4842
as(S'Every'
p4843
tp4844
(lp4845
S'action\xe2'
p4846
aS'action'
p4847
as(S'difficult'
p4848
tp4849
(lp4850
S'choice'
p4851
as(S'flask'
p4852
tp4853
(lp4854
S'We'
p4855
as(S'Lock'
p4856
tp4857
(lp4858
S'up'
p4859
as(S'founder'
p4860
tp4861
(lp4862
S'of'
p4863
as(S'though'
p4864
tp4865
(lp4866
g80
aS'we'
p4867
as(S'equal'
p4868
tp4869
(lp4870
S'opposite'
p4871
aS'opposite'
p4872
as(S'stalemate'
p4873
tp4874
(lp4875
S'from'
p4876
as(S'Green'
p4877
tp4878
(lp4879
S'and'
p4880
as(S'General'
p4881
tp4882
(lp4883
S'Montgomery'
p4884
aS'so'
p4885
aS'Whee'
p4886
as(S'shake'
p4887
tp4888
(lp4889
S'Philip'
p4890
as(S'war'
p4891
tp4892
(lp4893
S'Then'
p4894
ag80
aS'vet'
p4895
aS'you'
p4896
aS'at'
p4897
as(S'heaven'
p4898
tp4899
(lp4900
S'lets'
p4901
as(S'bend'
p4902
tp4903
(lp4904
S'over'
p4905
as(S'Pops'
p4906
tp4907
(lp4908
S'if'
p4909
as(S'treat'
p4910
tp4911
(lp4912
S'him'
p4913
as(S'Harlem'
p4914
tp4915
(lp4916
S'quick'
p4917
as(S'singing'
p4918
tp4919
(lp4920
S'How'
p4921
as(S'Send'
p4922
tp4923
(lp4924
S'in'
p4925
aS'in'
p4926
as(S'History'
p4927
tp4928
(lp4929
S'Check'
p4930
as(S'fidgeting'
p4931
tp4932
(lp4933
S'he'
p4934
as(S'tailor'
p4935
tp4936
(lp4937
S'spyin\xe2'
p4938
as(S'meet'
p4939
tp4940
(lp4941
S'again'
p4942
aS'my'
p4943
aS'the'
p4944
aS'Thomas'
p4945
aS'face'
p4946
as(S'promise'
p4947
tp4948
(lp4949
S'that'
p4950
aS'You'
p4951
aS'We'
p4952
aS'that'
p4953
aS'not'
p4954
as(S'hist\xe2'
p4955
tp4956
(lp4957
S'ry'
p4958
aS'ry'
p4959
as(S'younger'
p4960
tp4961
(lp4962
S'Head'
p4963
as(S'Knight'
p4964
tp4965
(lp4966
S'takes'
p4967
as(S'wealth'
p4968
tp4969
(lp4970
S'In'
p4971
as(S'placed'
p4972
tp4973
(lp4974
S'him'
p4975
as(S'verse'
p4976
tp4977
(lp4978
S'drop'
p4979
as(S'Hamilton'
p4980
tp4981
(lp4982
S'I\xe2'
p4983
aS'won\xe2'
p4984
aS'come'
p4985
aS'how'
p4986
aS'right'
p4987
aS'still'
p4988
aS'We'
p4989
aS'Monsieur'
p4990
aS'forgets'
p4991
aS'sits'
p4992
aS'is'
p4993
aS'is'
p4994
aS'Sir'
p4995
aS'our'
p4996
aS'the'
p4997
aS'Privatley'
p4998
aS'publishes'
p4999
aS'with'
p5000
aS'he'
p5001
aS'An'
p5002
aS'arrived'
p5003
aS'examine'
p5004
aS'drew'
p5005
aS'was'
p5006
aS'Sir'
p5007
aS'Sir'
p5008
aS'No'
p5009
aS'You'
p5010
aS'Troops'
p5011
ag80
aS'began'
p5012
as(S'When\xe2'
p5013
tp5014
(lp5015
g516
as(S'spree'
p5016
tp5017
(lp5018
S'He'
p5019
as(S'chips'
p5020
tp5021
(lp5022
S'to'
p5023
as(S'your'
p5024
tp5025
(lp5026
S'education'
p5027
aS'name'
p5028
aS'name'
p5029
aS'service'
p5030
aS'name'
p5031
aS'hist\xe2'
p5032
aS'voices'
p5033
aS'choices'
p5034
aS'pants'
p5035
aS'strategy'
p5036
aS'way'
p5037
aS'information'
p5038
aS'level'
p5039
aS'men'
p5040
aS'gun'
p5041
aS'gun'
p5042
aS'orders'
p5043
aS'bets'
p5044
aS'medicine'
p5045
aS'pride'
p5046
aS'goddamn'
p5047
aS'ideals'
p5048
aS'friend'
p5049
aS'position'
p5050
aS'sacred'
p5051
aS'career'
p5052
aS'daughter'
p5053
aS'list'
p5054
aS'satisfaction'
p5055
aS'mouth'
p5056
aS'little'
p5057
aS'friends'
p5058
aS'weapon'
p5059
aS'mother'
p5060
aS'conscience'
p5061
aS'show'
p5062
aS'pistol'
p5063
aS'men'
p5064
aS'gun'
p5065
aS'seconds'
p5066
aS'classes'
p5067
aS'second'
p5068
aS'seconds'
p5069
aS'land'
p5070
aS'right'
p5071
aS'next'
p5072
aS'sins'
p5073
aS'opponent'
p5074
aS'seconds'
p5075
aS'man'
p5076
as(S'Uh-oh'
p5077
tp5078
(lp5079
S'but'
p5080
as(S'guarantee'
p5081
tp5082
(lp5083
S'of'
p5084
as(S'sedative'
p5085
tp5086
(lp5087
g752
as(S'fox'
p5088
tp5089
(lp5090
S'And'
p5091
as(S'75'
p5092
tp5093
(lp5094
S'different'
p5095
as(S'taught'
p5096
tp5097
(lp5098
S'If'
p5099
as(S'bow'
p5100
tp5101
(lp5102
S'of'
p5103
as(S'guns'
p5104
tp5105
(lp5106
S'and'
p5107
aS'Be'
p5108
as(S'drain'
p5109
tp5110
(lp5111
S'Put'
p5112
as(S'gods'
p5113
tp5114
(lp5115
S'would'
p5116
as(S'died'
p5117
tp5118
(lp5119
S'in'
p5120
aS'because'
p5121
as(S'Ev\xe2'
p5122
tp5123
(lp5124
S'ry'
p5125
aS'rything'
p5126
aS'ry'
p5127
aS'ryone'
p5128
as(S'balance'
p5129
tp5130
(lp5131
S'shifts'
p5132
as(S'Moses'
p5133
tp5134
(lp5135
S'claimin\xe2'
p5136
as(S'wants'
p5137
tp5138
(lp5139
S'to'
p5140
as(S'affair'
p5141
tp5142
(lp5143
S'But'
p5144
as(S'memory'
p5145
tp5146
(lp5147
S'When\xe2'
p5148
aS'This'
p5149
aS'Is'
p5150
as(S'Alas'
p5151
tp5152
(lp5153
g80
as(S'ought'
p5154
tp5155
(lp5156
S'to'
p5157
as(S'because'
p5158
tp5159
(lp5160
S'our'
p5161
aS'Lee'
p5162
as(S'bother'
p5163
tp5164
(lp5165
S'Be'
p5166
as(S'jettison'
p5167
tp5168
(lp5169
S'Madison'
p5170
as(S'well'
p5171
tp5172
(lp5173
S'sure'
p5174
aS'in'
p5175
ag80
aS'someone'
p5176
as(S'shape'
p5177
tp5178
(lp5179
S'than'
p5180
as(S'abuse'
p5181
tp5182
(lp5183
S'his'
p5184
as(S'colonies'
p5185
tp5186
(lp5187
S'through'
p5188
as(S'almost'
p5189
tp5190
(lp5191
S'died'
p5192
aS'see'
p5193
as(S'none'
p5194
tp5195
(lp5196
S'How'
p5197
as(S'sister\xe2'
p5198
tp5199
(lp5200
g516
as(S'rioting'
p5201
tp5202
(lp5203
S'There\xe2'
p5204
as(S'lets'
p5205
tp5206
(lp5207
S'you'
p5208
as(S'relatives'
p5209
tp5210
(lp5211
S'Embellishin\xe2'
p5212
as(S'future'
p5213
tp5214
(lp5215
S'drip'
p5216
aS'see'
p5217
as(S'stances'
p5218
tp5219
(lp5220
S'Ask'
p5221
as(S'line'
p5222
tp5223
(lp5224
S'of'
p5225
aS'So'
p5226
as(S'guys'
p5227
tp5228
(lp5229
S'at'
p5230
aS'Master'
p5231
aS'cuz'
p5232
as(S'frightened'
p5233
tp5234
(lp5235
S'of'
p5236
as(S'used'
p5237
tp5238
(lp5239
S'to'
p5240
aS'to'
p5241
as(S'Jersey'
p5242
tp5243
(lp5244
S'Everything'
p5245
as(S'of'
p5246
tp5247
(lp5248
g76
ag76
ag76
aS'The'
p5249
aS'it'
p5250
aS'restitution'
p5251
ag76
aS'study'
p5252
aS'out'
p5253
aS'sorts'
p5254
aS'yours'
p5255
aS'the'
p5256
aS'course'
p5257
aS'corsets\xe2'
p5258
aS'Princeton'
p5259
aS'brains'
p5260
aS'coal'
p5261
aS'speech'
p5262
aS'life'
p5263
aS'sewin\xe2'
p5264
aS'trouble'
p5265
aS'revolutionary'
p5266
aS'friends'
p5267
ag76
aS'me'
p5268
aS'freedom'
p5269
aS'vengeance'
p5270
aS'states'
p5271
aS'our'
p5272
aS'creation'
p5273
aS'casualties'
p5274
ag76
aS'success'
p5275
aS'their'
p5276
aS'this'
p5277
aS'assistance'
p5278
aS'some'
p5279
aS'suggestions'
p5280
aS'fleeing'
p5281
aS'great'
p5282
aS'fantasies'
p5283
aS'dyin\xe2'
p5284
aS'what'
p5285
aS'surprise'
p5286
aS'our'
p5287
ag76
ag76
aS'the'
p5288
aS'all'
p5289
aS'if'
p5290
aS'freedom'
p5291
aS'seein\xe2'
p5292
ag76
ag76
ag76
ag76
aS'his'
p5293
aS'sixpence'
p5294
aS'our'
p5295
aS'hand'
p5296
aS'me'
p5297
aS'Monmouth'
p5298
aS'defeat'
p5299
aS'me'
p5300
aS'me'
p5301
ag76
aS'Liberty'
p5302
aS'surrender'
p5303
aS'Yorktown'
p5304
aS'thousands'
p5305
aS'people'
p5306
aS'happiness'
p5307
aS'government'
p5308
aS'the'
p5309
aS'credit'
p5310
aS'Enlightenment'
p5311
aS'you'
p5312
ag76
aS'us'
p5313
aS'State'
p5314
aS'loyalty'
p5315
aS'our'
p5316
aS'your'
p5317
ag76
aS'chess'
p5318
aS'neutrality'
p5319
aS'regret'
p5320
aS'need'
p5321
aS'passion'
p5322
aS'fashion'
p5323
aS'chips'
p5324
aS'the'
p5325
aS'our'
p5326
aS'his'
p5327
aS'the'
p5328
aS'the'
p5329
aS'your'
p5330
aS'people'
p5331
aS'every'
p5332
aS'King\xe2'
p5333
aS'July'
p5334
ag76
aS'blocks'
p5335
aS'you'
p5336
aS'honor'
p5337
aS'your'
p5338
aS'draining'
p5339
aS'thirty'
p5340
aS'disagreements'
p5341
aS'my'
p5342
aS'me'
p5343
ag76
aS'time'
p5344
aS'the'
p5345
ag76
aS'kin'
p5346
aS'adrenaline'
p5347
aS'the'
p5348
aS'our'
p5349
as(S'Caribbean'
p5350
tp5351
(lp5352
S'by'
p5353
ag80
as(S'work'
p5354
tp5355
(lp5356
S'with'
p5357
aS'We'
p5358
aS'on'
p5359
as(S'rum'
p5360
tp5361
(lp5362
S'and'
p5363
as(S'bullets'
p5364
tp5365
(lp5366
S'out'
p5367
aS'out'
p5368
as(S'pleasantries'
p5369
tp5370
(lp5371
S'Let\xe2'
p5372
as(S'climb'
p5373
tp5374
(lp5375
S'for'
p5376
aS'How'
p5377
as(S'trial'
p5378
tp5379
(lp5380
S'of'
p5381
as(S'foes'
p5382
tp5383
(lp5384
S'retreat'
p5385
as(S'promote\xe2'
p5386
tp5387
(lp5388
S'Jefferson'
p5389
as(S'God'
p5390
tp5391
(lp5392
g80
aS'has'
p5393
aS'we'
p5394
aS'she'
p5395
aS'Gentlemen'
p5396
aS'you\xe2'
p5397
as(S'accounts\xe2'
p5398
tp5399
(lp5400
S'Almost'
p5401
as(S'start'
p5402
tp5403
(lp5404
g76
aS'another'
p5405
as(S'vote'
p5406
tp5407
(lp5408
g80
as(S'Meet'
p5409
tp5410
(lp5411
S'the'
p5412
as(S'nine'
p5413
tp5414
(lp5415
S'years'
p5416
aS'Number'
p5417
as(S'shittin\xe2'
p5418
tp5419
(lp5420
S'on'
p5421
as(S'spy'
p5422
tp5423
(lp5424
S'on'
p5425
as(S'takin'
p5426
tp5427
(lp5428
S'this'
p5429
as(S'wanna'
p5430
tp5431
(lp5432
S'get'
p5433
aS'take'
p5434
aS'move'
p5435
aS'step'
p5436
aS'fight'
p5437
aS'fight'
p5438
as(S'unless'
p5439
tp5440
(lp5441
S'you'
p5442
as(S'bolder'
p5443
tp5444
(lp5445
g80
as(S'horse'
p5446
tp5447
(lp5448
S'by'
p5449
as(S'Leave'
p5450
tp5451
(lp5452
S'the'
p5453
ag76
as(S'part'
p5454
tp5455
(lp5456
S'of'
p5457
as(S'prosperous'
p5458
tp5459
(lp5460
S'enough'
p5461
as(S'stir'
p5462
tp5463
(lp5464
S'sir'
p5465
as(S'knowledge'
p5466
tp5467
(lp5468
S'Good'
p5469
aS'I\xe2'
p5470
as(S'calls'
p5471
tp5472
(lp5473
S'him'
p5474
as(S'secret'
p5475
tp5476
(lp5477
S'weapon'
p5478
as(S'Liberty'
p5479
tp5480
(lp5481
S'and'
p5482
as(S'goin\xe2'
p5483
tp5484
(lp5485
S'to'
p5486
as(S'nation'
p5487
tp5488
(lp5489
S'of'
p5490
aS'I\xe2'
p5491
aS'How'
p5492
aS'gotta'
p5493
aS'Would'
p5494
aS'Hey'
p5495
aS'to'
p5496
aS'The'
p5497
as(S'Confess'
p5498
tp5499
(lp5500
S'You'
p5501
aS'your'
p5502
as(S'its'
p5503
tp5504
(lp5505
S'equal'
p5506
aS'equal'
p5507
as(S'she\xe2'
p5508
tp5509
(lp5510
g1211
as(S'caught'
p5511
tp5512
(lp5513
g76
as(S'pocket'
p5514
tp5515
(lp5516
S'So'
p5517
as(S'ten'
p5518
tp5519
(lp5520
S'his'
p5521
aS'Count'
p5522
aS'Look'
p5523
aS'things'
p5524
aS'paces'
p5525
as(S'Everything'
p5526
tp5527
(lp5528
S'he'
p5529
aS'is'
p5530
as(S'Number'
p5531
tp5532
(lp5533
S'ten'
p5534
as(S'surprise'
p5535
tp5536
(lp5537
S'I\xe2'
p5538
as(S'afar'
p5539
tp5540
(lp5541
S'just'
p5542
as(S'roll'
p5543
tp5544
(lp5545
S'like'
p5546
as(S'sorrow'
p5547
tp5548
(lp5549
S'For'
p5550
as(S'boarding'
p5551
tp5552
(lp5553
S'school'
p5554
as(S'frisky'
p5555
tp5556
(lp5557
S'Imagine'
p5558
as(S'Well'
p5559
tp5560
(lp5561
S'the'
p5562
aS'if'
p5563
aS'somebody'
p5564
aS'I\xe2'
p5565
aS'he\xe2'
p5566
aS'if'
p5567
as(S'older'
p5568
tp5569
(lp5570
S'These'
p5571
aS'Gotta'
p5572
as(S'sayin\xe2'
p5573
tp5574
(lp5575
S'this'
p5576
as(S'place'
p5577
tp5578
(lp5579
S'to'
p5580
aS'Then'
p5581
aS'your'
p5582
aS'Screamed'
p5583
aS'where'
p5584
aS'This'
p5585
aS'to'
p5586
as(S'shoots'
p5587
tp5588
(lp5589
S'Hamilton'
p5590
aS'If'
p5591
as(S'cane'
p5592
tp5593
(lp5594
S'and'
p5595
as(S'raced'
p5596
tp5597
(lp5598
S'to'
p5599
as(S'people'
p5600
tp5601
(lp5602
S'how'
p5603
aS'I\xe2'
p5604
aS'I\xe2'
p5605
aS'if'
p5606
aS'flood'
p5607
aS'think'
p5608
aS'are'
p5609
aS'are'
p5610
aS'like'
p5611
aS"won't"
p5612
aS'are'
p5613
as(S'Virginia'
p5614
tp5615
(lp5616
S'bear'
p5617
aS'we'
p5618
as(S'seated'
p5619
tp5620
(lp5621
S'at'
p5622
as(S'father-in-law'
p5623
tp5624
(lp5625
g80
as(S'famished'
p5626
tp5627
(lp5628
S'The'
p5629
as(S'Fourth'
p5630
tp5631
(lp5632
S'of'
p5633
as(S'runs'
p5634
tp5635
(lp5636
S'independently'
p5637
ag76
as(S'Know'
p5638
tp5639
(lp5640
S'what'
p5641
as(S'Summon'
p5642
tp5643
(lp5644
S'all'
p5645
aS'all'
p5646
aS'all'
p5647
as(S'forces'
p5648
tp5649
(lp5650
S'they\xe2'
p5651
ag80
as(S'Foes'
p5652
tp5653
(lp5654
S'oppose'
p5655
as(S'battering'
p5656
tp5657
(lp5658
S'down'
p5659
as(S'away'
p5660
tp5661
(lp5662
S'my'
p5663
aS'my'
p5664
aS'my'
p5665
aS'from'
p5666
aS'We'
p5667
aS'Lafayette'
p5668
aS"Ev'ry"
p5669
aS'Ladies'
p5670
aS'Shh'
p5671
aS'my'
p5672
as(S'disciplined'
p5673
tp5674
(lp5675
S'dissidents'
p5676
as(S'Hang'
p5677
tp5678
(lp5679
S'on'
p5680
as(S'astute'
p5681
tp5682
(lp5683
S'He'
p5684
as(S'couple'
p5685
tp5686
(lp5687
S'more'
p5688
aS'of'
p5689
aS'of'
p5690
as(S'shower'
p5691
tp5692
(lp5693
S'Somehow'
p5694
as(S'manage'
p5695
tp5696
(lp5697
g80
aS'to'
p5698
as(S'stallion'
p5699
tp5700
(lp5701
S'with'
p5702
as(S"g'wan"
p5703
tp5704
(lp5705
S'run'
p5706
as(S'Sons'
p5707
tp5708
(lp5709
S'of'
p5710
as(S'meddling'
p5711
tp5712
(lp5713
S'in'
p5714
as(S'short-tempered'
p5715
tp5716
(lp5717
S'protean'
p5718
as(S"we're"
p5719
tp5720
(lp5721
S'abandoning'
p5722
as(S'status'
p5723
tp5724
(lp5725
S'I\xe2'
p5726
as(S'elephant'
p5727
tp5728
(lp5729
S'is'
p5730
as(S'King\xe2'
p5731
tp5732
(lp5733
g516
ag516
ag516
as(S'own'
p5734
tp5735
(lp5736
S'sick'
p5737
aS'mind'
p5738
aS'man'
p5739
aS'faction'
p5740
as(S'Secretary'
p5741
tp5742
(lp5743
S'Washington\xe2'
p5744
aS'of'
p5745
as(S'Welcome'
p5746
tp5747
(lp5748
S'to'
p5749
aS'folks'
p5750
as(S"sittin'"
p5751
tp5752
(lp5753
S'in'
p5754
as(S'Ask'
p5755
tp5756
(lp5757
S'anybody'
p5758
aS'him'
p5759
as(S'graduate'
p5760
tp5761
(lp5762
S'so'
p5763
aS'of'
p5764
as(S'count'
p5765
tp5766
(lp5767
S'to'
p5768
aS'One'
p5769
as(S'King-less'
p5770
tp5771
(lp5772
S'We'
p5773
as(g248
tp5774
(lp5775
S'forget'
p5776
aS'afford'
p5777
aS'let'
p5778
aS'be'
p5779
aS'want'
p5780
aS'the'
p5781
aS'brag'
p5782
aS'have'
p5783
aS'ever'
p5784
aS'be'
p5785
aS'abandon'
p5786
aS'get'
p5787
aS'even'
p5788
aS'mean'
p5789
aS'met'
p5790
aS'had'
p5791
aS'settle'
p5792
aS'act'
p5793
aS'tax'
p5794
aS'pay'
p5795
aS'lecture'
p5796
aS'fight'
p5797
ag76
aS'jettison'
p5798
aS'slept'
p5799
aS'know'
p5800
aS'need'
p5801
aS'like'
p5802
aS'see'
p5803
aS'ask'
p5804
aS'know'
p5805
aS'print'
p5806
aS'stop'
p5807
aS'put'
p5808
aS'gon\xe2'
p5809
aS'help'
p5810
aS'even'
p5811
aS'have'
p5812
aS'mine'
p5813
aS'use'
p5814
aS'brag'
p5815
aS'have'
p5816
aS'say'
p5817
aS'true'
p5818
aS'fool'
p5819
aS'exactly'
p5820
aS'shake'
p5821
aS'take'
p5822
aS'want'
p5823
aS'show'
p5824
aS'laugh'
p5825
aS'like'
p5826
aS'believe'
p5827
aS'Aaron'
p5828
aS'do'
p5829
aS'wanna'
p5830
aS'apologize'
p5831
aS'know'
p5832
aS'teach'
p5833
aS'grab'
p5834
aS'reach'
p5835
as(S'ranting'
p5836
tp5837
(lp5838
S'We'
p5839
as(S'Up'
p5840
tp5841
(lp5842
S'in'
p5843
as(S'Here\xe2'
p5844
tp5845
(lp5846
g516
as(S'Cycle'
p5847
tp5848
(lp5849
S'of'
p5850
as(S'quarterly'
p5851
tp5852
(lp5853
g80
as(S'virtue\xe2'
p5854
tp5855
(lp5856
S'is'
p5857
as(S'someone'
p5858
tp5859
(lp5860
S'less'
p5861
aS'like'
p5862
aS'at'
p5863
aS'ought'
p5864
aS'to'
p5865
aS'load'
p5866
aS'will'
p5867
aS'else'
p5868
as(S'remember'
p5869
tp5870
(lp5871
S'my'
p5872
aS'me'
p5873
as(S'can\xe2'
p5874
tp5875
(lp5876
g248
ag248
ag248
ag248
ag248
ag248
ag248
ag248
ag248
ag248
as(S'talks'
p5877
tp5878
(lp5879
S'cease'
p5880
as(S'pick'
p5881
tp5882
(lp5883
S'and'
p5884
as(S'crew'
p5885
tp5886
(lp5887
S'Nathaniel'
p5888
as(S'wounded'
p5889
tp5890
(lp5891
S'my'
p5892
as(S'running'
p5893
tp5894
(lp5895
g76
aS'out'
p5896
aS'and'
p5897
as(S'legacy'
p5898
tp5899
(lp5900
S'with'
p5901
aS'in'
p5902
aS'Legacy'
p5903
aS'It\xe2'
p5904
as(S'least'
p5905
tp5906
(lp5907
g80
aS'they'
p5908
as(S'Ness'
p5909
tp5910
(lp5911
S'signed'
p5912
as(S'ruinous'
p5913
tp5914
(lp5915
S'Okay'
p5916
as(S'time\xe2'
p5917
tp5918
(lp5919
g516
as(S'scrappy'
p5920
tp5921
(lp5922
S'and'
p5923
as(S'schoolboy'
p5924
tp5925
(lp5926
S'friends'
p5927
as(S'Alexander\xe2'
p5928
tp5929
(lp5930
g399
as(S'hard'
p5931
tp5932
(lp5933
S'to'
p5934
aS'rock'
p5935
as(S'working'
p5936
tp5937
(lp5938
g76
aS'with'
p5939
as(S'field'
p5940
tp5941
(lp5942
S'We\xe2'
p5943
aS'for'
p5944
as(S'Britain'
p5945
tp5946
(lp5947
S'keeps'
p5948
aS'taxed'
p5949
as(S'Living'
p5950
tp5951
(lp5952
S'is'
p5953
as(S'revolution'
p5954
tp5955
(lp5956
S'He'
p5957
aS'Well'
p5958
aS'in'
p5959
aS'Is'
p5960
aS'is'
p5961
aS'in'
p5962
as(S'things'
p5963
tp5964
(lp5965
S'he'
p5966
aS'slide'
p5967
aS'you'
p5968
aS'you'
p5969
as(S'wished'
p5970
tp5971
(lp5972
S'for'
p5973
as(S'manumission'
p5974
tp5975
(lp5976
S'abolitionists'
p5977
as(S'debts'
p5978
tp5979
(lp5980
S'Now'
p5981
aS'are'
p5982
aS'the'
p5983
aS'are'
p5984
as(S'poet'
p5985
tp5986
(lp5987
S'I\xe2'
p5988
as(S'trading'
p5989
tp5990
(lp5991
S'charter'
p5992
as(S'next'
p5993
tp5994
(lp5995
S'time'
p5996
aS'of'
p5997
as(S'Knox'
p5998
tp5999
(lp6000
S'wanted'
p6001
as(S'box'
p6002
tp6003
(lp6004
S'God'
p6005
as(S'scoundrel'
p6006
tp6007
(lp6008
S'and'
p6009
as(S'Seven'
p6010
tp6011
(lp6012
S'feet'
p6013
as(S'Pardon'
p6014
tp6015
(lp6016
S'me'
p6017
as(S'quite'
p6018
tp6019
(lp6020
g76
ag76
ag76
as(S'night'
p6021
tp6022
(lp6023
S'we'
p6024
as(S'anarchy'
p6025
tp6026
(lp6027
S'When'
p6028
as(S'patiently'
p6029
tp6030
(lp6031
S'waitin\xe2'
p6032
as(S'veteran'
p6033
tp6034
(lp6035
S'whose'
p6036
as(S'around'
p6037
tp6038
(lp6039
S'they'
p6040
aS'runs'
p6041
aS'This'
p6042
aS'bend'
p6043
aS'I\xe2'
p6044
aS'so'
p6045
aS'so'
p6046
as(S'To'
p6047
tp6048
(lp6049
S'the'
p6050
aS'socially'
p6051
aS'my'
p6052
ag76
aS'seek'
p6053
aS'take'
p6054
aS'get'
p6055
as(S'heat'
p6056
tp6057
(lp6058
S'As'
p6059
as(S'openly'
p6060
tp6061
(lp6062
S'campaigning'
p6063
as(S'takin\xe2'
p6064
tp6065
(lp6066
g76
as(S'na\xc3'
p6067
tp6068
(lp6069
S've'
p6070
as(S'This'
p6071
tp6072
(lp6073
S'kid'
p6074
aS'is'
p6075
aS'close'
p6076
aS'is'
p6077
aS'financial'
p6078
aS'prick'
p6079
aS'is'
p6080
aS'is'
p6081
aS'will'
p6082
aS'man'
p6083
aS'is'
p6084
aS'man'
p6085
aS'is'
p6086
aS'is'
p6087
as(S'He'
p6088
tp6089
(lp6090
S'started'
p6091
aS'woulda'
p6092
aS'handles'
p6093
aS'looked'
p6094
aS'ain\xe2'
p6095
aS'says'
p6096
aS'promotes'
p6097
aS'shits'
p6098
aS'started'
p6099
aS'knows'
p6100
aS'disparaged'
p6101
aS'was'
p6102
aS'refused'
p6103
aS'seems'
p6104
aS'examined'
p6105
as(S'wouldn\xe2'
p6106
tp6107
(lp6108
g248
as(S'fraught'
p6109
tp6110
(lp6111
S'You\xe2'
p6112
as(S'prick'
p6113
tp6114
(lp6115
S'is'
p6116
as(S'ship'
p6117
tp6118
(lp6119
S'headed'
p6120
aS'is'
p6121
aS'Yo'
p6122
aS'and'
p6123
ag80
as(S'choose'
p6124
tp6125
(lp6126
S'our'
p6127
as(S'confess'
p6128
tp6129
(lp6130
S'Confess'
p6131
as(S'grow'
p6132
tp6133
(lp6134
S'it'
p6135
aS'And'
p6136
as(S'claimin\xe2'
p6137
tp6138
(lp6139
S'our'
p6140
as(S'breaking'
p6141
tp6142
(lp6143
S'down'
p6144
as(S'draining'
p6145
tp6146
(lp6147
S'Is'
p6148
as(S'trusts'
p6149
tp6150
(lp6151
S'you'
p6152
as(S'neutrality'
p6153
tp6154
(lp6155
S'Did'
p6156
as(S"grabbin'"
p6157
tp6158
(lp6159
S'at'
p6160
as(S'latest'
p6161
tp6162
(lp6163
S'graduate'
p6164
as(S'cabinet\xe2'
p6165
tp6166
(lp6167
g516
as(S'seeds'
p6168
tp6169
(lp6170
S'in'
p6171
aS'in'
p6172
aS'in'
p6173
as(S'coast'
p6174
tp6175
(lp6176
S'guard'
p6177
as(S'OUT'
p6178
tp6179
(lp6180
S'How'
p6181
as(S'obnoxious'
p6182
tp6183
(lp6184
S'arrogant'
p6185
as(S'Across'
p6186
tp6187
(lp6188
S'the'
p6189
as(S'South'
p6190
tp6191
(lp6192
S'Carolina'
p6193
aS'cuz'
p6194
aS'We'
p6195
ag564
as(S'always'
p6196
tp6197
(lp6198
S'hesitant'
p6199
aS'be'
p6200
aS'considered'
p6201
aS'worn'
p6202
as(S'action\xe2'
p6203
tp6204
(lp6205
g516
as(S'Broadway'
p6206
tp6207
(lp6208
g76
as(S'tip'
p6209
tp6210
(lp6211
S'and'
p6212
as(S'descendants'
p6213
tp6214
(lp6215
S'free'
p6216
aS'Or'
p6217
as(S'up'
p6218
tp6219
(lp6220
S'to'
p6221
aS'Inside'
p6222
ag76
aS'from'
p6223
aS'dead'
p6224
aS'ya'
p6225
aS'in'
p6226
aS'If'
p6227
ag80
aS'Understand'
p6228
aS'Rise'
p6229
aS'Can'
p6230
aS'to'
p6231
aS'on'
p6232
aS'My'
p6233
aS'This'
p6234
aS'facing'
p6235
aS'close'
p6236
aS'against'
p6237
aS'again'
p6238
aS'and'
p6239
aS'again'
p6240
aS'for'
p6241
aS'for'
p6242
aS'to'
p6243
aS'Broadway'
p6244
aS'Hamilton'
p6245
aS'I\xe2'
p6246
aS'Wise'
p6247
aS'Eyes'
p6248
ag80
aS'for'
p6249
aS'and'
p6250
as(S'wife'
p6251
tp6252
(lp6253
S'That\xe2'
p6254
aS'who'
p6255
as(S'bleedin\xe2'
p6256
tp6257
(lp6258
g564
as(S'paid'
p6259
tp6260
(lp6261
S'I\xe2'
p6262
aS'cuz'
p6263
aS'in'
p6264
aS'him'
p6265
as(S'world'
p6266
tp6267
(lp6268
S'in'
p6269
aS'We'
p6270
aS'like'
p6271
aS'will'
p6272
aS'will'
p6273
as(S'brag'
p6274
tp6275
(lp6276
S'but'
p6277
aS'but'
p6278
as(S'correspondence'
p6279
tp6280
(lp6281
S'Congress'
p6282
as(S'arrogant'
p6283
tp6284
(lp6285
S'loudmouth'
p6286
aS'Immigrant'
p6287
as(S'government\xe2'
p6288
tp6289
(lp6290
S"Wasn't"
p6291
as(S'kid'
p6292
tp6293
(lp6294
S'is'
p6295
aS'What\xe2'
p6296
aS'in'
p6297
aS'is'
p6298
as(S'marry'
p6299
tp6300
(lp6301
g76
aS'rich'
p6302
as(S'slept'
p6303
tp6304
(lp6305
S'in'
p6306
as(S'mouths'
p6307
tp6308
(lp6309
S'off'
p6310
as(S'Sneak'
p6311
tp6312
(lp6313
S'into'
p6314
as(S'provided'
p6315
tp6316
(lp6317
S'those'
p6318
as(S'Enter'
p6319
tp6320
(lp6321
S'me'
p6322
as(S'Yet'
p6323
tp6324
(lp6325
S'in'
p6326
as(S'pot'
p6327
tp6328
(lp6329
S'What'
p6330
aS'to'
p6331
as(S'monarchy'
p6332
tp6333
(lp6334
S'The'
p6335
as(S'am'
p6336
tp6337
(lp6338
S'Hercules'
p6339
aS'not'
p6340
aS'not'
p6341
aS'the'
p6342
ag80
aS'either'
p6343
aS'to'
p6344
aS'lovin\xe2'
p6345
aS'complicit'
p6346
ag76
aS'not'
p6347
aS'just'
p6348
as(S'waiting'
p6349
tp6350
(lp6351
S'in'
p6352
aS'in'
p6353
as(S'settle'
p6354
tp6355
(lp6356
S'for'
p6357
as(S'rest'
p6358
tp6359
(lp6360
S'of'
p6361
as(S'retreating'
p6362
tp6363
(lp6364
S'We'
p6365
as(S'Martha'
p6366
tp6367
(lp6368
S'Washington'
p6369
as(S'unfinished'
p6370
tp6371
(lp6372
S'symphony'
p6373
as(S'lend'
p6374
tp6375
(lp6376
g76
as(S'cite'
p6377
tp6378
(lp6379
g76
as(S'mess'
p6380
tp6381
(lp6382
g752
as(S'promised'
p6383
tp6384
(lp6385
S'land'
p6386
aS'We'
p6387
as(S'tea'
p6388
tp6389
(lp6390
S'we'
p6391
as(S'will'
p6392
tp6393
(lp6394
S'pop'
p6395
aS'be'
p6396
aS'lay'
p6397
aS'lead'
p6398
aS'the'
p6399
aS'fight'
p6400
aS'never'
p6401
aS'never'
p6402
aS'fight'
p6403
aS'be'
p6404
aS'put'
p6405
aS'commence'
p6406
aS'not'
p6407
aS'never'
p6408
aS'not'
p6409
aS'sing'
p6410
aS'yield'
p6411
aS'never'
p6412
as(S'girl'
p6413
tp6414
(lp6415
S'in'
p6416
as(S'mother\xe2'
p6417
tp6418
(lp6419
g516
as(S'challenge'
p6420
tp6421
(lp6422
S'demand'
p6423
as(S'hatch'
p6424
tp6425
(lp6426
g76
as(S'led'
p6427
tp6428
(lp6429
S'me'
p6430
as(S'he'
p6431
tp6432
(lp6433
S'struggled'
p6434
aS'was'
p6435
aS'wrote'
p6436
aS'was'
p6437
aS'can\xe2'
p6438
aS'can'
p6439
aS'stands'
p6440
aS'gonna'
p6441
aS'know'
p6442
aS'caught'
p6443
aS'looked'
p6444
aS'know'
p6445
aS'can\xe2'
p6446
aS'was'
p6447
aS'dismisses'
p6448
aS'can'
p6449
aS'has'
p6450
aS'doesn\xe2'
p6451
aS'Would'
p6452
aS'is'
p6453
aS'does'
p6454
aS'was'
p6455
aS'was'
p6456
aS'primps'
p6457
aS'got'
p6458
aS'lies'
p6459
aS'said'
p6460
aS'decides'
p6461
aS'is'
p6462
aS'obfuscates'
p6463
aS'dances'
p6464
aS'knew'
p6465
aS'could'
p6466
aS'methodically'
p6467
aS'can'
p6468
aS'knows'
p6469
aS'gonna'
p6470
as(S'Rise'
p6471
tp6472
(lp6473
S'up'
p6474
as(S'second'
p6475
tp6476
(lp6477
S'For'
p6478
aS'Now'
p6479
aS'Your'
p6480
as(S'sons'
p6481
tp6482
(lp6483
S'so'
p6484
aS'Ya'
p6485
as(S'situation'
p6486
tp6487
(lp6488
S'is'
p6489
aS'Are'
p6490
aS'To'
p6491
as(S'talkin\xe2'
p6492
tp6493
(lp6494
S'too'
p6495
as(S'demand'
p6496
tp6497
(lp6498
S'And'
p6499
aS'satisfaction'
p6500
as(S'Some'
p6501
tp6502
(lp6503
S'King\xe2'
p6504
as(S'pints'
p6505
tp6506
(lp6507
S'o\xe2'
p6508
as(S'unimpeachable'
p6509
tp6510
(lp6511
S'Only'
p6512
as(S'snatch'
p6513
tp6514
(lp6515
g76
as(S'taken'
p6516
tp6517
(lp6518
S'over'
p6519
as(S'letters'
p6520
tp6521
(lp6522
S'to'
p6523
as(S'admire'
p6524
tp6525
(lp6526
S'how'
p6527
as(S'action'
p6528
tp6529
(lp6530
S'in'
p6531
aS'has'
p6532
aS'Are'
p6533
aS'has'
p6534
aS'So'
p6535
aS'If'
p6536
as(S'But'
p6537
tp6538
(lp6539
S'damn'
p6540
aS'we\xe2'
p6541
aS'Jesus'
p6542
aS'there\xe2'
p6543
aS'the'
p6544
aS'Hamilton'
p6545
aS'what'
p6546
aS'someone\xe2'
p6547
aS'Hamilton'
p6548
aS'my'
p6549
aS'upstate'
p6550
aS'now'
p6551
aS'sir'
p6552
aS'my'
p6553
ag80
aS'what'
p6554
aS'the'
p6555
aS'when'
p6556
ag80
aS'look'
p6557
aS'your'
p6558
as(S'wrote'
p6559
tp6560
(lp6561
S'his'
p6562
ag564
aS'some'
p6563
as(S'Congress'
p6564
tp6565
(lp6566
S'has'
p6567
aS'and'
p6568
aS'writes'
p6569
as(S'collection'
p6570
tp6571
(lp6572
S'just'
p6573
as(S'horses'
p6574
tp6575
(lp6576
S'of'
p6577
aS'giddyup'
p6578
aS'Local'
p6579
as(S'smart'
p6580
tp6581
(lp6582
S'man'
p6583
aS'Make'
p6584
as(S'play'
p6585
tp6586
(lp6587
S'out'
p6588
aS'Well'
p6589
as(S'Or'
p6590
tp6591
(lp6592
S'will'
p6593
aS'negotiate'
p6594
aS'matches'
p6595
as(S'deadly'
p6596
tp6597
(lp6598
S'aim'
p6599
as(S'somebody'
p6600
tp6601
(lp6602
S'gotta'
p6603
aS'has'
p6604
as(S'Gentlemen'
p6605
tp6606
(lp6607
S'let\xe2'
p6608
aS'of'
p6609
as(S'cops'
p6610
tp6611
(lp6612
S'till'
p6613
as(S'forward'
p6614
tp6615
(lp6616
S'to'
p6617
as(S'relentlessly'
p6618
tp6619
(lp6620
S'Then'
p6621
as(S'lovin\xe2'
p6622
tp6623
(lp6624
S'it'
p6625
aS'it'
p6626
as(S'sev\xe2'
p6627
tp6628
(lp6629
S'ral'
p6630
as(S'death\xe2'
p6631
tp6632
(lp6633
g516
as(S'fractured'
p6634
tp6635
(lp6636
S'into'
p6637
as(S'glasses'
p6638
tp6639
(lp6640
S'Why'
p6641
as(S'it\xe2'
p6642
tp6643
(lp6644
g516
ag516
ag516
ag516
ag516
ag516
ag516
ag516
ag516
ag516
as(S'prove'
p6645
tp6646
(lp6647
S'that'
p6648
aS'went'
p6649
aS'that'
p6650
as(S'attempt'
p6651
tp6652
(lp6653
S'to'
p6654
as(S'whatever'
p6655
tp6656
(lp6657
S'the'
p6658
aS'you'
p6659
as(S'still'
p6660
tp6661
(lp6662
S'downtown'
p6663
aS'wants'
p6664
as(S'above'
p6665
tp6666
(lp6667
S'my'
p6668
aS'his'
p6669
as(S'says'
p6670
tp6671
(lp6672
S'in'
p6673
as(S'make'
p6674
tp6675
(lp6676
S'the'
p6677
aS'y\xe2'
p6678
aS'this'
p6679
aS'an'
p6680
ag76
ag564
as(S'garden'
p6681
tp6682
(lp6683
S'you'
p6684
as(S'Um'
p6685
tp6686
(lp6687
S'yes'
p6688
as(S'civility'
p6689
tp6690
(lp6691
S'You'
p6692
as(S'got'
p6693
tp6694
(lp6695
S'around'
p6696
aS'sort'
p6697
ag76
aS'y\xe2'
p6698
aS'to'
p6699
aS'Mister'
p6700
ag76
aS'it'
p6701
aS'frisky'
p6702
aS'acquitted'
p6703
aS'Washington'
p6704
aS'nothing'
p6705
aS'the'
p6706
aS'My'
p6707
as(S'comin\xe2'
p6708
tp6709
(lp6710
S'do'
p6711
as(S'Doin\xe2'
p6712
tp6713
(lp6714
S'whatever'
p6715
as(S'Lafayette'
p6716
tp6717
(lp6718
S'The'
p6719
aS'hard'
p6720
aS'okay'
p6721
aS'In'
p6722
aS'is'
p6723
aS'Have'
p6724
as(S'precedes'
p6725
tp6726
(lp6727
S'you'
p6728
as(S'boy'
p6729
tp6730
(lp6731
S'does'
p6732
as(S'bastard'
p6733
tp6734
(lp6735
S'orphan'
p6736
aS'orphan'
p6737
aS'orphan'
p6738
aS'orphan'
p6739
aS'in'
p6740
as(S'By'
p6741
tp6742
(lp6743
S'being'
p6744
aS'being'
p6745
aS'fourteen'
p6746
as(S'terrain'
p6747
tp6748
(lp6749
g80
as(S'wind'
p6750
tp6751
(lp6752
S'up'
p6753
as(S'toss'
p6754
tp6755
(lp6756
S'Hamilton'
p6757
as(S'movement'
p6758
tp6759
(lp6760
S'Where'
p6761
as(S'spot'
p6762
tp6763
(lp6764
S'him'
p6765
aS'Poppin\xe2'
p6766
as(S'parents\xe2'
p6767
tp6768
(lp6769
S'dying'
p6770
as(S'hatter'
p6771
tp6772
(lp6773
S'son'
p6774
as(S'put'
p6775
tp6776
(lp6777
S'us'
p6778
aS'me'
p6779
ag76
aS'me'
p6780
aS'it'
p6781
aS'wealth'
p6782
aS'an'
p6783
aS'some'
p6784
as(S'whole'
p6785
tp6786
(lp6787
S'affair'
p6788
as(S'Alex'
p6789
tp6790
(lp6791
S'and'
p6792
aS'you'
p6793
as(S'ev\xe2'
p6794
tp6795
(lp6796
S'ry'
p6797
as(S'single'
p6798
tp6799
(lp6800
S'file'
p6801
as(S'Put'
p6802
tp6803
(lp6804
g76
as(S'fighting'
p6805
tp6806
(lp6807
S'Frenchman'
p6808
as(S'about'
p6809
tp6810
(lp6811
S'to'
p6812
aS'his'
p6813
aS'the'
p6814
aS'my'
p6815
aS'you'
p6816
aS'to\xe2'
p6817
aS'my'
p6818
as(S'once'
p6819
tp6820
(lp6821
S'people'
p6822
as(S'buddy'
p6823
tp6824
(lp6825
S'of'
p6826
as(S'accumulate'
p6827
tp6828
(lp6829
S'debt'
p6830
aS'power'
p6831
as(S'Legacy'
p6832
tp6833
(lp6834
S'What'
p6835
as(S'chick-a'
p6836
tp6837
(lp6838
S'pop'
p6839
as(S'loaded'
p6840
tp6841
(lp6842
S'Uh-oh'
p6843
as(S'Longing'
p6844
tp6845
(lp6846
S'for'
p6847
as(S'In'
p6848
tp6849
(lp6850
S'New'
p6851
aS'my'
p6852
aS'command'
p6853
aS'Virginia'
p6854
aS'return'
p6855
aS'the'
p6856
aS'love'
p6857
as(S'yet'
p6858
tp6859
(lp6860
S'Treasury'
p6861
aS'you'
p6862
as(S'fluent'
p6863
tp6864
(lp6865
S'in'
p6866
as(S'examined'
p6867
tp6868
(lp6869
S'his'
p6870
as(S'treaty'
p6871
tp6872
(lp6873
S'We'
p6874
aS'with'
p6875
aS'King'
p6876
as(S'makes'
p6877
tp6878
(lp6879
S'him'
p6880
as(S'elitist'
p6881
tp6882
(lp6883
g80
as(S'Virginian'
p6884
tp6885
(lp6886
S'veteran'
p6887
as(S'bet'
p6888
tp6889
(lp6890
S'you'
p6891
as(S'Wait'
p6892
tp6893
(lp6894
S'till'
p6895
aS'people'
p6896
as(S'thought'
p6897
tp6898
(lp6899
S'I\xe2'
p6900
aS'before'
p6901
aS'into'
p6902
as(S'Smashin\xe2'
p6903
tp6904
(lp6905
S'every'
p6906
as(S'mission'
p6907
tp6908
(lp6909
S'And'
p6910
aS'This'
p6911
as(S'Kips'
p6912
tp6913
(lp6914
S'Bay'
p6915
as(S'wearing'
p6916
tp6917
(lp6918
S'his'
p6919
as(S'ning'
p6920
tp6921
(lp6922
S'in'
p6923
as(S'seeing'
p6924
tp6925
(lp6926
S'your'
p6927
as(S'under'
p6928
tp6929
(lp6930
S'General'
p6931
aS'cover'
p6932
aS'the'
p6933
as(S'declaration'
p6934
tp6935
(lp6936
S'Welcome'
p6937
as(S'Promise'
p6938
tp6939
(lp6940
S'me'
p6941
as(S'us'
p6942
tp6943
(lp6944
g76
aS'endlessly'
p6945
aS'relentlessly'
p6946
aS'free'
p6947
aS'all'
p6948
aS'we'
p6949
ag76
aS'Hamilton'
p6950
aS'equipment'
p6951
aS'away'
p6952
aS'or'
p6953
aS'all'
p6954
aS'all'
p6955
aS'all'
p6956
aS'right'
p6957
as(S'July'
p6958
tp6959
(lp6960
S'speaker'
p6961
as(S'or'
p6962
tp6963
(lp6964
S'barter'
p6965
aS'destitute'
p6966
aS'what'
p6967
aS'die'
p6968
aS'not'
p6969
aS'do'
p6970
aS'rise'
p6971
aS'which'
p6972
aS'as'
p6973
aS'meet'
p6974
aS'stay'
p6975
aS'what'
p6976
aS'me'
p6977
aS'fire'
p6978
aS'let'
p6979
aS'heaven'
p6980
as(S'seems'
p6981
tp6982
(lp6983
S'are'
p6984
aS'approachable'
p6985
as(S'today'
p6986
tp6987
(lp6988
S'Has'
p6989
as(S'Make'
p6990
tp6991
(lp6992
S'me'
p6993
as(S'tax'
p6994
tp6995
(lp6996
S'us'
p6997
aS'the'
p6998
aS'our'
p6999
as(S'Meanwhile'
p7000
tp7001
(lp7002
S'Britain'
p7003
as(S'home'
p7004
tp7005
(lp7006
S'single'
p7007
ag564
aS'when'
p7008
as(S'damn'
p7009
tp7010
(lp7011
S'it\xe2'
p7012
aS'pages'
p7013
as(S'promotes'
p7014
tp7015
(lp7016
S'Charles'
p7017
as(S'orders'
p7018
tp7019
(lp7020
S'now'
p7021
as(S'checkered'
p7022
tp7023
(lp7024
S'History'
p7025
as(S'light'
p7026
tp7027
(lp7028
S'It\xe2'
p7029
aS'The'
p7030
as(S'assistance'
p7031
tp7032
(lp7033
S'Your'
p7034
ag80
aS'They'
p7035
as(S'abandon'
p7036
tp7037
(lp7038
S'ship'
p7039
as(S'same'
p7040
tp7041
(lp7042
S'rights'
p7043
aS'virtuosity'
p7044
aS'staff'
p7045
ag80
aS'Alexander\xe2'
p7046
aS'time'
p7047
as(S'choices'
p7048
tp7049
(lp7050
S'I\xe2'
p7051
as(S'dropped'
p7052
tp7053
(lp7054
S'in'
p7055
as(S'passionately'
p7056
tp7057
(lp7058
S'Smashin\xe2'
p7059
as(S'accelerated'
p7060
tp7061
(lp7062
S'course'
p7063
as(S'you\xe2'
p7064
tp7065
(lp7066
S're'
p7067
aS're'
p7068
aS're'
p7069
aS'll'
p7070
aS're'
p7071
aS're'
p7072
aS've'
p7073
aS're'
p7074
aS're'
p7075
aS're'
p7076
aS're'
p7077
aS're'
p7078
aS're'
p7079
aS've'
p7080
aS're'
p7081
aS're'
p7082
aS're'
p7083
aS're'
p7084
aS'll'
p7085
aS're'
p7086
as(S'experiment'
p7087
tp7088
(lp7089
S'begins'
p7090
aS'sets'
p7091
as(S'but'
p7092
tp7093
(lp7094
S'ruined'
p7095
aS'I\xe2'
p7096
aS'dag'
p7097
aS'no'
p7098
aS'my'
p7099
aS'the'
p7100
aS'little'
p7101
aS'look'
p7102
ag80
aS'I\xe2'
p7103
aS'dag'
p7104
aS'my'
p7105
aS'bolder'
p7106
ag80
aS'he\xe2'
p7107
aS'For'
p7108
aS'the'
p7109
as(S'once\xe2'
p7110
tp7111
(lp7112
S'We'
p7113
as(S'won\xe2'
p7114
tp7115
(lp7116
g248
ag248
ag248
ag248
as(S'defendants'
p7117
tp7118
(lp7119
g80
aS'got'
p7120
as(S'by'
p7121
tp7122
(lp7123
S'providence'
p7124
aS'working'
p7125
aS'the'
p7126
aS'the'
p7127
aS'virtue'
p7128
aS'the'
p7129
aS'early'
p7130
as(S'these'
p7131
tp7132
(lp7133
S'cops'
p7134
aS'streets'
p7135
aS'the'
p7136
aS'ideals'
p7137
as(S'organize'
p7138
tp7139
(lp7140
S'your'
p7141
as(S'odds'
p7142
tp7143
(lp7144
S'the'
p7145
aS'are'
p7146
as(S'Betsy'
p7147
tp7148
(lp7149
S'Ross\xe2'
p7150
as(S'kettle'
p7151
tp7152
(lp7153
S'callin\xe2'
p7154
as(S'hunger'
p7155
tp7156
(lp7157
g80
as(S'two'
p7158
tp7159
(lp7160
S'then'
p7161
aS'minutes'
p7162
aS'shits'
p7163
aS'three'
p7164
as(S'adrenaline'
p7165
tp7166
(lp7167
S'when'
p7168
as(S'begins'
p7169
tp7170
(lp7171
S'With'
p7172
as(S'Casse'
p7173
tp7174
(lp7175
S'toi'
p7176
as(S'boost'
p7177
tp7178
(lp7179
S'You\xe2'
p7180
as(S'friend'
p7181
tp7182
(lp7183
S'with'
p7184
ag80
aS'he'
p7185
aS'William'
p7186
aS'my'
p7187
aS'that\xe2'
p7188
as(S'rise'
p7189
tp7190
(lp7191
S'up'
p7192
aS'up'
p7193
aS'up'
p7194
aS'up'
p7195
aS'above'
p7196
aS'to'
p7197
aS'above'
p7198
aS'up'
p7199
aS'to'
p7200
as(S'Missing'
p7201
tp7202
(lp7203
S'my'
p7204
as(S'only'
p7205
tp7206
(lp7207
S'way'
p7208
aS'one'
p7209
aS'way'
p7210
aS'job'
p7211
aS'take'
p7212
aS'that'
p7213
aS'grow'
p7214
aS'nineteen'
p7215
aS'heard'
p7216
aS'one'
p7217
as(S'resemblance'
p7218
tp7219
(lp7220
S'stops'
p7221
as(S'social'
p7222
tp7223
(lp7224
S'climb'
p7225
as(S'Why\xe2'
p7226
tp7227
(lp7228
S're'
p7229
as(S'happening'
p7230
tp7231
(lp7232
S'Across'
p7233
as(S'double'
p7234
tp7235
(lp7236
S'your'
p7237
as(S'love'
p7238
tp7239
(lp7240
S'more'
p7241
aS'him'
p7242
aS'the'
p7243
aS'with'
p7244
aS'who\xe2'
p7245
as(S'fellow'
p7246
tp7247
(lp7248
S'soldiers\xe2'
p7249
as(S'street'
p7250
tp7251
(lp7252
S'is'
p7253
as(S'fan'
p7254
tp7255
(lp7256
S'this'
p7257
as(S'prodigy'
p7258
tp7259
(lp7260
S'of'
p7261
as(S'needy'
p7262
tp7263
(lp7264
S'We'
p7265
as(S'dire'
p7266
tp7267
(lp7268
S'need'
p7269
as(S'in'
p7270
tp7271
(lp7272
S'the'
p7273
aS'the'
p7274
aS'squalor'
p7275
aS'charge'
p7276
aS'their'
p7277
aS'with'
p7278
aS'the'
p7279
aS'two'
p7280
aS'the'
p7281
aS'it'
p7282
aS'the'
p7283
aS'this'
p7284
aS'parentheses'
p7285
aS'France'
p7286
aS'loco'
p7287
aS'bondage'
p7288
aS'On'
p7289
aS'one'
p7290
aS'front'
p7291
aS'the'
p7292
aS'the'
p7293
aS'their'
p7294
aS'the'
p7295
aS'the'
p7296
aS'glory'
p7297
aS'the'
p7298
aS'ya'
p7299
aS'the'
p7300
aS'the'
p7301
aS'dire'
p7302
aS'the'
p7303
aS'Quebec'
p7304
aS'summary'
p7305
aS'have'
p7306
aS'common'
p7307
aS'total'
p7308
ag76
aS'which'
p7309
aS'New'
p7310
ag76
aS'He'
p7311
aS'Mount'
p7312
aS'my'
p7313
aS'it'
p7314
aS'South'
p7315
aS'Chesapeake'
p7316
aS'the'
p7317
aS'debt\xe2'
p7318
aS'the'
p7319
aS'the'
p7320
aS'the'
p7321
aS'Monticello'
p7322
aS'the'
p7323
aS'it'
p7324
ag76
aS'worse'
p7325
aS'Sittin\xe2'
p7326
ag76
aS'need'
p7327
aS'her'
p7328
aS'the'
p7329
ag76
aS'their'
p7330
aS'every'
p7331
aS'the'
p7332
aS'the'
p7333
aS'search'
p7334
aS'This'
p7335
aS'his'
p7336
aS'his'
p7337
aS'the'
p7338
aS'watching'
p7339
aS'his'
p7340
aS'different'
p7341
aS'Seventeen'
p7342
aS'speculation'
p7343
aS'the'
p7344
aS'good'
p7345
ag76
ag76
aS'my'
p7346
aS'front'
p7347
aS'ya\xe2'
p7348
aS'boarding'
p7349
aS'Jersey'
p7350
aS'New'
p7351
aS'front'
p7352
aS'the'
p7353
aS'the'
p7354
aS'traction'
p7355
aS'action'
p7356
aS'the'
p7357
aS'mind'
p7358
aS'the'
p7359
aS'his'
p7360
aS'your'
p7361
aS'your'
p7362
aS'the'
p7363
ag76
aS'advance'
p7364
aS'need'
p7365
aS'He\xe2'
p7366
ag76
aS'French'
p7367
aS'the'
p7368
aS'the'
p7369
aS'Confess'
p7370
aS'your'
p7371
aS'the'
p7372
as(S'fire'
p7373
tp7374
(lp7375
S'you\xe2'
p7376
aS'your'
p7377
aS'my'
p7378
as(S'more'
p7379
tp7380
(lp7381
S'Than'
p7382
aS'Don\xe2'
p7383
aS'sex'
p7384
aS'To'
p7385
aS'like'
p7386
aS'Than'
p7387
aS'of'
p7388
aS'like'
p7389
aS'debt'
p7390
aS'yet'
p7391
aS'Mr'
p7392
aS'specific'
p7393
aS'like'
p7394
aS'funds'
p7395
aS'Guns'
p7396
aS'resilience'
p7397
as(S'name'
p7398
tp7399
(lp7400
S'What\xe2'
p7401
aS'man'
p7402
aS'at'
p7403
ag80
aS'As'
p7404
aS'is'
p7405
as(S'admit'
p7406
tp7407
(lp7408
S'it'
p7409
as(S'Give'
p7410
tp7411
(lp7412
S'us'
p7413
aS'me'
p7414
as(S'See'
p7415
tp7416
(lp7417
S'if'
p7418
ag80
aS'you'
p7419
aS'that\xe2'
p7420
aS'you'
p7421
as(S'spyin\xe2'
p7422
tp7423
(lp7424
S'on'
p7425
as(S'gawk'
p7426
tp7427
(lp7428
S'At'
p7429
as(S'skill'
p7430
tp7431
(lp7432
S'with'
p7433
as(S'law'
p7434
tp7435
(lp7436
S'Do'
p7437
as(S'destitute'
p7438
tp7439
(lp7440
S'Without'
p7441
as(S'suit'
p7442
tp7443
(lp7444
S'if'
p7445
as(S'book'
p7446
tp7447
(lp7448
S'he'
p7449
aS'mentions'
p7450
as(S'wasn\xe2'
p7451
tp7452
(lp7453
g248
ag248
as(S'ride'
p7454
tp7455
(lp7456
S'at'
p7457
as(S'Til'
p7458
tp7459
(lp7460
S'we'
p7461
as(S'power'
p7462
tp7463
(lp7464
S'of'
p7465
aS'They'
p7466
aS'Yet'
p7467
aS'and'
p7468
as(S'upset'
p7469
tp7470
(lp7471
S'It\xe2'
p7472
as(S'mentions'
p7473
tp7474
(lp7475
S'me'
p7476
as(S'Damn'
p7477
tp7478
(lp7479
S'you\xe2'
p7480
as(S'again'
p7481
tp7482
(lp7483
g564
ag80
aS'We'
p7484
aS'No'
p7485
aS'against'
p7486
as(S'despised'
p7487
tp7488
(lp7489
S'since'
p7490
as(S'death'
p7491
tp7492
(lp7493
S'so'
p7494
aS'with'
p7495
aS'so'
p7496
aS'of'
p7497
aS'so'
p7498
as(S'shelf'
p7499
tp7500
(lp7501
S'There'
p7502
as(S'forfeit'
p7503
tp7504
(lp7505
S'Have'
p7506
as(S'drink'
p7507
tp7508
(lp7509
S'That'
p7510
as(S'straight\xe2'
p7511
tp7512
(lp7513
S'Can'
p7514
as(S'ask'
p7515
tp7516
(lp7517
S'for'
p7518
aS'for'
p7519
aS'it'
p7520
aS'you'
p7521
aS'me'
p7522
as(S'campaigning'
p7523
tp7524
(lp7525
S'Sure'
p7526
as(S'rock'
p7527
tp7528
(lp7529
S'like'
p7530
as(S'towards'
p7531
tp7532
(lp7533
S'the'
p7534
as(S'many'
p7535
tp7536
(lp7537
S'Ask'
p7538
aS'to'
p7539
aS'damn'
p7540
aS'men'
p7541
as(S'financial'
p7542
tp7543
(lp7544
S'situation'
p7545
aS'plan'
p7546
aS'diuretic'
p7547
aS'gain'
p7548
as(S'Nice'
p7549
tp7550
(lp7551
S'going'
p7552
as(S'endorse'
p7553
tp7554
(lp7555
S'Thomas'
p7556
as(S'sky'
p7557
tp7558
(lp7559
S'Pick'
p7560
as(S'missing'
p7561
tp7562
(lp7563
S'in'
p7564
as(S'Bonsoir'
p7565
tp7566
(lp7567
S'Tell'
p7568
as(S'powder'
p7569
tp7570
(lp7571
S'keg'
p7572
as(S'Frenchman'
p7573
tp7574
(lp7575
S'I\xe2'
p7576
as(S'Eyes'
p7577
tp7578
(lp7579
S'up'
p7580
as(S'seconds'
p7581
tp7582
(lp7583
S'see'
p7584
aS'meet'
p7585
aS'see'
p7586
as(S'outside'
p7587
tp7588
(lp7589
S'and'
p7590
as(S'twenty'
p7591
tp7592
(lp7593
S'Where'
p7594
as(S'insidious'
p7595
tp7596
(lp7597
S'And'
p7598
as(S'sing'
p7599
tp7600
(lp7601
g76
aS'for'
p7602
as(S'Fools'
p7603
tp7604
(lp7605
S'who'
p7606
as(S'shade'
p7607
tp7608
(lp7609
S'In'
p7610
as(S'blur'
p7611
tp7612
(lp7613
S'sir'
p7614
as(S'head'
p7615
tp7616
(lp7617
S'back'
p7618
aS'is'
p7619
ag564
as(S'scholars'
p7620
tp7621
(lp7622
S'say'
p7623
as(S'blocks'
p7624
tp7625
(lp7626
S'He'
p7627
as(S'endless'
p7628
tp7629
(lp7630
S'Cycle'
p7631
as(S'regret'
p7632
tp7633
(lp7634
S'You'
p7635
as(S'lieutenant'
p7636
tp7637
(lp7638
S'when'
p7639
as(S'fleeing'
p7640
tp7641
(lp7642
S'west'
p7643
as(S'Than'
p7644
tp7645
(lp7646
S'anyone'
p7647
aS'going'
p7648
as(S'sleep'
p7649
tp7650
(lp7651
S'Seven'
p7652
as(S'plan'
p7653
tp7654
(lp7655
S'is'
p7656
aS'would'
p7657
aS'would'
p7658
aS'is'
p7659
aS'he'
p7660
as(S'beliefs'
p7661
tp7662
(lp7663
S'Burr'
p7664
as(S'afraid'
p7665
tp7666
(lp7667
S'Don\xe2'
p7668
as(S'Pissed'
p7669
tp7670
(lp7671
S'him'
p7672
as(S'Smells'
p7673
tp7674
(lp7675
S'like'
p7676
as(S'They'
p7677
tp7678
(lp7679
S'pull'
p7680
aS'delighted'
p7681
aS'only'
p7682
aS'stagger'
p7683
aS'don\xe2'
p7684
aS'don\xe2'
p7685
aS'don\xe2'
p7686
aS'won\xe2'
p7687
as(S'choice'
p7688
tp7689
(lp7690
g80
aS'And'
p7691
as(S'pretty'
p7692
tp7693
(lp7694
S'good'
p7695
as(S'casualties'
p7696
tp7697
(lp7698
S'and'
p7699
as(S'time'
p7700
tp7701
(lp7702
S'is'
p7703
aS'Show'
p7704
aS'Show'
p7705
aS'Yo'
p7706
aS'I\xe2'
p7707
aS'to'
p7708
aS'we'
p7709
aS'comes'
p7710
aS'He'
p7711
aS'here\xe2'
p7712
aS'I\xe2'
p7713
aS'and'
p7714
aS'Alexander'
p7715
as(S'Fire'
p7716
tp7717
(lp7718
g564
as(S'walked'
p7719
tp7720
(lp7721
S'into'
p7722
as(S'really'
p7723
tp7724
(lp7725
S'doing'
p7726
as(S'break'
p7727
tp7728
(lp7729
S'Longing'
p7730
as(S'beg'
p7731
tp7732
(lp7733
S'steal'
p7734
as(S'new'
p7735
tp7736
(lp7737
S'inside'
p7738
aS'land'
p7739
aS'man'
p7740
aS'nation'
p7741
aS'nation'
p7742
aS'line'
p7743
aS'money'
p7744
aS'Honestly'
p7745
as(S'hear'
p7746
tp7747
(lp7748
S'the'
p7749
aS'the'
p7750
aS'him'
p7751
aS'my'
p7752
as(S"We're"
p7753
tp7754
(lp7755
S'finally'
p7756
as(S'legs'
p7757
tp7758
(lp7759
S'spread'
p7760
as(S'fallen'
p7761
tp7762
(lp7763
S'foes'
p7764
as(S'stop'
p7765
tp7766
(lp7767
S'to'
p7768
ag564
aS'Where'
p7769
aS'it'
p7770
aS'until'
p7771
as(S'end'
p7772
tp7773
(lp7774
S'of'
p7775
aS'of'
p7776
aS'slavery'
p7777
aS'You'
p7778
aS'to'
p7779
aS'this'
p7780
as(S'Reliable'
p7781
tp7782
(lp7783
S'with'
p7784
as(S'askance'
p7785
tp7786
(lp7787
S'He\xe2'
p7788
as(S'seize'
p7789
tp7790
(lp7791
S'the'
p7792
aS'the'
p7793
as(S'doubt'
p7794
tp7795
(lp7796
S'you'
p7797
as(S'Cuz'
p7798
tp7799
(lp7800
g80
as(S'reckoned'
p7801
tp7802
(lp7803
S'Have'
p7804
as(S'fashion'
p7805
tp7806
(lp7807
S'Our'
p7808
as(S'man'
p7809
tp7810
(lp7811
S'saw'
p7812
aS'Took'
p7813
ag564
aS'The'
p7814
aS'is'
p7815
aS'Who'
p7816
aS'of'
p7817
aS'Living'
p7818
aS'go'
p7819
aS'to'
p7820
aS'We'
p7821
aS'he\xe2'
p7822
aS'like'
p7823
aS'until'
p7824
aS'of'
p7825
aS'he\xe2'
p7826
aS'has'
p7827
aS'on'
p7828
aS'will'
p7829
aS'back'
p7830
aS'back'
p7831
aS'has'
p7832
aS'is'
p7833
as(S'favorite'
p7834
tp7835
(lp7836
S'fighting'
p7837
as(S'worn'
p7838
tp7839
(lp7840
S'it'
p7841
as(S'serious'
p7842
tp7843
(lp7844
S'You'
p7845
as(S'honor'
p7846
tp7847
(lp7848
S'our'
p7849
aS'To'
p7850
as(S'match'
p7851
tp7852
(lp7853
S'wits'
p7854
as(S'Count'
p7855
tp7856
(lp7857
S'to'
p7858
as(S'never'
p7859
tp7860
(lp7861
S'be'
p7862
aS'had'
p7863
aS'thought'
p7864
aS'be'
p7865
aS'find'
p7866
aS'seen'
p7867
aS'be'
p7868
aS'see'
p7869
aS'seen'
p7870
aS'stop'
p7871
aS'broke'
p7872
aS'spent'
p7873
aS'agreed'
p7874
aS'be'
p7875
aS'get'
p7876
aS'gonna'
p7877
aS'be'
p7878
as(S'Father'
p7879
tp7880
(lp7881
S'without'
p7882
as(S'behind'
p7883
tp7884
(lp7885
S'Without'
p7886
aS'you'
p7887
aS'Deliberation\xe2'
p7888
as(S'took'
p7889
tp7890
(lp7891
S'it'
p7892
as(S'fits'
p7893
tp7894
(lp7895
S'wear'
p7896
ag80
aS'of'
p7897
as(S'hand'
p7898
tp7899
(lp7900
S'of'
p7901
aS'Instead'
p7902
ag76
aS'And'
p7903
aS'man'
p7904
aS'man'
p7905
as(S'drinking'
p7906
tp7907
(lp7908
S'song'
p7909
as(S'sweat'
p7910
tp7911
(lp7912
S"We're"
p7913
as(S'insane'
p7914
tp7915
(lp7916
S'man'
p7917
as(S'do'
p7918
tp7919
(lp7920
S'For'
p7921
aS'what'
p7922
aS'it'
p7923
aS'you'
p7924
ag80
ag80
ag80
aS'we'
p7925
aS'for'
p7926
aS'Go'
p7927
aS'in'
p7928
aS'you'
p7929
aS'They'
p7930
aS'whatever'
p7931
aS'we'
p7932
aS'we'
p7933
ag80
aS'Stand'
p7934
aS'No'
p7935
aS'my'
p7936
ag80
aS'we'
p7937
aS'in'
p7938
aS'on'
p7939
as(S'present'
p7940
tp7941
(lp7942
S'we\xe2'
p7943
as(S'ground'
p7944
tp7945
(lp7946
S'We'
p7947
aS'That'
p7948
as(S'writin\xe2'
p7949
tp7950
(lp7951
S'We'
p7952
as(S'debt\xe2'
p7953
tp7954
(lp7955
S'Why'
p7956
as(S'model'
p7957
tp7958
(lp7959
S'of'
p7960
as(S'pistol'
p7961
tp7962
(lp7963
S'Confer'
p7964
as(S'where'
p7965
tp7966
(lp7967
S'we'
p7968
aS'the'
p7969
aS'you'
p7970
aS'it'
p7971
aS'Hamilton'
p7972
aS'ya'
p7973
aS'it'
p7974
aS'the'
p7975
aS'to'
p7976
aS'France'
p7977
aS'it'
p7978
aS'even'
p7979
aS'it\xe2'
p7980
aS'you'
p7981
as(S'North'
p7982
tp7983
(lp7984
S'New'
p7985
as(S'farmers'
p7986
tp7987
(lp7988
S'live'
p7989
as(S'to'
p7990
tp7991
(lp7992
S'be'
p7993
aS'be'
p7994
aS'beg'
p7995
aS'his'
p7996
aS'his'
p7997
aS'his'
p7998
aS'send'
p7999
aS'the'
p8000
aS'do'
p8001
aS'do'
p8002
aS'be'
p8003
aS'say'
p8004
aS'have'
p8005
aS'King\xe2'
p8006
aS'be'
p8007
aS'reach'
p8008
aS'manage'
p8009
aS'brandish'
p8010
aS'fan'
p8011
aS'be'
p8012
aS'onarchy'
p8013
aS'be'
p8014
aS'make'
p8015
aS'prove'
p8016
aS'handle'
p8017
aS'watch'
p8018
aS'watch'
p8019
aS'rise'
p8020
aS'rise'
p8021
aS'put'
p8022
aS'relatives'
p8023
aS'the'
p8024
aS'Harlem'
p8025
aS'divvy'
p8026
aS'giving'
p8027
aS'defend'
p8028
aS'state'
p8029
aS'fight'
p8030
aS'see'
p8031
aS'seeing'
p8032
aS'laugh'
p8033
aS'hire'
p8034
aS'fight'
p8035
aS'explode'
p8036
aS'lighten'
p8037
aS'Congress'
p8038
aS'the'
p8039
aS'fight'
p8040
aS'deflower'
p8041
aS'power'
p8042
aS'match'
p8043
aS'marry'
p8044
aS'social'
p8045
aS'be'
p8046
aS'set'
p8047
aS'Eliza'
p8048
aS'eating'
p8049
aS'New'
p8050
aS'take'
p8051
aS'piss'
p8052
aS'anybody'
p8053
aS'his'
p8054
aS'crisis'
p8055
aS'plantin\xe2'
p8056
aS'France'
p8057
aS'my'
p8058
aS'live'
p8059
aS'the'
p8060
aS'forfeit'
p8061
aS'resist'
p8062
aS'France'
p8063
aS'who'
p8064
aS'understand'
p8065
aS'God'
p8066
aS'tax'
p8067
aS'the'
p8068
aS'join'
p8069
aS'her'
p8070
aS'pray'
p8071
aS'Say'
p8072
aS'this'
p8073
aS'Say'
p8074
aS'this'
p8075
aS'her'
p8076
aS'know'
p8077
aS'end'
p8078
aS'run'
p8079
aS'seize'
p8080
aS'stand'
p8081
aS'rise'
p8082
aS'bring'
p8083
aS'the'
p8084
aS'take'
p8085
aS'start'
p8086
aS'reality'
p8087
aS'fight'
p8088
aS'remind'
p8089
aS'say'
p8090
aS'Hamilton'
p8091
aS'crack'
p8092
aS'ration'
p8093
aS'cash'
p8094
aS'bring'
p8095
aS'task'
p8096
aS'resign'
p8097
aS'stand'
p8098
aS'stand'
p8099
aS'his'
p8100
aS'douse'
p8101
aS'disciplined'
p8102
aS'the'
p8103
aS'this'
p8104
aS'stray'
p8105
aS'confess'
p8106
aS'tell'
p8107
aS'tell'
p8108
aS'put'
p8109
aS'bed'
p8110
aS'provoke'
p8111
aS'your'
p8112
aS'toe'
p8113
aS'hear'
p8114
aS'see'
p8115
aS'our'
p8116
aS'watch'
p8117
aS'find'
p8118
aS'ask'
p8119
aS'negotiate'
p8120
aS'apologize'
p8121
aS'let'
p8122
aS'the'
p8123
aS'shoot'
p8124
aS'ten'
p8125
aS'ten'
p8126
aS'change'
p8127
aS'work'
p8128
aS'door'
p8129
aS'hear'
p8130
aS'ask'
p8131
aS'keep'
p8132
aS'cite'
p8133
aS'do'
p8134
aS'know'
p8135
aS'the'
p8136
aS'negotiate'
p8137
aS'take'
p8138
aS'see'
p8139
aS'be'
p8140
aS'face'
p8141
aS'get'
p8142
aS'step'
p8143
aS'France'
p8144
aS'succeed'
p8145
aS'do'
p8146
aS'use'
p8147
aS'get'
p8148
aS'die'
p8149
aS'negotiate'
p8150
aS'answer'
p8151
aS'climb'
p8152
aS'account'
p8153
aS'the'
p8154
as(S'orderly'
p8155
tp8156
(lp8157
S'As'
p8158
as(S'loco'
p8159
tp8160
(lp8161
S'parentis'
p8162
as(S'refrain'
p8163
tp8164
(lp8165
g76
as(S'bets'
p8166
tp8167
(lp8168
S'as'
p8169
as(S'lookin'
p8170
tp8171
(lp8172
S'for'
p8173
as(S'didn\xe2'
p8174
tp8175
(lp8176
g248
ag248
ag248
ag248
as(S'doesn\xe2'
p8177
tp8178
(lp8179
g248
ag248
as(S'less'
p8180
tp8181
(lp8182
S'astute'
p8183
aS'What'
p8184
aS'He\xe2'
p8185
aS'These'
p8186
aS'extreme'
p8187
as(S'see'
p8188
tp8189
(lp8190
S'Alex'
p8191
aS'him'
p8192
aS'where'
p8193
aS'my'
p8194
aS'it'
p8195
aS'me'
p8196
aS'it'
p8197
aS'his'
p8198
aS'my'
p8199
aS'George'
p8200
aS'Hamilton\xe2'
p8201
aS'why'
p8202
aS'how'
p8203
aS'the'
p8204
aS'it'
p8205
ag80
aS'consistency'
p8206
ag80
ag76
aS'they'
p8207
aS'Burr'
p8208
aS'if'
p8209
aS'it'
p8210
aS'If'
p8211
ag80
aS'if'
p8212
as(S'answer'
p8213
tp8214
(lp8215
S'His'
p8216
aS'for'
p8217
as(S'tell'
p8218
tp8219
(lp8220
S'my'
p8221
aS'the'
p8222
ag564
aS'her'
p8223
aS'you'
p8224
aS'another'
p8225
aS'you'
p8226
aS'you'
p8227
as(S'quagmire'
p8228
tp8229
(lp8230
S'Leave'
p8231
as(S'sorry'
p8232
tp8233
(lp8234
S'I\xe2'
p8235
as(S'And'
p8236
tp8237
(lp8238
S'every'
p8239
aS'he'
p8240
aS'I\xe2'
p8241
ag80
aS'If'
p8242
aS'well'
p8243
aS'the'
p8244
aS'Alexander'
p8245
aS'every'
p8246
aS'every'
p8247
aS'every'
p8248
aS'so'
p8249
aS'as'
p8250
aS'it\xe2'
p8251
aS'pray'
p8252
aS'another'
p8253
aS'her'
p8254
aS'stand'
p8255
aS'revolution'
p8256
aS'before'
p8257
aS'the'
p8258
aS'in'
p8259
aS'we'
p8260
aS'y\xe2'
p8261
aS'they'
p8262
aS'Jefferson'
p8263
aS'you'
p8264
aS'I\xe2'
p8265
aS'ships'
p8266
aS'so'
p8267
as(S'fend'
p8268
tp8269
(lp8270
S'for'
p8271
as(S'creole'
p8272
tp8273
(lp8274
S'bastard'
p8275
as(S'dance'
p8276
tp8277
(lp8278
g752
as(S'let\xe2'
p8279
tp8280
(lp8281
g516
ag516
as(S'primps'
p8282
tp8283
(lp8284
S'and'
p8285
as(S'til'
p8286
tp8287
(lp8288
S'we'
p8289
aS'he'
p8290
as(S'spell'
p8291
tp8292
(lp8293
S'out'
p8294
as(S'ahead'
p8295
tp8296
(lp8297
S'Fools'
p8298
aS'of'
p8299
aS'of'
p8300
aS'of'
p8301
as(S'colony'
p8302
tp8303
(lp8304
S'that'
p8305
as(S'John'
p8306
tp8307
(lp8308
S'Laurens'
p8309
aS'Adams'
p8310
as(S'charter'
p8311
tp8312
(lp8313
S'And'
p8314
as(S'downtown'
p8315
tp8316
(lp8317
S'and'
p8318
aS'Nathaniel'
p8319
as(S'hurricane'
p8320
tp8321
(lp8322
S'came'
p8323
as(S'Princeton'
p8324
tp8325
(lp8326
g80
aS'college'
p8327
as(S'o\xe2'
p8328
tp8329
(lp8330
S'Sam'
p8331
as(S'protean'
p8332
tp8333
(lp8334
S'creator'
p8335
as(S'impoverished'
p8336
tp8337
(lp8338
S'in'
p8339
as(S'distance'
p8340
tp8341
(lp8342
g80
ag80
as(S'Chesapeake'
p8343
tp8344
(lp8345
S'Bay'
p8346
as(S'streets'
p8347
tp8348
(lp8349
S'get'
p8350
aS'famished'
p8351
aS'There'
p8352
as(S'Excuse'
p8353
tp8354
(lp8355
S'me'
p8356
as(S'going'
p8357
tp8358
(lp8359
S'downtown'
p8360
aS'Angelica'
p8361
aS'to'
p8362
aS'door'
p8363
as(S'free'
p8364
tp8365
(lp8366
S'advice'
p8367
aS'Oui'
p8368
aS'So'
p8369
aS'Eventually'
p8370
aS'Until'
p8371
aS'until'
p8372
aS'And'
p8373
as(S'More'
p8374
tp8375
(lp8376
S'in'
p8377
as(S'shoot'
p8378
tp8379
(lp8380
S'off'
p8381
aS'back'
p8382
aS'Then'
p8383
as(S'day'
p8384
tp8385
(lp8386
S'while'
p8387
aS'Sir'
p8388
aS'No'
p8389
aS'We'
p8390
aS'Philip'
p8391
as(S'degree'
p8392
tp8393
(lp8394
S'heat'
p8395
as(S'Took'
p8396
tp8397
(lp8398
S'up'
p8399
as(S'doubled'
p8400
tp8401
(lp8402
S'the'
p8403
as(S'fight'
p8404
tp8405
(lp8406
g80
aS'for'
p8407
aS'instead'
p8408
aS'you\xe2'
p8409
aS'not'
p8410
aS'up'
p8411
aS'in'
p8412
aS'against'
p8413
aS'But'
p8414
aS'for'
p8415
aS'in'
p8416
aS'But'
p8417
aS'for'
p8418
as(S'I\xe2'
p8419
tp8420
(lp8421
g4445
ag4445
ag4445
ag4445
ag4445
ag4445
ag4445
ag4445
ag4445
ag4445
ag4445
ag4445
ag4445
ag4445
ag4445
ag4445
ag4445
aS'll'
p8422
ag1211
aS've'
p8423
ag4445
ag4445
ag4445
ag4445
ag4445
ag4445
ag4445
ag4445
ag4445
aS'll'
p8424
aS'll'
p8425
ag4445
ag4445
ag4445
ag4445
ag4445
ag1211
ag4445
ag4445
ag4445
ag4445
ag4445
aS'll'
p8426
aS've'
p8427
aS'll'
p8428
ag4445
aS'll'
p8429
ag4445
ag1211
ag4445
ag4445
ag4445
aS'll'
p8430
ag4445
ag4445
ag4445
ag4445
ag4445
ag4445
ag4445
ag1211
ag4445
ag4445
ag4445
ag4445
ag1211
ag4445
ag4445
ag4445
ag4445
ag4445
ag4445
aS'm\xe2'
p8431
ag4445
as(S'another'
p8432
tp8433
(lp8434
S'brew'
p8435
aS'ship'
p8436
aS'slip'
p8437
aS'day'
p8438
aS'thing'
p8439
aS'fight'
p8440
aS'soul'
p8441
aS'heartbreak'
p8442
as(S'sir'
p8443
tp8444
(lp8445
S'That'
p8446
aS'I\xe2'
p8447
ag80
aS'He'
p8448
aS'Who'
p8449
aS'We'
p8450
ag80
aS'On'
p8451
aS'do'
p8452
aS'You\xe2'
p8453
aS'I\xe2'
p8454
aS'Hang'
p8455
as(S'thousands'
p8456
tp8457
(lp8458
S'of'
p8459
as(S'imagine'
p8460
tp8461
(lp8462
S'death'
p8463
aS'death'
p8464
aS'death'
p8465
as(S'Oui'
p8466
tp8467
(lp8468
S'oui'
p8469
as(S'Someone'
p8470
tp8471
(lp8472
S'came'
p8473
as(S'douse'
p8474
tp8475
(lp8476
S'You'
p8477
as(S'disagreements'
p8478
tp8479
(lp8480
S'Hey'
p8481
as(S'week'
p8482
tp8483
(lp8484
g80
aS'our'
p8485
as(S'credit'
p8486
tp8487
(lp8488
g76
aS'and'
p8489
aS'competitive'
p8490
as(S'Get'
p8491
tp8492
(lp8493
S'your'
p8494
as(S'rowed'
p8495
tp8496
(lp8497
S'across'
p8498
as(S'classes'
p8499
tp8500
(lp8501
S'But'
p8502
as(S'mean'
p8503
tp8504
(lp8505
g80
aS'Hamilton'
p8506
aS'Hamilton'
p8507
aS'you'
p8508
as(S'situated'
p8509
tp8510
(lp8511
S'by'
p8512
as(S'spending'
p8513
tp8514
(lp8515
S'spree'
p8516
as(S'endorsement'
p8517
tp8518
(lp8519
S'might'
p8520
as(S'supplies'
p8521
tp8522
(lp8523
S'you'
p8524
as(S'father'
p8525
tp8526
(lp8527
S'Got'
p8528
aS'split'
p8529
aS'Washington'
p8530
aS'has'
p8531
aS'but'
p8532
aS'proud'
p8533
aS'though'
p8534
ag80
as(S'Drop'
p8535
tp8536
(lp8537
S'and'
p8538
as(S'success'
p8539
tp8540
(lp8541
S'is'
p8542
as(S'this'
p8543
tp8544
(lp8545
S'kid'
p8546
aS'spark'
p8547
aS'century'
p8548
aS'guy'
p8549
aS'moment'
p8550
aS'land'
p8551
aS'mass'
p8552
aS'obnoxious'
p8553
aS'is'
p8554
aS'place'
p8555
aS'to'
p8556
aS'is'
p8557
aS'plan'
p8558
ag80
aS'But'
p8559
aS'debate'
p8560
aS'vacuous'
p8561
aS'kid'
p8562
aS'situation'
p8563
aS'letter'
p8564
aS'against'
p8565
aS'show'
p8566
aS'subject'
p8567
aS'happening'
p8568
aS'is'
p8569
aS'Young'
p8570
aS'at'
p8571
aS'in'
p8572
aS'where'
p8573
aS'how'
p8574
aS'bullet'
p8575
aS'horse'
p8576
aS'war'
p8577
aS'to'
p8578
aS'right'
p8579
aS'Look'
p8580
as(S'fake'
p8581
tp8582
(lp8583
S'royalty'
p8584
as(S'A-L-E-X-A-N-D'
p8585
tp8586
(lp8587
S'E-R'
p8588
as(S'made'
p8589
tp8590
(lp8591
S'in'
p8592
ag76
as(S'bear'
p8593
tp8594
(lp8595
S'it'
p8596
aS'with'
p8597
as(S'parentis'
p8598
tp8599
(lp8600
S'I\xe2'
p8601
as(S'slaves'
p8602
tp8603
(lp8604
S'were'
p8605
as(S'hires'
p8606
tp8607
(lp8608
S'Hamilton'
p8609
as(S'Instead'
p8610
tp8611
(lp8612
S'of'
p8613
as(S'Moved'
p8614
tp8615
(lp8616
S'in'
p8617
as(S'corsets\xe2'
p8618
tp8619
(lp8620
S'No'
p8621
as(S"won't"
p8622
tp8623
(lp8624
S'know'
p8625
as(S'scatter'
p8626
tp8627
(lp8628
S'their'
p8629
as(S'looking'
p8630
tp8631
(lp8632
S'for'
p8633
as(S'bullet'
p8634
tp8635
(lp8636
S'in'
p8637
aS'is'
p8638
as(S'revolution\xe2'
p8639
tp8640
(lp8641
g516
as(S'Mount'
p8642
tp8643
(lp8644
S'Vernon'
p8645
as(S'slummin\xe2'
p8646
tp8647
(lp8648
S'it'
p8649
as(S'load'
p8650
tp8651
(lp8652
S'So'
p8653
aS'the'
p8654
as(S'top'
p8655
tp8656
(lp8657
S'Maaaaan'
p8658
as(S'lecture'
p8659
tp8660
(lp8661
S'me'
p8662
as(S'So'
p8663
tp8664
(lp8665
S'how\xe2'
p8666
aS'there'
p8667
aS'You'
p8668
aS'so'
p8669
aS'this'
p8670
aS'I\xe2'
p8671
aS'what'
p8672
aS'quick'
p8673
aS'he\xe2'
p8674
aS'The'
p8675
aS'this'
p8676
aS'now'
p8677
as(S'An'
p8678
tp8679
(lp8680
S'immigrant'
p8681
aS'arrogant'
p8682
aS'immigrant'
p8683
as(S'knock'
p8684
tp8685
(lp8686
S'me'
p8687
as(S'forgot'
p8688
tp8689
(lp8690
S'him'
p8691
as(S'use'
p8692
tp8693
(lp8694
S'this'
p8695
aS'him'
p8696
as(S'ya'
p8697
tp8698
(lp8699
S'mother'
p8700
aS'daughters'
p8701
aS'face'
p8702
aS'hear'
p8703
aS'come'
p8704
as(S'Hudson'
p8705
tp8706
(lp8707
S'at'
p8708
as(S'bondage'
p8709
tp8710
(lp8711
S'have'
p8712
as(S'station'
p8713
tp8714
(lp8715
S'organize'
p8716
aS'Everything'
p8717
as(S'oppose'
p8718
tp8719
(lp8720
S'us'
p8721
as(S'assume'
p8722
tp8723
(lp8724
S'state\xe2'
p8725
aS'the'
p8726
as(S'kite'
p8727
tp8728
(lp8729
S'You'
p8730
as(S'haven\xe2'
p8731
tp8732
(lp8733
g248
ag248
as(S'dances'
p8734
tp8735
(lp8736
S'And'
p8737
as(S'aside'
p8738
tp8739
(lp8740
S'Maybe'
p8741
as(S'bed'
p8742
tp8743
(lp8744
S'at'
p8745
aS'Let'
p8746
aS'and'
p8747
ag80
as(S'questions'
p8748
tp8749
(lp8750
g76
as(S'business'
p8751
tp8752
(lp8753
S'end'
p8754
as(S'real'
p8755
tp8756
(lp8757
g76
aS'nice'
p8758
aS'nation'
p8759
as(S'hour'
p8760
tp8761
(lp8762
S'of'
p8763
as(S'engaged'
p8764
tp8765
(lp8766
S'in'
p8767
as(S'nothing'
p8768
tp8769
(lp8770
S'Burr'
p8771
aS'rich'
p8772
aS'of'
p8773
aS'without'
p8774
ag80
aS'to'
p8775
as(S'Jersey\xe2'
p8776
tp8777
(lp8778
S'Alright'
p8779
as(S'stay'
p8780
tp8781
(lp8782
S'at'
p8783
aS'in'
p8784
aS'mellow'
p8785
as(S'which'
p8786
tp8787
(lp8788
g80
aS'one'
p8789
aS'My'
p8790
aS'makes'
p8791
as(S'Makes'
p8792
tp8793
(lp8794
S'him'
p8795
as(S'were'
p8796
tp8797
(lp8798
S'being'
p8799
aS'Sir'
p8800
aS'still'
p8801
aS'off'
p8802
aS'on'
p8803
aS'needy'
p8804
aS'quite'
p8805
aS'all'
p8806
aS'to'
p8807
as(S'check'
p8808
tp8809
(lp8810
S'what'
p8811
aS'the'
p8812
aS'stubs'
p8813
aS'in'
p8814
as(S'full'
p8815
tp8816
(lp8817
S'of'
p8818
aS'of'
p8819
as(S'stops'
p8820
tp8821
(lp8822
S'I\xe2'
p8823
as(S'previous'
p8824
tp8825
(lp8826
S'government'
p8827
as(S'rigor'
p8828
tp8829
(lp8830
g80
as(S'advantages'
p8831
tp8832
(lp8833
S'Let\xe2'
p8834
as(S'students'
p8835
tp8836
(lp8837
S'in'
p8838
as(S'Lining'
p8839
tp8840
(lp8841
S'up'
p8842
as(S'charge'
p8843
tp8844
(lp8845
S'of'
p8846
as(S'Lancelot'
p8847
tp8848
(lp8849
S'of'
p8850
ag80
as(S'kiss'
p8851
tp8852
(lp8853
S'it'
p8854
as(S'Hamilton\xe2'
p8855
tp8856
(lp8857
g516
ag516
as(S'volunteer'
p8858
tp8859
(lp8860
S'army'
p8861
as(S'distracted'
p8862
tp8863
(lp8864
S'him'
p8865
as(S'three'
p8866
tp8867
(lp8868
S'uh'
p8869
aS'minutes'
p8870
aS'four'
p8871
as(S'royalty'
p8872
tp8873
(lp8874
S'Desperate'
p8875
as(S'reality'
p8876
tp8877
(lp8878
S'Hamilton'
p8879
as(S'stress'
p8880
tp8881
(lp8882
S'we\xe2'
p8883
as(S'agreement'
p8884
tp8885
(lp8886
S'it\xe2'
p8887
as(S'reputation'
p8888
tp8889
(lp8890
S'precedes'
p8891
aS'Welcome'
p8892
as(S'soldiers'
p8893
tp8894
(lp8895
S'die'
p8896
aS'that'
p8897
as(S'health'
p8898
tp8899
(lp8900
S'And'
p8901
as(S'decorated'
p8902
tp8903
(lp8904
S'war'
p8905
as(S'mutiny'
p8906
tp8907
(lp8908
S'Are'
p8909
as(S'oui'
p8910
tp8911
(lp8912
S'mon'
p8913
as(S'embezzling'
p8914
tp8915
(lp8916
S'our'
p8917
as(S'Screamed'
p8918
tp8919
(lp8920
g564
as(S'wits'
p8921
tp8922
(lp8923
S'With'
p8924
as(S'keep'
p8925
tp8926
(lp8927
S'out'
p8928
aS'leading'
p8929
aS'retreating'
p8930
aS'firing'
p8931
aS'meeting'
p8932
aS'the'
p8933
aS'ranting'
p8934
aS'me'
p8935
as(S'pride'
p8936
tp8937
(lp8938
S'something'
p8939
aS'will'
p8940
ag80
aS'You'
p8941
as(S'courted'
p8942
tp8943
(lp8944
S'me'
p8945
as(S'Reynolds'
p8946
tp8947
(lp8948
S'walked'
p8949
aS'way'
p8950
aS'extorted'
p8951
as(S'We'
p8952
tp8953
(lp8954
S'have'
p8955
aS'roll'
p8956
aS'need'
p8957
aS'put'
p8958
aS'gotta'
p8959
aS'just'
p8960
aS'gotta'
p8961
aS'ride'
p8962
aS'keep'
p8963
aS'are'
p8964
aS'write'
p8965
aS'cut'
p8966
aS'pick'
p8967
aS'gotta'
p8968
aS'move'
p8969
aS'cannot'
p8970
aS'will'
p8971
aS'had'
p8972
aS'in'
p8973
aS'negotiate'
p8974
aS'escort'
p8975
aS'fought'
p8976
aS'create'
p8977
aS'plant'
p8978
aS'create'
p8979
aS'know'
p8980
aS'almost'
p8981
aS'made'
p8982
aS'signed'
p8983
aS'need'
p8984
aS'signed'
p8985
aS'never'
p8986
aS'smack'
p8987
aS'have'
p8988
aS'have'
p8989
aS'rowed'
p8990
aS'rendezvous'
p8991
aS'can'
p8992
aS'both'
p8993
as(S'started'
p8994
tp8995
(lp8996
S'retreatin\xe2'
p8997
aS'fidgeting'
p8998
aS'sayin\xe2'
p8999
aS'at'
p9000
as(S'skip'
p9001
tp9002
(lp9003
S'the'
p9004
as(S'change'
p9005
tp9006
(lp9007
S'course'
p9008
as(S'feral'
p9009
tp9010
(lp9011
S'tomcat'
p9012
as(S'would'
p9013
tp9014
(lp9015
S'have'
p9016
aS'be'
p9017
aS'put'
p9018
aS'say'
p9019
aS'have'
p9020
aS'listen'
p9021
aS'work'
p9022
aS'have'
p9023
aS'let'
p9024
aS'have'
p9025
aS'need'
p9026
as(S'flood'
p9027
tp9028
(lp9029
S'the'
p9030
as(S'spread'
p9031
tp9032
(lp9033
S'and'
p9034
as(S'so'
p9035
tp9036
(lp9037
S'fast'
p9038
aS'let'
p9039
aS'much'
p9040
aS'we'
p9041
aS'many'
p9042
aS'so'
p9043
aS'So'
p9044
aS'I\xe2'
p9045
aS'despondent'
p9046
aS'sing'
p9047
aS'much'
p9048
aS'the'
p9049
aS'fast'
p9050
aS'helpless'
p9051
ag80
aS'we'
p9052
aS'it'
p9053
aS'elitist'
p9054
aS'he'
p9055
aS'much'
p9056
aS'he'
p9057
aS'the'
p9058
aS'we\xe2'
p9059
as(S'an'
p9060
tp9061
(lp9062
S'accelerated'
p9063
aS'orphan'
p9064
aS'orphan'
p9065
aS'honest'
p9066
aS'endless'
p9067
aS'act'
p9068
aS'outrageous'
p9069
aS'ounce'
p9070
aS'end'
p9071
aS'itemized'
p9072
aS'orphan'
p9073
as(S'plant'
p9074
tp9075
(lp9076
S'seeds'
p9077
aS'seeds'
p9078
as(S'him'
p9079
tp9080
(lp9081
S'in'
p9082
aS'to'
p9083
aS'with'
p9084
aS'now'
p9085
aS'Another'
p9086
aS'1776'
p9087
aS'It\xe2'
p9088
aS'Martha'
p9089
aS'1780'
p9090
aS'far'
p9091
aS'any'
p9092
aS'to'
p9093
aS'she\xe2'
p9094
aS'second-in-command'
p9095
aS'Pissed'
p9096
aS'off'
p9097
aS'yet'
p9098
aS'to'
p9099
aS'I\xe2'
p9100
aS'someone'
p9101
aS"grabbin'"
p9102
aS'the'
p9103
aS'creole'
p9104
aS'quarterly'
p9105
aS'say'
p9106
aS'just'
p9107
ag76
aS'He'
p9108
aS'Well'
p9109
aS'or'
p9110
aS'in'
p9111
aS'in'
p9112
aS'with'
p9113
aS'turn'
p9114
aS'eventually'
p9115
as(S'Battery'
p9116
tp9117
(lp9118
S'check'
p9119
as(S'defeatist'
p9120
tp9121
(lp9122
S'And'
p9123
as(S'high'
p9124
tp9125
(lp9126
S'with'
p9127
aS'and'
p9128
as(S'Maaaaan'
p9129
tp9130
(lp9131
S'the'
p9132
as(S'peace\xe2'
p9133
tp9134
(lp9135
S'Or'
p9136
as(S'giddyup'
p9137
tp9138
(lp9139
g80
as(S'She'
p9140
tp9141
(lp9142
S'would'
p9143
aS'turned'
p9144
aS'courted'
p9145
as(S'dry'
p9146
tp9147
(lp9148
S'Leave'
p9149
as(S'laugh'
p9150
tp9151
(lp9152
S'reach'
p9153
aS'Hamilton'
p9154
aS'Who'
p9155
as(S'kept'
p9156
tp9157
(lp9158
S'his'
p9159
ag76
as(S'anyone'
p9160
tp9161
(lp9162
S'bargained'
p9163
aS'as'
p9164
as(S'after'
p9165
tp9166
(lp9167
S'him'
p9168
aS'me'
p9169
aS'my'
p9170
aS'we'
p9171
as(S'conversation'
p9172
tp9173
(lp9174
S'lasted'
p9175
as(S'grabs'
p9176
tp9177
(lp9178
S'so'
p9179
as(S'black'
p9180
tp9181
(lp9182
S'battalion'
p9183
as(S'Brrrah'
p9184
tp9185
(lp9186
S'brraaah'
p9187
as(S'sally'
p9188
tp9189
(lp9190
S'in'
p9191
as(S'lose'
p9192
tp9193
(lp9194
S'it'
p9195
aS'that\xe2'
p9196
as(S'How'
p9197
tp9198
(lp9199
S'does'
p9200
aS'you'
p9201
aS'can'
p9202
aS'does'
p9203
aS'you'
p9204
aS'did'
p9205
aS'does'
p9206
aS'do'
p9207
aS'could'
p9208
aS'does'
p9209
aS'do'
p9210
ag564
aS'was'
p9211
aS'does'
p9212
aS'does'
p9213
aS'do'
p9214
aS'to'
p9215
as(S'men'
p9216
tp9217
(lp9218
S'are'
p9219
aS'with'
p9220
aS'who'
p9221
aS'See'
p9222
aS'with'
p9223
aS'out'
p9224
aS'quote'
p9225
aS'The'
p9226
aS'died'
p9227
as(S'anybody'
p9228
tp9229
(lp9230
S'why'
p9231
aS'who'
p9232
as(S'quick'
p9233
tp9234
(lp9235
S'we'
p9236
aS'witted'
p9237
as(S'gets'
p9238
tp9239
(lp9240
S'me'
p9241
ag752
ag76
aS'me'
p9242
as(S'decide'
p9243
tp9244
(lp9245
S'to'
p9246
as(S'cock'
p9247
tp9248
(lp9249
S'it'
p9250
as(S'facing'
p9251
tp9252
(lp9253
S'mad'
p9254
aS'Aaron'
p9255
ag76
as(S'enough'
p9256
tp9257
(lp9258
S'Hamilton'
p9259
aS'position'
p9260
as(S'je'
p9261
tp9262
(lp9263
S'm\xe2'
p9264
as(S'flame'
p9265
tp9266
(lp9267
S'But'
p9268
as(S'astonish'
p9269
tp9270
(lp9271
S'The'
p9272
aS'The'
p9273
as(S'trying'
p9274
tp9275
(lp9276
S'to'
p9277
as(S'eyes'
p9278
tp9279
(lp9280
S'see'
p9281
as(S'dollars'
p9282
tp9283
(lp9284
S'paid'
p9285
as(S'feet'
p9286
tp9287
(lp9288
S'ahead'
p9289
aS'The'
p9290
aS'sev\xe2'
p9291
aS'ahead'
p9292
as(S'Who'
p9293
tp9294
(lp9295
S'you'
p9296
aS'you'
p9297
aS'are'
p9298
aS'can'
p9299
aS'are'
p9300
aS'has'
p9301
aS'did'
p9302
aS'is'
p9303
as(S'methodically'
p9304
tp9305
(lp9306
S'fiddled'
p9307
as(S'sight'
p9308
tp9309
(lp9310
S'But'
p9311
as(S'wise'
p9312
tp9313
(lp9314
S'words'
p9315
as(S'ninety-one'
p9316
tp9317
(lp9318
S'Is'
p9319
as(S'exactly'
p9320
tp9321
(lp9322
S'cover'
p9323
as(S'midnight'
p9324
tp9325
(lp9326
S'Manhattan'
p9327
as(S'ounce'
p9328
tp9329
(lp9330
S'of'
p9331
as(S'ruffians'
p9332
tp9333
(lp9334
S'We'
p9335
as(S'teach'
p9336
tp9337
(lp9338
S'you'
p9339
as(S'can'
p9340
tp9341
(lp9342
S'get'
p9343
aS'be'
p9344
aS'spot'
p9345
aS'give'
p9346
aS'rise'
p9347
ag80
aS'get'
p9348
aS'get'
p9349
aS'marry'
p9350
aS'do'
p9351
aS'at'
p9352
aS'almost'
p9353
aS'prove'
p9354
aS'see'
p9355
aS'see'
p9356
aS'set'
p9357
aS'hav'
p9358
aS'end'
p9359
aS'turn'
p9360
aS'set'
p9361
as(S'Louis\xe2'
p9362
tp9363
(lp9364
g516
as(S'slaver'
p9365
tp9366
(lp9367
S'Hey'
p9368
as(S'diamond'
p9369
tp9370
(lp9371
S'in'
p9372
as(S'decides'
p9373
tp9374
(lp9375
S'to'
p9376
as(S'enemies'
p9377
tp9378
(lp9379
S'destroyed'
p9380
as(S'seeking'
p9381
tp9382
(lp9383
S'an'
p9384
as(S'looks'
p9385
tp9386
(lp9387
S'so'
p9388
as(S'conscience'
p9389
tp9390
(lp9391
S'Come'
p9392
as(S'These'
p9393
tp9394
(lp9395
S'New'
p9396
aS'are'
p9397
as(S'story'
p9398
tp9399
(lp9400
g80
as(S'Why'
p9401
tp9402
(lp9403
S'should'
p9404
aS'If'
p9405
as(S'looked'
p9406
tp9407
(lp9408
S'at'
p9409
aS'askance'
p9410
as(S'slide'
p9411
tp9412
(lp9413
S'I\xe2'
p9414
aS'and'
p9415
aS'Mister'
p9416
as(S'hadn\xe2'
p9417
tp9418
(lp9419
g248
as(S'pistols'
p9420
tp9421
(lp9422
S'and'
p9423
as(S'fiddled'
p9424
tp9425
(lp9426
S'with'
p9427
as(S'saw'
p9428
tp9429
(lp9430
S'his'
p9431
ag80
aS'No'
p9432
aS'him'
p9433
as(S'we'
p9434
tp9435
(lp9436
S'could'
p9437
aS'land'
p9438
aS'are'
p9439
aS'got'
p9440
aS'livin\xe2'
p9441
aS'laugh'
p9442
aS'take'
p9443
aS'win'
p9444
aS'shed'
p9445
ag76
aS'can'
p9446
aS"can't"
p9447
aS'were'
p9448
aS'need'
p9449
aS'rise'
p9450
aS'have'
p9451
aS'said'
p9452
aS'have'
p9453
aS'steal'
p9454
aS'snatch'
p9455
aS'get'
p9456
aS'win'
p9457
aS'meet'
p9458
aS'move'
p9459
aS'have'
p9460
aS'end'
p9461
aS'finally'
p9462
aS'know'
p9463
aS'had'
p9464
aS'shouldn\xe2'
p9465
aS'got'
p9466
aS'plant'
p9467
aS'never'
p9468
aS'got'
p9469
aS'assume'
p9470
aS'were'
p9471
aS'were'
p9472
aS'honor'
p9473
aS'not'
p9474
aS'try'
p9475
aS'draw'
p9476
aS'don\xe2'
p9477
aS'can'
p9478
aS'were'
p9479
aS'don\xe2'
p9480
aS'aid'
p9481
aS'know'
p9482
aS'go'
p9483
aS'both'
p9484
aS'know'
p9485
aS'all'
p9486
aS'had'
p9487
aS'count'
p9488
aS'emerge'
p9489
aS'have'
p9490
aS'need'
p9491
aS'can'
p9492
aS'manage'
p9493
aS'agree'
p9494
aS'started'
p9495
as(S'commence'
p9496
tp9497
(lp9498
S'after'
p9499
as(S'Say'
p9500
tp9501
(lp9502
S'no'
p9503
aS'no'
p9504
as(S'gifts'
p9505
tp9506
(lp9507
S'We'
p9508
as(S'Not'
p9509
tp9510
(lp9511
S'only'
p9512
aS'so'
p9513
as(S'sugar'
p9514
tp9515
(lp9516
S'cane'
p9517
as(S'shouldn\xe2'
p9518
tp9519
(lp9520
g248
ag248
ag248
as(S'deflower'
p9521
tp9522
(lp9523
S'Looks'
p9524
as(S'fee'
p9525
tp9526
(lp9527
g80
as(S'dresses'
p9528
tp9529
(lp9530
S'like'
p9531
aS'like'
p9532
as(S'Hercules'
p9533
tp9534
(lp9535
S'Mulligan'
p9536
aS'Mulligan'
p9537
as(S'my\xe2'
p9538
tp9539
(lp9540
S'Hamilton'
p9541
as(S'ambassador'
p9542
tp9543
(lp9544
S'to'
p9545
as(S'paces'
p9546
tp9547
(lp9548
S'Fire'
p9549
as(S'Schuyler\xe2'
p9550
tp9551
(lp9552
g516
as(S'visit'
p9553
tp9554
(lp9555
S'his'
p9556
as(S'separate'
p9557
tp9558
(lp9559
S'accounts\xe2'
p9560
as(S'shocked'
p9561
tp9562
(lp9563
S'when'
p9564
as(S'dogs'
p9565
tp9566
(lp9567
S'after'
p9568
as(S'Onarchy'
p9569
tp9570
(lp9571
S'How'
p9572
as(S'bells'
p9573
tp9574
(lp9575
S'ringing'
p9576
as(S'how\xe2'
p9577
tp9578
(lp9579
g1211
as(S'There'
p9580
tp9581
(lp9582
S'would'
p9583
aS'are'
p9584
aS'are'
p9585
aS'are'
p9586
aS'is'
p9587
as(S'goeth'
p9588
tp9589
(lp9590
S'before'
p9591
as(S'As'
p9592
tp9593
(lp9594
g76
aS'you'
p9595
ag80
aS'we'
p9596
aS'they'
p9597
aS'Wall'
p9598
aS'you'
p9599
aS'you'
p9600
as(S'asking'
p9601
tp9602
(lp9603
S'Oh'
p9604
aS'for'
p9605
aS'me'
p9606
aS'to'
p9607
as(S'Graduate'
p9608
tp9609
(lp9610
S'in'
p9611
as(S'dawn'
p9612
tp9613
(lp9614
S'My'
p9615
as(S'Shh'
p9616
tp9617
(lp9618
S'I\xe2'
p9619
as(S'Washington\xe2'
p9620
tp9621
(lp9622
g516
as(S'stubs'
p9623
tp9624
(lp9625
S'From'
p9626
as(S'shit'
p9627
tp9628
(lp9629
S'spray'
p9630
aS'now'
p9631
aS'he'
p9632
as(S'Is'
p9633
tp9634
(lp9635
S'it'
p9636
aS'that'
p9637
aS'it'
p9638
aS'turn'
p9639
aS'that'
p9640
aS'that'
p9641
aS'there'
p9642
aS'this'
p9643
as(S'State'
p9644
tp9645
(lp9646
S'He'
p9647
as(S'Rochambeau'
p9648
tp9649
(lp9650
S'dig'
p9651
aS'consolidate'
p9652
as(S'aid'
p9653
tp9654
(lp9655
g80
aS'and'
p9656
as(S'Stand'
p9657
tp9658
(lp9659
S'with'
p9660
aS'with'
p9661
aS'there'
p9662
as(S'me'
p9663
tp9664
(lp9665
S'Are'
p9666
aS'like'
p9667
aS'offer'
p9668
aS'Cuz'
p9669
aS'another'
p9670
aS'spell'
p9671
aS'He'
p9672
ag80
aS'You'
p9673
ag76
aS'where'
p9674
aS'In'
p9675
aS'If'
p9676
aS'up'
p9677
aS'Hamilton'
p9678
aS'wrong'
p9679
aS'cuz'
p9680
aS'with'
p9681
aS'out'
p9682
aS'He'
p9683
aS'on'
p9684
aS'If'
p9685
aS'at'
p9686
aS'Weapon'
p9687
aS'Then'
p9688
aS'Not'
p9689
aS'You'
p9690
aS'down'
p9691
aS'in'
p9692
aS'about'
p9693
aS'to'
p9694
aS'how'
p9695
aS'on'
p9696
aS'They'
p9697
aS'Oh'
p9698
aS'some'
p9699
aS'to'
p9700
aS'down'
p9701
aS'Escorted'
p9702
aS'to'
p9703
aS'in'
p9704
aS'For'
p9705
aS'The'
p9706
aS'You'
p9707
aS'proud'
p9708
aS'who'
p9709
aS'from'
p9710
aS'the'
p9711
aS'on'
p9712
ag80
aS'What'
p9713
aS'America'
p9714
aS'You'
p9715
aS'make'
p9716
aS'engagin\xe2'
p9717
aS'Are'
p9718
as(S'He\xe2'
p9719
tp9720
(lp9721
g516
ag516
ag516
ag1211
ag516
ag516
aS'll'
p9722
ag516
ag516
ag516
ag516
as(S'runnin\xe2'
p9723
tp9724
(lp9725
S'with'
p9726
as(S'chances'
p9727
tp9728
(lp9729
S'He\xe2'
p9730
as(S'Those'
p9731
tp9732
(lp9733
S'redcoats'
p9734
as(S'raise'
p9735
tp9736
(lp9737
g76
as(S'note'
p9738
tp9739
(lp9740
S'for'
p9741
as(S'They\xe2'
p9742
tp9743
(lp9744
S're'
p9745
aS'll'
p9746
as(S'wisdom'
p9747
tp9748
(lp9749
S'like'
p9750
as(S'she'
p9751
tp9752
(lp9753
S'is'
p9754
aS'said'
p9755
aS'led'
p9756
aS'looks'
p9757
aS'had'
p9758
as(S'waves'
p9759
tp9760
(lp9761
S'he'
p9762
as(S'lot'
p9763
tp9764
(lp9765
S'farther'
p9766
aS'harder'
p9767
aS'smarter'
p9768
aS'of'
p9769
aS'Let\xe2'
p9770
as(S'tomorrow'
p9771
tp9772
(lp9773
S'There\xe2'
p9774
as(S'figure'
p9775
tp9776
(lp9777
S'out'
p9778
as(S'chance'
p9779
tp9780
(lp9781
S'To'
p9782
ag80
aS'We\xe2'
p9783
ag564
aS'Uh'
p9784
aS'to'
p9785
aS'to'
p9786
as(S'Dear'
p9787
tp9788
(lp9789
S'Sir'
p9790
as(S'been'
p9791
tp9792
(lp9793
S'nothin\xe2'
p9794
aS'dead'
p9795
aS'looking'
p9796
aS'readin\xe2'
p9797
aS'kickin\xe2'
p9798
aS'practicing'
p9799
aS'shy'
p9800
aS'Pray'
p9801
as(S'five'
p9802
tp9803
(lp9804
S'six'
p9805
as(S'Boom'
p9806
tp9807
(lp9808
S'goes'
p9809
aS'goes'
p9810
as(S'silently'
p9811
tp9812
(lp9813
S'resigned'
p9814
as(S'laughin\xe2'
p9815
tp9816
(lp9817
S'in'
p9818
as(S'delighted'
p9819
tp9820
(lp9821
S'and'
p9822
as(S'dripping'
p9823
tp9824
(lp9825
S'down'
p9826
as(S'rough'
p9827
tp9828
(lp9829
g76
as(S'begin'
p9830
tp9831
(lp9832
S'an'
p9833
as(S'inside'
p9834
tp9835
(lp9836
g752
aS'Some'
p9837
aS'That\xe2'
p9838
aS'the'
p9839
as(S'lines'
p9840
tp9841
(lp9842
S'we'
p9843
as(S'that\xe2'
p9844
tp9845
(lp9846
g516
ag516
ag516
ag516
ag516
ag516
ag516
ag516
ag516
as(S'dumb'
p9847
tp9848
(lp9849
S'and'
p9850
as(S'independence'
p9851
tp9852
(lp9853
S'Is'
p9854
as(S'rob'
p9855
tp9856
(lp9857
g564
as(S'who'
p9858
tp9859
(lp9860
S'run'
p9861
aS'is'
p9862
aS'might'
p9863
aS'would'
p9864
aS'that'
p9865
aS'you'
p9866
aS'provided'
p9867
aS'you'
p9868
aS'I\xe2'
p9869
as(S'lost'
p9870
tp9871
(lp9872
S'the'
p9873
as(S'adored'
p9874
tp9875
(lp9876
S'by'
p9877
as(S'army'
p9878
tp9879
(lp9880
S'in'
p9881
as(S'Alright'
p9882
tp9883
(lp9884
S'So'
p9885
as(S'pop'
p9886
tp9887
(lp9888
S'chick-a'
p9889
aS'these'
p9890
as(S'seen'
p9891
tp9892
(lp9893
S'the'
p9894
ag76
as(S'Blow'
p9895
tp9896
(lp9897
S'us'
p9898
aS'us'
p9899
as(S'began'
p9900
tp9901
(lp9902
S'to'
p9903
aS'to'
p9904
as(S'worse'
p9905
tp9906
(lp9907
S'shape'
p9908
as(S'dirt'
p9909
tp9910
(lp9911
S'on'
p9912
as(S'Yeah'
p9913
tp9914
(lp9915
S'He\xe2'
p9916
aS'keep'
p9917
aS'well'
p9918
ag80
aS'he\xe2'
p9919
as(S'awake'
p9920
tp9921
(lp9922
S'You'
p9923
as(S'renown'
p9924
tp9925
(lp9926
g80
as(S'excited'
p9927
tp9928
(lp9929
S'shoot'
p9930
as(S'try'
p9931
tp9932
(lp9933
S'to'
p9934
aS'to'
p9935
as(S'heartbreak'
p9936
tp9937
(lp9938
S'Father\xe2'
p9939
as(S'There\xe2'
p9940
tp9941
(lp9942
g516
ag516
as(S'City'
p9943
tp9944
(lp9945
S'Pardon'
p9946
aS'streets'
p9947
aS'is'
p9948
as(S'confusin\xe2'
p9949
tp9950
(lp9951
S'confoundin\xe2'
p9952
as(S'life'
p9953
tp9954
(lp9955
S'if'
p9956
aS'without'
p9957
aS'she'
p9958
aS'that'
p9959
aS'We'
p9960
as(S'why'
p9961
tp9962
(lp9963
S'we'
p9964
ag80
aS'that'
p9965
as(S'satisfaction'
p9966
tp9967
(lp9968
S'witnessing'
p9969
aS'My'
p9970
aS'If'
p9971
as(S'body\xe2'
p9972
tp9973
(lp9974
g516
as(S'Whee'
p9975
tp9976
(lp9977
S'Yeah'
p9978
as(S'as'
p9979
tp9980
(lp9981
S'he'
p9982
aS'you'
p9983
aS'many'
p9984
aS'the'
p9985
aS'the'
p9986
aS'trusting'
p9987
aS'kind'
p9988
aS'one'
p9989
aS'our'
p9990
aS'the'
p9991
aS'to'
p9992
ag76
aS'two'
p9993
aS'my'
p9994
ag76
aS'my\xe2'
p9995
aS'he'
p9996
as(S'there\xe2'
p9997
tp9998
(lp9999
g516
ag516
ag516
as(S'cease'
p10000
tp10001
(lp10002
S'Where'
p10003
as(S'spies'
p10004
tp10005
(lp10006
S'on'
p10007
as(S'blood'
p10008
tp10009
(lp10010
S'we'
p10011
aS'and'
p10012
aS'on'
p10013
as(S'fall'
p10014
tp10015
(lp10016
S'for'
p10017
aS'When'
p10018
as(S'hope'
p10019
tp10020
(lp10021
S'of'
p10022
aS'you'
p10023
aS'this'
p10024
as(S'is'
p10025
tp10026
(lp10027
S'insane'
p10028
aS'in'
p10029
aS'it'
p10030
aS'this'
p10031
ag80
aS'older'
p10032
aS'to'
p10033
aS'fraught'
p10034
aS'Oh'
p10035
aS'not'
p10036
aS'excitin\xe2'
p10037
aS'loaded'
p10038
aS'in'
p10039
aS'in'
p10040
aS'fleeting'
p10041
aS'easy'
p10042
aS'harder'
p10043
aS'undeniable'
p10044
aS'what'
p10045
aS'the'
p10046
aS'I\xe2'
p10047
aS'to'
p10048
aS'insidious'
p10049
aS'penniless'
p10050
aS'why'
p10051
aS'where'
p10052
aS'the'
p10053
aS'Rochambeau'
p10054
aS'in'
p10055
aS'there'
p10056
aS'an'
p10057
aS'you'
p10058
aS'in'
p10059
aS'messy'
p10060
aS'the'
p10061
aS'here'
p10062
aS'not'
p10063
aS'going'
p10064
aS'Queen'
p10065
aS'now'
p10066
aS'right'
p10067
aS'nine'
p10068
aS'asking'
p10069
aS'the'
p10070
aS'OUT'
p10071
aS'not'
p10072
aS'done'
p10073
aS'older'
p10074
aS'unless'
p10075
aS'my'
p10076
aS'this'
p10077
aS'legal'
p10078
aS'what'
p10079
aS'in'
p10080
aS'something'
p10081
aS'Philip'
p10082
aS'missing'
p10083
aS'Thomas'
p10084
aS'it'
p10085
aS'facing'
p10086
aS'done\xe2'
p10087
ag76
aS'no'
p10088
aS'this'
p10089
aS'my'
p10090
ag76
aS'on'
p10091
aS'watching'
p10092
aS'commonplace'
p10093
aS'someone'
p10094
aS'in'
p10095
aS'Non-stop'
p10096
aS'the'
p10097
as(S'win'
p10098
tp10099
(lp10100
S'our'
p10101
ag80
as(S'Permission'
p10102
tp10103
(lp10104
S'to'
p10105
as(S'captain'
p10106
tp10107
(lp10108
S'under'
p10109
as(S'not'
p10110
tp10111
(lp10112
S'stupid'
p10113
aS'throwing'
p10114
aS'throwing'
p10115
aS'throwing'
p10116
ag752
ag76
aS'write'
p10117
aS'the'
p10118
aS'get'
p10119
aS'have'
p10120
aS'Secretary'
p10121
aS'fight'
p10122
aS'to'
p10123
ag76
aS'to'
p10124
aS'committed'
p10125
aS'where'
p10126
aS'your'
p10127
aS'about'
p10128
aS'very'
p10129
aS'the'
p10130
aS'equivocate'
p10131
aS'been'
p10132
aS'to'
p10133
aS'make'
p10134
as(S'dead'
p10135
tp10136
(lp10137
S'or'
p10138
aS'Yo'
p10139
ag564
as(S'spark'
p10140
tp10141
(lp10142
S'into'
p10143
as(S'What\xe2'
p10144
tp10145
(lp10146
g516
ag516
ag516
ag516
as(S'education'
p10147
tp10148
(lp10149
S'don\xe2'
p10150
as(S'with'
p10151
tp10152
(lp10153
g76
aS'nothin\xe2'
p10154
ag76
aS'me'
p10155
aS'that'
p10156
aS'the'
p10157
aS'you'
p10158
aS'Something'
p10159
aS'no'
p10160
aS'the'
p10161
aS'the'
p10162
aS'which'
p10163
ag76
ag76
aS'the'
p10164
ag76
aS'Hamilton'
p10165
ag76
aS'He'
p10166
aS'you'
p10167
aS'me'
p10168
aS'me'
p10169
aS'the'
p10170
aS'me'
p10171
aS'the'
p10172
aS'the'
p10173
aS'them'
p10174
aS'our'
p10175
ag76
aS'much'
p10176
aS'pride'
p10177
aS'pride'
p10178
aS'your'
p10179
aS'his'
p10180
aS'France'
p10181
aS'him'
p10182
aS'him'
p10183
aS'Jefferson'
p10184
aS'his'
p10185
ag76
aS'such'
p10186
aS'the'
p10187
aS'my'
p10188
aS'civility'
p10189
aS'bloodstains'
p10190
aS'more'
p10191
aS'Rochambeau'
p10192
aS'me'
p10193
as(S'mother'
p10194
tp10195
(lp10196
S'bed-ridden'
p10197
aS'said'
p10198
aS'can\xe2'
p10199
aS'on'
p10200
as(S'citizens'
p10201
tp10202
(lp10203
S'our'
p10204
as(S'get'
p10205
tp10206
(lp10207
S'his'
p10208
aS'ahead'
p10209
ag76
aS'colder'
p10210
aS'shot'
p10211
aS'over'
p10212
aS'this'
p10213
aS'me'
p10214
aS'half'
p10215
aS'you'
p10216
aS'me'
p10217
ag80
aS'the'
p10218
aS'the'
p10219
aS'the'
p10220
aS'it'
p10221
aS'no'
p10222
aS'back'
p10223
aS'to'
p10224
aS'some'
p10225
aS'your'
p10226
aS'this'
p10227
as(S'examine'
p10228
tp10229
(lp10230
S'the'
p10231
as(S'face'
p10232
tp10233
(lp10234
S'of'
p10235
aS'when'
p10236
aS'of'
p10237
aS'and'
p10238
aS'Burr'
p10239
ag80
aS'to'
p10240
aS'Negotiate'
p10241
aS'your'
p10242
as(S'immature'
p10243
tp10244
(lp10245
S'But'
p10246
as(S'fought'
p10247
tp10248
(lp10249
S'for'
p10250
aS'against'
p10251
aS'on'
p10252
as(S'witted'
p10253
tp10254
(lp10255
S'Alas'
p10256
as(S'redcoats'
p10257
tp10258
(lp10259
S'don\xe2'
p10260
as(S'thick'
p10261
tp10262
(lp10263
S'Moved'
p10264
as(S'meant'
p10265
tp10266
(lp10267
S'to'
p10268
as(S'waitin\xe2'
p10269
tp10270
(lp10271
S'I\xe2'
p10272
as(S'victorious'
p10273
tp10274
(lp10275
S'from'
p10276
as(S'considered'
p10277
tp10278
(lp10279
S'you'
p10280
as(S'door'
p10281
tp10282
(lp10283
S'on'
p10284
aS'When'
p10285
aS'to'
p10286
aS'You\xe2'
p10287
as(S'Check'
p10288
tp10289
(lp10290
S'it'
p10291
as(S'bench'
p10292
tp10293
(lp10294
g80
as(S'seat'
p10295
tp10296
(lp10297
S'of'
p10298
aS'of'
p10299
aS'was'
p10300
as(S'Come'
p10301
tp10302
(lp10303
S'again'
p10304
aS'back'
p10305
as(S'Thomas'
p10306
tp10307
(lp10308
S'Thomas'
p10309
ag564
aS'That'
p10310
aS'Jefferson'
p10311
aS'that\xe2'
p10312
aS'Jefferson'
p10313
as(S'cannon'
p10314
tp10315
(lp10316
S'watch'
p10317
aS"we're"
p10318
as(S'ration'
p10319
tp10320
(lp10321
S'to'
p10322
aS'As'
p10323
as(S'suggestions'
p10324
tp10325
(lp10326
S'on'
p10327
as(S'fuzz'
p10328
tp10329
(lp10330
S'and'
p10331
as(S'curious'
p10332
tp10333
(lp10334
S'bear'
p10335
as(S'Quebec'
p10336
tp10337
(lp10338
S'And'
p10339
as(S'he\xe2'
p10340
tp10341
(lp10342
g516
ag516
aS'll'
p10343
ag1211
ag516
ag516
ag516
ag516
ag516
ag516
as(S'then'
p10344
tp10345
(lp10346
S'join'
p10347
ag80
as(S'enterprising'
p10348
tp10349
(lp10350
S'men'
p10351
as(S'any'
p10352
tp10353
(lp10354
S'less'
p10355
aS'man'
p10356
aS'particular'
p10357
as(S'reins'
p10358
tp10359
(lp10360
S'makin\xe2'
p10361
as(S'seein\xe2'
p10362
tp10363
(lp10364
S'the'
p10365
as(S'terrible'
p10366
tp10367
(lp10368
S'shot'
p10369
as(S'broke'
p10370
tp10371
(lp10372
S'the'
p10373
as(S'Life'
p10374
tp10375
(lp10376
S'liberty'
p10377
as(S"can't"
p10378
tp10379
(lp10380
S'afford'
p10381
as(S'from'
p10382
tp10383
(lp10384
S'whence'
p10385
aS'the'
p10386
aS'afar'
p10387
aS'some'
p10388
aS'this'
p10389
aS'the'
p10390
aS'crisis'
p10391
ag76
aS'inside'
p10392
aS'your'
p10393
aS'Ha'
p10394
aS'you'
p10395
aS'winning'
p10396
aS'the'
p10397
aS'the'
p10398
as(S'Maria'
p10399
tp10400
(lp10401
S'Reynolds'
p10402
as(S'flirt'
p10403
tp10404
(lp10405
S'but'
p10406
as(S'Plannin\xe2'
p10407
tp10408
(lp10409
S'for'
p10410
as(S'someday'
p10411
tp10412
(lp10413
g80
as(S'throw'
p10414
tp10415
(lp10416
S'away'
p10417
as(S'Miss'
p10418
tp10419
(lp10420
S'Maria'
p10421
as(S'nervous'
p10422
tp10423
(lp10424
S'Sir'
p10425
aS'but'
p10426
as(S'must'
p10427
tp10428
(lp10429
S'meet'
p10430
aS'be'
p10431
as(S've'
p10432
tp10433
(lp10434
S'got'
p10435
aS'been'
p10436
aS'got'
p10437
aS'to'
p10438
aS'had'
p10439
aS'always'
p10440
aS'engaged'
p10441
aS'created'
p10442
as(S'measurements'
p10443
tp10444
(lp10445
S'information'
p10446
as(S'simply'
p10447
tp10448
(lp10449
S'must'
p10450
as(S'wear'
p10451
tp10452
(lp10453
S'it'
p10454
as(S'Father\xe2'
p10455
tp10456
(lp10457
S'Promise'
p10458
as(S'ever'
p10459
tp10460
(lp10461
S'gonna'
p10462
aS'see'
p10463
as(S'1780'
p10464
tp10465
(lp10466
g752
as(S'word'
p10467
tp10468
(lp10469
S'got'
p10470
ag80
aS'is'
p10471
aS'I\xe2'
p10472
as(S'sex'
p10473
tp10474
(lp10475
S'pour'
p10476
as(S'resigned'
p10477
tp10478
(lp10479
S'He\xe2'
p10480
as(S'Let'
p10481
tp10482
(lp10483
S'down'
p10484
aS'her'
p10485
as(S'scrutiny'
p10486
tp10487
(lp10488
g80
as(S'The'
p10489
tp10490
(lp10491
S'ten-dollar'
p10492
aS'brother'
p10493
aS"world's"
p10494
aS'bow'
p10495
aS'ship'
p10496
aS'Lancelot'
p10497
aS'problem'
p10498
aS'plan'
p10499
aS'unrest'
p10500
aS'venerated'
p10501
aS'truth'
p10502
aS'feeling'
p10503
aS'conversation'
p10504
aS'best'
p10505
aS'enemy'
p10506
aS'bullets'
p10507
aS'code'
p10508
aS'very'
p10509
aS'union'
p10510
aS'President'
p10511
aS'people'
p10512
aS'people'
p10513
aS'way'
p10514
aS'people'
p10515
aS'next'
p10516
aS'scholars'
p10517
aS'ladies'
p10518
aS'duel'
p10519
aS'people'
p10520
aS'doctor'
p10521
aS'challenge'
p10522
aS'world'
p10523
aS'liberty'
p10524
as(S'll'
p10525
tp10526
(lp10527
S'see'
p10528
aS'you'
p10529
aS'see'
p10530
aS'never'
p10531
aS'make'
p10532
aS'need'
p10533
aS'write'
p10534
aS'rise'
p10535
aS'be'
p10536
aS'never'
p10537
aS'show'
p10538
aS'always'
p10539
aS'remind'
p10540
aS'be'
p10541
aS'pull'
p10542
aS'go'
p10543
aS'follow'
p10544
aS'tell'
p10545
aS'remember'
p10546
aS'surrender'
p10547
as(S'recruits'
p10548
tp10549
(lp10550
S'Most'
p10551
as(S'chorus'
p10552
tp10553
(lp10554
S'on'
p10555
as(S'Dying'
p10556
tp10557
(lp10558
S'is'
p10559
as(S'borrow'
p10560
tp10561
(lp10562
S'or'
p10563
as(S'carted'
p10564
tp10565
(lp10566
S'Away'
p10567
as(S'elevates'
p10568
tp10569
(lp10570
S'his'
p10571
as(S'sorts'
p10572
tp10573
(lp10574
S'with'
p10575
as(S'glimpse'
p10576
tp10577
(lp10578
S'of'
p10579
as(S'temple'
p10580
tp10581
(lp10582
S'connected'
p10583
as(S'equipment'
p10584
tp10585
(lp10586
S'assistance'
p10587
as(S'poisoned'
p10588
tp10589
(lp10590
S'my'
p10591
as(S'here'
p10592
tp10593
(lp10594
S'because'
p10595
aS'and'
p10596
aS'with'
p10597
as(S'command'
p10598
tp10599
(lp10600
S'so'
p10601
aS'And'
p10602
aS'where'
p10603
aS'and'
p10604
as(S'to\xe2'
p10605
tp10606
(lp10607
S'She'
p10608
aS'Slow'
p10609
as(S'set'
p10610
tp10611
(lp10612
g80
aS'his'
p10613
aS'that'
p10614
aS'the'
p10615
aS'the'
p10616
as(S'Looking'
p10617
tp10618
(lp10619
S'to'
p10620
as(S'poorest'
p10621
tp10622
(lp10623
S'citizens'
p10624
as(S'cover'
p10625
tp10626
(lp10627
S'and'
p10628
aS'this'
p10629
as(S'ry'
p10630
tp10631
(lp10632
S'burden'
p10633
aS'disadvantage'
p10634
aS'book'
p10635
aS'American'
p10636
aS'This'
p10637
as(S'Master'
p10638
tp10639
(lp10640
S'the'
p10641
as(S'know'
p10642
tp10643
(lp10644
S'your'
p10645
aS'what'
p10646
aS'it\xe2'
p10647
aS'the'
p10648
aS'that'
p10649
aS'you'
p10650
aS'it'
p10651
aS'my'
p10652
aS'my'
p10653
aS'that'
p10654
aS'who\xe2'
p10655
aS'how'
p10656
aS'me'
p10657
aS'that'
p10658
aS'now'
p10659
aS'Mr'
p10660
aS'what'
p10661
aS'what'
p10662
aS'How'
p10663
aS'you'
p10664
aS'Meet'
p10665
aS'where'
p10666
ag80
aS'where'
p10667
aS'what'
p10668
aS'We'
p10669
aS'this'
p10670
aS'and'
p10671
aS'that\xe2'
p10672
as(S'1776'
p10673
tp10674
(lp10675
S'New'
p10676
as(S'over'
p10677
tp10678
(lp10679
S'four'
p10680
aS'excited'
p10681
aS'writing'
p10682
aS'I\xe2'
p10683
as(S'stamina'
p10684
tp10685
(lp10686
S'God'
p10687
as(S'Immigrants'
p10688
tp10689
(lp10690
S'we'
p10691
as(S'Just'
p10692
tp10693
(lp10694
S'to'
p10695
aS'to'
p10696
as(S'prob\xe2'
p10697
tp10698
(lp10699
S'ly'
p10700
aS'ly'
p10701
as(S'Comin\xe2'
p10702
tp10703
(lp10704
S'up'
p10705
as(S'refused'
p10706
tp10707
(lp10708
S'to'
p10709
as(S'each'
p10710
tp10711
(lp10712
S'other'
p10713
as(S'sure'
p10714
tp10715
(lp10716
S'sir'
p10717
as(S'excitin\xe2'
p10718
tp10719
(lp10720
S'But'
p10721
as(S'country'
p10722
tp10723
(lp10724
S'I\xe2'
p10725
aS'is'
p10726
as(S'From'
p10727
tp10728
(lp10729
g76
aS'separate'
p10730
as(S'Would'
p10731
tp10732
(lp10733
S'you'
p10734
aS'rather'
p10735
aS'you'
p10736
as(S'unmask'
p10737
tp10738
(lp10739
S'him'
p10740
as(S'Adam\xe2'
p10741
tp10742
(lp10743
g516
as(S'are'
p10744
tp10745
(lp10746
S'you'
p10747
aS'meant'
p10748
aS'the'
p10749
aS'all'
p10750
aS'you'
p10751
aS'beyond'
p10752
ag76
aS'so'
p10753
aS'the'
p10754
aS'screams'
p10755
aS'wise'
p10756
aS'paid'
p10757
aS'paid'
p10758
aS'you'
p10759
aS'or'
p10760
aS'leading'
p10761
aS'rioting'
p10762
aS'uniquely'
p10763
aS'orderly'
p10764
aS'you'
p10765
aS'asking'
p10766
aS'ten'
p10767
aS'waiting'
p10768
aS'dumb'
p10769
as(S'scary'
p10770
tp10771
(lp10772
S'Your'
p10773
as(S'different'
p10774
tp10775
(lp10776
S'amounts\xe2'
p10777
aS'fronts'
p10778
as(S'worth'
p10779
tp10780
(lp10781
S'more'
p10782
as(S'lying'
p10783
tp10784
(lp10785
g80
as(S'Eliza\xe2'
p10786
tp10787
(lp10788
g516
ag516
as(S'eloquence'
p10789
tp10790
(lp10791
S'But'
p10792
as(S'global'
p10793
tp10794
(lp10795
S'superpower'
p10796
as(S'Tens'
p10797
tp10798
(lp10799
S'of'
p10800
as(S'good'
p10801
tp10802
(lp10803
S'health'
p10804
aS'name'
p10805
aS'in'
p10806
as(S'believe'
p10807
tp10808
(lp10809
S'we\xe2'
p10810
ag80
as(S'gone'
p10811
tp10812
(lp10813
S'with'
p10814
as(S'Democratic-Republican'
p10815
tp10816
(lp10817
S'Since'
p10818
as(S'did'
p10819
tp10820
(lp10821
S'Graduate'
p10822
aS'you'
p10823
aS'we'
p10824
aS'you'
p10825
as(S'best'
p10826
tp10827
(lp10828
S'C\xe2'
p10829
aS'thing'
p10830
aS"g'wan"
p10831
aS'for'
p10832
as(S'okay'
p10833
tp10834
(lp10835
S'what'
p10836
as(S'specially'
p10837
tp10838
(lp10839
g564
as(S'down'
p10840
tp10841
(lp10842
S'the'
p10843
aS'my'
p10844
aS'my'
p10845
aS'the'
p10846
ag80
aS'like'
p10847
aS'on'
p10848
aS'to'
p10849
ag80
as(S'debt-ridden'
p10850
tp10851
(lp10852
S'Two'
p10853
as(S'print'
p10854
tp10855
(lp10856
S'retractions'
p10857
as(S'Indecisive'
p10858
tp10859
(lp10860
S'from'
p10861
as(S'half'
p10862
tp10863
(lp10864
S'as'
p10865
ag76
as(S'surprised'
p10866
tp10867
(lp10868
S'you'
p10869
as(S'Writin\xe2'
p10870
tp10871
(lp10872
S'letters'
p10873
as(S'loyalty'
p10874
tp10875
(lp10876
S'Smells'
p10877
as(S'speech'
p10878
tp10879
(lp10880
S'unimpeachable'
p10881
aS'last'
p10882
as(S'post'
p10883
tp10884
(lp10885
S'destroy'
p10886
as(S'provoke'
p10887
tp10888
(lp10889
S'legal'
p10890
as(S'eventually'
p10891
tp10892
(lp10893
S'What\xe2'
p10894
as(S'Bastard'
p10895
tp10896
(lp10897
S'whoreson'
p10898
as(S'Carolina'
p10899
tp10900
(lp10901
S'redefining'
p10902
as(S'brothers'
p10903
tp10904
(lp10905
S'with'
p10906
aS'As'
p10907
as(S'job'
p10908
tp10909
(lp10910
S'is'
p10911
aS'done'
p10912
aS'done'
p10913
as(S'Schuyler'
p10914
tp10915
(lp10916
S'the'
p10917
aS'sisters'
p10918
aS'sister'
p10919
as(S'basket'
p10920
tp10921
(lp10922
S'Would'
p10923
as(S'guy'
p10924
tp10925
(lp10926
S'in'
p10927
aS'but'
p10928
aS'in'
p10929
as(S'shifts'
p10930
tp10931
(lp10932
S'We'
p10933
as(S'enemy'
p10934
tp10935
(lp10936
S'ahead'
p10937
ag752
aS'Maybe'
p10938
as(S'very'
p10939
tp10940
(lp10941
S'seat'
p10942
aS'first'
p10943
aS'attractive'
p10944
aS'forthcoming'
p10945
aS'same'
p10946
as(S'school'
p10947
tp10948
(lp10949
S'Did'
p10950
as(S'brraaah'
p10951
tp10952
(lp10953
g80
as(S'brilliance'
p10954
tp10955
(lp10956
S'Hamilton'
p10957
as(S'soldiers\xe2'
p10958
tp10959
(lp10960
S'll'
p10961
aS'chorus'
p10962
as(S'resign'
p10963
tp10964
(lp10965
S'Somebody'
p10966
as(S'useless'
p10967
tp10968
(lp10969
S'as'
p10970
as(S'bed-ridden'
p10971
tp10972
(lp10973
S'Half-dead'
p10974
as(S'happiness'
p10975
tp10976
(lp10977
g564
as(S'past'
p10978
tp10979
(lp10980
S'twenty'
p10981
aS'patiently'
p10982
aS'tomorrow'
p10983
as(S'disputes'
p10984
tp10985
(lp10986
S'die'
p10987
aS'die'
p10988
as(S'pour'
p10989
tp10990
(lp10991
S'me'
p10992
as(S'Pendleton'
p10993
tp10994
(lp10995
S'and'
p10996
as(S'frocks'
p10997
tp10998
(lp10999
S'How'
p11000
as(S'smuggle'
p11001
tp11002
(lp11003
S'it'
p11004
as(S'Pray'
p11005
tp11006
(lp11007
S'that'
p11008
as(S'Sure'
p11009
tp11010
(lp11011
S'when'
p11012
aS'That\xe2'
p11013
as(S'James'
p11014
tp11015
(lp11016
S'Reynolds'
p11017
as(S'destroyed'
p11018
tp11019
(lp11020
S'his'
p11021
as(S'glory'
p11022
tp11023
(lp11024
S'or'
p11025
as(S'turned'
p11026
tp11027
(lp11028
S'red'
p11029
aS'around'
p11030
as(S'If'
p11031
tp11032
(lp11033
S'you'
p11034
aS'you'
p11035
ag80
aS'we'
p11036
aS'they'
p11037
ag80
aS'this'
p11038
aS'New'
p11039
aS'we'
p11040
aS'we\xe2'
p11041
aS'they'
p11042
aS'you'
p11043
aS'we'
p11044
aS'we'
p11045
aS'there\xe2'
p11046
aS'Washington'
p11047
ag80
aS'not'
p11048
ag80
aS'they'
p11049
aS'they'
p11050
aS'they'
p11051
aS'you'
p11052
aS'we'
p11053
as(S'Looks'
p11054
tp11055
(lp11056
S'Proximity'
p11057
as(S'beginning'
p11058
tp11059
(lp11060
S'Just'
p11061
aS'of'
p11062
as(S'ladies'
p11063
tp11064
(lp11065
S'There'
p11066
aS'say'
p11067
as(S'Tell'
p11068
tp11069
(lp11070
S'the'
p11071
ag564
as(S'rep'
p11072
tp11073
(lp11074
S'America'
p11075
as(S'knows'
p11076
tp11077
(lp11078
S'who'
p11079
aS'nothing'
p11080
aS'what'
p11081
aS'what'
p11082
as(S'How\xe2'
p11083
tp11084
(lp11085
g1211
as(S'drop'
p11086
tp11087
(lp11088
S'some'
p11089
aS'knowledge'
p11090
as(S'game'
p11091
tp11092
(lp11093
S'of'
p11094
as(S'Immigrant'
p11095
tp11096
(lp11097
S'decorated'
p11098
aS'orphan'
p11099
as(S'steal'
p11100
tp11101
(lp11102
S'borrow'
p11103
aS'their'
p11104
aS'contraband'
p11105
as(S'what'
p11106
tp11107
(lp11108
S'you'
p11109
aS'you\xe2'
p11110
aS'you\xe2'
p11111
aS'we'
p11112
aS'our'
p11113
aS'else'
p11114
aS'do'
p11115
aS'it'
p11116
aS'happens'
p11117
aS'happens'
p11118
aS'gon\xe2'
p11119
aS'you'
p11120
aS'you'
p11121
aS'you\xe2'
p11122
aS'you'
p11123
aS'we'
p11124
aS'we'
p11125
aS'you\xe2'
p11126
aS'if'
p11127
ag80
ag80
aS'you'
p11128
aS'you'
p11129
aS'was'
p11130
ag80
aS'to'
p11131
as(g80
tp11132
(lp11133
S'have'
p11134
aS'heard'
p11135
aS'was'
p11136
aS'got'
p11137
aS'may'
p11138
aS'wanted'
p11139
aS'was'
p11140
aS'wish'
p11141
aS'buy'
p11142
aS'will'
p11143
aS'came'
p11144
aS'am'
p11145
aS'heard'
p11146
aS'am'
p11147
aS'am'
p11148
aS'prob\xe2'
p11149
aS'amaze'
p11150
aS'got'
p11151
aS'gotta'
p11152
aS'drop'
p11153
aS'shoulder'
p11154
aS'have'
p11155
aS'don\xe2'
p11156
aS'walk'
p11157
aS'am'
p11158
aS'will'
p11159
aS'dream'
p11160
aS'fight'
p11161
aS'make'
p11162
aS'got'
p11163
aS'know'
p11164
aS'Do'
p11165
aS'sally'
p11166
aS'think'
p11167
aS'like'
p11168
aS'talkin\xe2'
p11169
aS'get'
p11170
aS'never'
p11171
aS'promise'
p11172
aS'imagine'
p11173
aS'see'
p11174
aS'run'
p11175
aS'let'
p11176
aS'never'
p11177
aS'come'
p11178
aS'know'
p11179
aS'wished'
p11180
aS'knew'
p11181
aS'was'
p11182
aS'knew'
p11183
aS'am'
p11184
aS'will'
p11185
aS'be'
p11186
aS'feel'
p11187
aS'keep'
p11188
aS'decide'
p11189
aS'scream'
p11190
aS'am'
p11191
aS'cannot'
p11192
aS'was'
p11193
aS'think'
p11194
aS'could'
p11195
aS'admire'
p11196
aS'have'
p11197
aS'was'
p11198
aS'look'
p11199
aS'done'
p11200
aS'called'
p11201
aS'have'
p11202
aS'know'
p11203
aS'was'
p11204
aS'was'
p11205
aS'need'
p11206
aS'have'
p11207
aS'asked'
p11208
aS'wanna'
p11209
aS'turn'
p11210
aS'want'
p11211
aS'introduce'
p11212
aS'know'
p11213
aS'know'
p11214
aS'tell'
p11215
aS'love'
p11216
aS'have'
p11217
aS'have'
p11218
aS'shoot'
p11219
aS'go'
p11220
aS'ask'
p11221
aS'pray'
p11222
aS'stay'
p11223
aS'would'
p11224
aS'go'
p11225
aS'bring'
p11226
aS'imagine'
p11227
aS'have'
p11228
aS'remember'
p11229
aS'take'
p11230
aS'smuggle'
p11231
aS'am'
p11232
aS'need'
p11233
aS'get'
p11234
aS'see'
p11235
aS'hear'
p11236
aS'wrote'
p11237
aS'hadn\xe2'
p11238
aS'was'
p11239
aS'was'
p11240
aS'said'
p11241
aS'should'
p11242
aS'began'
p11243
aS'don\xe2'
p11244
aS'hid'
p11245
aS'raced'
p11246
aS'took'
p11247
aS'don\xe2'
p11248
aS'changed'
p11249
aS'saw'
p11250
aS'swear'
p11251
aS'know'
p11252
aS'admit'
p11253
aS'bet'
p11254
aS'get'
p11255
aS'have'
p11256
aS'am'
p11257
aS'can'
p11258
aS'hope'
p11259
aS'don\xe2'
p11260
aS'can'
p11261
aS'never'
p11262
aS'hope'
p11263
aS'paid'
p11264
aS'may'
p11265
aS'kept'
p11266
aS'never'
p11267
aS'have'
p11268
aS'have'
p11269
aS'have'
p11270
aS'know'
p11271
aS'prob\xe2'
p11272
aS'amaze'
p11273
aS'got'
p11274
aS'shoulder'
p11275
aS'used'
p11276
aS'would\xe2'
p11277
aS'can\xe2'
p11278
aS'saw'
p11279
aS'get'
p11280
aS'didn\xe2'
p11281
aS'don\xe2'
p11282
aS'know'
p11283
aS'doubt'
p11284
aS'was'
p11285
aS'came'
p11286
aS'am'
p11287
aS'can\xe2'
p11288
aS'cannot'
p11289
aS'love'
p11290
aS'know'
p11291
aS'don\xe2'
p11292
aS'like'
p11293
aS'can\xe2'
p11294
aS'want'
p11295
aS'learned'
p11296
aS'have'
p11297
aS'am'
p11298
aS'will'
p11299
aS'have'
p11300
aS'said'
p11301
aS'said'
p11302
aS'have'
p11303
aS'am'
p11304
aS'don\xe2'
p11305
aS'won\xe2'
p11306
aS'watched'
p11307
aS'wish'
p11308
aS'could'
p11309
aS'didn\xe2'
p11310
aS'watched'
p11311
aS'got'
p11312
aS'had'
p11313
aS'imagine'
p11314
aS'see'
p11315
aS'run'
p11316
aS'ever'
p11317
aS'throw'
p11318
aS'wrote'
p11319
aS'catch'
p11320
aS'make'
p11321
aS'go'
p11322
aS'come'
p11323
aS'mean'
p11324
aS'mean'
p11325
aS'need'
p11326
aS'mean'
p11327
aS'have'
p11328
as(S'Okay'
p11329
tp11330
(lp11331
S'so'
p11332
as(S'lighten'
p11333
tp11334
(lp11335
S'the'
p11336
as(S'shat'
p11337
tp11338
(lp11339
S'the'
p11340
as(S'amaze'
p11341
tp11342
(lp11343
S'and'
p11344
aS'and'
p11345
as(S'carefully'
p11346
tp11347
(lp11348
S'taught'
p11349
as(S'reactions'
p11350
tp11351
(lp11352
S'Thanks'
p11353
as(S'them'
p11354
tp11355
(lp11356
S'know'
p11357
aS'talk'
p11358
aS'If'
p11359
aS'off'
p11360
as(S'Wall'
p11361
tp11362
(lp11363
S'Street'
p11364
aS'Street'
p11365
as(S'terms'
p11366
tp11367
(lp11368
S'of'
p11369
as(S'list'
p11370
tp11371
(lp11372
S'n\xe2'
p11373
aS'of'
p11374
as(S'goner'
p11375
tp11376
(lp11377
S'No'
p11378
as(S'Our'
p11379
tp11380
(lp11381
S'man'
p11382
aS'debts'
p11383
aS'poorest'
p11384
as(S'stance'
p11385
tp11386
(lp11387
S'He\xe2'
p11388
as(S'rebellion'
p11389
tp11390
(lp11391
S'cuz'
p11392
as(S'Uh'
p11393
tp11394
(lp11395
S'Our'
p11396
aS'who'
p11397
aS'do'
p11398
as(S'want'
p11399
tp11400
(lp11401
S'it'
p11402
aS'to'
p11403
aS'him'
p11404
aS'I\xe2'
p11405
aS'this'
p11406
aS'and'
p11407
as(S'cause'
p11408
tp11409
(lp11410
S'he\xe2'
p11411
as(S'swear'
p11412
tp11413
(lp11414
S'your'
p11415
as(S'independently'
p11416
tp11417
(lp11418
S'Meanwhile'
p11419
as(S'quote'
p11420
tp11421
(lp11422
g564
as(S'comes'
p11423
tp11424
(lp11425
S'fire'
p11426
as(S'Eliza'
p11427
tp11428
(lp11429
S'Sneak'
p11430
aS'Now'
p11431
as(S'jaws'
p11432
tp11433
(lp11434
S'of'
p11435
as(S"brother's"
p11436
tp11437
(lp11438
S'revolutionary'
p11439
as(S'passed'
p11440
tp11441
(lp11442
S'You\xe2'
p11443
as(S'writes'
p11444
tp11445
(lp11446
S'George'
p11447
as(S'Charles'
p11448
tp11449
(lp11450
S'Lee'
p11451
aS'Lee'
p11452
as(S'unrest'
p11453
tp11454
(lp11455
S'in'
p11456
as(S'Jefferson'
p11457
tp11458
(lp11459
S'always'
p11460
aS'In'
p11461
aS'has'
p11462
aS'once\xe2'
p11463
aS'has'
p11464
aS'his'
p11465
as(S'brink'
p11466
tp11467
(lp11468
S'Of'
p11469
as(S'problem'
p11470
tp11471
(lp11472
S'is'
p11473
aS'see'
p11474
as(S'virtuosity'
p11475
tp11476
(lp11477
S'and'
p11478
as(S'dream'
p11479
tp11480
(lp11481
S'of'
p11482
aS'and'
p11483
as(S'pockets'
p11484
tp11485
(lp11486
S'of'
p11487
as(S'listen'
p11488
tp11489
(lp11490
S'Washington'
p11491
aS'to'
p11492
as(S'her'
p11493
tp11494
(lp11495
S'feral'
p11496
aS'that'
p11497
aS'bed'
p11498
aS'legs'
p11499
aS'body\xe2'
p11500
aS'place'
p11501
aS'face'
p11502
as(S'getting'
p11503
tp11504
(lp11505
S'nervous'
p11506
aS'dark'
p11507
aS'high'
p11508
as(S'while'
p11509
tp11510
(lp11511
S'slaves'
p11512
as(S'Mulligan'
p11513
tp11514
(lp11515
S'Up'
p11516
aS'Marquis'
p11517
ag80
as(S'gotta'
p11518
tp11519
(lp11520
S'fend'
p11521
aS'holler'
p11522
aS'stop'
p11523
aS'run'
p11524
aS'go'
p11525
aS'get'
p11526
aS'meet'
p11527
aS'shovel'
p11528
aS'keep'
p11529
aS'put'
p11530
as(S'early'
p11531
tp11532
(lp11533
S'light'
p11534
as(S'yield'
p11535
tp11536
(lp11537
S'for'
p11538
as(S'reigned'
p11539
tp11540
(lp11541
S'Our'
p11542
as(S'voice'
p11543
tp11544
(lp11545
S'saying'
p11546
aS'But'
p11547
as(S'information'
p11548
tp11549
(lp11550
g564
aS'and'
p11551
as(S'venerated'
p11552
tp11553
(lp11554
S'Virginian'
p11555
as(S'precedent'
p11556
tp11557
(lp11558
S'Not'
p11559
as(S'when'
p11560
tp11561
(lp11562
g80
aS'your'
p11563
aS'ya'
p11564
aS'the'
p11565
aS'we'
p11566
ag80
aS'you'
p11567
aS'you'
p11568
aS'Britain'
p11569
aS'you'
p11570
aS'Miss'
p11571
ag80
aS'are'
p11572
aS'the'
p11573
aS'she'
p11574
aS'Reynolds'
p11575
ag80
aS'you\xe2'
p11576
aS'all'
p11577
aS'there\xe2'
p11578
aS'you'
p11579
as(S'witnessing'
p11580
tp11581
(lp11582
S'his'
p11583
as(S'agreed'
p11584
tp11585
(lp11586
S'with'
p11587
as(S'suggests'
p11588
tp11589
(lp11590
S'you\xe2'
p11591
as(S'sullied'
p11592
tp11593
(lp11594
S'my'
p11595
as(S'rally'
p11596
tp11597
(lp11598
S'the'
p11599
as(S'father\xe2'
p11600
tp11601
(lp11602
g516
ag516
as(S'ain\xe2'
p11603
tp11604
(lp11605
g248
ag248
as(S'What'
p11606
tp11607
(lp11608
S'Smile'
p11609
aS'time'
p11610
aS'do'
p11611
aS'are'
p11612
aS'the'
p11613
aS'if'
p11614
aS'is'
p11615
as(S'sordid'
p11616
tp11617
(lp11618
S'fee'
p11619
as(S'freedom'
p11620
tp11621
(lp11622
S'for'
p11623
aS'of'
p11624
aS'to'
p11625
aS'Sure'
p11626
as(S'size'
p11627
tp11628
(lp11629
S'of'
p11630
aS'Look'
p11631
as(S'fourteen'
p11632
tp11633
(lp11634
S'they'
p11635
as(S'middle'
p11636
tp11637
(lp11638
S'of'
p11639
aS'of'
p11640
as(S'Watch'
p11641
tp11642
(lp11643
S'this'
p11644
aS'me'
p11645
as(S'One'
p11646
tp11647
(lp11648
S'two'
p11649
as(S'practical'
p11650
tp11651
(lp11652
S'tactical'
p11653
as(S'burden'
p11654
tp11655
(lp11656
S'ev\xe2'
p11657
as(S'both'
p11658
tp11659
(lp11660
S'Know'
p11661
aS'know'
p11662
as(S'pants'
p11663
tp11664
(lp11665
S'But'
p11666
aS'look'
p11667
aS'Handsome'
p11668
as(S'Monmouth'
p11669
tp11670
(lp11671
g752
as(S'neck'
p11672
tp11673
(lp11674
S'in'
p11675
as(S'level'
p11676
tp11677
(lp11678
S'What'
p11679
as(S'whence'
p11680
tp11681
(lp11682
S'you'
p11683
as(S'That\xe2'
p11684
tp11685
(lp11686
g516
ag516
ag516
ag516
ag516
as(S'son'
p11687
tp11688
(lp11689
S'of'
p11690
aS'Let\xe2'
p11691
aS'of'
p11692
aS'Is'
p11693
aS'Take'
p11694
aS'take'
p11695
aS'is'
p11696
aS'My'
p11697
aS'is'
p11698
as(S'You'
p11699
tp11700
(lp11701
S'punched'
p11702
aS'can\xe2'
p11703
aS'wanna'
p11704
aS'spit'
p11705
aS'and'
p11706
aS'keep'
p11707
aS'need'
p11708
aS'see'
p11709
aS'will'
p11710
aS'will'
p11711
aS'have'
p11712
aS'ready'
p11713
aS'haven\xe2'
p11714
aS'simply'
p11715
aS'just'
p11716
aS'think'
p11717
aS'never'
p11718
aS'changed'
p11719
aS'must'
p11720
aS'accumulate'
p11721
aS'can\xe2'
p11722
aS'are'
p11723
aS'don\xe2'
p11724
aS'got'
p11725
aS'see'
p11726
aS'sent'
p11727
aS'father\xe2'
p11728
aS'don\xe2'
p11729
aS'talk'
p11730
aS'need'
p11731
aS'used'
p11732
aS'would'
p11733
aS'let'
p11734
aS'pay'
p11735
aS'have'
p11736
aS'wanna'
p11737
as(S'code'
p11738
tp11739
(lp11740
S'word'
p11741
as(S'ringing'
p11742
tp11743
(lp11744
S'And'
p11745
as(S'pain'
p11746
tp11747
(lp11748
S'Well'
p11749
as(S'pits'
p11750
tp11751
(lp11752
S'of'
p11753
as(S'peace'
p11754
tp11755
(lp11756
S'He'
p11757
aS'talks'
p11758
aS'that\xe2'
p11759
as(S'met'
p11760
tp11761
(lp11762
S'Burr'
p11763
aS'him'
p11764
as(S'little'
p11765
tp11766
(lp11767
S'does'
p11768
aS'disquieting'
p11769
aS'schoolboy'
p11770
aS'nervous'
p11771
as(S'cuz'
p11772
tp11773
(lp11774
g80
aS'I\xe2'
p11775
ag80
aS'we'
p11776
aS'you'
p11777
as(S'taxed'
p11778
tp11779
(lp11780
S'our'
p11781
as(S'through'
p11782
tp11783
(lp11784
S'more'
p11785
as(S'kin'
p11786
tp11787
(lp11788
S'Tell'
p11789
as(S'sea'
p11790
tp11791
(lp11792
S'but'
p11793
as(S'city'
p11794
tp11795
(lp11796
S'just'
p11797
aS'up'
p11798
as(S'Your'
p11799
tp11800
(lp11801
S'excellency'
p11802
aS'excellency'
p11803
aS'reputation'
p11804
aS'debts'
p11805
aS'son'
p11806
aS'last'
p11807
aS'lieutenant'
p11808
aS'last'
p11809
as(S'joining'
p11810
tp11811
(lp11812
S'the'
p11813
as(S'William'
p11814
tp11815
(lp11816
g1624
as(S'tomcat'
p11817
tp11818
(lp11819
S'after'
p11820
as(S'beer'
p11821
tp11822
(lp11823
S'with'
p11824
as(S'press'
p11825
tp11826
(lp11827
S'and'
p11828
as(S'republic'
p11829
tp11830
(lp11831
g80
as(S'uh'
p11832
tp11833
(lp11834
S'Those'
p11835
as(S'Embellishin\xe2'
p11836
tp11837
(lp11838
S'my'
p11839
as(S'easy'
p11840
tp11841
(lp11842
S'young'
p11843
as(S'endlessly'
p11844
tp11845
(lp11846
S'Essentially'
p11847
as(S'giving'
p11848
tp11849
(lp11850
S'up'
p11851
as(S'buy'
p11852
tp11853
(lp11854
S'you'
p11855
as(S'die'
p11856
tp11857
(lp11858
S'Wait'
p11859
aS'on'
p11860
aS'in'
p11861
aS'and'
p11862
aS'and'
p11863
aS'where'
p11864
as(S'subject'
p11865
tp11866
(lp11867
S'in'
p11868
as(S'lies'
p11869
tp11870
(lp11871
S'follow'
p11872
as(S'song'
p11873
tp11874
(lp11875
S'of'
p11876
aS'they\xe2'
p11877
aS'someone'
p11878
as(S'step'
p11879
tp11880
(lp11881
S'outside'
p11882
aS'in'
p11883
as(S'cash'
p11884
tp11885
(lp11886
S'in'
p11887
as(S'everywhere'
p11888
tp11889
(lp11890
S'at'
p11891
as(S'went'
p11892
tp11893
(lp11894
S'Foes'
p11895
as(S'sixpence'
p11896
tp11897
(lp11898
g80
as(S'happens'
p11899
tp11900
(lp11901
S'if'
p11902
aS'when'
p11903
as(S'Treasury'
p11904
tp11905
(lp11906
S'Secretary'
p11907
as(S'conventional'
p11908
tp11909
(lp11910
S'wisdom'
p11911
as(S'matches'
p11912
tp11913
(lp11914
S'my'
p11915
as(S'panicky'
p11916
tp11917
(lp11918
S'Yo'
p11919
as(S'Founding'
p11920
tp11921
(lp11922
S'Father'
p11923
as(S'despondent'
p11924
tp11925
(lp11926
g80
as(S'Should'
p11927
tp11928
(lp11929
S'we'
p11930
as(S'lesson'
p11931
tp11932
(lp11933
S'from'
p11934
as(S'stole'
p11935
tp11936
(lp11937
S'British'
p11938
as(S'trigger'
p11939
tp11940
(lp11941
S'on'
p11942
aS'Confession'
p11943
as(S'superpower'
p11944
tp11945
(lp11946
S'How'
p11947
as(S'fleeting'
p11948
tp11949
(lp11950
S'How'
p11951
as(S'phenomenon'
p11952
tp11953
(lp11954
S'Watch'
p11955
as(S'Troops'
p11956
tp11957
(lp11958
S'are'
p11959
as(S'writing'
p11960
tp11961
(lp11962
S'all'
p11963
as(S'gain'
p11964
tp11965
(lp11966
S'to'
p11967
as(S'bargained'
p11968
tp11969
(lp11970
S'for'
p11971
as(S'blacker'
p11972
tp11973
(lp11974
S'than'
p11975
as(S'think'
p11976
tp11977
(lp11978
S'your'
p11979
aS'that'
p11980
aS'I\xe2'
p11981
aS'you\xe2'
p11982
aS'The'
p11983
ag80
as(S'dyin\xe2'
p11984
tp11985
(lp11986
S'like'
p11987
as(S'y\xe2'
p11988
tp11989
(lp11990
S'all'
p11991
aS'all'
p11992
aS'all'
p11993
as(S'clerkin\xe2'
p11994
tp11995
(lp11996
S'for'
p11997
as(S'brain\xe2'
p11998
tp11999
(lp12000
g516
as(S'hungry'
p12001
tp12002
(lp12003
S'And'
p12004
as(S'our'
p12005
tp12006
(lp12007
S'promised'
p12008
aS'independence'
p12009
aS'descendants'
p12010
aS'financial'
p12011
aS'nation'
p12012
aS'odds'
p12013
aS'Congress'
p12014
aS'new'
p12015
aS'horses'
p12016
aS'camaraderie'
p12017
aS'battles'
p12018
aS'fallen'
p12019
aS'money'
p12020
aS'tea'
p12021
aS'whisky'
p12022
aS'brothers'
p12023
aS'nation'
p12024
aS'treaty'
p12025
aS'cabinet\xe2'
p12026
aS'farmers'
p12027
aS'previous'
p12028
aS'government'
p12029
aS'Fourth'
p12030
aS'socks'
p12031
aS'republic'
p12032
aS'brand-new'
p12033
as(S'On'
p12034
tp12035
(lp12036
g76
aS'the'
p12037
as(S'come'
p12038
tp12039
(lp12040
S'from'
p12041
aS'in'
p12042
aS'no'
p12043
aS'from'
p12044
aS'back'
p12045
as(S'named'
p12046
tp12047
(lp12048
S'her'
p12049
as(S'pray'
p12050
tp12051
(lp12052
S'that'
p12053
aS'to'
p12054
aS'Lord'
p12055
as(S'C\xe2'
p12056
tp12057
(lp12058
S'est'
p12059
as(S'equivocate'
p12060
tp12061
(lp12062
S'on'
p12063
as(S'question'
p12064
tp12065
(lp12066
S'of'
p12067
aS'it'
p12068
as(S'smack'
p12069
tp12070
(lp12071
S'each'
p12072
as(S'Battle'
p12073
tp12074
(lp12075
S'of'
p12076
as(S'millisecond'
p12077
tp12078
(lp12079
S'Let'
p12080
as(S'until'
p12081
tp12082
(lp12083
S'we'
p12084
aS'we'
p12085
aS'Eacker'
p12086
ag80
as(S'goddamn'
p12087
tp12088
(lp12089
S'mind'
p12090
as(S'outrageous'
p12091
tp12092
(lp12093
S'demand'
p12094
as(S'Reticent\xe2'
p12095
tp12096
(lp12097
S'there'
p12098
as(S'sewin\xe2'
p12099
tp12100
(lp12101
S'some'
p12102
as(S'years'
p12103
tp12104
(lp12105
S'later'
p12106
aS'old'
p12107
aS'of'
p12108
as(S'covenant'
p12109
tp12110
(lp12111
S'I\xe2'
p12112
as(S'difference'
p12113
tp12114
(lp12115
S'Frankly'
p12116
aS'this'
p12117
ag752
as(S'We\xe2'
p12118
tp12119
(lp12120
S'll'
p12121
aS'll'
p12122
aS're'
p12123
aS've'
p12124
aS'll'
p12125
aS'll'
p12126
aS're'
p12127
as(S'notes'
p12128
tp12129
(lp12130
S'at'
p12131
as(S'Let\xe2'
p12132
tp12133
(lp12134
g516
ag516
ag516
ag516
ag516
as(S'vacuous'
p12135
tp12136
(lp12137
S'mass'
p12138
as(S'pops'
p12139
tp12140
(lp12141
S'The'
p12142
as(S'straight'
p12143
tp12144
(lp12145
S'They'
p12146
as(S'bout'
p12147
tp12148
(lp12149
S'when'
p12150
as(S'have'
p12151
tp12152
(lp12153
S'been'
p12154
aS'been'
p12155
aS'punched'
p12156
aS'intercourse'
p12157
aS'learned'
p12158
ag76
aS'the'
p12159
aS'to'
p12160
aS'some'
p12161
aS'you'
p12162
aS'to'
p12163
aS'some'
p12164
aS'in'
p12165
aS'never'
p12166
aS'taken'
p12167
aS'resorted'
p12168
aS'gone'
p12169
ag76
aS'one'
p12170
aS'your'
p12171
aS'the'
p12172
aS'this'
p12173
aS'to'
p12174
aS'the'
p12175
aS'Are'
p12176
aS'to'
p12177
aS'mortally'
p12178
aS'reasons'
p12179
aS'not'
p12180
aS'done'
p12181
aS'that'
p12182
aS'let'
p12183
aS'in'
p12184
aS'never'
p12185
aS'fought'
p12186
aS'always'
p12187
aS'not'
p12188
aS'deniability'
p12189
aS'him'
p12190
ag76
aS'to'
p12191
aS'soldiers'
p12192
as(S'Be'
p12193
tp12194
(lp12195
S'seated'
p12196
aS'smart'
p12197
as(S'national'
p12198
tp12199
(lp12200
S'debt'
p12201
aS'credit'
p12202
as(S'write'
p12203
tp12204
(lp12205
S'to'
p12206
aS'Now'
p12207
aS'essays'
p12208
as(S'finally'
p12209
tp12210
(lp12211
S'on'
p12212
aS'drive'
p12213
aS'face'
p12214
as(S'catch'
p12215
tp12216
(lp12217
S'It\xe2'
p12218
ag76
as(S'aware'
p12219
tp12220
(lp12221
S'that'
p12222
as(S'entrust'
p12223
tp12224
(lp12225
S'me'
p12226
as(S'battalion'
p12227
tp12228
(lp12229
S'Geniuses'
p12230
as(S'tactical'
p12231
tp12232
(lp12233
S'brilliance'
p12234
as(S'crisis'
p12235
tp12236
(lp12237
S'to'
p12238
aS'The'
p12239
as(S'wish'
p12240
tp12241
(lp12242
S'before'
p12243
aS'there'
p12244
ag80
as(S'Ya\xe2'
p12245
tp12246
(lp12247
S'shoulda'
p12248
as(S'approachable'
p12249
tp12250
(lp12251
S'Like'
p12252
as(S'brain'
p12253
tp12254
(lp12255
S'And'
p12256
aS'This'
p12257
as(S'offer'
p12258
tp12259
(lp12260
S'you'
p12261
as(S'instead'
p12262
tp12263
(lp12264
S'of'
p12265
aS'of'
p12266
as(S'kickin\xe2'
p12267
tp12268
(lp12269
S'ass'
p12270
as(S'Now'
p12271
tp12272
(lp12273
S'I\xe2'
p12274
aS'Hamilton\xe2'
p12275
aS'that\xe2'
p12276
aS'place'
p12277
ag80
as(S'land'
p12278
tp12279
(lp12280
S'In'
p12281
aS'Burr'
p12282
aS'And'
p12283
aS'But'
p12284
aS'of'
p12285
aS'Only'
p12286
aS'back'
p12287
as(g1211
tp12288
(lp12289
S'you'
p12290
aS'you'
p12291
aS'live'
p12292
aS'Have'
p12293
aS'be'
p12294
aS'be'
p12295
aS'rather'
p12296
aS'lend'
p12297
aS'like'
p12298
aS'apply'
p12299
aS'rather'
p12300
aS'promote\xe2'
p12301
as(S'socially'
p12302
tp12303
(lp12304
S'advance'
p12305
as(S'need'
p12306
tp12307
(lp12308
S'to'
p12309
aS'of'
p12310
aS'someone'
p12311
aS'all'
p12312
aS'some'
p12313
aS'supplies'
p12314
aS'no'
p12315
aS'of'
p12316
aS'to'
p12317
aS'money'
p12318
aS'you'
p12319
aS'to'
p12320
aS'to'
p12321
aS'to'
p12322
aS'for'
p12323
aS'of'
p12324
aS'Hamilton'
p12325
aS'my'
p12326
as(S'evidence'
p12327
tp12328
(lp12329
S'suggests'
p12330
as(S'bravery'
p12331
tp12332
(lp12333
S'We'
p12334
aS'We\xe2'
p12335
as(S'Desperate'
p12336
tp12337
(lp12338
S'to'
p12339
as(S'Beware'
p12340
tp12341
(lp12342
S'it'
p12343
as(S'states'
p12344
tp12345
(lp12346
S'What\xe2'
p12347
as(S'finds'
p12348
tp12349
(lp12350
S'you'
p12351
as(S'you'
p12352
tp12353
(lp12354
S'came'
p12355
aS'gotta'
p12356
aS'can'
p12357
aS'can'
p12358
aS'Aaron'
p12359
aS'I\xe2'
p12360
aS'did'
p12361
aS'do'
p12362
aS'graduate'
p12363
ag76
aS'some'
p12364
aS'stall'
p12365
aS'stand'
p12366
aS'fall'
p12367
aS'Who'
p12368
aS'Who'
p12369
aS'Ooh'
p12370
aS'say'
p12371
aS'say'
p12372
aS'and'
p12373
aS'double'
p12374
aS'but'
p12375
aS'talk'
p12376
ag76
aS'Aaron'
p12377
aS'were'
p12378
aS'keep'
p12379
aS'wanted'
p12380
aS'met'
p12381
aS'here'
p12382
aS'but'
p12383
aS'on'
p12384
aS'stole'
p12385
aS'Why\xe2'
p12386
aS'upset'
p12387
aS'want'
p12388
aS'when'
p12389
aS'to'
p12390
aS'can'
p12391
aS'rally'
p12392
aS'can'
p12393
aS'see'
p12394
aS'belong'
p12395
aS'say'
p12396
aS'when'
p12397
aS'do'
p12398
aS'on'
p12399
aS'up'
p12400
aS'knock'
p12401
aS'haven\xe2'
p12402
aS'guys'
p12403
aS'try'
p12404
aS'like'
p12405
aS'do'
p12406
aS'not'
p12407
aS'don\xe2'
p12408
aS'didn\xe2'
p12409
aS'man'
p12410
aS'were'
p12411
aS'Where'
p12412
ag564
ag76
aS'are'
p12413
aS'do'
p12414
aS'Excuse'
p12415
aS'create'
p12416
ag76
aS'that'
p12417
aS'don\xe2'
p12418
aS'know'
p12419
aS'think'
p12420
aS'like'
p12421
aS'want'
p12422
aS'would'
p12423
aS'to'
p12424
aS'forget'
p12425
aS'an'
p12426
aS'accumulate'
p12427
aS'forget'
p12428
aS'were'
p12429
aS'You\xe2'
p12430
aS'Your'
p12431
aS'now'
p12432
aS'have'
p12433
aS'done'
p12434
aS'saved'
p12435
aS'anything'
p12436
aS'promise'
p12437
aS'saw'
p12438
aS'in'
p12439
aS'decided'
p12440
aS'can'
p12441
aS'can'
p12442
aS'won\xe2'
p12443
aS'Talked'
p12444
aS'It\xe2'
p12445
aS'on'
p12446
aS'wanna'
p12447
aS'piss'
p12448
aS'had'
p12449
ag80
aS'would'
p12450
aS'for'
p12451
aS'When'
p12452
aS'can\xe2'
p12453
aS'require'
p12454
aS'You'
p12455
aS'Who'
p12456
aS'have'
p12457
aS'could'
p12458
aS'wouldn\xe2'
p12459
aS'know'
p12460
aS'The'
p12461
aS'were'
p12462
aS'No'
p12463
aS'believe'
p12464
aS'think'
p12465
aS'need'
p12466
aS'what'
p12467
aS'I\xe2'
p12468
aS'this'
p12469
aS'require'
p12470
aS'never'
p12471
aS'great'
p12472
aS'sent'
p12473
aS'treat'
p12474
aS'know'
p12475
aS'gotta'
p12476
aS'If'
p12477
aS'join'
p12478
aS'If'
p12479
aS'been'
p12480
aS'in'
p12481
aS'finally'
p12482
aS'require'
p12483
aS'aware'
p12484
as(S'piece'
p12485
tp12486
(lp12487
S'of'
p12488
as(S'Do'
p12489
tp12490
(lp12491
S'or'
p12492
aS'you'
p12493
as(S'Ladies'
p12494
tp12495
(lp12496
S'I\xe2'
p12497
as(S'off'
p12498
tp12499
(lp12500
S'wind'
p12501
aS'at'
p12502
aS'until'
p12503
aS'getting'
p12504
aS'I\xe2'
p12505
aS'he'
p12506
aS'at'
p12507
as(S'tobacco'
p12508
tp12509
(lp12510
S'in'
p12511
as(S'Though'
p12512
tp12513
(lp12514
g564
as(S'Lord'
p12515
tp12516
(lp12517
S'show'
p12518
as(S'mellow'
p12519
tp12520
(lp12521
S'Doin\xe2'
p12522
as(S'At'
p12523
tp12524
(lp12525
S'the'
p12526
as(S'oppressors'
p12527
tp12528
(lp12529
S'And'
p12530
as(S'oldest'
p12531
tp12532
(lp12533
S'and'
p12534
as(S'remains'
p12535
tp12536
(lp12537
S'I\xe2'
p12538
as(S'stray'
p12539
tp12540
(lp12541
S'gunshot'
p12542
aS'from'
p12543
as(S'ships'
p12544
tp12545
(lp12546
S'And'
p12547
as(S'It'
p12548
tp12549
(lp12550
S'was'
p12551
as(S'Go'
p12552
tp12553
(lp12554
S'on'
p12555
aS'lead'
p12556
as(S'summary'
p12557
tp12558
(lp12559
g80
as(S'acquitted'
p12560
tp12561
(lp12562
S'Yeah'
p12563
as(S'on'
p12564
tp12565
(lp12566
S'the'
p12567
aS'Plannin\xe2'
p12568
aS'The'
p12569
aS'three'
p12570
aS'us'
p12571
aS'conventional'
p12572
aS'the'
p12573
ag76
aS'the'
p12574
aS'how'
p12575
aS'your'
p12576
aS'their'
p12577
aS'the'
p12578
aS'and'
p12579
aS'Grow'
p12580
aS'sight'
p12581
aS'the'
p12582
aS'the'
p12583
aS'my'
p12584
aS'the'
p12585
aS'the'
p12586
aS'the'
p12587
aS'death\xe2'
p12588
aS'this'
p12589
aS'him'
p12590
aS'their'
p12591
aS'the'
p12592
aS'your'
p12593
aS'any'
p12594
aS'the'
p12595
aS'like'
p12596
aS'my'
p12597
aS'my'
p12598
aS'as'
p12599
ag76
aS'my'
p12600
aS'the'
p12601
aS'the'
p12602
aS'the'
p12603
aS'site'
p12604
aS'the'
p12605
aS'how'
p12606
as(S'Grow'
p12607
tp12608
(lp12609
S'up'
p12610
aS'into'
p12611
as(S'rook'
p12612
tp12613
(lp12614
S'but'
p12615
as(S'thousand'
p12616
tp12617
(lp12618
S'soldiers'
p12619
aS'dollars'
p12620
as(S'specific'
p12621
tp12622
(lp12623
S'grievance'
p12624
as(S'Jefferson\xe2'
p12625
tp12626
(lp12627
g516
as(S'gonna'
p12628
tp12629
(lp12630
S'know'
p12631
aS'do'
p12632
aS'set'
p12633
aS'get'
p12634
aS'get'
p12635
aS'die'
p12636
aS'lead'
p12637
aS'do'
p12638
aS'lose'
p12639
aS'stop'
p12640
aS'have'
p12641
aS'do'
p12642
as(S'cousin'
p12643
tp12644
(lp12645
S'the'
p12646
aS'committed'
p12647
as(S'surrender'
p12648
tp12649
(lp12650
g80
aS'by'
p12651
as(S'Have'
p12652
tp12653
(lp12654
g80
aS'to'
p12655
aS'it'
p12656
aS'you'
p12657
aS'your'
p12658
as(S'between'
p12659
tp12660
(lp12661
S'all'
p12662
as(S'upstate'
p12663
tp12664
(lp12665
S'Wait'
p12666
as(S'posture'
p12667
tp12668
(lp12669
S'it\xe2'
p12670
as(S'forgets'
p12671
tp12672
(lp12673
S'His'
p12674
as(S'yo'
p12675
tp12676
(lp12677
S'yo'
p12678
aS'yo'
p12679
aS'yo'
p12680
aS'What'
p12681
aS'I\xe2'
p12682
as(S'prospects'
p12683
tp12684
(lp12685
S'But'
p12686
as(S'ascendancy'
p12687
tp12688
(lp12689
g80
as(S'Tryin\xe2'
p12690
tp12691
(lp12692
S'to'
p12693
aS'to'
p12694
as(S'scholarship'
p12695
tp12696
(lp12697
S'to'
p12698
as(S'headed'
p12699
tp12700
(lp12701
S'for'
p12702
as(S'Enlightenment'
p12703
tp12704
(lp12705
S'Don\xe2'
p12706
as(S'negotiate'
p12707
tp12708
(lp12709
S'the'
p12710
ag76
aS'Send'
p12711
ag76
aS'Send'
p12712
as(S'sits'
p12713
tp12714
(lp12715
S'Ooh'
p12716
as(S'be'
p12717
tp12718
(lp12719
g76
ag76
ag76
aS'nice'
p12720
aS'serious'
p12721
aS'Two'
p12722
aS'heard'
p12723
ag752
ag76
aS'shocked'
p12724
aS'truly'
p12725
aS'carefully'
p12726
aS'Is'
p12727
aS'real'
p12728
aS'everywhere'
p12729
aS'of'
p12730
aS'na\xc3'
p12731
aS'satisfied'
p12732
aS'silently'
p12733
aS'mine'
p12734
aS'lying'
p12735
aS'left'
p12736
aS'with'
p12737
aS'free'
p12738
aS'adored'
p12739
aS'the'
p12740
aS'out'
p12741
aS'fine'
p12742
aS'my'
p12743
aS'the'
p12744
aS'There'
p12745
aS'reckoned'
p12746
aS'the'
p12747
as(S'enterprise'
p12748
tp12749
(lp12750
S'Centralizing'
p12751
as(S'debate'
p12752
tp12753
(lp12754
S'I\xe2'
p12755
as(S'tryin\xe2'
p12756
tp12757
(lp12758
S'to'
p12759
as(S'create'
p12760
tp12761
(lp12762
S'You'
p12763
ag564
aS'But'
p12764
as(S'dark'
p12765
tp12766
(lp12767
S'so'
p12768
as(S'knuckleheads'
p12769
tp12770
(lp12771
S'in'
p12772
as(S'don\xe2'
p12773
tp12774
(lp12775
g248
ag248
ag248
ag248
ag248
ag248
ag248
ag248
ag248
ag248
ag248
ag248
ag248
ag248
ag248
ag248
ag248
ag248
ag248
ag248
as(S'ral'
p12776
tp12777
(lp12778
S'feet'
p12779
as(S'element'
p12780
tp12781
(lp12782
S'of'
p12783
as(S'grab'
p12784
tp12785
(lp12786
g76
ag76
as(S'engagin\xe2'
p12787
tp12788
(lp12789
S'em'
p12790
as(S'given'
p12791
tp12792
(lp12793
S'the'
p12794
as(S're'
p12795
tp12796
(lp12797
S'an'
p12798
aS'worth'
p12799
aS'talking'
p12800
aS'against'
p12801
aS'for'
p12802
aS'takin\xe2'
p12803
aS'gonna'
p12804
aS'battering'
p12805
aS'skittish'
p12806
ag76
aS'you'
p12807
aS'Reliable'
p12808
aS'rich'
p12809
aS'singing'
p12810
aS'running'
p12811
aS'aggressive'
p12812
aS'mad'
p12813
aS'in'
p12814
aS'great'
p12815
aS'crooked'
p12816
aS'too'
p12817
aS'nothing'
p12818
aS'breaking'
p12819
aS'trying'
p12820
aS'asking'
p12821
ag76
aS'gonna'
p12822
aS'done'
p12823
aS'here'
p12824
aS'openly'
p12825
aS'gonna'
p12826
aS'doin\xe2'
p12827
aS'making'
p12828
as(S'much'
p12829
tp12830
(lp12831
S'it'
p12832
aS'it'
p12833
aS'of'
p12834
aS'it'
p12835
as(S'happened'
p12836
tp12837
(lp12838
S'Is'
p12839
as(S'complicit'
p12840
tp12841
(lp12842
S'in'
p12843
as(S'seek'
p12844
tp12845
(lp12846
S'financial'
p12847
as(S'watchin\xe2'
p12848
tp12849
(lp12850
S'this'
p12851
as(S'nothin\xe2'
p12852
tp12853
(lp12854
S'but'
p12855
aS'left'
p12856
as(S'drew'
p12857
tp12858
(lp12859
S'first'
p12860
as(S'resist'
p12861
tp12862
(lp12863
S'him'
p12864
as(S'Aaron'
p12865
tp12866
(lp12867
S'Burr'
p12868
aS'Burr'
p12869
aS'Burr'
p12870
aS'Burr'
p12871
aS'Burr'
p12872
aS'Burr'
p12873
as(S'should'
p12874
tp12875
(lp12876
S'Virginia'
p12877
aS'head'
p12878
as(S'virtue'
p12879
tp12880
(lp12881
S'of'
p12882
as(S'sooner'
p12883
tp12884
(lp12885
S'the'
p12886
as(S'we\xe2'
p12887
tp12888
(lp12889
S're'
p12890
aS're'
p12891
aS'll'
p12892
aS're'
p12893
aS're'
p12894
ag1211
aS're'
p12895
aS're'
p12896
aS're'
p12897
aS're'
p12898
as(S'meeting'
p12899
tp12900
(lp12901
S'As'
p12902
as(S'asked'
p12903
tp12904
(lp12905
S'about'
p12906
as(S'doing'
p12907
tp12908
(lp12909
S'the'
p12910
aS'what\xe2'
p12911
as(S'smarter'
p12912
tp12913
(lp12914
S'By'
p12915
as(S'daughter'
p12916
tp12917
(lp12918
S'and'
p12919
aS'Look'
p12920
as(S'bursar'
p12921
tp12922
(lp12923
S'Yes'
p12924
as(S'close'
p12925
tp12926
(lp12927
S'to'
p12928
aS'seize'
p12929
as(S'super'
p12930
tp12931
(lp12932
S'dead'
p12933
as(S'major'
p12934
tp12935
(lp12936
S'general'
p12937
as(S'starter'
p12938
tp12939
(lp12940
S'By'
p12941
as(S'Adams'
p12942
tp12943
(lp12944
S'but'
p12945
aS'fires'
p12946
aS'shat'
p12947
aS'Well'
p12948
as(S'fingerprints'
p12949
tp12950
(lp12951
S'and'
p12952
as(S'barter'
p12953
tp12954
(lp12955
S'Then'
p12956
as(S'faction'
p12957
tp12958
(lp12959
S'He\xe2'
p12960
as(S'elegance'
p12961
tp12962
(lp12963
S'and'
p12964
as.