ccollections
defaultdict
p0
(c__builtin__
float
p1
tp2
Rp3
I0
F0.0031746031746031746
sI1
F0.015873015873015872
sI2
F0.022222222222222223
sI3
F0.022222222222222223
sI4
F0.0455026455026455
sI5
F0.044444444444444446
sI6
F0.06455026455026455
sI7
F0.07830687830687831
sI8
F0.08783068783068783
sI9
F0.10899470899470899
sI10
F0.09841269841269841
sI11
F0.08783068783068783
sI12
F0.08253968253968254
sI13
F0.07830687830687831
sI14
F0.07724867724867725
sI15
F0.04126984126984127
sI16
F0.021164021164021163
sI17
F0.006349206349206349
sI18
F0.0021164021164021165
sI19
F0.0021164021164021165
sI20
F0.0010582010582010583
sI21
F0.0021164021164021165
sI22
F0.0010582010582010583
sI23
F0.0010582010582010583
sI25
F0.0010582010582010583
sI27
F0.0010582010582010583
sI33
F0.0010582010582010583
sI51
F0.0010582010582010583
s.