ccollections
defaultdict
p0
(c__builtin__
float
p1
tp2
Rp3
I0
F0.0038910505836575876
sI3
F0.0038910505836575876
sI4
F0.005836575875486381
sI5
F0.013618677042801557
sI6
F0.023346303501945526
sI7
F0.042801556420233464
sI8
F0.08171206225680934
sI9
F0.0914396887159533
sI10
F0.10700389105058365
sI11
F0.13229571984435798
sI12
F0.09922178988326848
sI13
F0.08365758754863813
sI14
F0.12840466926070038
sI15
F0.05058365758754864
sI16
F0.05058365758754864
sI17
F0.033073929961089495
sI18
F0.009727626459143969
sI19
F0.019455252918287938
sI20
F0.0038910505836575876
sI21
F0.007782101167315175
sI22
F0.005836575875486381
sI25
F0.0019455252918287938
s.