ccollections
defaultdict
p0
(c__builtin__
float
p1
tp2
Rp3
I0
F0.0024154589371980675
sI1
F0.007246376811594203
sI2
F0.007246376811594203
sI3
F0.008454106280193236
sI4
F0.026570048309178744
sI5
F0.04830917874396135
sI6
F0.057971014492753624
sI7
F0.17028985507246377
sI8
F0.11231884057971014
sI9
F0.11835748792270531
sI10
F0.09420289855072464
sI11
F0.07367149758454106
sI12
F0.09057971014492754
sI13
F0.05555555555555555
sI14
F0.04830917874396135
sI15
F0.03864734299516908
sI16
F0.01932367149758454
sI17
F0.007246376811594203
sI18
F0.008454106280193236
sI20
F0.0012077294685990338
sI21
F0.0024154589371980675
sI30
F0.0012077294685990338
s.