ccollections
defaultdict
p0
(c__builtin__
float
p1
tp2
Rp3
I0
F0.0012077294685990338
sI1
F0.007246376811594203
sI2
F0.007246376811594203
sI3
F0.006038647342995169
sI4
F0.028985507246376812
sI5
F0.04468599033816425
sI6
F0.06159420289855073
sI7
F0.17391304347826086
sI8
F0.11352657004830918
sI9
F0.10990338164251208
sI10
F0.0966183574879227
sI11
F0.07729468599033816
sI12
F0.08816425120772947
sI13
F0.05434782608695652
sI14
F0.04830917874396135
sI15
F0.03985507246376811
sI16
F0.018115942028985508
sI17
F0.008454106280193236
sI18
F0.008454106280193236
sI20
F0.0012077294685990338
sI21
F0.0024154589371980675
sI22
F0.0012077294685990338
sI30
F0.0012077294685990338
s.