ccollections
defaultdict
p0
(c__builtin__
float
p1
tp2
Rp3
I0
F0.00389574992011128
sI1
F1.4098009361078217e-05
sI2
F1.4098009361078217e-05
sI3
F0.003907498261245512
sI4
F0.005888268576477001
sI5
F0.01371266377187541
sI6
F0.02345908757683415
sI7
F0.043132859640218804
sI8
F0.08193058140190605
sI9
F0.09166995620218425
sI10
F0.10718716517227768
sI11
F0.1324390496061956
sI12
F0.09939801500028196
sI13
F0.08376567228707307
sI14
F0.12849865598977425
sI15
F0.05065884697080772
sI16
F0.05062125227917818
sI17
F0.03308802797045057
sI18
F0.009744074136731893
sI19
F0.019455252918287938
sI20
F0.0038934002518844343
sI21
F0.007786800503768869
sI22
F0.005836575875486381
sI25
F0.0019455252918287938
sI30
F2.349668226846369e-06
s.