ccollections
defaultdict
p0
(c__builtin__
float
p1
tp2
Rp3
I0
F0.02541544477028348
sI1
F0.009775171065493646
sI2
F0.016617790811339198
sI3
F0.02737047898338221
sI4
F0.04105571847507331
sI5
F0.08113391984359726
sI6
F0.08993157380254155
sI7
F0.14467253176930597
sI8
F0.11827956989247312
sI9
F0.08699902248289346
sI10
F0.08308895405669599
sI11
F0.07038123167155426
sI12
F0.08504398826979472
sI13
F0.03421309872922776
sI14
F0.030303030303030304
sI15
F0.021505376344086023
sI16
F0.017595307917888565
sI17
F0.002932551319648094
sI18
F0.005865102639296188
sI19
F0.0009775171065493646
sI20
F0.002932551319648094
sI21
F0.002932551319648094
sI24
F0.0009775171065493646
s.