ccollections
defaultdict
p0
(c__builtin__
float
p1
tp2
Rp3
I0
F0.0010482180293501049
sI1
F0.015723270440251572
sI2
F0.020964360587002098
sI3
F0.020964360587002098
sI4
F0.0440251572327044
sI5
F0.040880503144654086
sI6
F0.057651991614255764
sI7
F0.08385744234800839
sI8
F0.09433962264150944
sI9
F0.10272536687631027
sI10
F0.09643605870020965
sI11
F0.08385744234800839
sI12
F0.0859538784067086
sI13
F0.08385744234800839
sI14
F0.08385744234800839
sI15
F0.04507337526205451
sI16
F0.0220125786163522
sI17
F0.007337526205450734
sI18
F0.0020964360587002098
sI19
F0.0020964360587002098
sI20
F0.0010482180293501049
sI21
F0.0020964360587002098
sI22
F0.0010482180293501049
sI23
F0.0010482180293501049
s.