ccollections
defaultdict
p0
(c__builtin__
float
p1
tp2
Rp3
I0
F0.0021164021164021165
sI1
F0.015873015873015872
sI2
F0.021164021164021163
sI3
F0.021164021164021163
sI4
F0.04338624338624339
sI5
F0.04126984126984127
sI6
F0.05925925925925926
sI7
F0.08148148148148149
sI8
F0.09312169312169312
sI9
F0.10264550264550265
sI10
F0.0962962962962963
sI11
F0.08253968253968254
sI12
F0.08465608465608465
sI13
F0.0835978835978836
sI14
F0.08148148148148149
sI15
F0.04656084656084656
sI16
F0.022222222222222223
sI17
F0.007407407407407408
sI18
F0.0021164021164021165
sI19
F0.0021164021164021165
sI20
F0.0010582010582010583
sI21
F0.0021164021164021165
sI22
F0.0010582010582010583
sI23
F0.0010582010582010583
sI25
F0.0010582010582010583
sI28
F0.0010582010582010583
sI33
F0.0010582010582010583
sI51
F0.0010582010582010583
s.