ccollections
defaultdict
p0
(c__main__
dd
p1
tp2
Rp3
I1
g0
(c__builtin__
float
p4
tp5
Rp6
I0
F1.0
ssI2
g0
(g4
tp7
Rp8
I0
F0.5528455284552846
sI1
F0.44715447154471544
ssI3
g0
(g4
tp9
Rp10
I0
F0.3368421052631579
sI1
F0.33157894736842103
sI2
F0.33157894736842103
ssI4
g0
(g4
tp11
Rp12
I0
F0.22265625
sI1
F0.21484375
sI2
F0.3203125
sI3
F0.2421875
ssI5
g0
(g4
tp13
Rp14
I0
F0.1773049645390071
sI1
F0.23049645390070922
sI2
F0.2198581560283688
sI3
F0.20921985815602837
sI4
F0.16312056737588654
ssI6
g0
(g4
tp15
Rp16
I0
F0.16976127320954906
sI1
F0.10875331564986737
sI2
F0.22015915119363394
sI3
F0.15915119363395225
sI4
F0.21750663129973474
sI5
F0.1246684350132626
ssI7
g0
(g4
tp17
Rp18
I0
F0.12153518123667377
sI1
F0.16631130063965885
sI2
F0.14498933901918976
sI3
F0.1812366737739872
sI4
F0.1535181236673774
sI5
F0.1257995735607676
sI6
F0.10660980810234541
ssI8
g0
(g4
tp19
Rp20
I0
F0.12076271186440678
sI1
F0.10805084745762712
sI2
F0.16101694915254236
sI3
F0.10805084745762712
sI4
F0.15889830508474576
sI5
F0.13983050847457626
sI6
F0.11652542372881355
sI7
F0.08686440677966102
ssI9
g0
(g4
tp21
Rp22
I0
F0.09701492537313433
sI1
F0.09888059701492537
sI2
F0.125
sI3
F0.11567164179104478
sI4
F0.12126865671641791
sI5
F0.11007462686567164
sI6
F0.11380597014925373
sI7
F0.1287313432835821
sI8
F0.08955223880597014
ssI10
g0
(g4
tp23
Rp24
I0
F0.0899830220713073
sI1
F0.0899830220713073
sI2
F0.11035653650254669
sI3
F0.10186757215619695
sI4
F0.09168081494057725
sI5
F0.10865874363327674
sI6
F0.09507640067911714
sI7
F0.1035653650254669
sI8
F0.11714770797962648
sI9
F0.09168081494057725
ssI11
g0
(g4
tp25
Rp26
I0
F0.06435643564356436
sI1
F0.0858085808580858
sI2
F0.09075907590759076
sI3
F0.10066006600660066
sI4
F0.10561056105610561
sI5
F0.10231023102310231
sI6
F0.0858085808580858
sI7
F0.10891089108910891
sI8
F0.09570957095709572
sI9
F0.0924092409240924
sI10
F0.06765676567656766
ssI12
g0
(g4
tp27
Rp28
I0
F0.0768
sI1
F0.0784
sI2
F0.1056
sI3
F0.0752
sI4
F0.1008
sI5
F0.0784
sI6
F0.1024
sI7
F0.0832
sI8
F0.0784
sI9
F0.096
sI10
F0.0736
sI11
F0.0512
ssI13
g0
(g4
tp29
Rp30
I0
F0.0697350069735007
sI1
F0.06276150627615062
sI2
F0.08926080892608089
sI3
F0.08507670850767085
sI4
F0.07112970711297072
sI5
F0.07391910739191074
sI6
F0.08368200836820083
sI7
F0.07670850767085077
sI8
F0.08926080892608089
sI9
F0.07112970711297072
sI10
F0.08089260808926081
sI11
F0.08228730822873083
sI12
F0.06415620641562064
ssI14
g0
(g4
tp31
Rp32
I0
F0.04689655172413793
sI1
F0.07586206896551724
sI2
F0.07724137931034483
sI3
F0.06620689655172414
sI4
F0.07724137931034483
sI5
F0.06620689655172414
sI6
F0.08137931034482758
sI7
F0.0910344827586207
sI8
F0.06620689655172414
sI9
F0.07724137931034483
sI10
F0.07724137931034483
sI11
F0.08137931034482758
sI12
F0.06896551724137931
sI13
F0.04689655172413793
ssI15
g0
(g4
tp33
Rp34
I0
F0.06857142857142857
sI1
F0.06142857142857143
sI2
F0.07285714285714286
sI3
F0.06428571428571428
sI4
F0.06428571428571428
sI5
F0.07857142857142857
sI6
F0.07285714285714286
sI7
F0.07142857142857142
sI8
F0.07571428571428572
sI9
F0.07285714285714286
sI10
F0.055714285714285716
sI11
F0.06571428571428571
sI12
F0.055714285714285716
sI13
F0.08
sI14
F0.04
ssI16
g0
(g4
tp35
Rp36
I0
F0.06052269601100413
sI1
F0.06740027510316368
sI2
F0.07152682255845942
sI3
F0.052269601100412656
sI4
F0.06740027510316368
sI5
F0.06052269601100413
sI6
F0.06464924346629987
sI7
F0.04951856946354883
sI8
F0.07290233837689133
sI9
F0.06052269601100413
sI10
F0.07702888583218707
sI11
F0.048143053645116916
sI12
F0.07702888583218707
sI13
F0.059147180192572216
sI14
F0.061898211829436035
sI15
F0.04951856946354883
ssI17
g0
(g4
tp37
Rp38
I0
F0.0493046776232617
sI1
F0.05436156763590392
sI2
F0.0695322376738306
sI3
F0.06573957016434892
sI4
F0.0632111251580278
sI5
F0.05815423514538559
sI6
F0.06826801517067003
sI7
F0.0695322376738306
sI8
F0.07079646017699115
sI9
F0.05815423514538559
sI10
F0.056890012642225034
sI11
F0.0606826801517067
sI12
F0.05436156763590392
sI13
F0.05309734513274336
sI14
F0.05309734513274336
sI15
F0.05436156763590392
sI16
F0.040455120101137804
ssI18
g0
(g4
tp39
Rp40
I0
F0.044386422976501305
sI1
F0.05221932114882506
sI2
F0.044386422976501305
sI3
F0.050913838120104436
sI4
F0.06005221932114883
sI5
F0.04569190600522193
sI6
F0.06266318537859007
sI7
F0.06266318537859007
sI8
F0.06005221932114883
sI9
F0.06135770234986945
sI10
F0.05221932114882506
sI11
F0.04699738903394256
sI12
F0.0639686684073107
sI13
F0.05221932114882506
sI14
F0.07180156657963446
sI15
F0.0639686684073107
sI16
F0.0587467362924282
sI17
F0.04569190600522193
ssI19
g0
(g4
tp41
Rp42
I0
F0.04252199413489736
sI1
F0.02932551319648094
sI2
F0.06598240469208211
sI3
F0.04105571847507331
sI4
F0.060117302052785926
sI5
F0.07624633431085044
sI6
F0.06158357771260997
sI7
F0.054252199413489736
sI8
F0.0689149560117302
sI9
F0.0469208211143695
sI10
F0.051319648093841645
sI11
F0.060117302052785926
sI12
F0.04838709677419355
sI13
F0.054252199413489736
sI14
F0.0469208211143695
sI15
F0.051319648093841645
sI16
F0.04985337243401759
sI17
F0.06451612903225806
sI18
F0.026392961876832845
ssI20
g0
(g4
tp43
Rp44
I0
F0.05357142857142857
sI1
F0.04017857142857143
sI2
F0.04017857142857143
sI3
F0.046130952380952384
sI4
F0.046130952380952384
sI5
F0.046130952380952384
sI6
F0.06547619047619048
sI7
F0.05803571428571429
sI8
F0.05357142857142857
sI9
F0.05505952380952381
sI10
F0.05803571428571429
sI11
F0.041666666666666664
sI12
F0.0625
sI13
F0.050595238095238096
sI14
F0.05803571428571429
sI15
F0.046130952380952384
sI16
F0.03720238095238095
sI17
F0.046130952380952384
sI18
F0.05654761904761905
sI19
F0.03869047619047619
ssI21
g0
(g4
tp45
Rp46
I0
F0.040280210157618214
sI1
F0.047285464098073555
sI2
F0.05253940455341506
sI3
F0.04203152364273205
sI4
F0.040280210157618214
sI5
F0.03677758318739054
sI6
F0.050788091068301226
sI7
F0.05253940455341506
sI8
F0.05779334500875657
sI9
F0.0595446584938704
sI10
F0.0595446584938704
sI11
F0.03852889667250438
sI12
F0.04553415061295972
sI13
F0.04203152364273205
sI14
F0.05604203152364273
sI15
F0.0595446584938704
sI16
F0.040280210157618214
sI17
F0.047285464098073555
sI18
F0.043782837127845885
sI19
F0.04903677758318739
sI20
F0.03852889667250438
ssI22
g0
(g4
tp47
Rp48
I0
F0.03861788617886179
sI1
F0.036585365853658534
sI2
F0.03861788617886179
sI3
F0.044715447154471545
sI4
F0.06300813008130081
sI5
F0.032520325203252036
sI6
F0.04065040650406504
sI7
F0.05894308943089431
sI8
F0.04065040650406504
sI9
F0.04878048780487805
sI10
F0.046747967479674794
sI11
F0.046747967479674794
sI12
F0.06097560975609756
sI13
F0.04065040650406504
sI14
F0.056910569105691054
sI15
F0.044715447154471545
sI16
F0.042682926829268296
sI17
F0.04878048780487805
sI18
F0.042682926829268296
sI19
F0.04065040650406504
sI20
F0.04065040650406504
sI21
F0.044715447154471545
ssI23
g0
(g4
tp49
Rp50
I0
F0.03413654618473896
sI1
F0.040160642570281124
sI2
F0.05220883534136546
sI3
F0.03815261044176707
sI4
F0.04618473895582329
sI5
F0.0321285140562249
sI6
F0.04819277108433735
sI7
F0.04216867469879518
sI8
F0.04417670682730924
sI9
F0.04819277108433735
sI10
F0.04618473895582329
sI11
F0.03413654618473896
sI12
F0.04819277108433735
sI13
F0.04819277108433735
sI14
F0.04819277108433735
sI15
F0.05220883534136546
sI16
F0.03614457831325301
sI17
F0.04618473895582329
sI18
F0.04417670682730924
sI19
F0.050200803212851405
sI20
F0.040160642570281124
sI21
F0.05220883534136546
sI22
F0.028112449799196786
ssI24
g0
(g4
tp51
Rp52
I0
F0.03382663847780127
sI1
F0.03171247357293869
sI2
F0.042283298097251586
sI3
F0.03805496828752643
sI4
F0.052854122621564484
sI5
F0.042283298097251586
sI6
F0.042283298097251586
sI7
F0.046511627906976744
sI8
F0.0507399577167019
sI9
F0.048625792811839326
sI10
F0.046511627906976744
sI11
F0.04439746300211417
sI12
F0.03382663847780127
sI13
F0.03382663847780127
sI14
F0.0507399577167019
sI15
F0.02536997885835095
sI16
F0.03382663847780127
sI17
F0.0507399577167019
sI18
F0.035940803382663845
sI19
F0.03171247357293869
sI20
F0.046511627906976744
sI21
F0.04439746300211417
sI22
F0.05496828752642706
sI23
F0.03805496828752643
ssI25
g0
(g4
tp53
Rp54
I0
F0.03571428571428571
sI1
F0.03273809523809524
sI2
F0.041666666666666664
sI3
F0.03869047619047619
sI4
F0.047619047619047616
sI5
F0.044642857142857144
sI6
F0.041666666666666664
sI7
F0.03869047619047619
sI8
F0.03273809523809524
sI9
F0.050595238095238096
sI10
F0.044642857142857144
sI11
F0.050595238095238096
sI12
F0.03869047619047619
sI13
F0.047619047619047616
sI14
F0.03869047619047619
sI15
F0.050595238095238096
sI16
F0.017857142857142856
sI17
F0.05357142857142857
sI18
F0.02976190476190476
sI19
F0.044642857142857144
sI20
F0.026785714285714284
sI21
F0.03273809523809524
sI22
F0.03869047619047619
sI23
F0.050595238095238096
sI24
F0.02976190476190476
ssI26
g0
(g4
tp55
Rp56
I0
F0.021021021021021023
sI1
F0.036036036036036036
sI2
F0.04804804804804805
sI3
F0.036036036036036036
sI4
F0.042042042042042045
sI5
F0.02702702702702703
sI6
F0.05405405405405406
sI7
F0.03003003003003003
sI8
F0.04504504504504504
sI9
F0.03003003003003003
sI10
F0.03903903903903904
sI11
F0.05405405405405406
sI12
F0.04504504504504504
sI13
F0.04804804804804805
sI14
F0.042042042042042045
sI15
F0.05405405405405406
sI16
F0.036036036036036036
sI17
F0.03903903903903904
sI18
F0.05405405405405406
sI19
F0.03303303303303303
sI20
F0.02702702702702703
sI21
F0.024024024024024024
sI22
F0.036036036036036036
sI23
F0.02702702702702703
sI24
F0.05105105105105105
sI25
F0.021021021021021023
ssI27
g0
(g4
tp57
Rp58
I0
F0.036101083032490974
sI1
F0.018050541516245487
sI2
F0.05415162454873646
sI3
F0.02888086642599278
sI4
F0.05054151624548736
sI5
F0.04693140794223827
sI6
F0.039711191335740074
sI7
F0.032490974729241874
sI8
F0.032490974729241874
sI9
F0.039711191335740074
sI10
F0.02888086642599278
sI11
F0.039711191335740074
sI12
F0.05415162454873646
sI13
F0.039711191335740074
sI14
F0.04693140794223827
sI15
F0.036101083032490974
sI16
F0.02527075812274368
sI17
F0.04332129963898917
sI18
F0.04332129963898917
sI19
F0.036101083032490974
sI20
F0.032490974729241874
sI21
F0.032490974729241874
sI22
F0.032490974729241874
sI23
F0.032490974729241874
sI24
F0.02888086642599278
sI25
F0.036101083032490974
sI26
F0.032490974729241874
ssI28
g0
(g4
tp59
Rp60
I0
F0.02564102564102564
sI1
F0.04395604395604396
sI2
F0.040293040293040296
sI3
F0.040293040293040296
sI4
F0.047619047619047616
sI5
F0.03296703296703297
sI6
F0.040293040293040296
sI7
F0.029304029304029304
sI8
F0.03296703296703297
sI9
F0.03296703296703297
sI10
F0.018315018315018316
sI11
F0.040293040293040296
sI12
F0.02564102564102564
sI13
F0.03296703296703297
sI14
F0.05128205128205128
sI15
F0.03663003663003663
sI16
F0.04395604395604396
sI17
F0.047619047619047616
sI18
F0.04395604395604396
sI19
F0.02564102564102564
sI20
F0.03663003663003663
sI21
F0.047619047619047616
sI22
F0.040293040293040296
sI23
F0.018315018315018316
sI24
F0.03296703296703297
sI25
F0.02564102564102564
sI26
F0.03663003663003663
sI27
F0.029304029304029304
ssI29
g0
(g4
tp61
Rp62
I0
F0.025806451612903226
sI1
F0.01935483870967742
sI2
F0.025806451612903226
sI3
F0.03225806451612903
sI4
F0.025806451612903226
sI5
F0.04516129032258064
sI6
F0.06451612903225806
sI7
F0.04516129032258064
sI8
F0.03225806451612903
sI9
F0.012903225806451613
sI10
F0.03225806451612903
sI11
F0.04516129032258064
sI12
F0.04516129032258064
sI13
F0.06451612903225806
sI14
F0.04516129032258064
sI15
F0.03870967741935484
sI16
F0.03225806451612903
sI17
F0.04516129032258064
sI18
F0.04516129032258064
sI19
F0.03870967741935484
sI20
F0.03225806451612903
sI21
F0.025806451612903226
sI22
F0.025806451612903226
sI23
F0.01935483870967742
sI24
F0.0064516129032258064
sI25
F0.04516129032258064
sI26
F0.012903225806451613
sI27
F0.03225806451612903
sI28
F0.03870967741935484
ssI30
g0
(g4
tp63
Rp64
I0
F0.023255813953488372
sI1
F0.031007751937984496
sI2
F0.031007751937984496
sI3
F0.015503875968992248
sI4
F0.031007751937984496
sI5
F0.06201550387596899
sI6
F0.05426356589147287
sI7
F0.031007751937984496
sI8
F0.023255813953488372
sI9
F0.046511627906976744
sI10
F0.05426356589147287
sI11
F0.023255813953488372
sI12
F0.046511627906976744
sI13
F0.023255813953488372
sI14
F0.031007751937984496
sI15
F0.023255813953488372
sI16
F0.05426356589147287
sI17
F0.031007751937984496
sI18
F0.031007751937984496
sI19
F0.031007751937984496
sI20
F0.031007751937984496
sI21
F0.015503875968992248
sI22
F0.031007751937984496
sI23
F0.007751937984496124
sI24
F0.046511627906976744
sI25
F0.031007751937984496
sI26
F0.03875968992248062
sI27
F0.031007751937984496
sI28
F0.046511627906976744
sI29
F0.023255813953488372
ssI31
g0
(g4
tp65
Rp66
I0
F0.027777777777777776
sI1
F0.013888888888888888
sI2
F0.05555555555555555
sI3
F0.05555555555555555
sI4
F0.027777777777777776
sI5
F0.034722222222222224
sI6
F0.034722222222222224
sI7
F0.027777777777777776
sI8
F0.034722222222222224
sI9
F0.027777777777777776
sI10
F0.05555555555555555
sI11
F0.041666666666666664
sI12
F0.020833333333333332
sI13
F0.034722222222222224
sI14
F0.041666666666666664
sI15
F0.027777777777777776
sI16
F0.006944444444444444
sI17
F0.034722222222222224
sI18
F0.013888888888888888
sI19
F0.034722222222222224
sI20
F0.041666666666666664
sI21
F0.041666666666666664
sI22
F0.013888888888888888
sI23
F0.034722222222222224
sI24
F0.034722222222222224
sI25
F0.041666666666666664
sI26
F0.041666666666666664
sI27
F0.041666666666666664
sI28
F0.020833333333333332
sI29
F0.027777777777777776
sI30
F0.006944444444444444
ssI32
g0
(g4
tp67
Rp68
I0
F0.03488372093023256
sI1
F0.023255813953488372
sI2
F0.011627906976744186
sI3
F0.03488372093023256
sI4
F0.011627906976744186
sI5
F0.011627906976744186
sI6
F0.023255813953488372
sI7
F0.023255813953488372
sI8
F0.03488372093023256
sI9
F0.011627906976744186
sI10
F0.05813953488372093
sI11
F0.023255813953488372
sI12
F0.05813953488372093
sI13
F0.023255813953488372
sI14
F0.05813953488372093
sI15
F0.03488372093023256
sI16
F0.05813953488372093
sI17
F0.03488372093023256
sI18
F0.046511627906976744
sI19
F0.046511627906976744
sI20
F0.011627906976744186
sI21
F0.03488372093023256
sI22
F0.03488372093023256
sI23
F0.023255813953488372
sI24
F0.023255813953488372
sI25
F0.023255813953488372
sI26
F0.03488372093023256
sI27
F0.011627906976744186
sI28
F0.03488372093023256
sI29
F0.05813953488372093
sI30
F0.03488372093023256
sI31
F0.011627906976744186
ssI33
g0
(g4
tp69
Rp70
I0
F0.07272727272727272
sI1
F0.03636363636363636
sI2
F0.03636363636363636
sI3
F0.01818181818181818
sI4
F0.01818181818181818
sI6
F0.01818181818181818
sI8
F0.05454545454545454
sI9
F0.05454545454545454
sI10
F0.03636363636363636
sI11
F0.03636363636363636
sI12
F0.01818181818181818
sI13
F0.03636363636363636
sI15
F0.07272727272727272
sI16
F0.05454545454545454
sI17
F0.01818181818181818
sI18
F0.01818181818181818
sI19
F0.03636363636363636
sI20
F0.03636363636363636
sI21
F0.05454545454545454
sI23
F0.01818181818181818
sI25
F0.01818181818181818
sI26
F0.03636363636363636
sI27
F0.03636363636363636
sI28
F0.01818181818181818
sI29
F0.03636363636363636
sI30
F0.03636363636363636
sI31
F0.01818181818181818
sI32
F0.05454545454545454
ssI34
g0
(g4
tp71
Rp72
I0
F0.047619047619047616
sI1
F0.015873015873015872
sI2
F0.047619047619047616
sI3
F0.015873015873015872
sI5
F0.015873015873015872
sI6
F0.015873015873015872
sI7
F0.015873015873015872
sI8
F0.015873015873015872
sI9
F0.06349206349206349
sI10
F0.031746031746031744
sI11
F0.015873015873015872
sI12
F0.015873015873015872
sI13
F0.047619047619047616
sI15
F0.047619047619047616
sI16
F0.031746031746031744
sI17
F0.031746031746031744
sI18
F0.015873015873015872
sI19
F0.015873015873015872
sI20
F0.047619047619047616
sI21
F0.047619047619047616
sI22
F0.031746031746031744
sI23
F0.047619047619047616
sI24
F0.031746031746031744
sI25
F0.047619047619047616
sI26
F0.047619047619047616
sI27
F0.015873015873015872
sI28
F0.047619047619047616
sI29
F0.015873015873015872
sI30
F0.031746031746031744
sI31
F0.031746031746031744
sI32
F0.015873015873015872
sI33
F0.031746031746031744
ssI35
g0
(g4
tp73
Rp74
I0
F0.06666666666666667
sI32
F0.03333333333333333
sI3
F0.03333333333333333
sI4
F0.06666666666666667
sI6
F0.03333333333333333
sI33
F0.03333333333333333
sI9
F0.03333333333333333
sI11
F0.03333333333333333
sI16
F0.06666666666666667
sI17
F0.03333333333333333
sI18
F0.03333333333333333
sI19
F0.03333333333333333
sI20
F0.06666666666666667
sI21
F0.03333333333333333
sI22
F0.06666666666666667
sI23
F0.03333333333333333
sI26
F0.06666666666666667
sI28
F0.1
sI29
F0.03333333333333333
sI30
F0.06666666666666667
sI31
F0.03333333333333333
ssI36
g0
(g4
tp75
Rp76
I0
F0.05263157894736842
sI1
F0.03508771929824561
sI2
F0.03508771929824561
sI3
F0.05263157894736842
sI4
F0.017543859649122806
sI5
F0.03508771929824561
sI6
F0.017543859649122806
sI8
F0.017543859649122806
sI10
F0.05263157894736842
sI11
F0.05263157894736842
sI12
F0.017543859649122806
sI13
F0.017543859649122806
sI14
F0.017543859649122806
sI15
F0.03508771929824561
sI16
F0.03508771929824561
sI17
F0.017543859649122806
sI18
F0.017543859649122806
sI19
F0.03508771929824561
sI20
F0.017543859649122806
sI21
F0.017543859649122806
sI22
F0.07017543859649122
sI23
F0.05263157894736842
sI24
F0.03508771929824561
sI25
F0.03508771929824561
sI26
F0.017543859649122806
sI28
F0.03508771929824561
sI29
F0.03508771929824561
sI31
F0.03508771929824561
sI32
F0.017543859649122806
sI34
F0.05263157894736842
sI35
F0.017543859649122806
ssI37
g0
(g4
tp77
Rp78
I2
F0.023255813953488372
sI3
F0.023255813953488372
sI4
F0.023255813953488372
sI5
F0.023255813953488372
sI9
F0.06976744186046512
sI10
F0.023255813953488372
sI11
F0.023255813953488372
sI12
F0.023255813953488372
sI14
F0.023255813953488372
sI15
F0.09302325581395349
sI16
F0.046511627906976744
sI17
F0.023255813953488372
sI18
F0.06976744186046512
sI19
F0.023255813953488372
sI20
F0.023255813953488372
sI21
F0.046511627906976744
sI22
F0.023255813953488372
sI23
F0.09302325581395349
sI24
F0.023255813953488372
sI25
F0.023255813953488372
sI26
F0.06976744186046512
sI27
F0.046511627906976744
sI28
F0.023255813953488372
sI30
F0.023255813953488372
sI31
F0.023255813953488372
sI32
F0.023255813953488372
sI33
F0.023255813953488372
sI34
F0.023255813953488372
ssI38
g0
(g4
tp79
Rp80
I0
F0.07692307692307693
sI32
F0.038461538461538464
sI2
F0.038461538461538464
sI3
F0.07692307692307693
sI4
F0.038461538461538464
sI5
F0.038461538461538464
sI6
F0.038461538461538464
sI1
F0.038461538461538464
sI10
F0.038461538461538464
sI12
F0.038461538461538464
sI13
F0.038461538461538464
sI18
F0.038461538461538464
sI35
F0.038461538461538464
sI20
F0.11538461538461539
sI22
F0.038461538461538464
sI24
F0.07692307692307693
sI36
F0.038461538461538464
sI27
F0.038461538461538464
sI28
F0.07692307692307693
sI31
F0.038461538461538464
ssI39
g0
(g4
tp81
Rp82
I34
F0.09090909090909091
sI5
F0.09090909090909091
sI38
F0.09090909090909091
sI9
F0.09090909090909091
sI12
F0.09090909090909091
sI20
F0.09090909090909091
sI23
F0.09090909090909091
sI25
F0.09090909090909091
sI27
F0.09090909090909091
sI28
F0.09090909090909091
sI31
F0.09090909090909091
ssI41
g0
(g4
tp83
Rp84
I37
F1.0
ssI42
g0
(g4
tp85
Rp86
I0
F0.1
sI3
F0.1
sI4
F0.1
sI38
F0.1
sI6
F0.1
sI18
F0.1
sI35
F0.1
sI20
F0.1
sI22
F0.1
sI28
F0.1
ssI43
g0
(g4
tp87
Rp88
I3
F0.5
sI12
F0.5
ssI44
g0
(g4
tp89
Rp90
I16
F0.3333333333333333
sI35
F0.3333333333333333
sI30
F0.3333333333333333
ssI45
g0
(g4
tp91
Rp92
I34
F0.16666666666666666
sI39
F0.16666666666666666
sI9
F0.16666666666666666
sI23
F0.16666666666666666
sI25
F0.16666666666666666
sI31
F0.16666666666666666
ssI46
g0
(g4
tp93
Rp94
I32
F0.3333333333333333
sI33
F0.3333333333333333
sI35
F0.3333333333333333
ss.