ccollections
defaultdict
p0
(c__main__
dd
p1
tp2
Rp3
I1
g0
(c__builtin__
float
p4
tp5
Rp6
I0
F1.0
ssI2
g0
(g4
tp7
Rp8
I0
F0.5806451612903226
sI1
F0.41935483870967744
ssI3
g0
(g4
tp9
Rp10
I0
F0.32978723404255317
sI1
F0.35106382978723405
sI2
F0.3191489361702128
ssI4
g0
(g4
tp11
Rp12
I0
F0.21705426356589147
sI1
F0.1937984496124031
sI2
F0.32558139534883723
sI3
F0.26356589147286824
ssI5
g0
(g4
tp13
Rp14
I0
F0.15492957746478872
sI1
F0.2605633802816901
sI2
F0.21830985915492956
sI3
F0.21830985915492956
sI4
F0.14788732394366197
ssI6
g0
(g4
tp15
Rp16
I0
F0.15979381443298968
sI1
F0.10824742268041238
sI2
F0.23711340206185566
sI3
F0.18041237113402062
sI4
F0.20103092783505155
sI5
F0.1134020618556701
ssI7
g0
(g4
tp17
Rp18
I0
F0.14634146341463414
sI1
F0.14634146341463414
sI2
F0.12601626016260162
sI3
F0.2032520325203252
sI4
F0.16260162601626016
sI5
F0.10975609756097561
sI6
F0.10569105691056911
ssI8
g0
(g4
tp19
Rp20
I0
F0.12307692307692308
sI1
F0.10384615384615385
sI2
F0.16153846153846155
sI3
F0.1076923076923077
sI4
F0.15384615384615385
sI5
F0.13846153846153847
sI6
F0.11538461538461539
sI7
F0.09615384615384616
ssI9
g0
(g4
tp21
Rp22
I0
F0.059027777777777776
sI1
F0.08680555555555555
sI2
F0.1284722222222222
sI3
F0.11805555555555555
sI4
F0.11805555555555555
sI5
F0.1076388888888889
sI6
F0.12152777777777778
sI7
F0.14583333333333334
sI8
F0.11458333333333333
ssI10
g0
(g4
tp23
Rp24
I0
F0.0935672514619883
sI1
F0.09941520467836257
sI2
F0.10818713450292397
sI3
F0.11695906432748537
sI4
F0.08187134502923976
sI5
F0.12573099415204678
sI6
F0.1023391812865497
sI7
F0.1023391812865497
sI8
F0.09064327485380116
sI9
F0.07894736842105263
ssI11
g0
(g4
tp25
Rp26
I0
F0.07164179104477612
sI1
F0.07164179104477612
sI2
F0.10149253731343283
sI3
F0.12238805970149254
sI4
F0.10746268656716418
sI5
F0.08656716417910448
sI6
F0.06865671641791045
sI7
F0.10746268656716418
sI8
F0.10149253731343283
sI9
F0.09253731343283582
sI10
F0.06865671641791045
ssI12
g0
(g4
tp27
Rp28
I0
F0.06569343065693431
sI1
F0.06326034063260341
sI2
F0.10948905109489052
sI3
F0.0851581508515815
sI4
F0.09002433090024331
sI5
F0.08029197080291971
sI6
F0.09002433090024331
sI7
F0.0827250608272506
sI8
F0.09245742092457421
sI9
F0.0948905109489051
sI10
F0.09732360097323602
sI11
F0.04866180048661801
ssI13
g0
(g4
tp29
Rp30
I0
F0.06170212765957447
sI1
F0.06808510638297872
sI2
F0.07659574468085106
sI3
F0.07659574468085106
sI4
F0.07659574468085106
sI5
F0.07234042553191489
sI6
F0.09148936170212765
sI7
F0.08085106382978724
sI8
F0.09148936170212765
sI9
F0.07446808510638298
sI10
F0.06808510638297872
sI11
F0.07234042553191489
sI12
F0.08936170212765958
ssI14
g0
(g4
tp31
Rp32
I0
F0.05042016806722689
sI1
F0.08403361344537816
sI2
F0.06932773109243698
sI3
F0.06512605042016807
sI4
F0.07563025210084033
sI5
F0.06512605042016807
sI6
F0.06932773109243698
sI7
F0.08823529411764706
sI8
F0.06302521008403361
sI9
F0.09033613445378151
sI10
F0.07142857142857142
sI11
F0.0861344537815126
sI12
F0.07563025210084033
sI13
F0.046218487394957986
ssI15
g0
(g4
tp33
Rp34
I0
F0.0734341252699784
sI1
F0.05399568034557235
sI2
F0.06047516198704104
sI3
F0.058315334773218146
sI4
F0.0755939524838013
sI5
F0.08639308855291576
sI6
F0.06911447084233262
sI7
F0.058315334773218146
sI8
F0.07127429805615551
sI9
F0.0734341252699784
sI10
F0.06695464362850972
sI11
F0.06479481641468683
sI12
F0.06263498920086392
sI13
F0.09287257019438445
sI14
F0.032397408207343416
ssI16
g0
(g4
tp35
Rp36
I0
F0.04642857142857143
sI1
F0.06607142857142857
sI2
F0.06428571428571428
sI3
F0.06964285714285715
sI4
F0.07142857142857142
sI5
F0.0625
sI6
F0.07321428571428572
sI7
F0.044642857142857144
sI8
F0.06428571428571428
sI9
F0.04285714285714286
sI10
F0.07857142857142857
sI11
F0.05714285714285714
sI12
F0.08214285714285714
sI13
F0.07142857142857142
sI14
F0.05714285714285714
sI15
F0.048214285714285716
ssI17
g0
(g4
tp37
Rp38
I0
F0.04258943781942078
sI1
F0.049403747870528106
sI2
F0.06473594548551959
sI3
F0.06303236797274275
sI4
F0.06303236797274275
sI5
F0.056218057921635436
sI6
F0.07666098807495741
sI7
F0.07155025553662692
sI8
F0.06473594548551959
sI9
F0.05792163543441227
sI10
F0.05110732538330494
sI11
F0.054514480408858604
sI12
F0.06473594548551959
sI13
F0.054514480408858604
sI14
F0.054514480408858604
sI15
F0.059625212947189095
sI16
F0.05110732538330494
ssI18
g0
(g4
tp39
Rp40
I0
F0.044753086419753084
sI1
F0.05864197530864197
sI2
F0.043209876543209874
sI3
F0.05864197530864197
sI4
F0.06172839506172839
sI5
F0.05092592592592592
sI6
F0.05709876543209876
sI7
F0.06327160493827161
sI8
F0.05401234567901234
sI9
F0.05092592592592592
sI10
F0.05246913580246913
sI11
F0.05555555555555555
sI12
F0.07253086419753087
sI13
F0.06172839506172839
sI14
F0.05709876543209876
sI15
F0.06172839506172839
sI16
F0.05709876543209876
sI17
F0.038580246913580245
ssI19
g0
(g4
tp41
Rp42
I0
F0.030110935023771792
sI1
F0.03328050713153724
sI2
F0.060221870047543584
sI3
F0.044374009508716325
sI4
F0.061806656101426306
sI5
F0.05071315372424723
sI6
F0.06339144215530904
sI7
F0.05071315372424723
sI8
F0.07290015847860538
sI9
F0.04754358161648178
sI10
F0.05388272583201268
sI11
F0.05705229793977813
sI12
F0.05388272583201268
sI13
F0.060221870047543584
sI14
F0.05071315372424723
sI15
F0.05705229793977813
sI16
F0.05388272583201268
sI17
F0.061806656101426306
sI18
F0.03645007923930269
ssI20
g0
(g4
tp43
Rp44
I0
F0.04411764705882353
sI1
F0.04738562091503268
sI2
F0.05228758169934641
sI3
F0.049019607843137254
sI4
F0.0392156862745098
sI5
F0.03594771241830065
sI6
F0.06862745098039216
sI7
F0.05555555555555555
sI8
F0.05555555555555555
sI9
F0.0457516339869281
sI10
F0.05555555555555555
sI11
F0.03431372549019608
sI12
F0.05228758169934641
sI13
F0.058823529411764705
sI14
F0.05555555555555555
sI15
F0.042483660130718956
sI16
F0.05228758169934641
sI17
F0.05228758169934641
sI18
F0.058823529411764705
sI19
F0.04411764705882353
ssI21
g0
(g4
tp45
Rp46
I0
F0.034334763948497854
sI1
F0.04291845493562232
sI2
F0.05150214592274678
sI3
F0.044349070100143065
sI4
F0.04721030042918455
sI5
F0.0357653791130186
sI6
F0.05722460658082976
sI7
F0.04864091559370529
sI8
F0.060085836909871244
sI9
F0.05007153075822604
sI10
F0.05293276108726753
sI11
F0.05007153075822604
sI12
F0.04721030042918455
sI13
F0.044349070100143065
sI14
F0.05007153075822604
sI15
F0.04721030042918455
sI16
F0.03719599427753934
sI17
F0.05722460658082976
sI18
F0.05150214592274678
sI19
F0.05293276108726753
sI20
F0.03719599427753934
ssI22
g0
(g4
tp47
Rp48
I0
F0.029605263157894735
sI1
F0.039473684210526314
sI2
F0.046052631578947366
sI3
F0.046052631578947366
sI4
F0.05098684210526316
sI5
F0.049342105263157895
sI6
F0.039473684210526314
sI7
F0.05592105263157895
sI8
F0.04111842105263158
sI9
F0.046052631578947366
sI10
F0.05098684210526316
sI11
F0.047697368421052634
sI12
F0.05263157894736842
sI13
F0.04276315789473684
sI14
F0.05263157894736842
sI15
F0.04111842105263158
sI16
F0.05756578947368421
sI17
F0.04111842105263158
sI18
F0.047697368421052634
sI19
F0.046052631578947366
sI20
F0.03782894736842105
sI21
F0.03782894736842105
ssI23
g0
(g4
tp49
Rp50
I0
F0.028409090909090908
sI1
F0.04261363636363636
sI2
F0.045454545454545456
sI3
F0.04403409090909091
sI4
F0.03977272727272727
sI5
F0.036931818181818184
sI6
F0.04971590909090909
sI7
F0.041193181818181816
sI8
F0.03835227272727273
sI9
F0.04261363636363636
sI10
F0.05539772727272727
sI11
F0.045454545454545456
sI12
F0.045454545454545456
sI13
F0.04971590909090909
sI14
F0.05113636363636364
sI15
F0.045454545454545456
sI16
F0.04403409090909091
sI17
F0.052556818181818184
sI18
F0.03835227272727273
sI19
F0.046875
sI20
F0.041193181818181816
sI21
F0.046875
sI22
F0.028409090909090908
ssI24
g0
(g4
tp51
Rp52
I0
F0.03296703296703297
sI1
F0.03708791208791209
sI2
F0.04807692307692308
sI3
F0.046703296703296704
sI4
F0.04395604395604396
sI5
F0.03571428571428571
sI6
F0.038461538461538464
sI7
F0.04120879120879121
sI8
F0.0521978021978022
sI9
F0.03983516483516483
sI10
F0.03983516483516483
sI11
F0.034340659340659344
sI12
F0.04395604395604396
sI13
F0.046703296703296704
sI14
F0.04120879120879121
sI15
F0.03571428571428571
sI16
F0.03983516483516483
sI17
F0.05631868131868132
sI18
F0.042582417582417584
sI19
F0.034340659340659344
sI20
F0.046703296703296704
sI21
F0.03708791208791209
sI22
F0.04945054945054945
sI23
F0.03571428571428571
ssI25
g0
(g4
tp53
Rp54
I0
F0.04052098408104197
sI1
F0.0361794500723589
sI2
F0.05065123010130246
sI3
F0.03762662807525326
sI4
F0.041968162083936326
sI5
F0.04341534008683068
sI6
F0.027496382054992764
sI7
F0.03762662807525326
sI8
F0.024602026049204053
sI9
F0.03907380607814761
sI10
F0.04341534008683068
sI11
F0.04486251808972504
sI12
F0.041968162083936326
sI13
F0.04052098408104197
sI14
F0.05065123010130246
sI15
F0.04630969609261939
sI16
F0.04052098408104197
sI17
F0.04486251808972504
sI18
F0.0361794500723589
sI19
F0.03762662807525326
sI20
F0.03762662807525326
sI21
F0.04630969609261939
sI22
F0.030390738060781478
sI23
F0.04341534008683068
sI24
F0.0361794500723589
ssI26
g0
(g4
tp55
Rp56
I0
F0.029333333333333333
sI1
F0.03333333333333333
sI2
F0.04533333333333334
sI3
F0.03866666666666667
sI4
F0.04933333333333333
sI5
F0.03333333333333333
sI6
F0.034666666666666665
sI7
F0.04933333333333333
sI8
F0.042666666666666665
sI9
F0.032
sI10
F0.032
sI11
F0.03866666666666667
sI12
F0.04533333333333334
sI13
F0.04133333333333333
sI14
F0.036
sI15
F0.04533333333333334
sI16
F0.03333333333333333
sI17
F0.032
sI18
F0.05466666666666667
sI19
F0.037333333333333336
sI20
F0.03866666666666667
sI21
F0.036
sI22
F0.042666666666666665
sI23
F0.03866666666666667
sI24
F0.037333333333333336
sI25
F0.02266666666666667
ssI27
g0
(g4
tp57
Rp58
I0
F0.03961748633879782
sI1
F0.023224043715846996
sI2
F0.03415300546448088
sI3
F0.04234972677595628
sI4
F0.036885245901639344
sI5
F0.03551912568306011
sI6
F0.040983606557377046
sI7
F0.03825136612021858
sI8
F0.036885245901639344
sI9
F0.03551912568306011
sI10
F0.036885245901639344
sI11
F0.03551912568306011
sI12
F0.03278688524590164
sI13
F0.036885245901639344
sI14
F0.050546448087431695
sI15
F0.03415300546448088
sI16
F0.03415300546448088
sI17
F0.03825136612021858
sI18
F0.04234972677595628
sI19
F0.040983606557377046
sI20
F0.03551912568306011
sI21
F0.04234972677595628
sI22
F0.028688524590163935
sI23
F0.03415300546448088
sI24
F0.045081967213114756
sI25
F0.03961748633879782
sI26
F0.028688524590163935
ssI28
g0
(g4
tp59
Rp60
I0
F0.030927835051546393
sI1
F0.037371134020618556
sI2
F0.041237113402061855
sI3
F0.03608247422680412
sI4
F0.037371134020618556
sI5
F0.03221649484536082
sI6
F0.037371134020618556
sI7
F0.03994845360824742
sI8
F0.030927835051546393
sI9
F0.03350515463917526
sI10
F0.030927835051546393
sI11
F0.03350515463917526
sI12
F0.03479381443298969
sI13
F0.030927835051546393
sI14
F0.04252577319587629
sI15
F0.037371134020618556
sI16
F0.03994845360824742
sI17
F0.045103092783505154
sI18
F0.03865979381443299
sI19
F0.029639175257731958
sI20
F0.03608247422680412
sI21
F0.04768041237113402
sI22
F0.041237113402061855
sI23
F0.037371134020618556
sI24
F0.03221649484536082
sI25
F0.03350515463917526
sI26
F0.027061855670103094
sI27
F0.024484536082474227
ssI29
g0
(g4
tp61
Rp62
I0
F0.03253182461103253
sI1
F0.03253182461103253
sI2
F0.03253182461103253
sI3
F0.03253182461103253
sI4
F0.0297029702970297
sI5
F0.024045261669024046
sI6
F0.033946251768033946
sI7
F0.021216407355021217
sI8
F0.028288543140028287
sI9
F0.02545968882602546
sI10
F0.04809052333804809
sI11
F0.039603960396039604
sI12
F0.0297029702970297
sI13
F0.04384724186704385
sI14
F0.033946251768033946
sI15
F0.042432814710042434
sI16
F0.04384724186704385
sI17
F0.03536067892503536
sI18
F0.05233380480905234
sI19
F0.04384724186704385
sI20
F0.03253182461103253
sI21
F0.03818953323903819
sI22
F0.026874115983026876
sI23
F0.03818953323903819
sI24
F0.026874115983026876
sI25
F0.039603960396039604
sI26
F0.031117397454031116
sI27
F0.031117397454031116
sI28
F0.0297029702970297
ssI30
g0
(g4
tp63
Rp64
I0
F0.017264276228419653
sI1
F0.034528552456839307
sI2
F0.034528552456839307
sI3
F0.03054448871181939
sI4
F0.035856573705179286
sI5
F0.03054448871181939
sI6
F0.03054448871181939
sI7
F0.03187250996015936
sI8
F0.03718459495351926
sI9
F0.03851261620185923
sI10
F0.034528552456839307
sI11
F0.041168658698539175
sI12
F0.035856573705179286
sI13
F0.033200531208499334
sI14
F0.029216467463479414
sI15
F0.02656042496679947
sI16
F0.0398406374501992
sI17
F0.035856573705179286
sI18
F0.02656042496679947
sI19
F0.02656042496679947
sI20
F0.0398406374501992
sI21
F0.03187250996015936
sI22
F0.03054448871181939
sI23
F0.0398406374501992
sI24
F0.03187250996015936
sI25
F0.0451527224435591
sI26
F0.02656042496679947
sI27
F0.04249667994687915
sI28
F0.0398406374501992
sI29
F0.021248339973439574
ssI31
g0
(g4
tp65
Rp66
I0
F0.034974093264248704
sI1
F0.025906735751295335
sI2
F0.03756476683937824
sI3
F0.03626943005181347
sI4
F0.02072538860103627
sI5
F0.027202072538860103
sI6
F0.03238341968911917
sI7
F0.03367875647668394
sI8
F0.03756476683937824
sI9
F0.03626943005181347
sI10
F0.038860103626943004
sI11
F0.022020725388601035
sI12
F0.027202072538860103
sI13
F0.038860103626943004
sI14
F0.031088082901554404
sI15
F0.031088082901554404
sI16
F0.027202072538860103
sI17
F0.03626943005181347
sI18
F0.03756476683937824
sI19
F0.03756476683937824
sI20
F0.027202072538860103
sI21
F0.05181347150259067
sI22
F0.02849740932642487
sI23
F0.02849740932642487
sI24
F0.02849740932642487
sI25
F0.029792746113989636
sI26
F0.031088082901554404
sI27
F0.034974093264248704
sI28
F0.029792746113989636
sI29
F0.03756476683937824
sI30
F0.022020725388601035
ssI32
g0
(g4
tp67
Rp68
I0
F0.022123893805309734
sI1
F0.02359882005899705
sI2
F0.03687315634218289
sI3
F0.028023598820058997
sI4
F0.03687315634218289
sI5
F0.017699115044247787
sI6
F0.04129793510324484
sI7
F0.035398230088495575
sI8
F0.022123893805309734
sI9
F0.025073746312684365
sI10
F0.048672566371681415
sI11
F0.022123893805309734
sI12
F0.03392330383480826
sI13
F0.035398230088495575
sI14
F0.035398230088495575
sI15
F0.03392330383480826
sI16
F0.03687315634218289
sI17
F0.02654867256637168
sI18
F0.035398230088495575
sI19
F0.03687315634218289
sI20
F0.030973451327433628
sI21
F0.03687315634218289
sI22
F0.02359882005899705
sI23
F0.03687315634218289
sI24
F0.030973451327433628
sI25
F0.028023598820058997
sI26
F0.04277286135693215
sI27
F0.02654867256637168
sI28
F0.029498525073746312
sI29
F0.019174041297935103
sI30
F0.04277286135693215
sI31
F0.017699115044247787
ssI33
g0
(g4
tp69
Rp70
I0
F0.027586206896551724
sI1
F0.02482758620689655
sI2
F0.031724137931034485
sI3
F0.02482758620689655
sI4
F0.028965517241379312
sI5
F0.031724137931034485
sI6
F0.030344827586206897
sI7
F0.031724137931034485
sI8
F0.028965517241379312
sI9
F0.030344827586206897
sI10
F0.030344827586206897
sI11
F0.038620689655172416
sI12
F0.031724137931034485
sI13
F0.030344827586206897
sI14
F0.028965517241379312
sI15
F0.023448275862068966
sI16
F0.04
sI17
F0.022068965517241378
sI18
F0.03310344827586207
sI19
F0.031724137931034485
sI20
F0.028965517241379312
sI21
F0.030344827586206897
sI22
F0.02620689655172414
sI23
F0.030344827586206897
sI24
F0.030344827586206897
sI25
F0.037241379310344824
sI26
F0.034482758620689655
sI27
F0.03586206896551724
sI28
F0.030344827586206897
sI29
F0.02620689655172414
sI30
F0.04
sI31
F0.027586206896551724
sI32
F0.020689655172413793
ssI34
g0
(g4
tp71
Rp72
I0
F0.01757188498402556
sI1
F0.023961661341853034
sI2
F0.038338658146964855
sI3
F0.027156549520766772
sI4
F0.038338658146964855
sI5
F0.01597444089456869
sI6
F0.027156549520766772
sI7
F0.022364217252396165
sI8
F0.04153354632587859
sI9
F0.02875399361022364
sI10
F0.03035143769968051
sI11
F0.036741214057507986
sI12
F0.03194888178913738
sI13
F0.027156549520766772
sI14
F0.025559105431309903
sI15
F0.03035143769968051
sI16
F0.03035143769968051
sI17
F0.03194888178913738
sI18
F0.03194888178913738
sI19
F0.03354632587859425
sI20
F0.025559105431309903
sI21
F0.04313099041533546
sI22
F0.03035143769968051
sI23
F0.039936102236421724
sI24
F0.027156549520766772
sI25
F0.023961661341853034
sI26
F0.03194888178913738
sI27
F0.022364217252396165
sI28
F0.036741214057507986
sI29
F0.022364217252396165
sI30
F0.023961661341853034
sI31
F0.03354632587859425
sI32
F0.025559105431309903
sI33
F0.022364217252396165
ssI35
g0
(g4
tp73
Rp74
I0
F0.021739130434782608
sI1
F0.030797101449275364
sI2
F0.03985507246376811
sI3
F0.016304347826086956
sI4
F0.03985507246376811
sI5
F0.010869565217391304
sI6
F0.030797101449275364
sI7
F0.03260869565217391
sI8
F0.02717391304347826
sI9
F0.021739130434782608
sI10
F0.03260869565217391
sI11
F0.030797101449275364
sI12
F0.02717391304347826
sI13
F0.019927536231884056
sI14
F0.034420289855072464
sI15
F0.036231884057971016
sI16
F0.028985507246376812
sI17
F0.034420289855072464
sI18
F0.030797101449275364
sI19
F0.030797101449275364
sI20
F0.02355072463768116
sI21
F0.030797101449275364
sI22
F0.021739130434782608
sI23
F0.02717391304347826
sI24
F0.034420289855072464
sI25
F0.021739130434782608
sI26
F0.028985507246376812
sI27
F0.030797101449275364
sI28
F0.036231884057971016
sI29
F0.030797101449275364
sI30
F0.034420289855072464
sI31
F0.016304347826086956
sI32
F0.028985507246376812
sI33
F0.02717391304347826
sI34
F0.028985507246376812
ssI36
g0
(g4
tp75
Rp76
I0
F0.018803418803418803
sI1
F0.02735042735042735
sI2
F0.037606837606837605
sI3
F0.02905982905982906
sI4
F0.020512820512820513
sI5
F0.037606837606837605
sI6
F0.023931623931623933
sI7
F0.02905982905982906
sI8
F0.039316239316239315
sI9
F0.020512820512820513
sI10
F0.035897435897435895
sI11
F0.03418803418803419
sI12
F0.044444444444444446
sI13
F0.02564102564102564
sI14
F0.02735042735042735
sI15
F0.015384615384615385
sI16
F0.03247863247863248
sI17
F0.022222222222222223
sI18
F0.022222222222222223
sI19
F0.02735042735042735
sI20
F0.017094017094017096
sI21
F0.02564102564102564
sI22
F0.017094017094017096
sI23
F0.037606837606837605
sI24
F0.02735042735042735
sI25
F0.035897435897435895
sI26
F0.02905982905982906
sI27
F0.018803418803418803
sI28
F0.02735042735042735
sI29
F0.02905982905982906
sI30
F0.03076923076923077
sI31
F0.02564102564102564
sI32
F0.02905982905982906
sI33
F0.022222222222222223
sI34
F0.03418803418803419
sI35
F0.022222222222222223
ssI37
g0
(g4
tp77
Rp78
I0
F0.01866251944012442
sI1
F0.017107309486780714
sI2
F0.027993779160186624
sI3
F0.02177293934681182
sI4
F0.026438569206842923
sI5
F0.02021772939346812
sI6
F0.026438569206842923
sI7
F0.024883359253499222
sI8
F0.02332814930015552
sI9
F0.029548989113530325
sI10
F0.024883359253499222
sI11
F0.026438569206842923
sI12
F0.03110419906687403
sI13
F0.01866251944012442
sI14
F0.04354587869362364
sI15
F0.029548989113530325
sI16
F0.03110419906687403
sI17
F0.02021772939346812
sI18
F0.03110419906687403
sI19
F0.02021772939346812
sI20
F0.024883359253499222
sI21
F0.03265940902021773
sI22
F0.027993779160186624
sI23
F0.027993779160186624
sI24
F0.01866251944012442
sI25
F0.041990668740279936
sI26
F0.029548989113530325
sI27
F0.029548989113530325
sI28
F0.03110419906687403
sI29
F0.03265940902021773
sI30
F0.029548989113530325
sI31
F0.03732503888024884
sI32
F0.03421461897356143
sI33
F0.024883359253499222
sI34
F0.027993779160186624
sI35
F0.015552099533437015
sI36
F0.02021772939346812
ssI38
g0
(g4
tp79
Rp80
I0
F0.029900332225913623
sI1
F0.018272425249169437
sI2
F0.018272425249169437
sI3
F0.02823920265780731
sI4
F0.03820598006644518
sI5
F0.019933554817275746
sI6
F0.023255813953488372
sI7
F0.023255813953488372
sI8
F0.03322259136212625
sI9
F0.026578073089700997
sI10
F0.02159468438538206
sI11
F0.026578073089700997
sI12
F0.018272425249169437
sI13
F0.029900332225913623
sI14
F0.024916943521594685
sI15
F0.02159468438538206
sI16
F0.02159468438538206
sI17
F0.029900332225913623
sI18
F0.03156146179401993
sI19
F0.023255813953488372
sI20
F0.023255813953488372
sI21
F0.03156146179401993
sI22
F0.019933554817275746
sI23
F0.02159468438538206
sI24
F0.018272425249169437
sI25
F0.026578073089700997
sI26
F0.03322259136212625
sI27
F0.026578073089700997
sI28
F0.044850498338870434
sI29
F0.02159468438538206
sI30
F0.026578073089700997
sI31
F0.02823920265780731
sI32
F0.026578073089700997
sI33
F0.03488372093023256
sI34
F0.03322259136212625
sI35
F0.02159468438538206
sI36
F0.029900332225913623
sI37
F0.023255813953488372
ssI39
g0
(g4
tp81
Rp82
I0
F0.018484288354898338
sI1
F0.025878003696857672
sI2
F0.024029574861367836
sI3
F0.014787430683918669
sI4
F0.024029574861367836
sI5
F0.024029574861367836
sI6
F0.012939001848428836
sI7
F0.018484288354898338
sI8
F0.029574861367837338
sI9
F0.012939001848428836
sI10
F0.025878003696857672
sI11
F0.02033271719038817
sI12
F0.029574861367837338
sI13
F0.024029574861367836
sI14
F0.03512014787430684
sI15
F0.02033271719038817
sI16
F0.031423290203327174
sI17
F0.022181146025878003
sI18
F0.027726432532347505
sI19
F0.022181146025878003
sI20
F0.022181146025878003
sI21
F0.027726432532347505
sI22
F0.02033271719038817
sI23
F0.024029574861367836
sI24
F0.029574861367837338
sI25
F0.03512014787430684
sI26
F0.022181146025878003
sI27
F0.029574861367837338
sI28
F0.029574861367837338
sI29
F0.027726432532347505
sI30
F0.04066543438077634
sI31
F0.038817005545286505
sI32
F0.022181146025878003
sI33
F0.027726432532347505
sI34
F0.033271719038817
sI35
F0.025878003696857672
sI36
F0.029574861367837338
sI37
F0.02033271719038817
sI38
F0.029574861367837338
ssI40
g0
(g4
tp83
Rp84
I0
F0.022222222222222223
sI1
F0.01818181818181818
sI2
F0.022222222222222223
sI3
F0.028282828282828285
sI4
F0.024242424242424242
sI5
F0.01818181818181818
sI6
F0.03434343434343434
sI7
F0.03232323232323232
sI8
F0.022222222222222223
sI9
F0.022222222222222223
sI10
F0.024242424242424242
sI11
F0.03232323232323232
sI12
F0.012121212121212121
sI13
F0.026262626262626262
sI14
F0.030303030303030304
sI15
F0.026262626262626262
sI16
F0.028282828282828285
sI17
F0.03636363636363636
sI18
F0.028282828282828285
sI19
F0.03636363636363636
sI20
F0.020202020202020204
sI21
F0.022222222222222223
sI22
F0.026262626262626262
sI23
F0.020202020202020204
sI24
F0.01818181818181818
sI25
F0.01818181818181818
sI26
F0.03838383838383838
sI27
F0.026262626262626262
sI28
F0.024242424242424242
sI29
F0.024242424242424242
sI30
F0.020202020202020204
sI31
F0.028282828282828285
sI32
F0.03434343434343434
sI33
F0.030303030303030304
sI34
F0.026262626262626262
sI35
F0.00808080808080808
sI36
F0.020202020202020204
sI37
F0.028282828282828285
sI38
F0.024242424242424242
sI39
F0.01616161616161616
ssI41
g0
(g4
tp85
Rp86
I0
F0.012915129151291513
sI1
F0.025830258302583026
sI2
F0.02952029520295203
sI3
F0.027675276752767528
sI4
F0.014760147601476014
sI5
F0.012915129151291513
sI6
F0.027675276752767528
sI7
F0.025830258302583026
sI8
F0.02214022140221402
sI9
F0.02029520295202952
sI10
F0.02952029520295203
sI11
F0.033210332103321034
sI12
F0.023985239852398525
sI13
F0.023985239852398525
sI14
F0.025830258302583026
sI15
F0.016605166051660517
sI16
F0.027675276752767528
sI17
F0.023985239852398525
sI18
F0.014760147601476014
sI19
F0.02952029520295203
sI20
F0.02029520295202952
sI21
F0.02952029520295203
sI22
F0.01845018450184502
sI23
F0.02029520295202952
sI24
F0.025830258302583026
sI25
F0.033210332103321034
sI26
F0.023985239852398525
sI27
F0.02952029520295203
sI28
F0.04059040590405904
sI29
F0.025830258302583026
sI30
F0.03136531365313653
sI31
F0.027675276752767528
sI32
F0.016605166051660517
sI33
F0.03136531365313653
sI34
F0.03505535055350553
sI35
F0.01845018450184502
sI36
F0.02214022140221402
sI37
F0.01845018450184502
sI38
F0.02029520295202952
sI39
F0.02214022140221402
sI40
F0.02029520295202952
ssI42
g0
(g4
tp87
Rp88
I0
F0.010683760683760684
sI1
F0.019230769230769232
sI2
F0.03418803418803419
sI3
F0.023504273504273504
sI4
F0.027777777777777776
sI5
F0.019230769230769232
sI6
F0.021367521367521368
sI7
F0.014957264957264958
sI8
F0.027777777777777776
sI9
F0.010683760683760684
sI10
F0.03418803418803419
sI11
F0.027777777777777776
sI12
F0.027777777777777776
sI13
F0.02564102564102564
sI14
F0.02564102564102564
sI15
F0.019230769230769232
sI16
F0.021367521367521368
sI17
F0.027777777777777776
sI18
F0.03418803418803419
sI19
F0.02564102564102564
sI20
F0.021367521367521368
sI21
F0.02564102564102564
sI22
F0.029914529914529916
sI23
F0.023504273504273504
sI24
F0.019230769230769232
sI25
F0.017094017094017096
sI26
F0.03205128205128205
sI27
F0.02564102564102564
sI28
F0.023504273504273504
sI29
F0.017094017094017096
sI30
F0.03205128205128205
sI31
F0.023504273504273504
sI32
F0.02564102564102564
sI33
F0.029914529914529916
sI34
F0.023504273504273504
sI35
F0.02564102564102564
sI36
F0.027777777777777776
sI37
F0.01282051282051282
sI38
F0.023504273504273504
sI39
F0.02564102564102564
sI40
F0.021367521367521368
sI41
F0.014957264957264958
ssI43
g0
(g4
tp89
Rp90
I0
F0.024498886414253896
sI1
F0.017817371937639197
sI2
F0.026726057906458798
sI3
F0.017817371937639197
sI4
F0.026726057906458798
sI5
F0.017817371937639197
sI6
F0.024498886414253896
sI7
F0.015590200445434299
sI8
F0.026726057906458798
sI9
F0.028953229398663696
sI10
F0.028953229398663696
sI11
F0.022271714922048998
sI12
F0.028953229398663696
sI13
F0.024498886414253896
sI14
F0.028953229398663696
sI15
F0.017817371937639197
sI16
F0.0200445434298441
sI17
F0.0334075723830735
sI18
F0.022271714922048998
sI19
F0.035634743875278395
sI20
F0.017817371937639197
sI21
F0.013363028953229399
sI22
F0.013363028953229399
sI23
F0.015590200445434299
sI24
F0.024498886414253896
sI25
F0.015590200445434299
sI26
F0.026726057906458798
sI27
F0.015590200445434299
sI28
F0.022271714922048998
sI29
F0.0334075723830735
sI30
F0.0334075723830735
sI31
F0.0334075723830735
sI32
F0.024498886414253896
sI33
F0.028953229398663696
sI34
F0.0200445434298441
sI35
F0.022271714922048998
sI36
F0.0200445434298441
sI37
F0.026726057906458798
sI38
F0.013363028953229399
sI39
F0.017817371937639197
sI40
F0.022271714922048998
sI41
F0.0334075723830735
sI42
F0.015590200445434299
ssI44
g0
(g4
tp91
Rp92
I0
F0.01912568306010929
sI1
F0.01912568306010929
sI2
F0.02185792349726776
sI3
F0.0273224043715847
sI4
F0.02459016393442623
sI5
F0.01639344262295082
sI6
F0.03825136612021858
sI7
F0.02185792349726776
sI8
F0.01639344262295082
sI9
F0.02185792349726776
sI10
F0.02185792349726776
sI11
F0.01366120218579235
sI12
F0.01639344262295082
sI13
F0.03551912568306011
sI14
F0.02459016393442623
sI15
F0.0273224043715847
sI16
F0.030054644808743168
sI17
F0.0273224043715847
sI18
F0.02459016393442623
sI19
F0.01912568306010929
sI20
F0.0273224043715847
sI21
F0.02185792349726776
sI22
F0.01639344262295082
sI23
F0.0273224043715847
sI24
F0.030054644808743168
sI25
F0.02459016393442623
sI26
F0.01366120218579235
sI27
F0.03551912568306011
sI28
F0.0273224043715847
sI29
F0.01912568306010929
sI30
F0.01639344262295082
sI31
F0.02185792349726776
sI32
F0.02185792349726776
sI33
F0.0273224043715847
sI34
F0.02185792349726776
sI35
F0.03278688524590164
sI36
F0.02185792349726776
sI37
F0.0273224043715847
sI38
F0.02185792349726776
sI39
F0.00819672131147541
sI40
F0.01366120218579235
sI41
F0.02185792349726776
sI42
F0.01912568306010929
sI43
F0.01366120218579235
ssI45
g0
(g4
tp93
Rp94
I0
F0.01256281407035176
sI1
F0.01256281407035176
sI2
F0.03015075376884422
sI3
F0.022613065326633167
sI4
F0.020100502512562814
sI5
F0.010050251256281407
sI6
F0.02512562814070352
sI7
F0.02763819095477387
sI8
F0.01507537688442211
sI9
F0.022613065326633167
sI10
F0.02763819095477387
sI11
F0.020100502512562814
sI12
F0.010050251256281407
sI13
F0.01507537688442211
sI14
F0.03015075376884422
sI15
F0.020100502512562814
sI16
F0.02512562814070352
sI17
F0.02763819095477387
sI18
F0.01507537688442211
sI19
F0.02512562814070352
sI20
F0.01256281407035176
sI21
F0.035175879396984924
sI22
F0.02763819095477387
sI23
F0.017587939698492462
sI24
F0.020100502512562814
sI25
F0.03015075376884422
sI26
F0.020100502512562814
sI27
F0.020100502512562814
sI28
F0.02763819095477387
sI29
F0.02512562814070352
sI30
F0.02512562814070352
sI31
F0.02763819095477387
sI32
F0.03015075376884422
sI33
F0.022613065326633167
sI34
F0.02763819095477387
sI35
F0.032663316582914576
sI36
F0.01507537688442211
sI37
F0.02512562814070352
sI38
F0.022613065326633167
sI39
F0.022613065326633167
sI40
F0.017587939698492462
sI41
F0.02763819095477387
sI42
F0.022613065326633167
sI43
F0.02512562814070352
sI44
F0.005025125628140704
ssI46
g0
(g4
tp95
Rp96
I0
F0.00819672131147541
sI1
F0.02185792349726776
sI2
F0.01639344262295082
sI3
F0.02459016393442623
sI4
F0.01639344262295082
sI5
F0.01912568306010929
sI6
F0.02185792349726776
sI7
F0.030054644808743168
sI8
F0.0273224043715847
sI9
F0.0273224043715847
sI10
F0.02185792349726776
sI11
F0.0273224043715847
sI12
F0.01639344262295082
sI13
F0.01912568306010929
sI14
F0.02459016393442623
sI15
F0.02185792349726776
sI16
F0.01639344262295082
sI17
F0.02185792349726776
sI18
F0.02459016393442623
sI19
F0.02459016393442623
sI20
F0.01366120218579235
sI21
F0.02185792349726776
sI22
F0.02459016393442623
sI23
F0.0273224043715847
sI24
F0.01639344262295082
sI25
F0.02185792349726776
sI26
F0.02459016393442623
sI27
F0.0273224043715847
sI28
F0.02459016393442623
sI29
F0.02459016393442623
sI30
F0.01639344262295082
sI31
F0.02185792349726776
sI32
F0.02185792349726776
sI33
F0.02459016393442623
sI34
F0.0273224043715847
sI35
F0.01639344262295082
sI36
F0.02185792349726776
sI37
F0.02185792349726776
sI38
F0.01366120218579235
sI39
F0.01639344262295082
sI40
F0.0273224043715847
sI41
F0.030054644808743168
sI42
F0.02459016393442623
sI43
F0.01639344262295082
sI44
F0.02185792349726776
sI45
F0.01912568306010929
ssI47
g0
(g4
tp97
Rp98
I0
F0.008595988538681949
sI1
F0.022922636103151862
sI2
F0.017191977077363897
sI3
F0.014326647564469915
sI4
F0.03151862464183381
sI5
F0.008595988538681949
sI6
F0.025787965616045846
sI7
F0.02865329512893983
sI8
F0.02005730659025788
sI9
F0.014326647564469915
sI10
F0.014326647564469915
sI11
F0.025787965616045846
sI12
F0.011461318051575931
sI13
F0.025787965616045846
sI14
F0.022922636103151862
sI15
F0.022922636103151862
sI16
F0.011461318051575931
sI17
F0.025787965616045846
sI18
F0.02005730659025788
sI19
F0.025787965616045846
sI20
F0.017191977077363897
sI21
F0.014326647564469915
sI22
F0.03724928366762178
sI23
F0.011461318051575931
sI24
F0.017191977077363897
sI25
F0.025787965616045846
sI26
F0.022922636103151862
sI27
F0.02005730659025788
sI28
F0.034383954154727794
sI29
F0.025787965616045846
sI30
F0.022922636103151862
sI31
F0.025787965616045846
sI32
F0.025787965616045846
sI33
F0.02865329512893983
sI34
F0.02005730659025788
sI35
F0.011461318051575931
sI36
F0.0057306590257879654
sI37
F0.014326647564469915
sI38
F0.025787965616045846
sI39
F0.022922636103151862
sI40
F0.02865329512893983
sI41
F0.034383954154727794
sI42
F0.02865329512893983
sI43
F0.022922636103151862
sI44
F0.014326647564469915
sI45
F0.034383954154727794
sI46
F0.008595988538681949
ssI48
g0
(g4
tp99
Rp100
I0
F0.025396825396825397
sI1
F0.012698412698412698
sI2
F0.01904761904761905
sI3
F0.015873015873015872
sI4
F0.022222222222222223
sI5
F0.009523809523809525
sI6
F0.025396825396825397
sI7
F0.01904761904761905
sI8
F0.031746031746031744
sI9
F0.022222222222222223
sI10
F0.01904761904761905
sI11
F0.022222222222222223
sI12
F0.022222222222222223
sI13
F0.015873015873015872
sI14
F0.025396825396825397
sI15
F0.015873015873015872
sI16
F0.03492063492063492
sI17
F0.022222222222222223
sI18
F0.01904761904761905
sI19
F0.009523809523809525
sI20
F0.01904761904761905
sI21
F0.015873015873015872
sI22
F0.03492063492063492
sI23
F0.022222222222222223
sI24
F0.012698412698412698
sI25
F0.01904761904761905
sI26
F0.015873015873015872
sI27
F0.022222222222222223
sI28
F0.01904761904761905
sI29
F0.012698412698412698
sI30
F0.012698412698412698
sI31
F0.025396825396825397
sI32
F0.025396825396825397
sI33
F0.025396825396825397
sI34
F0.02857142857142857
sI35
F0.022222222222222223
sI36
F0.025396825396825397
sI37
F0.03492063492063492
sI38
F0.015873015873015872
sI39
F0.015873015873015872
sI40
F0.031746031746031744
sI41
F0.01904761904761905
sI42
F0.015873015873015872
sI43
F0.015873015873015872
sI44
F0.025396825396825397
sI45
F0.022222222222222223
sI46
F0.01904761904761905
sI47
F0.015873015873015872
ssI49
g0
(g4
tp101
Rp102
I0
F0.014184397163120567
sI1
F0.02127659574468085
sI2
F0.01773049645390071
sI3
F0.02127659574468085
sI4
F0.024822695035460994
sI5
F0.01773049645390071
sI6
F0.014184397163120567
sI7
F0.0070921985815602835
sI8
F0.010638297872340425
sI9
F0.024822695035460994
sI10
F0.010638297872340425
sI11
F0.028368794326241134
sI12
F0.031914893617021274
sI13
F0.02127659574468085
sI14
F0.01773049645390071
sI15
F0.02127659574468085
sI16
F0.010638297872340425
sI17
F0.03900709219858156
sI18
F0.031914893617021274
sI19
F0.010638297872340425
sI20
F0.0070921985815602835
sI21
F0.014184397163120567
sI22
F0.014184397163120567
sI23
F0.024822695035460994
sI24
F0.014184397163120567
sI25
F0.014184397163120567
sI26
F0.01773049645390071
sI27
F0.014184397163120567
sI28
F0.024822695035460994
sI29
F0.028368794326241134
sI30
F0.02127659574468085
sI31
F0.031914893617021274
sI32
F0.024822695035460994
sI33
F0.02127659574468085
sI34
F0.028368794326241134
sI35
F0.01773049645390071
sI36
F0.01773049645390071
sI37
F0.028368794326241134
sI38
F0.028368794326241134
sI39
F0.024822695035460994
sI40
F0.01773049645390071
sI41
F0.024822695035460994
sI42
F0.010638297872340425
sI43
F0.028368794326241134
sI44
F0.02127659574468085
sI45
F0.01773049645390071
sI46
F0.014184397163120567
sI47
F0.03546099290780142
sI48
F0.014184397163120567
ssI50
g0
(g4
tp103
Rp104
I0
F0.017964071856287425
sI1
F0.023952095808383235
sI2
F0.017964071856287425
sI3
F0.008982035928143712
sI4
F0.020958083832335328
sI5
F0.017964071856287425
sI6
F0.023952095808383235
sI7
F0.020958083832335328
sI8
F0.014970059880239521
sI9
F0.020958083832335328
sI10
F0.017964071856287425
sI11
F0.02694610778443114
sI12
F0.014970059880239521
sI13
F0.017964071856287425
sI14
F0.023952095808383235
sI15
F0.020958083832335328
sI16
F0.011976047904191617
sI17
F0.029940119760479042
sI18
F0.011976047904191617
sI19
F0.017964071856287425
sI20
F0.014970059880239521
sI21
F0.011976047904191617
sI22
F0.023952095808383235
sI23
F0.020958083832335328
sI24
F0.014970059880239521
sI25
F0.023952095808383235
sI26
F0.005988023952095809
sI27
F0.023952095808383235
sI28
F0.02694610778443114
sI29
F0.020958083832335328
sI30
F0.017964071856287425
sI31
F0.03293413173652695
sI32
F0.014970059880239521
sI33
F0.029940119760479042
sI34
F0.023952095808383235
sI35
F0.023952095808383235
sI36
F0.005988023952095809
sI37
F0.011976047904191617
sI38
F0.020958083832335328
sI39
F0.020958083832335328
sI40
F0.023952095808383235
sI41
F0.02694610778443114
sI42
F0.014970059880239521
sI43
F0.020958083832335328
sI44
F0.020958083832335328
sI45
F0.02694610778443114
sI46
F0.020958083832335328
sI47
F0.014970059880239521
sI48
F0.03592814371257485
sI49
F0.017964071856287425
ssI51
g0
(g4
tp105
Rp106
I0
F0.019417475728155338
sI1
F0.02912621359223301
sI2
F0.024271844660194174
sI3
F0.009708737864077669
sI4
F0.009708737864077669
sI5
F0.019417475728155338
sI6
F0.02912621359223301
sI7
F0.019417475728155338
sI8
F0.043689320388349516
sI10
F0.0048543689320388345
sI11
F0.02912621359223301
sI12
F0.014563106796116505
sI13
F0.014563106796116505
sI14
F0.014563106796116505
sI15
F0.0048543689320388345
sI16
F0.014563106796116505
sI17
F0.02912621359223301
sI18
F0.014563106796116505
sI19
F0.03398058252427184
sI20
F0.019417475728155338
sI21
F0.02912621359223301
sI22
F0.014563106796116505
sI25
F0.019417475728155338
sI26
F0.02912621359223301
sI27
F0.024271844660194174
sI28
F0.019417475728155338
sI29
F0.02912621359223301
sI30
F0.02912621359223301
sI31
F0.014563106796116505
sI32
F0.02912621359223301
sI33
F0.019417475728155338
sI34
F0.014563106796116505
sI35
F0.019417475728155338
sI36
F0.02912621359223301
sI37
F0.02912621359223301
sI38
F0.024271844660194174
sI39
F0.02912621359223301
sI40
F0.024271844660194174
sI41
F0.019417475728155338
sI42
F0.019417475728155338
sI43
F0.014563106796116505
sI44
F0.014563106796116505
sI45
F0.019417475728155338
sI46
F0.014563106796116505
sI47
F0.02912621359223301
sI48
F0.014563106796116505
sI49
F0.019417475728155338
sI50
F0.009708737864077669
ssI52
g0
(g4
tp107
Rp108
I0
F0.014035087719298246
sI1
F0.014035087719298246
sI2
F0.02456140350877193
sI3
F0.021052631578947368
sI4
F0.03859649122807018
sI5
F0.017543859649122806
sI6
F0.021052631578947368
sI7
F0.007017543859649123
sI8
F0.028070175438596492
sI9
F0.02456140350877193
sI10
F0.017543859649122806
sI11
F0.021052631578947368
sI12
F0.017543859649122806
sI13
F0.014035087719298246
sI14
F0.02456140350877193
sI15
F0.007017543859649123
sI16
F0.010526315789473684
sI17
F0.014035087719298246
sI18
F0.028070175438596492
sI19
F0.017543859649122806
sI20
F0.010526315789473684
sI21
F0.021052631578947368
sI22
F0.010526315789473684
sI23
F0.028070175438596492
sI24
F0.007017543859649123
sI25
F0.02456140350877193
sI26
F0.03508771929824561
sI27
F0.028070175438596492
sI28
F0.02456140350877193
sI29
F0.014035087719298246
sI30
F0.010526315789473684
sI31
F0.031578947368421054
sI32
F0.017543859649122806
sI33
F0.02456140350877193
sI34
F0.028070175438596492
sI35
F0.021052631578947368
sI36
F0.017543859649122806
sI37
F0.021052631578947368
sI38
F0.02456140350877193
sI39
F0.014035087719298246
sI40
F0.014035087719298246
sI41
F0.021052631578947368
sI42
F0.021052631578947368
sI43
F0.014035087719298246
sI44
F0.010526315789473684
sI45
F0.017543859649122806
sI46
F0.028070175438596492
sI47
F0.014035087719298246
sI48
F0.010526315789473684
sI49
F0.021052631578947368
sI50
F0.021052631578947368
sI51
F0.010526315789473684
ssI53
g0
(g4
tp109
Rp110
I0
F0.021660649819494584
sI1
F0.01444043321299639
sI2
F0.021660649819494584
sI3
F0.010830324909747292
sI4
F0.018050541516245487
sI5
F0.010830324909747292
sI6
F0.02888086642599278
sI7
F0.007220216606498195
sI8
F0.02888086642599278
sI9
F0.0036101083032490976
sI10
F0.02527075812274368
sI11
F0.02527075812274368
sI12
F0.021660649819494584
sI13
F0.02527075812274368
sI14
F0.018050541516245487
sI15
F0.007220216606498195
sI16
F0.018050541516245487
sI17
F0.018050541516245487
sI18
F0.021660649819494584
sI19
F0.032490974729241874
sI20
F0.018050541516245487
sI21
F0.010830324909747292
sI22
F0.01444043321299639
sI23
F0.010830324909747292
sI24
F0.010830324909747292
sI25
F0.01444043321299639
sI26
F0.02527075812274368
sI27
F0.010830324909747292
sI28
F0.018050541516245487
sI29
F0.007220216606498195
sI30
F0.02527075812274368
sI31
F0.036101083032490974
sI32
F0.032490974729241874
sI33
F0.02888086642599278
sI34
F0.01444043321299639
sI35
F0.01444043321299639
sI36
F0.018050541516245487
sI37
F0.010830324909747292
sI38
F0.02527075812274368
sI39
F0.007220216606498195
sI40
F0.032490974729241874
sI41
F0.021660649819494584
sI42
F0.02527075812274368
sI43
F0.02888086642599278
sI44
F0.021660649819494584
sI45
F0.007220216606498195
sI46
F0.02527075812274368
sI47
F0.010830324909747292
sI48
F0.0036101083032490976
sI49
F0.01444043321299639
sI50
F0.021660649819494584
sI51
F0.018050541516245487
sI52
F0.036101083032490974
ssI54
g0
(g4
tp111
Rp112
I0
F0.03070175438596491
sI1
F0.008771929824561403
sI2
F0.03070175438596491
sI3
F0.008771929824561403
sI4
F0.013157894736842105
sI5
F0.017543859649122806
sI6
F0.02631578947368421
sI7
F0.008771929824561403
sI8
F0.017543859649122806
sI9
F0.013157894736842105
sI10
F0.017543859649122806
sI11
F0.008771929824561403
sI12
F0.017543859649122806
sI13
F0.021929824561403508
sI14
F0.013157894736842105
sI15
F0.021929824561403508
sI16
F0.013157894736842105
sI17
F0.02631578947368421
sI18
F0.017543859649122806
sI19
F0.013157894736842105
sI20
F0.0043859649122807015
sI21
F0.017543859649122806
sI22
F0.008771929824561403
sI23
F0.021929824561403508
sI24
F0.021929824561403508
sI25
F0.021929824561403508
sI26
F0.013157894736842105
sI27
F0.008771929824561403
sI28
F0.021929824561403508
sI29
F0.02631578947368421
sI30
F0.021929824561403508
sI31
F0.03508771929824561
sI32
F0.013157894736842105
sI33
F0.021929824561403508
sI34
F0.017543859649122806
sI35
F0.017543859649122806
sI36
F0.008771929824561403
sI37
F0.017543859649122806
sI38
F0.03508771929824561
sI39
F0.03508771929824561
sI40
F0.021929824561403508
sI41
F0.03070175438596491
sI42
F0.017543859649122806
sI43
F0.02631578947368421
sI44
F0.02631578947368421
sI45
F0.008771929824561403
sI46
F0.013157894736842105
sI47
F0.013157894736842105
sI48
F0.008771929824561403
sI49
F0.013157894736842105
sI50
F0.021929824561403508
sI51
F0.0043859649122807015
sI52
F0.03070175438596491
sI53
F0.02631578947368421
ssI55
g0
(g4
tp113
Rp114
I0
F0.009345794392523364
sI1
F0.014018691588785047
sI2
F0.018691588785046728
sI3
F0.009345794392523364
sI4
F0.028037383177570093
sI5
F0.014018691588785047
sI6
F0.014018691588785047
sI7
F0.009345794392523364
sI8
F0.014018691588785047
sI9
F0.02336448598130841
sI10
F0.009345794392523364
sI11
F0.028037383177570093
sI12
F0.014018691588785047
sI13
F0.014018691588785047
sI14
F0.03271028037383177
sI15
F0.004672897196261682
sI16
F0.02336448598130841
sI17
F0.02336448598130841
sI18
F0.02336448598130841
sI19
F0.018691588785046728
sI20
F0.02336448598130841
sI21
F0.018691588785046728
sI22
F0.02336448598130841
sI23
F0.009345794392523364
sI24
F0.018691588785046728
sI25
F0.04205607476635514
sI26
F0.018691588785046728
sI27
F0.009345794392523364
sI28
F0.014018691588785047
sI29
F0.018691588785046728
sI30
F0.018691588785046728
sI31
F0.014018691588785047
sI32
F0.02336448598130841
sI33
F0.014018691588785047
sI34
F0.018691588785046728
sI35
F0.014018691588785047
sI36
F0.014018691588785047
sI37
F0.018691588785046728
sI38
F0.028037383177570093
sI39
F0.03271028037383177
sI40
F0.004672897196261682
sI41
F0.037383177570093455
sI42
F0.004672897196261682
sI43
F0.02336448598130841
sI44
F0.009345794392523364
sI45
F0.014018691588785047
sI46
F0.018691588785046728
sI47
F0.014018691588785047
sI48
F0.02336448598130841
sI49
F0.018691588785046728
sI50
F0.018691588785046728
sI51
F0.02336448598130841
sI52
F0.014018691588785047
sI53
F0.02336448598130841
sI54
F0.014018691588785047
ssI56
g0
(g4
tp115
Rp116
I0
F0.013513513513513514
sI1
F0.02252252252252252
sI2
F0.02252252252252252
sI3
F0.013513513513513514
sI4
F0.02702702702702703
sI5
F0.013513513513513514
sI6
F0.018018018018018018
sI7
F0.0045045045045045045
sI8
F0.02702702702702703
sI9
F0.018018018018018018
sI10
F0.03153153153153153
sI11
F0.02702702702702703
sI12
F0.013513513513513514
sI13
F0.02702702702702703
sI14
F0.02702702702702703
sI15
F0.0045045045045045045
sI16
F0.02252252252252252
sI17
F0.018018018018018018
sI18
F0.02252252252252252
sI19
F0.02252252252252252
sI20
F0.013513513513513514
sI21
F0.009009009009009009
sI22
F0.02702702702702703
sI23
F0.02252252252252252
sI24
F0.013513513513513514
sI25
F0.009009009009009009
sI26
F0.02252252252252252
sI27
F0.018018018018018018
sI28
F0.013513513513513514
sI29
F0.013513513513513514
sI30
F0.0045045045045045045
sI31
F0.02702702702702703
sI32
F0.009009009009009009
sI33
F0.02252252252252252
sI34
F0.02252252252252252
sI35
F0.009009009009009009
sI36
F0.009009009009009009
sI37
F0.0045045045045045045
sI38
F0.018018018018018018
sI39
F0.02702702702702703
sI40
F0.02702702702702703
sI41
F0.013513513513513514
sI42
F0.03153153153153153
sI43
F0.013513513513513514
sI44
F0.013513513513513514
sI45
F0.009009009009009009
sI46
F0.013513513513513514
sI47
F0.013513513513513514
sI48
F0.013513513513513514
sI49
F0.013513513513513514
sI50
F0.02252252252252252
sI51
F0.009009009009009009
sI52
F0.03153153153153153
sI53
F0.02702702702702703
sI54
F0.018018018018018018
sI55
F0.018018018018018018
ssI57
g0
(g4
tp117
Rp118
I0
F0.024271844660194174
sI1
F0.009708737864077669
sI2
F0.009708737864077669
sI3
F0.014563106796116505
sI4
F0.014563106796116505
sI5
F0.024271844660194174
sI6
F0.019417475728155338
sI7
F0.009708737864077669
sI8
F0.019417475728155338
sI9
F0.009708737864077669
sI10
F0.038834951456310676
sI11
F0.019417475728155338
sI12
F0.009708737864077669
sI13
F0.014563106796116505
sI14
F0.02912621359223301
sI15
F0.019417475728155338
sI16
F0.038834951456310676
sI17
F0.014563106796116505
sI18
F0.014563106796116505
sI19
F0.009708737864077669
sI20
F0.019417475728155338
sI21
F0.0048543689320388345
sI22
F0.019417475728155338
sI23
F0.0048543689320388345
sI24
F0.019417475728155338
sI25
F0.019417475728155338
sI26
F0.014563106796116505
sI27
F0.024271844660194174
sI28
F0.019417475728155338
sI29
F0.02912621359223301
sI30
F0.03398058252427184
sI31
F0.024271844660194174
sI32
F0.024271844660194174
sI33
F0.024271844660194174
sI34
F0.0048543689320388345
sI35
F0.009708737864077669
sI36
F0.009708737864077669
sI37
F0.009708737864077669
sI38
F0.014563106796116505
sI39
F0.02912621359223301
sI40
F0.014563106796116505
sI41
F0.024271844660194174
sI42
F0.009708737864077669
sI43
F0.024271844660194174
sI44
F0.009708737864077669
sI45
F0.014563106796116505
sI46
F0.02912621359223301
sI47
F0.019417475728155338
sI48
F0.014563106796116505
sI49
F0.014563106796116505
sI50
F0.009708737864077669
sI51
F0.009708737864077669
sI52
F0.0048543689320388345
sI53
F0.02912621359223301
sI54
F0.019417475728155338
sI55
F0.014563106796116505
sI56
F0.014563106796116505
ssI58
g0
(g4
tp119
Rp120
I0
F0.025974025974025976
sI2
F0.012987012987012988
sI3
F0.012987012987012988
sI4
F0.012987012987012988
sI5
F0.006493506493506494
sI6
F0.025974025974025976
sI8
F0.025974025974025976
sI9
F0.006493506493506494
sI10
F0.025974025974025976
sI11
F0.025974025974025976
sI12
F0.012987012987012988
sI13
F0.03896103896103896
sI14
F0.012987012987012988
sI15
F0.012987012987012988
sI16
F0.01948051948051948
sI17
F0.01948051948051948
sI18
F0.025974025974025976
sI19
F0.032467532467532464
sI20
F0.006493506493506494
sI21
F0.012987012987012988
sI23
F0.012987012987012988
sI24
F0.006493506493506494
sI25
F0.012987012987012988
sI26
F0.01948051948051948
sI27
F0.012987012987012988
sI28
F0.01948051948051948
sI29
F0.01948051948051948
sI30
F0.032467532467532464
sI31
F0.032467532467532464
sI32
F0.012987012987012988
sI33
F0.032467532467532464
sI34
F0.01948051948051948
sI36
F0.006493506493506494
sI37
F0.006493506493506494
sI38
F0.025974025974025976
sI39
F0.006493506493506494
sI40
F0.03896103896103896
sI41
F0.025974025974025976
sI42
F0.012987012987012988
sI43
F0.032467532467532464
sI44
F0.006493506493506494
sI45
F0.006493506493506494
sI46
F0.012987012987012988
sI47
F0.006493506493506494
sI48
F0.01948051948051948
sI49
F0.01948051948051948
sI50
F0.012987012987012988
sI51
F0.006493506493506494
sI52
F0.012987012987012988
sI53
F0.03896103896103896
sI54
F0.032467532467532464
sI55
F0.01948051948051948
sI56
F0.012987012987012988
sI57
F0.025974025974025976
ssI59
g0
(g4
tp121
Rp122
I1
F0.009174311926605505
sI2
F0.03669724770642202
sI3
F0.009174311926605505
sI4
F0.01834862385321101
sI5
F0.01834862385321101
sI6
F0.027522935779816515
sI7
F0.01834862385321101
sI9
F0.03669724770642202
sI10
F0.009174311926605505
sI11
F0.01834862385321101
sI12
F0.027522935779816515
sI13
F0.009174311926605505
sI14
F0.03669724770642202
sI15
F0.027522935779816515
sI16
F0.009174311926605505
sI17
F0.027522935779816515
sI18
F0.01834862385321101
sI19
F0.027522935779816515
sI20
F0.01834862385321101
sI21
F0.009174311926605505
sI22
F0.009174311926605505
sI23
F0.027522935779816515
sI24
F0.009174311926605505
sI25
F0.01834862385321101
sI26
F0.009174311926605505
sI27
F0.009174311926605505
sI28
F0.01834862385321101
sI29
F0.009174311926605505
sI30
F0.03669724770642202
sI32
F0.009174311926605505
sI33
F0.01834862385321101
sI35
F0.009174311926605505
sI36
F0.009174311926605505
sI37
F0.009174311926605505
sI38
F0.01834862385321101
sI39
F0.027522935779816515
sI40
F0.009174311926605505
sI41
F0.027522935779816515
sI42
F0.01834862385321101
sI43
F0.009174311926605505
sI44
F0.027522935779816515
sI45
F0.009174311926605505
sI46
F0.01834862385321101
sI48
F0.009174311926605505
sI49
F0.01834862385321101
sI51
F0.027522935779816515
sI52
F0.03669724770642202
sI53
F0.027522935779816515
sI54
F0.01834862385321101
sI55
F0.01834862385321101
sI56
F0.01834862385321101
sI57
F0.01834862385321101
sI58
F0.027522935779816515
ssI60
g0
(g4
tp123
Rp124
I0
F0.019704433497536946
sI1
F0.019704433497536946
sI2
F0.019704433497536946
sI3
F0.024630541871921183
sI4
F0.019704433497536946
sI5
F0.0049261083743842365
sI6
F0.009852216748768473
sI7
F0.009852216748768473
sI8
F0.019704433497536946
sI9
F0.019704433497536946
sI10
F0.019704433497536946
sI11
F0.029556650246305417
sI12
F0.014778325123152709
sI13
F0.024630541871921183
sI14
F0.019704433497536946
sI15
F0.019704433497536946
sI16
F0.009852216748768473
sI17
F0.024630541871921183
sI18
F0.024630541871921183
sI19
F0.014778325123152709
sI20
F0.0049261083743842365
sI21
F0.014778325123152709
sI22
F0.009852216748768473
sI23
F0.009852216748768473
sI24
F0.0049261083743842365
sI25
F0.019704433497536946
sI26
F0.024630541871921183
sI27
F0.009852216748768473
sI28
F0.024630541871921183
sI29
F0.0049261083743842365
sI30
F0.019704433497536946
sI31
F0.024630541871921183
sI32
F0.014778325123152709
sI33
F0.034482758620689655
sI34
F0.009852216748768473
sI35
F0.009852216748768473
sI36
F0.0049261083743842365
sI37
F0.0049261083743842365
sI38
F0.034482758620689655
sI39
F0.0049261083743842365
sI40
F0.014778325123152709
sI41
F0.024630541871921183
sI42
F0.019704433497536946
sI43
F0.009852216748768473
sI44
F0.009852216748768473
sI45
F0.009852216748768473
sI47
F0.024630541871921183
sI48
F0.014778325123152709
sI49
F0.014778325123152709
sI50
F0.014778325123152709
sI51
F0.009852216748768473
sI52
F0.024630541871921183
sI53
F0.034482758620689655
sI54
F0.014778325123152709
sI55
F0.019704433497536946
sI56
F0.019704433497536946
sI57
F0.019704433497536946
sI58
F0.034482758620689655
sI59
F0.0049261083743842365
ssI61
g0
(g4
tp125
Rp126
I1
F0.016129032258064516
sI2
F0.024193548387096774
sI3
F0.016129032258064516
sI4
F0.04032258064516129
sI6
F0.016129032258064516
sI7
F0.024193548387096774
sI8
F0.016129032258064516
sI9
F0.016129032258064516
sI10
F0.008064516129032258
sI11
F0.04032258064516129
sI12
F0.016129032258064516
sI14
F0.024193548387096774
sI16
F0.008064516129032258
sI17
F0.008064516129032258
sI19
F0.008064516129032258
sI20
F0.008064516129032258
sI21
F0.016129032258064516
sI22
F0.008064516129032258
sI23
F0.016129032258064516
sI24
F0.016129032258064516
sI25
F0.016129032258064516
sI26
F0.024193548387096774
sI27
F0.008064516129032258
sI28
F0.016129032258064516
sI29
F0.008064516129032258
sI30
F0.016129032258064516
sI31
F0.008064516129032258
sI32
F0.024193548387096774
sI33
F0.008064516129032258
sI34
F0.03225806451612903
sI35
F0.008064516129032258
sI36
F0.016129032258064516
sI37
F0.016129032258064516
sI38
F0.03225806451612903
sI39
F0.024193548387096774
sI40
F0.016129032258064516
sI41
F0.016129032258064516
sI42
F0.008064516129032258
sI44
F0.024193548387096774
sI45
F0.008064516129032258
sI46
F0.024193548387096774
sI47
F0.024193548387096774
sI48
F0.024193548387096774
sI49
F0.04032258064516129
sI50
F0.03225806451612903
sI51
F0.008064516129032258
sI52
F0.03225806451612903
sI53
F0.016129032258064516
sI54
F0.016129032258064516
sI56
F0.024193548387096774
sI57
F0.016129032258064516
sI58
F0.03225806451612903
sI59
F0.016129032258064516
sI60
F0.016129032258064516
ssI62
g0
(g4
tp127
Rp128
I1
F0.028901734104046242
sI2
F0.011560693641618497
sI3
F0.011560693641618497
sI4
F0.028901734104046242
sI5
F0.005780346820809248
sI6
F0.017341040462427744
sI7
F0.017341040462427744
sI9
F0.011560693641618497
sI10
F0.017341040462427744
sI11
F0.023121387283236993
sI12
F0.023121387283236993
sI13
F0.011560693641618497
sI14
F0.028901734104046242
sI16
F0.011560693641618497
sI17
F0.005780346820809248
sI18
F0.017341040462427744
sI19
F0.023121387283236993
sI20
F0.005780346820809248
sI21
F0.023121387283236993
sI22
F0.017341040462427744
sI23
F0.023121387283236993
sI24
F0.017341040462427744
sI25
F0.011560693641618497
sI26
F0.011560693641618497
sI27
F0.017341040462427744
sI28
F0.03468208092485549
sI29
F0.023121387283236993
sI30
F0.011560693641618497
sI31
F0.005780346820809248
sI32
F0.017341040462427744
sI33
F0.023121387283236993
sI34
F0.03468208092485549
sI35
F0.005780346820809248
sI36
F0.017341040462427744
sI37
F0.017341040462427744
sI38
F0.017341040462427744
sI39
F0.03468208092485549
sI40
F0.023121387283236993
sI41
F0.028901734104046242
sI42
F0.011560693641618497
sI43
F0.005780346820809248
sI44
F0.023121387283236993
sI45
F0.017341040462427744
sI46
F0.011560693641618497
sI47
F0.028901734104046242
sI48
F0.017341040462427744
sI49
F0.017341040462427744
sI50
F0.017341040462427744
sI51
F0.005780346820809248
sI52
F0.005780346820809248
sI53
F0.005780346820809248
sI54
F0.017341040462427744
sI55
F0.017341040462427744
sI56
F0.017341040462427744
sI57
F0.023121387283236993
sI58
F0.011560693641618497
sI59
F0.005780346820809248
sI60
F0.011560693641618497
sI61
F0.011560693641618497
ssI63
g0
(g4
tp129
Rp130
I0
F0.030120481927710843
sI1
F0.012048192771084338
sI2
F0.018072289156626505
sI3
F0.012048192771084338
sI4
F0.024096385542168676
sI5
F0.012048192771084338
sI6
F0.006024096385542169
sI8
F0.006024096385542169
sI9
F0.018072289156626505
sI10
F0.018072289156626505
sI11
F0.024096385542168676
sI12
F0.012048192771084338
sI13
F0.006024096385542169
sI14
F0.006024096385542169
sI16
F0.018072289156626505
sI17
F0.012048192771084338
sI18
F0.024096385542168676
sI19
F0.012048192771084338
sI20
F0.018072289156626505
sI21
F0.006024096385542169
sI22
F0.006024096385542169
sI23
F0.018072289156626505
sI24
F0.018072289156626505
sI25
F0.024096385542168676
sI26
F0.024096385542168676
sI27
F0.024096385542168676
sI28
F0.012048192771084338
sI29
F0.024096385542168676
sI30
F0.018072289156626505
sI31
F0.018072289156626505
sI32
F0.024096385542168676
sI33
F0.012048192771084338
sI34
F0.024096385542168676
sI35
F0.018072289156626505
sI36
F0.012048192771084338
sI37
F0.018072289156626505
sI38
F0.024096385542168676
sI39
F0.012048192771084338
sI40
F0.012048192771084338
sI41
F0.03614457831325301
sI42
F0.006024096385542169
sI43
F0.030120481927710843
sI44
F0.024096385542168676
sI45
F0.030120481927710843
sI46
F0.012048192771084338
sI47
F0.012048192771084338
sI48
F0.018072289156626505
sI49
F0.012048192771084338
sI50
F0.006024096385542169
sI51
F0.018072289156626505
sI52
F0.024096385542168676
sI53
F0.018072289156626505
sI54
F0.018072289156626505
sI55
F0.03614457831325301
sI56
F0.018072289156626505
sI57
F0.006024096385542169
sI58
F0.006024096385542169
sI59
F0.006024096385542169
sI60
F0.018072289156626505
sI62
F0.006024096385542169
ssI64
g0
(g4
tp131
Rp132
I0
F0.010526315789473684
sI1
F0.010526315789473684
sI2
F0.015789473684210527
sI3
F0.010526315789473684
sI4
F0.021052631578947368
sI5
F0.005263157894736842
sI6
F0.015789473684210527
sI7
F0.010526315789473684
sI8
F0.015789473684210527
sI9
F0.021052631578947368
sI10
F0.005263157894736842
sI11
F0.015789473684210527
sI12
F0.015789473684210527
sI13
F0.02631578947368421
sI14
F0.010526315789473684
sI15
F0.010526315789473684
sI16
F0.010526315789473684
sI17
F0.031578947368421054
sI18
F0.02631578947368421
sI20
F0.005263157894736842
sI21
F0.015789473684210527
sI22
F0.021052631578947368
sI23
F0.010526315789473684
sI24
F0.015789473684210527
sI25
F0.021052631578947368
sI26
F0.021052631578947368
sI27
F0.010526315789473684
sI28
F0.010526315789473684
sI29
F0.031578947368421054
sI30
F0.010526315789473684
sI31
F0.010526315789473684
sI32
F0.015789473684210527
sI33
F0.02631578947368421
sI34
F0.015789473684210527
sI35
F0.005263157894736842
sI36
F0.015789473684210527
sI37
F0.005263157894736842
sI38
F0.021052631578947368
sI39
F0.005263157894736842
sI40
F0.015789473684210527
sI41
F0.010526315789473684
sI42
F0.010526315789473684
sI43
F0.021052631578947368
sI44
F0.015789473684210527
sI45
F0.015789473684210527
sI46
F0.015789473684210527
sI47
F0.02631578947368421
sI48
F0.02631578947368421
sI49
F0.021052631578947368
sI50
F0.010526315789473684
sI51
F0.021052631578947368
sI52
F0.021052631578947368
sI53
F0.02631578947368421
sI54
F0.010526315789473684
sI55
F0.031578947368421054
sI56
F0.021052631578947368
sI57
F0.02631578947368421
sI58
F0.015789473684210527
sI59
F0.010526315789473684
sI60
F0.021052631578947368
sI61
F0.005263157894736842
sI62
F0.010526315789473684
sI63
F0.005263157894736842
ssI65
g0
(g4
tp133
Rp134
I0
F0.008130081300813009
sI1
F0.024390243902439025
sI2
F0.016260162601626018
sI3
F0.008130081300813009
sI4
F0.008130081300813009
sI5
F0.008130081300813009
sI6
F0.008130081300813009
sI8
F0.008130081300813009
sI9
F0.024390243902439025
sI10
F0.008130081300813009
sI11
F0.008130081300813009
sI12
F0.016260162601626018
sI13
F0.008130081300813009
sI14
F0.024390243902439025
sI15
F0.008130081300813009
sI16
F0.032520325203252036
sI17
F0.008130081300813009
sI18
F0.024390243902439025
sI19
F0.016260162601626018
sI20
F0.024390243902439025
sI21
F0.016260162601626018
sI22
F0.008130081300813009
sI23
F0.008130081300813009
sI25
F0.04878048780487805
sI26
F0.016260162601626018
sI27
F0.024390243902439025
sI28
F0.016260162601626018
sI29
F0.016260162601626018
sI30
F0.04878048780487805
sI31
F0.016260162601626018
sI32
F0.016260162601626018
sI33
F0.032520325203252036
sI34
F0.024390243902439025
sI35
F0.024390243902439025
sI36
F0.008130081300813009
sI37
F0.008130081300813009
sI38
F0.024390243902439025
sI39
F0.008130081300813009
sI40
F0.008130081300813009
sI41
F0.024390243902439025
sI43
F0.016260162601626018
sI44
F0.008130081300813009
sI45
F0.016260162601626018
sI46
F0.016260162601626018
sI47
F0.024390243902439025
sI48
F0.008130081300813009
sI50
F0.016260162601626018
sI51
F0.008130081300813009
sI52
F0.008130081300813009
sI53
F0.04065040650406504
sI55
F0.016260162601626018
sI56
F0.016260162601626018
sI57
F0.032520325203252036
sI58
F0.016260162601626018
sI59
F0.016260162601626018
sI60
F0.008130081300813009
sI62
F0.008130081300813009
sI63
F0.016260162601626018
sI64
F0.016260162601626018
ssI66
g0
(g4
tp135
Rp136
I0
F0.0078125
sI1
F0.0078125
sI2
F0.0234375
sI3
F0.0234375
sI4
F0.03125
sI5
F0.0078125
sI6
F0.0234375
sI7
F0.0234375
sI8
F0.0078125
sI9
F0.015625
sI10
F0.03125
sI11
F0.0078125
sI12
F0.03125
sI13
F0.0078125
sI14
F0.015625
sI16
F0.015625
sI17
F0.015625
sI18
F0.0234375
sI19
F0.015625
sI21
F0.0234375
sI22
F0.015625
sI23
F0.0078125
sI24
F0.015625
sI25
F0.0078125
sI26
F0.015625
sI27
F0.0078125
sI28
F0.015625
sI29
F0.015625
sI30
F0.0078125
sI31
F0.015625
sI32
F0.015625
sI33
F0.0078125
sI34
F0.0234375
sI35
F0.0078125
sI37
F0.0078125
sI38
F0.03125
sI39
F0.03125
sI40
F0.015625
sI41
F0.0078125
sI42
F0.03125
sI44
F0.0234375
sI45
F0.015625
sI46
F0.0234375
sI47
F0.0234375
sI48
F0.015625
sI49
F0.0078125
sI50
F0.015625
sI51
F0.015625
sI52
F0.0078125
sI53
F0.015625
sI54
F0.015625
sI55
F0.0234375
sI56
F0.015625
sI57
F0.015625
sI58
F0.015625
sI59
F0.0078125
sI60
F0.0234375
sI62
F0.0390625
sI64
F0.015625
ssI67
g0
(g4
tp137
Rp138
I0
F0.04032258064516129
sI1
F0.008064516129032258
sI2
F0.024193548387096774
sI3
F0.008064516129032258
sI4
F0.03225806451612903
sI5
F0.008064516129032258
sI8
F0.008064516129032258
sI9
F0.024193548387096774
sI10
F0.008064516129032258
sI12
F0.024193548387096774
sI13
F0.016129032258064516
sI14
F0.008064516129032258
sI15
F0.008064516129032258
sI16
F0.008064516129032258
sI17
F0.008064516129032258
sI18
F0.016129032258064516
sI19
F0.016129032258064516
sI20
F0.016129032258064516
sI23
F0.008064516129032258
sI25
F0.016129032258064516
sI26
F0.008064516129032258
sI27
F0.016129032258064516
sI28
F0.04032258064516129
sI29
F0.024193548387096774
sI30
F0.008064516129032258
sI31
F0.024193548387096774
sI32
F0.024193548387096774
sI33
F0.016129032258064516
sI34
F0.024193548387096774
sI35
F0.03225806451612903
sI38
F0.008064516129032258
sI39
F0.016129032258064516
sI41
F0.016129032258064516
sI42
F0.016129032258064516
sI43
F0.024193548387096774
sI44
F0.008064516129032258
sI45
F0.03225806451612903
sI46
F0.008064516129032258
sI47
F0.024193548387096774
sI48
F0.016129032258064516
sI49
F0.008064516129032258
sI50
F0.024193548387096774
sI51
F0.03225806451612903
sI52
F0.016129032258064516
sI53
F0.024193548387096774
sI54
F0.008064516129032258
sI55
F0.016129032258064516
sI56
F0.008064516129032258
sI57
F0.008064516129032258
sI58
F0.016129032258064516
sI59
F0.016129032258064516
sI60
F0.008064516129032258
sI61
F0.008064516129032258
sI62
F0.024193548387096774
sI63
F0.024193548387096774
sI64
F0.016129032258064516
sI65
F0.03225806451612903
sI66
F0.016129032258064516
ssI68
g0
(g4
tp139
Rp140
I0
F0.01639344262295082
sI1
F0.01639344262295082
sI3
F0.01639344262295082
sI4
F0.01639344262295082
sI5
F0.01639344262295082
sI6
F0.01639344262295082
sI8
F0.03278688524590164
sI9
F0.03278688524590164
sI10
F0.01639344262295082
sI11
F0.01639344262295082
sI12
F0.01639344262295082
sI13
F0.03278688524590164
sI14
F0.01639344262295082
sI15
F0.03278688524590164
sI19
F0.01639344262295082
sI21
F0.01639344262295082
sI22
F0.03278688524590164
sI23
F0.01639344262295082
sI24
F0.01639344262295082
sI25
F0.01639344262295082
sI26
F0.01639344262295082
sI29
F0.03278688524590164
sI32
F0.01639344262295082
sI33
F0.01639344262295082
sI35
F0.01639344262295082
sI36
F0.01639344262295082
sI38
F0.01639344262295082
sI39
F0.03278688524590164
sI40
F0.01639344262295082
sI41
F0.01639344262295082
sI42
F0.03278688524590164
sI45
F0.01639344262295082
sI46
F0.03278688524590164
sI47
F0.03278688524590164
sI48
F0.01639344262295082
sI49
F0.03278688524590164
sI50
F0.03278688524590164
sI52
F0.01639344262295082
sI54
F0.03278688524590164
sI55
F0.03278688524590164
sI56
F0.01639344262295082
sI60
F0.04918032786885246
sI62
F0.01639344262295082
sI63
F0.01639344262295082
sI64
F0.01639344262295082
ssI69
g0
(g4
tp141
Rp142
I0
F0.02631578947368421
sI2
F0.02631578947368421
sI4
F0.039473684210526314
sI6
F0.039473684210526314
sI7
F0.02631578947368421
sI8
F0.013157894736842105
sI9
F0.013157894736842105
sI10
F0.02631578947368421
sI11
F0.013157894736842105
sI13
F0.013157894736842105
sI16
F0.013157894736842105
sI17
F0.013157894736842105
sI18
F0.013157894736842105
sI19
F0.013157894736842105
sI20
F0.02631578947368421
sI21
F0.02631578947368421
sI22
F0.013157894736842105
sI23
F0.013157894736842105
sI24
F0.013157894736842105
sI25
F0.013157894736842105
sI26
F0.013157894736842105
sI27
F0.02631578947368421
sI28
F0.013157894736842105
sI29
F0.013157894736842105
sI31
F0.02631578947368421
sI33
F0.013157894736842105
sI34
F0.02631578947368421
sI37
F0.013157894736842105
sI38
F0.013157894736842105
sI40
F0.013157894736842105
sI41
F0.013157894736842105
sI42
F0.013157894736842105
sI43
F0.039473684210526314
sI45
F0.013157894736842105
sI47
F0.013157894736842105
sI48
F0.02631578947368421
sI50
F0.02631578947368421
sI51
F0.02631578947368421
sI52
F0.013157894736842105
sI53
F0.013157894736842105
sI54
F0.013157894736842105
sI55
F0.02631578947368421
sI56
F0.013157894736842105
sI58
F0.039473684210526314
sI59
F0.039473684210526314
sI62
F0.02631578947368421
sI63
F0.013157894736842105
sI64
F0.013157894736842105
sI66
F0.02631578947368421
sI67
F0.02631578947368421
ssI70
g0
(g4
tp143
Rp144
I0
F0.01694915254237288
sI1
F0.01694915254237288
sI2
F0.025423728813559324
sI3
F0.03389830508474576
sI4
F0.025423728813559324
sI6
F0.01694915254237288
sI7
F0.00847457627118644
sI8
F0.01694915254237288
sI9
F0.00847457627118644
sI10
F0.00847457627118644
sI11
F0.01694915254237288
sI12
F0.025423728813559324
sI14
F0.00847457627118644
sI16
F0.00847457627118644
sI17
F0.01694915254237288
sI18
F0.01694915254237288
sI19
F0.03389830508474576
sI20
F0.00847457627118644
sI21
F0.00847457627118644
sI22
F0.01694915254237288
sI23
F0.03389830508474576
sI24
F0.00847457627118644
sI25
F0.025423728813559324
sI26
F0.00847457627118644
sI27
F0.025423728813559324
sI28
F0.01694915254237288
sI30
F0.025423728813559324
sI31
F0.03389830508474576
sI32
F0.025423728813559324
sI33
F0.01694915254237288
sI34
F0.00847457627118644
sI37
F0.00847457627118644
sI38
F0.025423728813559324
sI41
F0.00847457627118644
sI42
F0.00847457627118644
sI43
F0.00847457627118644
sI44
F0.025423728813559324
sI45
F0.00847457627118644
sI46
F0.00847457627118644
sI47
F0.01694915254237288
sI48
F0.01694915254237288
sI49
F0.00847457627118644
sI50
F0.01694915254237288
sI52
F0.03389830508474576
sI53
F0.01694915254237288
sI54
F0.01694915254237288
sI57
F0.01694915254237288
sI58
F0.03389830508474576
sI60
F0.03389830508474576
sI61
F0.00847457627118644
sI62
F0.01694915254237288
sI63
F0.00847457627118644
sI64
F0.025423728813559324
sI65
F0.01694915254237288
sI66
F0.01694915254237288
sI67
F0.00847457627118644
sI68
F0.00847457627118644
sI69
F0.00847457627118644
ssI71
g0
(g4
tp145
Rp146
I0
F0.016
sI1
F0.016
sI2
F0.032
sI3
F0.008
sI4
F0.008
sI5
F0.008
sI6
F0.016
sI9
F0.024
sI11
F0.016
sI12
F0.032
sI14
F0.024
sI16
F0.032
sI17
F0.008
sI18
F0.024
sI19
F0.016
sI20
F0.016
sI21
F0.016
sI22
F0.008
sI23
F0.024
sI25
F0.04
sI26
F0.008
sI27
F0.008
sI28
F0.016
sI29
F0.024
sI30
F0.016
sI32
F0.048
sI33
F0.016
sI34
F0.016
sI35
F0.024
sI36
F0.016
sI37
F0.016
sI38
F0.016
sI39
F0.016
sI40
F0.008
sI41
F0.008
sI43
F0.008
sI44
F0.024
sI45
F0.008
sI46
F0.016
sI47
F0.016
sI48
F0.008
sI49
F0.008
sI50
F0.008
sI51
F0.024
sI52
F0.008
sI53
F0.016
sI54
F0.008
sI55
F0.032
sI56
F0.008
sI57
F0.024
sI60
F0.008
sI61
F0.008
sI62
F0.016
sI63
F0.016
sI64
F0.016
sI65
F0.016
sI66
F0.016
sI67
F0.024
sI70
F0.024
ssI72
g0
(g4
tp147
Rp148
I2
F0.0125
sI3
F0.0125
sI6
F0.025
sI7
F0.025
sI8
F0.0125
sI9
F0.025
sI10
F0.0125
sI11
F0.025
sI16
F0.0125
sI17
F0.0125
sI18
F0.025
sI19
F0.0125
sI22
F0.0125
sI23
F0.0125
sI25
F0.025
sI26
F0.0375
sI27
F0.025
sI28
F0.0125
sI29
F0.0125
sI30
F0.025
sI31
F0.025
sI32
F0.025
sI33
F0.0375
sI34
F0.0125
sI35
F0.0125
sI38
F0.0375
sI39
F0.0125
sI41
F0.025
sI42
F0.025
sI43
F0.0125
sI45
F0.025
sI46
F0.0125
sI47
F0.0375
sI48
F0.0125
sI49
F0.025
sI50
F0.025
sI52
F0.0125
sI53
F0.0125
sI54
F0.025
sI56
F0.0375
sI57
F0.0125
sI58
F0.0125
sI59
F0.0125
sI61
F0.0125
sI62
F0.0125
sI64
F0.025
sI65
F0.025
sI66
F0.0125
sI67
F0.0125
sI68
F0.0125
sI70
F0.0125
sI71
F0.0125
ssI73
g0
(g4
tp149
Rp150
I0
F0.009900990099009901
sI2
F0.019801980198019802
sI3
F0.019801980198019802
sI4
F0.0297029702970297
sI5
F0.009900990099009901
sI6
F0.019801980198019802
sI7
F0.019801980198019802
sI8
F0.019801980198019802
sI9
F0.019801980198019802
sI11
F0.019801980198019802
sI12
F0.009900990099009901
sI13
F0.009900990099009901
sI14
F0.009900990099009901
sI15
F0.019801980198019802
sI16
F0.009900990099009901
sI17
F0.0297029702970297
sI18
F0.009900990099009901
sI19
F0.009900990099009901
sI21
F0.019801980198019802
sI22
F0.019801980198019802
sI23
F0.039603960396039604
sI24
F0.009900990099009901
sI25
F0.019801980198019802
sI27
F0.019801980198019802
sI28
F0.0297029702970297
sI29
F0.009900990099009901
sI30
F0.019801980198019802
sI31
F0.009900990099009901
sI32
F0.009900990099009901
sI33
F0.019801980198019802
sI34
F0.009900990099009901
sI36
F0.009900990099009901
sI37
F0.009900990099009901
sI38
F0.0297029702970297
sI41
F0.009900990099009901
sI43
F0.009900990099009901
sI45
F0.019801980198019802
sI46
F0.009900990099009901
sI48
F0.0297029702970297
sI49
F0.009900990099009901
sI50
F0.019801980198019802
sI51
F0.009900990099009901
sI52
F0.0297029702970297
sI53
F0.009900990099009901
sI54
F0.009900990099009901
sI55
F0.019801980198019802
sI56
F0.009900990099009901
sI58
F0.009900990099009901
sI59
F0.0297029702970297
sI60
F0.009900990099009901
sI61
F0.019801980198019802
sI63
F0.009900990099009901
sI64
F0.0297029702970297
sI65
F0.009900990099009901
sI67
F0.019801980198019802
sI68
F0.0297029702970297
sI69
F0.009900990099009901
sI70
F0.019801980198019802
sI71
F0.009900990099009901
sI72
F0.009900990099009901
ssI74
g0
(g4
tp151
Rp152
I0
F0.020202020202020204
sI2
F0.010101010101010102
sI3
F0.010101010101010102
sI4
F0.020202020202020204
sI5
F0.010101010101010102
sI6
F0.010101010101010102
sI8
F0.030303030303030304
sI9
F0.010101010101010102
sI11
F0.010101010101010102
sI12
F0.020202020202020204
sI14
F0.010101010101010102
sI16
F0.020202020202020204
sI17
F0.010101010101010102
sI18
F0.030303030303030304
sI19
F0.020202020202020204
sI21
F0.020202020202020204
sI23
F0.030303030303030304
sI25
F0.050505050505050504
sI26
F0.010101010101010102
sI27
F0.030303030303030304
sI28
F0.010101010101010102
sI30
F0.030303030303030304
sI31
F0.010101010101010102
sI32
F0.020202020202020204
sI33
F0.010101010101010102
sI34
F0.020202020202020204
sI35
F0.010101010101010102
sI37
F0.010101010101010102
sI38
F0.020202020202020204
sI39
F0.010101010101010102
sI41
F0.010101010101010102
sI42
F0.010101010101010102
sI43
F0.010101010101010102
sI45
F0.020202020202020204
sI46
F0.020202020202020204
sI47
F0.020202020202020204
sI48
F0.020202020202020204
sI50
F0.030303030303030304
sI51
F0.010101010101010102
sI52
F0.030303030303030304
sI53
F0.010101010101010102
sI54
F0.010101010101010102
sI55
F0.010101010101010102
sI56
F0.020202020202020204
sI57
F0.010101010101010102
sI58
F0.010101010101010102
sI60
F0.020202020202020204
sI63
F0.020202020202020204
sI64
F0.020202020202020204
sI65
F0.020202020202020204
sI67
F0.010101010101010102
sI68
F0.020202020202020204
sI69
F0.010101010101010102
sI70
F0.04040404040404041
sI71
F0.020202020202020204
sI72
F0.010101010101010102
sI73
F0.020202020202020204
ssI75
g0
(g4
tp153
Rp154
I2
F0.038461538461538464
sI6
F0.038461538461538464
sI7
F0.019230769230769232
sI9
F0.038461538461538464
sI10
F0.019230769230769232
sI11
F0.038461538461538464
sI12
F0.019230769230769232
sI21
F0.019230769230769232
sI23
F0.019230769230769232
sI28
F0.019230769230769232
sI30
F0.019230769230769232
sI32
F0.057692307692307696
sI33
F0.019230769230769232
sI35
F0.038461538461538464
sI38
F0.038461538461538464
sI39
F0.019230769230769232
sI41
F0.019230769230769232
sI42
F0.019230769230769232
sI43
F0.019230769230769232
sI44
F0.019230769230769232
sI48
F0.038461538461538464
sI49
F0.019230769230769232
sI50
F0.019230769230769232
sI52
F0.019230769230769232
sI54
F0.019230769230769232
sI55
F0.038461538461538464
sI56
F0.019230769230769232
sI59
F0.019230769230769232
sI61
F0.038461538461538464
sI62
F0.038461538461538464
sI63
F0.019230769230769232
sI64
F0.019230769230769232
sI66
F0.019230769230769232
sI67
F0.019230769230769232
sI68
F0.019230769230769232
sI69
F0.019230769230769232
sI71
F0.019230769230769232
sI72
F0.038461538461538464
sI73
F0.019230769230769232
ssI76
g0
(g4
tp155
Rp156
I0
F0.02654867256637168
sI2
F0.04424778761061947
sI3
F0.008849557522123894
sI4
F0.008849557522123894
sI6
F0.02654867256637168
sI7
F0.008849557522123894
sI8
F0.008849557522123894
sI9
F0.02654867256637168
sI10
F0.017699115044247787
sI11
F0.017699115044247787
sI12
F0.008849557522123894
sI13
F0.008849557522123894
sI14
F0.017699115044247787
sI17
F0.017699115044247787
sI18
F0.008849557522123894
sI19
F0.017699115044247787
sI21
F0.008849557522123894
sI22
F0.008849557522123894
sI23
F0.02654867256637168
sI25
F0.017699115044247787
sI27
F0.008849557522123894
sI28
F0.02654867256637168
sI29
F0.008849557522123894
sI30
F0.017699115044247787
sI31
F0.035398230088495575
sI33
F0.017699115044247787
sI34
F0.035398230088495575
sI35
F0.008849557522123894
sI38
F0.017699115044247787
sI39
F0.008849557522123894
sI40
F0.008849557522123894
sI41
F0.017699115044247787
sI42
F0.017699115044247787
sI43
F0.017699115044247787
sI44
F0.008849557522123894
sI45
F0.008849557522123894
sI48
F0.008849557522123894
sI49
F0.008849557522123894
sI50
F0.017699115044247787
sI52
F0.035398230088495575
sI53
F0.017699115044247787
sI54
F0.035398230088495575
sI55
F0.008849557522123894
sI56
F0.017699115044247787
sI57
F0.008849557522123894
sI58
F0.017699115044247787
sI59
F0.008849557522123894
sI60
F0.017699115044247787
sI61
F0.017699115044247787
sI62
F0.02654867256637168
sI63
F0.008849557522123894
sI64
F0.017699115044247787
sI66
F0.008849557522123894
sI67
F0.017699115044247787
sI69
F0.017699115044247787
sI70
F0.017699115044247787
sI71
F0.008849557522123894
sI72
F0.008849557522123894
sI73
F0.017699115044247787
sI74
F0.008849557522123894
sI75
F0.017699115044247787
ssI77
g0
(g4
tp157
Rp158
I2
F0.014285714285714285
sI4
F0.014285714285714285
sI5
F0.014285714285714285
sI6
F0.014285714285714285
sI9
F0.014285714285714285
sI11
F0.04285714285714286
sI12
F0.02857142857142857
sI14
F0.014285714285714285
sI15
F0.014285714285714285
sI16
F0.02857142857142857
sI17
F0.02857142857142857
sI19
F0.014285714285714285
sI20
F0.014285714285714285
sI21
F0.014285714285714285
sI22
F0.014285714285714285
sI23
F0.02857142857142857
sI25
F0.014285714285714285
sI26
F0.014285714285714285
sI28
F0.02857142857142857
sI29
F0.014285714285714285
sI32
F0.02857142857142857
sI34
F0.014285714285714285
sI35
F0.014285714285714285
sI37
F0.014285714285714285
sI38
F0.014285714285714285
sI39
F0.014285714285714285
sI41
F0.014285714285714285
sI43
F0.014285714285714285
sI45
F0.04285714285714286
sI46
F0.014285714285714285
sI47
F0.014285714285714285
sI48
F0.014285714285714285
sI49
F0.014285714285714285
sI50
F0.02857142857142857
sI51
F0.014285714285714285
sI55
F0.02857142857142857
sI56
F0.014285714285714285
sI57
F0.014285714285714285
sI59
F0.014285714285714285
sI60
F0.014285714285714285
sI61
F0.014285714285714285
sI62
F0.02857142857142857
sI63
F0.02857142857142857
sI64
F0.014285714285714285
sI65
F0.014285714285714285
sI66
F0.02857142857142857
sI67
F0.014285714285714285
sI70
F0.014285714285714285
sI71
F0.04285714285714286
sI73
F0.014285714285714285
sI74
F0.014285714285714285
sI75
F0.014285714285714285
sI76
F0.014285714285714285
ssI78
g0
(g4
tp159
Rp160
I0
F0.014285714285714285
sI2
F0.04285714285714286
sI4
F0.014285714285714285
sI8
F0.014285714285714285
sI9
F0.02857142857142857
sI11
F0.014285714285714285
sI12
F0.02857142857142857
sI14
F0.014285714285714285
sI16
F0.014285714285714285
sI17
F0.02857142857142857
sI19
F0.014285714285714285
sI22
F0.014285714285714285
sI23
F0.014285714285714285
sI24
F0.014285714285714285
sI25
F0.014285714285714285
sI26
F0.014285714285714285
sI27
F0.014285714285714285
sI28
F0.02857142857142857
sI31
F0.014285714285714285
sI32
F0.02857142857142857
sI34
F0.014285714285714285
sI35
F0.02857142857142857
sI38
F0.014285714285714285
sI39
F0.014285714285714285
sI41
F0.014285714285714285
sI43
F0.014285714285714285
sI44
F0.014285714285714285
sI45
F0.014285714285714285
sI48
F0.02857142857142857
sI50
F0.02857142857142857
sI52
F0.014285714285714285
sI53
F0.014285714285714285
sI55
F0.014285714285714285
sI57
F0.02857142857142857
sI58
F0.014285714285714285
sI59
F0.014285714285714285
sI61
F0.014285714285714285
sI62
F0.04285714285714286
sI64
F0.02857142857142857
sI66
F0.014285714285714285
sI67
F0.04285714285714286
sI69
F0.014285714285714285
sI70
F0.014285714285714285
sI71
F0.02857142857142857
sI73
F0.014285714285714285
sI74
F0.014285714285714285
sI75
F0.04285714285714286
sI76
F0.02857142857142857
sI77
F0.02857142857142857
ssI79
g0
(g4
tp161
Rp162
I0
F0.02127659574468085
sI2
F0.02127659574468085
sI7
F0.02127659574468085
sI11
F0.02127659574468085
sI12
F0.02127659574468085
sI14
F0.0425531914893617
sI16
F0.0425531914893617
sI17
F0.02127659574468085
sI19
F0.0425531914893617
sI22
F0.06382978723404255
sI23
F0.02127659574468085
sI24
F0.02127659574468085
sI26
F0.02127659574468085
sI27
F0.02127659574468085
sI29
F0.02127659574468085
sI32
F0.02127659574468085
sI34
F0.0425531914893617
sI35
F0.0425531914893617
sI37
F0.02127659574468085
sI38
F0.02127659574468085
sI44
F0.02127659574468085
sI48
F0.02127659574468085
sI51
F0.02127659574468085
sI53
F0.02127659574468085
sI55
F0.0425531914893617
sI56
F0.02127659574468085
sI57
F0.0425531914893617
sI59
F0.02127659574468085
sI60
F0.02127659574468085
sI61
F0.02127659574468085
sI62
F0.02127659574468085
sI67
F0.02127659574468085
sI70
F0.02127659574468085
sI71
F0.02127659574468085
sI76
F0.02127659574468085
sI77
F0.02127659574468085
sI78
F0.0425531914893617
ssI80
g0
(g4
tp163
Rp164
I0
F0.05128205128205128
sI1
F0.02564102564102564
sI2
F0.02564102564102564
sI4
F0.02564102564102564
sI5
F0.02564102564102564
sI6
F0.02564102564102564
sI7
F0.02564102564102564
sI11
F0.02564102564102564
sI13
F0.02564102564102564
sI15
F0.02564102564102564
sI17
F0.02564102564102564
sI21
F0.02564102564102564
sI22
F0.02564102564102564
sI23
F0.02564102564102564
sI25
F0.02564102564102564
sI28
F0.02564102564102564
sI33
F0.02564102564102564
sI35
F0.05128205128205128
sI39
F0.02564102564102564
sI43
F0.02564102564102564
sI45
F0.02564102564102564
sI47
F0.02564102564102564
sI48
F0.02564102564102564
sI51
F0.02564102564102564
sI53
F0.05128205128205128
sI55
F0.02564102564102564
sI59
F0.02564102564102564
sI64
F0.02564102564102564
sI65
F0.05128205128205128
sI67
F0.07692307692307693
sI73
F0.02564102564102564
sI77
F0.02564102564102564
sI79
F0.02564102564102564
ssI81
g0
(g4
tp165
Rp166
I0
F0.011494252873563218
sI2
F0.04597701149425287
sI4
F0.011494252873563218
sI6
F0.011494252873563218
sI8
F0.022988505747126436
sI9
F0.011494252873563218
sI10
F0.011494252873563218
sI11
F0.011494252873563218
sI12
F0.011494252873563218
sI17
F0.022988505747126436
sI18
F0.011494252873563218
sI19
F0.011494252873563218
sI23
F0.022988505747126436
sI24
F0.011494252873563218
sI25
F0.022988505747126436
sI27
F0.022988505747126436
sI28
F0.034482758620689655
sI30
F0.011494252873563218
sI31
F0.022988505747126436
sI32
F0.022988505747126436
sI33
F0.022988505747126436
sI34
F0.022988505747126436
sI35
F0.022988505747126436
sI38
F0.011494252873563218
sI39
F0.011494252873563218
sI41
F0.034482758620689655
sI43
F0.011494252873563218
sI45
F0.011494252873563218
sI46
F0.011494252873563218
sI47
F0.011494252873563218
sI48
F0.034482758620689655
sI50
F0.034482758620689655
sI52
F0.022988505747126436
sI53
F0.022988505747126436
sI55
F0.022988505747126436
sI56
F0.011494252873563218
sI57
F0.011494252873563218
sI58
F0.011494252873563218
sI60
F0.011494252873563218
sI62
F0.011494252873563218
sI64
F0.022988505747126436
sI65
F0.022988505747126436
sI66
F0.011494252873563218
sI67
F0.034482758620689655
sI69
F0.011494252873563218
sI70
F0.022988505747126436
sI71
F0.011494252873563218
sI72
F0.022988505747126436
sI73
F0.011494252873563218
sI74
F0.022988505747126436
sI75
F0.011494252873563218
sI76
F0.011494252873563218
sI77
F0.011494252873563218
sI78
F0.022988505747126436
sI80
F0.011494252873563218
ssI82
g0
(g4
tp167
Rp168
I2
F0.02631578947368421
sI6
F0.02631578947368421
sI9
F0.02631578947368421
sI12
F0.02631578947368421
sI16
F0.07894736842105263
sI17
F0.05263157894736842
sI24
F0.05263157894736842
sI25
F0.02631578947368421
sI26
F0.05263157894736842
sI29
F0.02631578947368421
sI32
F0.02631578947368421
sI35
F0.02631578947368421
sI36
F0.02631578947368421
sI38
F0.05263157894736842
sI43
F0.02631578947368421
sI47
F0.02631578947368421
sI51
F0.02631578947368421
sI53
F0.02631578947368421
sI54
F0.02631578947368421
sI57
F0.02631578947368421
sI58
F0.02631578947368421
sI59
F0.05263157894736842
sI61
F0.02631578947368421
sI64
F0.02631578947368421
sI67
F0.05263157894736842
sI71
F0.02631578947368421
sI72
F0.02631578947368421
sI73
F0.02631578947368421
sI78
F0.02631578947368421
sI79
F0.02631578947368421
ssI83
g0
(g4
tp169
Rp170
I6
F0.022727272727272728
sI8
F0.022727272727272728
sI9
F0.022727272727272728
sI10
F0.022727272727272728
sI11
F0.022727272727272728
sI16
F0.045454545454545456
sI17
F0.022727272727272728
sI18
F0.022727272727272728
sI20
F0.022727272727272728
sI25
F0.045454545454545456
sI26
F0.022727272727272728
sI27
F0.022727272727272728
sI29
F0.045454545454545456
sI30
F0.022727272727272728
sI33
F0.022727272727272728
sI38
F0.022727272727272728
sI39
F0.022727272727272728
sI40
F0.022727272727272728
sI41
F0.022727272727272728
sI43
F0.022727272727272728
sI45
F0.022727272727272728
sI46
F0.022727272727272728
sI47
F0.045454545454545456
sI48
F0.022727272727272728
sI50
F0.022727272727272728
sI53
F0.022727272727272728
sI55
F0.022727272727272728
sI57
F0.022727272727272728
sI58
F0.022727272727272728
sI62
F0.022727272727272728
sI63
F0.022727272727272728
sI64
F0.022727272727272728
sI65
F0.045454545454545456
sI66
F0.022727272727272728
sI70
F0.022727272727272728
sI72
F0.022727272727272728
sI74
F0.022727272727272728
sI77
F0.022727272727272728
sI81
F0.022727272727272728
ssI84
g0
(g4
tp171
Rp172
I0
F0.022727272727272728
sI2
F0.011363636363636364
sI6
F0.011363636363636364
sI7
F0.011363636363636364
sI8
F0.011363636363636364
sI9
F0.022727272727272728
sI10
F0.011363636363636364
sI11
F0.022727272727272728
sI12
F0.011363636363636364
sI13
F0.011363636363636364
sI14
F0.011363636363636364
sI16
F0.011363636363636364
sI17
F0.011363636363636364
sI18
F0.022727272727272728
sI19
F0.011363636363636364
sI22
F0.022727272727272728
sI23
F0.011363636363636364
sI25
F0.022727272727272728
sI26
F0.022727272727272728
sI27
F0.011363636363636364
sI28
F0.011363636363636364
sI29
F0.011363636363636364
sI30
F0.011363636363636364
sI31
F0.011363636363636364
sI33
F0.011363636363636364
sI34
F0.011363636363636364
sI35
F0.022727272727272728
sI38
F0.011363636363636364
sI41
F0.022727272727272728
sI42
F0.011363636363636364
sI43
F0.022727272727272728
sI44
F0.011363636363636364
sI46
F0.011363636363636364
sI47
F0.022727272727272728
sI48
F0.011363636363636364
sI50
F0.022727272727272728
sI52
F0.011363636363636364
sI53
F0.022727272727272728
sI54
F0.022727272727272728
sI55
F0.011363636363636364
sI56
F0.011363636363636364
sI57
F0.022727272727272728
sI58
F0.011363636363636364
sI59
F0.011363636363636364
sI60
F0.022727272727272728
sI61
F0.011363636363636364
sI62
F0.011363636363636364
sI63
F0.011363636363636364
sI64
F0.022727272727272728
sI65
F0.011363636363636364
sI67
F0.011363636363636364
sI70
F0.022727272727272728
sI71
F0.022727272727272728
sI72
F0.022727272727272728
sI74
F0.011363636363636364
sI76
F0.022727272727272728
sI77
F0.011363636363636364
sI78
F0.022727272727272728
sI79
F0.03409090909090909
sI80
F0.011363636363636364
sI81
F0.011363636363636364
sI82
F0.022727272727272728
sI83
F0.011363636363636364
ssI85
g0
(g4
tp173
Rp174
I2
F0.03125
sI5
F0.03125
sI8
F0.03125
sI12
F0.03125
sI16
F0.03125
sI23
F0.03125
sI28
F0.03125
sI32
F0.0625
sI35
F0.03125
sI39
F0.03125
sI41
F0.03125
sI44
F0.03125
sI48
F0.03125
sI50
F0.03125
sI51
F0.03125
sI55
F0.0625
sI56
F0.0625
sI62
F0.03125
sI66
F0.03125
sI67
F0.03125
sI71
F0.0625
sI74
F0.03125
sI75
F0.03125
sI77
F0.0625
sI78
F0.03125
sI81
F0.0625
ssI86
g0
(g4
tp175
Rp176
I1
F0.03333333333333333
sI2
F0.03333333333333333
sI11
F0.03333333333333333
sI14
F0.03333333333333333
sI19
F0.03333333333333333
sI20
F0.03333333333333333
sI22
F0.03333333333333333
sI23
F0.03333333333333333
sI33
F0.03333333333333333
sI34
F0.03333333333333333
sI36
F0.03333333333333333
sI42
F0.03333333333333333
sI51
F0.03333333333333333
sI57
F0.03333333333333333
sI58
F0.03333333333333333
sI59
F0.03333333333333333
sI61
F0.03333333333333333
sI62
F0.06666666666666667
sI67
F0.03333333333333333
sI70
F0.03333333333333333
sI71
F0.03333333333333333
sI72
F0.03333333333333333
sI73
F0.03333333333333333
sI76
F0.03333333333333333
sI77
F0.03333333333333333
sI78
F0.03333333333333333
sI79
F0.03333333333333333
sI82
F0.03333333333333333
sI84
F0.03333333333333333
ssI87
g0
(g4
tp177
Rp178
I1
F0.022222222222222223
sI5
F0.022222222222222223
sI6
F0.022222222222222223
sI8
F0.022222222222222223
sI10
F0.022222222222222223
sI11
F0.022222222222222223
sI16
F0.022222222222222223
sI18
F0.022222222222222223
sI19
F0.022222222222222223
sI25
F0.044444444444444446
sI27
F0.022222222222222223
sI29
F0.022222222222222223
sI30
F0.022222222222222223
sI33
F0.022222222222222223
sI39
F0.022222222222222223
sI40
F0.022222222222222223
sI41
F0.022222222222222223
sI43
F0.022222222222222223
sI46
F0.022222222222222223
sI47
F0.044444444444444446
sI48
F0.022222222222222223
sI50
F0.022222222222222223
sI51
F0.044444444444444446
sI53
F0.044444444444444446
sI55
F0.022222222222222223
sI57
F0.022222222222222223
sI58
F0.022222222222222223
sI62
F0.022222222222222223
sI64
F0.022222222222222223
sI65
F0.044444444444444446
sI66
F0.022222222222222223
sI67
F0.022222222222222223
sI70
F0.022222222222222223
sI72
F0.022222222222222223
sI74
F0.022222222222222223
sI79
F0.022222222222222223
sI80
F0.022222222222222223
sI81
F0.022222222222222223
sI83
F0.022222222222222223
sI84
F0.022222222222222223
ssI88
g0
(g4
tp179
Rp180
I0
F0.023809523809523808
sI1
F0.023809523809523808
sI2
F0.023809523809523808
sI4
F0.023809523809523808
sI5
F0.023809523809523808
sI6
F0.023809523809523808
sI8
F0.023809523809523808
sI9
F0.023809523809523808
sI17
F0.023809523809523808
sI21
F0.023809523809523808
sI23
F0.023809523809523808
sI25
F0.023809523809523808
sI27
F0.023809523809523808
sI28
F0.023809523809523808
sI31
F0.047619047619047616
sI34
F0.047619047619047616
sI40
F0.023809523809523808
sI43
F0.023809523809523808
sI45
F0.023809523809523808
sI47
F0.023809523809523808
sI48
F0.023809523809523808
sI50
F0.023809523809523808
sI51
F0.023809523809523808
sI52
F0.047619047619047616
sI53
F0.023809523809523808
sI54
F0.023809523809523808
sI64
F0.023809523809523808
sI65
F0.023809523809523808
sI67
F0.023809523809523808
sI69
F0.023809523809523808
sI70
F0.023809523809523808
sI73
F0.023809523809523808
sI74
F0.023809523809523808
sI76
F0.047619047619047616
sI78
F0.023809523809523808
sI80
F0.023809523809523808
sI81
F0.023809523809523808
sI87
F0.023809523809523808
ssI89
g0
(g4
tp181
Rp182
I32
F0.07692307692307693
sI35
F0.07692307692307693
sI68
F0.15384615384615385
sI7
F0.07692307692307693
sI72
F0.07692307692307693
sI73
F0.07692307692307693
sI10
F0.07692307692307693
sI75
F0.07692307692307693
sI3
F0.07692307692307693
sI53
F0.07692307692307693
sI22
F0.07692307692307693
sI42
F0.07692307692307693
ssI90
g0
(g4
tp183
Rp184
I0
F0.03125
sI2
F0.03125
sI4
F0.03125
sI8
F0.0625
sI9
F0.03125
sI17
F0.03125
sI23
F0.0625
sI25
F0.03125
sI27
F0.03125
sI28
F0.03125
sI31
F0.03125
sI34
F0.03125
sI43
F0.03125
sI45
F0.03125
sI46
F0.03125
sI48
F0.03125
sI50
F0.03125
sI52
F0.03125
sI56
F0.03125
sI64
F0.03125
sI67
F0.03125
sI69
F0.03125
sI70
F0.03125
sI73
F0.03125
sI74
F0.0625
sI76
F0.03125
sI78
F0.03125
sI81
F0.03125
sI88
F0.03125
ssI91
g0
(g4
tp185
Rp186
I0
F0.03571428571428571
sI2
F0.03571428571428571
sI4
F0.03571428571428571
sI8
F0.03571428571428571
sI9
F0.03571428571428571
sI17
F0.03571428571428571
sI23
F0.03571428571428571
sI25
F0.03571428571428571
sI27
F0.03571428571428571
sI28
F0.03571428571428571
sI31
F0.03571428571428571
sI34
F0.03571428571428571
sI43
F0.03571428571428571
sI45
F0.03571428571428571
sI48
F0.03571428571428571
sI50
F0.03571428571428571
sI52
F0.03571428571428571
sI64
F0.03571428571428571
sI67
F0.03571428571428571
sI69
F0.03571428571428571
sI70
F0.03571428571428571
sI73
F0.03571428571428571
sI74
F0.03571428571428571
sI76
F0.03571428571428571
sI78
F0.03571428571428571
sI81
F0.03571428571428571
sI88
F0.03571428571428571
sI90
F0.03571428571428571
ssI92
g0
(g4
tp187
Rp188
I0
F0.024390243902439025
sI2
F0.024390243902439025
sI4
F0.024390243902439025
sI8
F0.024390243902439025
sI9
F0.024390243902439025
sI11
F0.024390243902439025
sI14
F0.024390243902439025
sI17
F0.024390243902439025
sI19
F0.024390243902439025
sI22
F0.024390243902439025
sI23
F0.024390243902439025
sI25
F0.024390243902439025
sI27
F0.024390243902439025
sI28
F0.024390243902439025
sI31
F0.024390243902439025
sI34
F0.024390243902439025
sI43
F0.024390243902439025
sI45
F0.024390243902439025
sI48
F0.024390243902439025
sI50
F0.024390243902439025
sI52
F0.024390243902439025
sI57
F0.024390243902439025
sI58
F0.024390243902439025
sI62
F0.024390243902439025
sI64
F0.024390243902439025
sI67
F0.024390243902439025
sI69
F0.024390243902439025
sI70
F0.024390243902439025
sI71
F0.024390243902439025
sI73
F0.024390243902439025
sI74
F0.024390243902439025
sI76
F0.024390243902439025
sI77
F0.024390243902439025
sI78
F0.024390243902439025
sI79
F0.024390243902439025
sI81
F0.024390243902439025
sI84
F0.024390243902439025
sI86
F0.024390243902439025
sI88
F0.024390243902439025
sI90
F0.024390243902439025
sI91
F0.024390243902439025
ssI93
g0
(g4
tp189
Rp190
I34
F0.05263157894736842
sI86
F0.05263157894736842
sI70
F0.05263157894736842
sI71
F0.05263157894736842
sI92
F0.05263157894736842
sI11
F0.05263157894736842
sI76
F0.05263157894736842
sI77
F0.05263157894736842
sI14
F0.05263157894736842
sI79
F0.05263157894736842
sI19
F0.05263157894736842
sI84
F0.05263157894736842
sI78
F0.05263157894736842
sI22
F0.05263157894736842
sI23
F0.05263157894736842
sI57
F0.05263157894736842
sI60
F0.05263157894736842
sI61
F0.05263157894736842
sI62
F0.05263157894736842
ssI94
g0
(g4
tp191
Rp192
I1
F0.08333333333333333
sI67
F0.08333333333333333
sI5
F0.08333333333333333
sI65
F0.08333333333333333
sI43
F0.08333333333333333
sI47
F0.08333333333333333
sI80
F0.08333333333333333
sI51
F0.08333333333333333
sI53
F0.08333333333333333
sI87
F0.08333333333333333
sI88
F0.08333333333333333
sI25
F0.08333333333333333
ss.