ccollections
defaultdict
p0
(c__builtin__
set
p1
tp2
Rp3
VIH0Z
p4
g1
((lp5
S'his'
p6
aS'is'
p7
aS'does'
p8
atp9
Rp10
sVAO1KS
p11
g1
((lp12
S'talks'
p13
atp14
Rp15
sVIH0T
p16
g1
((lp17
S'it'
p18
atp19
Rp20
sVIH0S
p21
g1
((lp22
S'this'
p23
atp24
Rp25
sVAO1KT
p26
g1
((lp27
S'talked'
p28
aS'walked'
p29
atp30
Rp31
sVAH2
p32
g1
((lp33
S'unafraid'
p34
aS'undeniable'
p35
aS'understand'
p36
aS'whatever'
p37
atp38
Rp39
sVIH0N
p40
g1
((lp41
S'ingenuitive'
p42
aS'been'
p43
aS'in'
p44
atp45
Rp46
sVAH0
p47
g1
((lp48
S'affair'
p49
aS'phenomenon'
p50
aS'agreed'
p51
aS'competitive'
p52
aS'unrest'
p53
aS'committed'
p54
aS'aggressive'
p55
aS'debate'
p56
aS'unfinished'
p57
aS'methodically'
p58
aS'amaze'
p59
aS'astonish'
p60
aS'surprised'
p61
aS'de'
p62
aS'cannot'
p63
aS'supplies'
p64
aS'accumulate'
p65
aS'success'
p66
aS'tobacco'
p67
aS'nathaniel'
p68
aS'specific'
p69
aS'consolidate'
p70
aS'financial'
p71
aS'regret'
p72
aS'quebec'
p73
aS'battalion'
p74
aS'financials'
p75
aS'subject'
p76
aS'provided'
p77
aS'recruits'
p78
aS'est'
p79
aS'record'
p80
aS'oppressors'
p81
aS'above'
p82
aS'surprise'
p83
aS'across'
p84
aS'parentis'
p85
aS'ability'
p86
aS'unmask'
p87
aS'agreement'
p88
aS'refused'
p89
aS'succeed'
p90
aS'advantages'
p91
aS'alone'
p92
aS'along'
p93
aS'advance'
p94
aS'about'
p95
aS'ahead'
p96
aS'against'
p97
aS'agree'
p98
aS'adored'
p99
aS'admit'
p100
aS'oppose'
p101
aS'opinion'
p102
aS'afar'
p103
aS'astute'
p104
aS'abet'
p105
aS'supply'
p106
aS'confession'
p107
aS'another'
p108
aS'apologize'
p109
aS'apply'
p110
aS'tomorrow'
p111
aS'conventional'
p112
aS'to'
p113
aS'political'
p114
aS'attack'
p115
aS'assistance'
p116
aS'until'
p117
aS'today'
p118
aS'attractive'
p119
aS'confer'
p120
aS'monsieur'
p121
aS'afford'
p122
aS'aware'
p123
aS'approachable'
p124
aS'alas'
p125
aS'awake'
p126
aS'july'
p127
aS'abandoning'
p128
aS'commence'
p129
aS'apprentice'
p130
aS'account'
p131
aS'civility'
p132
aS'promotes'
p133
aS'assume'
p134
aS'contrary'
p135
aS'abandon'
p136
aS'opponent'
p137
aS'ascendancy'
p138
aS'suggestions'
p139
aS'provoke'
p140
aS'again'
p141
aS'afraid'
p142
aS'suggests'
p143
aS'aside'
p144
aS'complicit'
p145
aS'towards'
p146
aS'unless'
p147
aS'confess'
p148
aS'advice'
p149
aS'negotiate'
p150
aS'collection'
p151
aS'abuse'
p152
aS'connected'
p153
aS'position'
p154
aS'apprenticeship'
p155
aS'america'
p156
aS'a'
p157
aS'attempt'
p158
aS'considered'
p159
aS'askance'
p160
aS'american'
p161
aS'sometimes'
p162
aS'upset'
p163
aS'together'
p164
aS'acquitted'
p165
aS'adrenaline'
p166
aS'command'
p167
aS'absurd'
p168
aS'consistency'
p169
aS'occasion'
p170
aS'the'
p171
aS'away'
p172
atp173
Rp174
sVAH1
p175
g1
((lp176
S'gunshot'
p177
aS'shovel'
p178
aS'hunger'
p179
aS'runner'
p180
aS'money'
p181
aS'trusting'
p182
aS'somehow'
p183
aS'hungry'
p184
aS'something'
p185
aS'summon'
p186
aS'subject'
p187
aS'buddy'
p188
aS'rather'
p189
aS'hudson'
p190
aS'hurricane'
p191
aS'other'
p192
aS'bloodstains'
p193
aS'under'
p194
aS'struggled'
p195
aS'hundred'
p196
aS'public'
p197
aS'covenant'
p198
aS'sullied'
p199
aS'someone'
p200
aS'somebody'
p201
aS'brothers'
p202
aS'government'
p203
aS'couple'
p204
aS'mother'
p205
aS'southern'
p206
aS'cover'
p207
aS'number'
p208
aS'running'
p209
aS'coming'
p210
aS'nothing'
p211
aS'cousin'
p212
aS'trouble'
p213
aS'upstate'
p214
aS'publishes'
p215
aS'younger'
p216
aS'someday'
p217
aS"wasn't"
p218
aS'double'
p219
aS'study'
p220
aS'sometimes'
p221
aS'upset'
p222
aS'brother'
p223
aS'doubled'
p224
aS'summary'
p225
aS"brother's"
p226
aS'uh'
p227
aS'country'
p228
aS'knuckleheads'
p229
aS'the'
p230
aS'mulligan'
p231
aS'smuggle'
p232
atp233
Rp234
sVIH0F
p235
g1
((lp236
S'if'
p237
atp238
Rp239
sVIH0D
p240
g1
((lp241
S'did'
p242
aS'good'
p243
atp244
Rp245
sVAE1BZ
p246
g1
((lp247
S'grabs'
p248
atp249
Rp250
sVUW1TH
p251
g1
((lp252
S'truth'
p253
atp254
Rp255
sVEH2
p256
g1
((lp257
S'revolutionary'
p258
aS'devastation'
p259
aS'revolution'
p260
aS'caribbean'
p261
aS'carolina'
p262
aS'expectation'
p263
aS'reputation'
p264
aS'guarantee'
p265
aS'declaration'
p266
aS'speculation'
p267
aS'education'
p268
aS'democratic'
p269
aS'restitution'
p270
atp271
Rp272
sVEH0
p273
g1
((lp274
S'embezzling'
p275
aS'rep'
p276
aS'endorse'
p277
aS'engaged'
p278
aS'escorted'
p279
aS'escort'
p280
aS'endorsement'
p281
aS'entrust'
p282
aS'enlightenment'
p283
aS'essays'
p284
atp285
Rp286
sVEH1
p287
g1
((lp288
S'kettle'
p289
aS'questions'
p290
aS'enterprise'
p291
aS'carefully'
p292
aS'melody'
p293
aS'arrogant'
p294
aS'envy'
p295
aS'venerated'
p296
aS'headline'
p297
aS'betsy'
p298
aS'aaron'
p299
aS'treasury'
p300
aS'wearing'
p301
aS'very'
p302
aS'every'
p303
aS'pendleton'
p304
aS'reckoning'
p305
aS'jettison'
p306
aS'endless'
p307
aS'enemy'
p308
aS'heaven'
p309
aS'feral'
p310
aS'level'
p311
aS'excellency'
p312
aS'chesapeake'
p313
aS'pleasantries'
p314
aS'eloquence'
p315
aS'settle'
p316
aS'marry'
p317
aS'secretary'
p318
aS'seventeen'
p319
aS'specially'
p320
aS'redcoats'
p321
aS'tempered'
p322
aS'messy'
p323
aS'second'
p324
aS'legacy'
p325
aS'carriages'
p326
aS'desperate'
p327
aS'helpless'
p328
aS'destitute'
p329
aS'centralizing'
p330
aS'enemies'
p331
aS'measurements'
p332
aS'everything'
p333
aS'medicine'
p334
aS'lecture'
p335
aS'ever'
p336
aS'temple'
p337
aS'checkered'
p338
aS'seconds'
p339
aS'never'
p340
aS'peggy'
p341
aS'enterprising'
p342
aS'frenchman'
p343
aS'scary'
p344
aS'benefits'
p345
aS'hesitant'
p346
aS'getting'
p347
aS'many'
p348
aS'terrible'
p349
aS'credit'
p350
aS'testament'
p351
aS'mentions'
p352
aS'reckoned'
p353
aS'letters'
p354
aS'plenty'
p355
aS'headed'
p356
aS'lesson'
p357
aS"ev'ry"
p358
aS'better'
p359
aS'spending'
p360
aS'twenty'
p361
aS'question'
p362
aS'anyone'
p363
aS'escort'
p364
aS'memory'
p365
aS'essays'
p366
aS'pencil'
p367
aS'fellow'
p368
aS'meddling'
p369
aS'everywhere'
p370
aS'mellow'
p371
aS'evidence'
p372
aS'endlessly'
p373
aS'present'
p374
aS'anything'
p375
aS'record'
p376
aS'henry'
p377
aS'seven'
p378
aS'century'
p379
aS'general'
p380
aS'ready'
p381
aS'pedestal'
p382
aS'reynolds'
p383
aS'any'
p384
aS'redder'
p385
aS'deadly'
p386
aS'veteran'
p387
aS'elegance'
p388
aS'gentlemen'
p389
aS'penniless'
p390
aS'relatives'
p391
aS'jefferson'
p392
aS'elephant'
p393
aS'elevates'
p394
aS'dresses'
p395
aS'separate'
p396
aS'welcome'
p397
aS'henchmen'
p398
aS'vengeance'
p399
aS'letter'
p400
aS'president'
p401
aS'decorated'
p402
aS'weapon'
p403
aS'sedative'
p404
aS'anybody'
p405
aS'element'
p406
aS'enter'
p407
aS'precedent'
p408
atp409
Rp410
sVEY1TS
p411
g1
((lp412
S'states'
p413
atp414
Rp415
sVAE1NTS
p416
g1
((lp417
S'pants'
p418
atp419
Rp420
sVUW1TS
p421
g1
((lp422
S'shoots'
p423
atp424
Rp425
sVIY1TS
p426
g1
((lp427
S'streets'
p428
atp429
Rp430
sVAH1CH
p431
g1
((lp432
S'such'
p433
aS'much'
p434
atp435
Rp436
sVER1MZ
p437
g1
((lp438
S'terms'
p439
atp440
Rp441
sVEY1MZ
p442
g1
((lp443
S'james'
p444
atp445
Rp446
sS'IH0M'
p447
g1
((lp448
S'impoverished'
p449
aS'him'
p450
atp451
Rp452
sVOY1
p453
g1
((lp454
S'boy'
p455
aS'poisoned'
p456
aS'loyalty'
p457
aS'choices'
p458
aS'royalty'
p459
aS'lawyer'
p460
aS'voices'
p461
aS'joining'
p462
atp463
Rp464
sVEY1MD
p465
g1
((lp466
S'named'
p467
atp468
Rp469
sVUW1ZD
p470
g1
((lp471
S'used'
p472
atp473
Rp474
sVUH0
p475
g1
((lp476
S'yourself'
p477
atp478
Rp479
sVUH1
p480
g1
((lp481
S'jury'
p482
aS'bullet'
p483
aS'crooked'
p484
aS'poorest'
p485
aS'sugar'
p486
aS'looking'
p487
aS'brooklyn'
p488
aS'bullets'
p489
aS'curious'
p490
atp491
Rp492
sVAH1NZ
p493
g1
((lp494
S'runs'
p495
aS'sons'
p496
aS'guns'
p497
atp498
Rp499
sVAH1NT
p500
g1
((lp501
S'front'
p502
atp503
Rp504
sVAH1NS
p505
g1
((lp506
S'once'
p507
atp508
Rp509
sVAH1NG
p510
g1
((lp511
S'hungriest'
p512
aS'young'
p513
atp514
Rp515
sVAO1RD
p516
g1
((lp517
S'lord'
p518
atp519
Rp520
sVAO1RK
p521
g1
((lp522
S'york'
p523
atp524
Rp525
sVAO1RN
p526
g1
((lp527
S'worn'
p528
atp529
Rp530
sVAA1NT
p531
g1
((lp532
S'want'
p533
atp534
Rp535
sVAO1RS
p536
g1
((lp537
S'course'
p538
aS'horse'
p539
atp540
Rp541
sVAO1RT
p542
g1
((lp543
S'sort'
p544
aS'short'
p545
atp546
Rp547
sVAO1RZ
p548
g1
((lp549
S'yours'
p550
atp551
Rp552
sVER1CH
p553
g1
((lp554
S'search'
p555
aS'church'
p556
atp557
Rp558
sVAY1TS
p559
g1
((lp560
S'writes'
p561
aS'rights'
p562
atp563
Rp564
sVUH1KS
p565
g1
((lp566
S'looks'
p567
atp568
Rp569
sVUH1KT
p570
g1
((lp571
S'looked'
p572
atp573
Rp574
sVEH1D
p575
g1
((lp576
S'shed'
p577
aS'said'
p578
aS'led'
p579
aS'lead'
p580
aS'head'
p581
aS'dead'
p582
aS'spread'
p583
aS'bed'
p584
aS'red'
p585
atp586
Rp587
sVIH1RZ
p588
g1
((lp589
S'years'
p590
atp591
Rp592
sVEY1Z
p593
g1
((lp594
S'raise'
p595
atp596
Rp597
sVEY1T
p598
g1
((lp599
S'great'
p600
aS'straight'
p601
aS'late'
p602
aS'state'
p603
aS'eight'
p604
aS'wait'
p605
atp606
Rp607
sVEY1P
p608
g1
((lp609
S'shape'
p610
atp611
Rp612
sVEY1S
p613
g1
((lp614
S'case'
p615
aS'place'
p616
aS'face'
p617
atp618
Rp619
sVEY1M
p620
g1
((lp621
S'name'
p622
aS'same'
p623
aS'aim'
p624
aS'shame'
p625
aS'game'
p626
aS'flame'
p627
aS'came'
p628
atp629
Rp630
sVEY1N
p631
g1
((lp632
S'brain'
p633
aS'drain'
p634
aS'pain'
p635
aS'gain'
p636
aS'cane'
p637
atp638
Rp639
sVOW1TH
p640
g1
((lp641
S'both'
p642
atp643
Rp644
sVEY1D
p645
g1
((lp646
S'aid'
p647
aS'made'
p648
aS'shade'
p649
aS'paid'
p650
atp651
Rp652
sVAE1FT
p653
g1
((lp654
S'draft'
p655
atp656
Rp657
sVEH1K
p658
g1
((lp659
S'check'
p660
aS'neck'
p661
atp662
Rp663
sVEH1L
p664
g1
((lp665
S'hell'
p666
aS'spell'
p667
aS'well'
p668
aS'tell'
p669
aS'l'
p670
atp671
Rp672
sVEH1M
p673
g1
((lp674
S'em'
p675
aS'm'
p676
atp677
Rp678
sVEH1N
p679
g1
((lp680
S'then'
p681
aS'ben'
p682
aS'ten'
p683
aS'men'
p684
aS'when'
p685
aS'n'
p686
atp687
Rp688
sVER1NZ
p689
g1
((lp690
S'turns'
p691
atp692
Rp693
sVEH1ST
p694
g1
((lp695
S'test'
p696
aS'west'
p697
aS'rest'
p698
aS'best'
p699
atp700
Rp701
sVAY1K
p702
g1
((lp703
S'like'
p704
atp705
Rp706
sVEH1G
p707
g1
((lp708
S'keg'
p709
aS'beg'
p710
atp711
Rp712
sVEH1Z
p713
g1
((lp714
S'as'
p715
aS'says'
p716
atp717
Rp718
sVER1ND
p719
g1
((lp720
S'learned'
p721
aS'turned'
p722
atp723
Rp724
sVAO1GZ
p725
g1
((lp726
S'dogs'
p727
atp728
Rp729
sVEH1P
p730
g1
((lp731
S'rep'
p732
aS'step'
p733
atp734
Rp735
sVEH1R
p736
g1
((lp737
S'there'
p738
aS'bear'
p739
aS'air'
p740
aS'swear'
p741
aS'wear'
p742
aS'where'
p743
atp744
Rp745
sVEH1S
p746
g1
((lp747
S'stress'
p748
aS'less'
p749
aS'mess'
p750
aS'ness'
p751
aS's'
p752
aS'chess'
p753
aS'press'
p754
aS'yes'
p755
atp756
Rp757
sVEH1T
p758
g1
((lp759
S'vet'
p760
aS'set'
p761
aS'get'
p762
aS'met'
p763
aS'let'
p764
aS'sweat'
p765
aS'debt'
p766
aS'yet'
p767
aS'bet'
p768
atp769
Rp770
sVIY1PS
p771
g1
((lp772
S'keeps'
p773
atp774
Rp775
sVAO1RDZ
p776
g1
((lp777
S'towards'
p778
atp779
Rp780
sVIH1MPS
p781
g1
((lp782
S'glimpse'
p783
atp784
Rp785
sVIH0TH
p786
g1
((lp787
S'with'
p788
atp789
Rp790
sVEH1FT
p791
g1
((lp792
S'left'
p793
atp794
Rp795
sVIH0TS
p796
g1
((lp797
S'its'
p798
atp799
Rp800
sVAA1DZ
p801
g1
((lp802
S'gods'
p803
aS'odds'
p804
atp805
Rp806
sVAO1NT
p807
g1
((lp808
S'want'
p809
atp810
Rp811
sVEY1ST
p812
g1
((lp813
S'placed'
p814
aS'raced'
p815
atp816
Rp817
sVAO1NG
p818
g1
((lp819
S'wrong'
p820
aS'song'
p821
atp822
Rp823
sVIH1NGZ
p824
g1
((lp825
S'things'
p826
atp827
Rp828
sVAH1NTS
p829
g1
((lp830
S'fronts'
p831
atp832
Rp833
sVER0
p834
g1
((lp835
S'forget'
p836
aS'terrain'
p837
aS'pursuits'
p838
aS'yourself'
p839
aS'are'
p840
aS'forgot'
p841
aS'caribbean'
p842
aS'for'
p843
aS'surprise'
p844
aS'forgets'
p845
aS'surprised'
p846
aS'around'
p847
aS'permission'
p848
aS'were'
p849
aS'virginia'
p850
aS'arrived'
p851
aS'pursuit'
p852
aS'virtuosity'
p853
aS'particular'
p854
aS'surrender'
p855
aS'present'
p856
aS'maria'
p857
aS'parentheses'
p858
aS'virginian'
p859
aS'career'
p860
aS'forgotten'
p861
aS'or'
p862
atp863
Rp864
sVEH1TH
p865
g1
((lp866
S'death'
p867
atp868
Rp869
sVAA1NTS
p870
g1
((lp871
S'wants'
p872
atp873
Rp874
sVEH1TS
p875
g1
((lp876
S'bets'
p877
aS'debts'
p878
aS'lets'
p879
aS'gets'
p880
aS'sets'
p881
atp882
Rp883
sVAE1KST
p884
g1
((lp885
S'taxed'
p886
atp887
Rp888
sVAH1NCH
p889
g1
((lp890
S'bunch'
p891
atp892
Rp893
sVEY1
p894
g1
((lp895
S'saying'
p896
aS'major'
p897
aS'stray'
p898
aS'bayonet'
p899
aS'ladies'
p900
aS'draining'
p901
aS'say'
p902
aS'paces'
p903
aS'trading'
p904
aS'labor'
p905
aS'patiently'
p906
aS'pray'
p907
aS'pay'
p908
aS'breaking'
p909
aS'hey'
p910
aS'pages'
p911
aS're'
p912
aS'waiting'
p913
aS'station'
p914
aS'way'
p915
aS'papers'
p916
aS'taken'
p917
aS'stalemate'
p918
aS'status'
p919
aS'play'
p920
aS'ration'
p921
aS'statement'
p922
aS'stay'
p923
aS'may'
p924
aS'de'
p925
aS'nation'
p926
aS'waving'
p927
aS'spray'
p928
aS'tailor'
p929
aS'lay'
p930
aS'they'
p931
aS'chasing'
p932
aS'je'
p933
aS'ha'
p934
aS'day'
p935
aS'bravery'
p936
aS'a'
p937
aS'mainland'
p938
aS'places'
p939
aS'sacred'
p940
aS'maybe'
p941
aS'later'
p942
aS'favorite'
p943
aS'slavery'
p944
aS'bay'
p945
aS'facing'
p946
aS'neighbor'
p947
aS'slaver'
p948
aS'making'
p949
aS'latest'
p950
atp951
Rp952
sVEY0
p953
g1
((lp954
S'elitist'
p955
atp956
Rp957
sVAY1NTS
p958
g1
((lp959
S'pints'
p960
atp961
Rp962
sVAO1CH
p963
g1
((lp964
S'watch'
p965
atp966
Rp967
sVAY1
p968
g1
((lp969
S'spy'
p970
aS'itemized'
p971
aS'schuyler'
p972
aS'high'
p973
aS'buy'
p974
aS'frightened'
p975
aS'crisis'
p976
aS'by'
p977
aS'eye'
p978
aS'dying'
p979
aS'lining'
p980
aS'flying'
p981
aS'sky'
p982
aS'silently'
p983
aS'writing'
p984
aS'finally'
p985
aS'ly'
p986
aS'diamond'
p987
aS'shiny'
p988
aS'rioting'
p989
aS'lighten'
p990
aS'dire'
p991
aS'nineteen'
p992
aS'why'
p993
aS'cycle'
p994
aS'dry'
p995
aS'die'
p996
aS'firing'
p997
aS'fighting'
p998
aS'try'
p999
aS'ninety'
p1000
aS'either'
p1001
aS'shy'
p1002
aS'guy'
p1003
aS'higher'
p1004
aS'my'
p1005
aS'lying'
p1006
atp1007
Rp1008
sVAE1SKT
p1009
g1
((lp1010
S'asked'
p1011
atp1012
Rp1013
sVAY2
p1014
g1
((lp1015
S'financial'
p1016
aS'financials'
p1017
aS'diuretic'
p1018
atp1019
Rp1020
sVIH0ST
p1021
g1
((lp1022
S'just'
p1023
atp1024
Rp1025
sVAW1TH
p1026
g1
((lp1027
S'mouth'
p1028
aS'south'
p1029
atp1030
Rp1031
sVAO2
p1032
g1
((lp1033
S'fourteen'
p1034
aS'alright'
p1035
aS'correspondence'
p1036
atp1037
Rp1038
sVAO1
p1039
g1
((lp1040
S'organize'
p1041
aS'almost'
p1042
aS'forfeit'
p1043
aS'orphan'
p1044
aS'yourself'
p1045
aS'talking'
p1046
aS'lawyer'
p1047
aS'broadway'
p1048
aS'corner'
p1049
aS'forthcoming'
p1050
aS'saw'
p1051
aS'orders'
p1052
aS'story'
p1053
aS'law'
p1054
aS'yorkers'
p1055
aS'doctor'
p1056
aS'sordid'
p1057
aS'courted'
p1058
aS'forces'
p1059
aS'forward'
p1060
aS'daughters'
p1061
aS'slaughtered'
p1062
aS'horses'
p1063
aS'draw'
p1064
aS'offer'
p1065
aS'dollar'
p1066
aS'mortally'
p1067
aS'washington'
p1068
aS'fourteen'
p1069
aS'quarterly'
p1070
aS'slaughter'
p1071
aS'wanted'
p1072
aS'boarding'
p1073
aS'longing'
p1074
aS'laurens'
p1075
aS'daughter'
p1076
aS'glory'
p1077
aS'always'
p1078
aS'dollars'
p1079
aS'yorktown'
p1080
aS'chorus'
p1081
aS'orderly'
p1082
atp1083
Rp1084
sVAO0
p1085
g1
((lp1086
S'forgets'
p1087
aS'forgot'
p1088
aS'forget'
p1089
aS'forgotten'
p1090
atp1091
Rp1092
sVIH1DH
p1093
g1
((lp1094
S'with'
p1095
atp1096
Rp1097
sVAE1SK
p1098
g1
((lp1099
S'ask'
p1100
aS'flask'
p1101
aS'task'
p1102
atp1103
Rp1104
sVEH1NCH
p1105
g1
((lp1106
S'trench'
p1107
aS'french'
p1108
aS'bench'
p1109
atp1110
Rp1111
sVAE1SH
p1112
g1
((lp1113
S'cash'
p1114
atp1115
Rp1116
sVAW1D
p1117
g1
((lp1118
S'proud'
p1119
aS'loud'
p1120
aS'crowd'
p1121
atp1122
Rp1123
sVAW1N
p1124
g1
((lp1125
S'down'
p1126
atp1127
Rp1128
sVAW1S
p1129
g1
((lp1130
S'house'
p1131
aS'douse'
p1132
atp1133
Rp1134
sVAW1R
p1135
g1
((lp1136
S'our'
p1137
aS'hour'
p1138
atp1139
Rp1140
sVAW1T
p1141
g1
((lp1142
S'bout'
p1143
aS'doubt'
p1144
aS'out'
p1145
atp1146
Rp1147
sVAE1ST
p1148
g1
((lp1149
S'past'
p1150
aS'last'
p1151
aS'passed'
p1152
aS'fast'
p1153
aS'asked'
p1154
atp1155
Rp1156
sVIH1NGK
p1157
g1
((lp1158
S'drink'
p1159
aS'think'
p1160
aS'brink'
p1161
atp1162
Rp1163
sVAY1NG
p1164
g1
((lp1165
S'trying'
p1166
atp1167
Rp1168
sVEY1NJHD
p1169
g1
((lp1170
S'changed'
p1171
atp1172
Rp1173
sS'AH2N'
p1174
g1
((lp1175
S'unimpeachable'
p1176
atp1177
Rp1178
sVAA1CHT
p1179
g1
((lp1180
S'watched'
p1181
atp1182
Rp1183
sVAA1GZ
p1184
g1
((lp1185
S'dogs'
p1186
atp1187
Rp1188
sVUW1LZ
p1189
g1
((lp1190
S'fools'
p1191
atp1192
Rp1193
sVEH1PT
p1194
g1
((lp1195
S'slept'
p1196
aS'kept'
p1197
atp1198
Rp1199
sVEH1LF
p1200
g1
((lp1201
S'shelf'
p1202
aS'self'
p1203
atp1204
Rp1205
sVAW1NT
p1206
g1
((lp1207
S'count'
p1208
aS'mount'
p1209
atp1210
Rp1211
sVAW1NS
p1212
g1
((lp1213
S'ounce'
p1214
atp1215
Rp1216
sVOW1LD
p1217
g1
((lp1218
S'old'
p1219
atp1220
Rp1221
sVIY1ST
p1222
g1
((lp1223
S'least'
p1224
atp1225
Rp1226
sVEH1LP
p1227
g1
((lp1228
S'help'
p1229
atp1230
Rp1231
sVEH1LS
p1232
g1
((lp1233
S'else'
p1234
atp1235
Rp1236
sVEH1NDZ
p1237
g1
((lp1238
S'friends'
p1239
atp1240
Rp1241
sVEH1LZ
p1242
g1
((lp1243
S'smells'
p1244
aS'bells'
p1245
atp1246
Rp1247
sVAW1ND
p1248
g1
((lp1249
S'ground'
p1250
atp1251
Rp1252
sVER1
p1253
g1
((lp1254
S'hercules'
p1255
aS'further'
p1256
aS'sir'
p1257
aS'merchants'
p1258
aS'working'
p1259
aS'nervous'
p1260
aS'hurricane'
p1261
aS"we're"
p1262
aS'blur'
p1263
aS'learned'
p1264
aS'stir'
p1265
aS'murder'
p1266
aS'early'
p1267
aS'vernon'
p1268
aS'courage'
p1269
aS'virtue'
p1270
aS'burden'
p1271
aS'burr'
p1272
aS'service'
p1273
aS'thirty'
p1274
aS'were'
p1275
aS'jersey'
p1276
atp1277
Rp1278
sVER1T
p1279
g1
((lp1280
S'flirt'
p1281
aS'dirt'
p1282
atp1283
Rp1284
sVEH1KS
p1285
g1
((lp1286
S'x'
p1287
aS'next'
p1288
aS'sex'
p1289
atp1290
Rp1291
sVAH1NDZ
p1292
g1
((lp1293
S'funds'
p1294
atp1295
Rp1296
sVER1D
p1297
g1
((lp1298
S'heard'
p1299
aS'word'
p1300
aS'third'
p1301
atp1302
Rp1303
sVER1N
p1304
g1
((lp1305
S'turn'
p1306
aS'burn'
p1307
atp1308
Rp1309
sVER1L
p1310
g1
((lp1311
S'girl'
p1312
atp1313
Rp1314
sVER1K
p1315
g1
((lp1316
S'work'
p1317
atp1318
Rp1319
sVAW1DHZ
p1320
g1
((lp1321
S'mouths'
p1322
atp1323
Rp1324
sVIH1NDZ
p1325
g1
((lp1326
S'winds'
p1327
atp1328
Rp1329
sVIH1KS
p1330
g1
((lp1331
S'six'
p1332
atp1333
Rp1334
sVUW1VD
p1335
g1
((lp1336
S'moved'
p1337
atp1338
Rp1339
sVAE1KS
p1340
g1
((lp1341
S'tax'
p1342
atp1343
Rp1344
sVAH0ND
p1345
g1
((lp1346
S'and'
p1347
atp1348
Rp1349
sVAE1KT
p1350
g1
((lp1351
S'act'
p1352
atp1353
Rp1354
sVAH1ST
p1355
g1
((lp1356
S'just'
p1357
aS'must'
p1358
atp1359
Rp1360
sVIY1DZ
p1361
g1
((lp1362
S'leads'
p1363
aS'seeds'
p1364
atp1365
Rp1366
sVER1DZ
p1367
g1
((lp1368
S'words'
p1369
atp1370
Rp1371
sVIY0
p1372
g1
((lp1373
S'reactions'
p1374
aS'be'
p1375
aS'creation'
p1376
aS'resist'
p1377
aS'redefining'
p1378
aS'resigned'
p1379
aS'resemblance'
p1380
aS'remains'
p1381
aS'create'
p1382
aS'creator'
p1383
aS'reality'
p1384
aS'enough'
p1385
aS'republic'
p1386
aS'retreat'
p1387
aS'between'
p1388
aS'eventually'
p1389
aS'return'
p1390
aS'recruits'
p1391
aS'require'
p1392
aS'resign'
p1393
aS'republican'
p1394
aS'response'
p1395
aS'present'
p1396
aS'reaction'
p1397
aS'essentially'
p1398
aS'remember'
p1399
aS'created'
p1400
aS'reliable'
p1401
aS'resorted'
p1402
aS'remind'
p1403
aS'retreating'
p1404
aS'the'
p1405
aS'began'
p1406
atp1407
Rp1408
sVIY1V
p1409
g1
((lp1410
S'leave'
p1411
aS'sleeve'
p1412
atp1413
Rp1414
sVEY1KS
p1415
g1
((lp1416
S'makes'
p1417
aS'takes'
p1418
atp1419
Rp1420
sVAA1RD
p1421
g1
((lp1422
S'guard'
p1423
aS'hard'
p1424
atp1425
Rp1426
sVIY1MZ
p1427
g1
((lp1428
S'seems'
p1429
aS'screams'
p1430
atp1431
Rp1432
sVAA1RK
p1433
g1
((lp1434
S'dark'
p1435
aS'spark'
p1436
atp1437
Rp1438
sVIH1SH
p1439
g1
((lp1440
S'wish'
p1441
atp1442
Rp1443
sVIH1ST
p1444
g1
((lp1445
S'list'
p1446
aS'pissed'
p1447
atp1448
Rp1449
sVAA1
p1450
g1
((lp1451
S'thomas'
p1452
aS'barter'
p1453
aS'charles'
p1454
aS'dollar'
p1455
aS'farther'
p1456
aS'follow'
p1457
aS'pardon'
p1458
aS'father'
p1459
aS'prodigy'
p1460
aS'sorry'
p1461
aS'ami'
p1462
aS'garden'
p1463
aS'watching'
p1464
aS'ya'
p1465
aS'smarter'
p1466
aS'gonna'
p1467
aS'pocket'
p1468
aS'moi'
p1469
aS'posture'
p1470
aS'polish'
p1471
aS'scholar'
p1472
aS'harbor'
p1473
aS'borrow'
p1474
aS'common'
p1475
aS'bother'
p1476
aS'charter'
p1477
aS'onarchy'
p1478
aS'goddamn'
p1479
aS'fathers'
p1480
aS'carted'
p1481
aS'college'
p1482
aS'brrrah'
p1483
aS'gossip'
p1484
aS'conscience'
p1485
aS'bottom'
p1486
aS'monmouth'
p1487
aS'providence'
p1488
aS'contraband'
p1489
aS'sorrow'
p1490
aS'monarchy'
p1491
aS'wanted'
p1492
aS'knowledge'
p1493
aS'prospects'
p1494
aS'dollars'
p1495
aS'honest'
p1496
aS'pockets'
p1497
aS'fallen'
p1498
aS'honor'
p1499
aS'colony'
p1500
aS'promise'
p1501
aS'parties'
p1502
aS'army'
p1503
aS'constantly'
p1504
aS'toi'
p1505
aS'bargained'
p1506
aS'prosperous'
p1507
aS'started'
p1508
aS'brraaah'
p1509
aS'ardently'
p1510
aS'ha'
p1511
aS'starter'
p1512
aS'scotsman'
p1513
aS'washington'
p1514
aS"wasn't"
p1515
aS'gotta'
p1516
aS'harder'
p1517
aS'contrary'
p1518
aS'holler'
p1519
aS'problem'
p1520
aS'modern'
p1521
aS'promised'
p1522
aS'martyr'
p1523
aS'doctor'
p1524
aS'heartbreak'
p1525
aS'goner'
p1526
aS'party'
p1527
aS'colonies'
p1528
aS'martha'
p1529
aS'commonplace'
p1530
aS'congress'
p1531
aS'opposite'
p1532
aS'squalor'
p1533
aS'law'
p1534
aS'scholars'
p1535
aS'tomcat'
p1536
aS'bondage'
p1537
aS'wanna'
p1538
aS'farmers'
p1539
aS'honestly'
p1540
aS'rendezvous'
p1541
aS'model'
p1542
aS'harlem'
p1543
aS'scholarship'
p1544
atp1545
Rp1546
sVAA0
p1547
g1
((lp1548
S'proximity'
p1549
aS'obnoxious'
p1550
aS'montgomery'
p1551
atp1552
Rp1553
sVAA2
p1554
g1
((lp1555
S'marquis'
p1556
aS'camaraderie'
p1557
aS'monticello'
p1558
aS'conversation'
p1559
aS'lafayette'
p1560
aS'particular'
p1561
aS'opportunity'
p1562
aS'volunteer'
p1563
atp1564
Rp1565
sVIY1MD
p1566
g1
((lp1567
S'screamed'
p1568
atp1569
Rp1570
sVAA1RT
p1571
g1
((lp1572
S'start'
p1573
aS'part'
p1574
aS'smart'
p1575
atp1576
Rp1577
sVIH2
p1578
g1
((lp1579
S'information'
p1580
aS'independently'
p1581
aS'indecisive'
p1582
aS'introduction'
p1583
aS'introduce'
p1584
aS'disagreements'
p1585
aS'situation'
p1586
aS'immature'
p1587
aS'independence'
p1588
aS'disadvantage'
p1589
atp1590
Rp1591
sVIH0
p1592
g1
((lp1593
S'beware'
p1594
aS'renown'
p1595
aS'before'
p1596
aS'resemblance'
p1597
aS'behind'
p1598
aS'destroyed'
p1599
aS'to'
p1600
aS'excited'
p1601
aS'eventually'
p1602
aS'embezzling'
p1603
aS'return'
p1604
aS'descendants'
p1605
aS'disquieting'
p1606
aS'redeem'
p1607
aS'deniability'
p1608
aS'decide'
p1609
aS'instead'
p1610
aS'republican'
p1611
aS'resorted'
p1612
aS'relentlessly'
p1613
aS'specific'
p1614
aS'require'
p1615
aS'inexperienced'
p1616
aS'insane'
p1617
aS'because'
p1618
aS'financial'
p1619
aS'regret'
p1620
aS'resist'
p1621
aS'depends'
p1622
aS'decided'
p1623
aS'precedes'
p1624
aS'elitist'
p1625
aS'beyond'
p1626
aS'financials'
p1627
aS'explode'
p1628
aS'equivocate'
p1629
aS'inside'
p1630
aS'enough'
p1631
aS'experiment'
p1632
aS'between'
p1633
aS'recruits'
p1634
aS'degree'
p1635
aS'defend'
p1636
aS'refused'
p1637
aS'disputes'
p1638
aS'resign'
p1639
aS'imagine'
p1640
aS'beginning'
p1641
aS'defeatist'
p1642
aS'extreme'
p1643
aS'essentially'
p1644
aS'insidious'
p1645
aS'expecting'
p1646
aS'defeat'
p1647
aS'emerge'
p1648
aS'into'
p1649
aS'delighted'
p1650
aS'decides'
p1651
aS'defendants'
p1652
aS'resilience'
p1653
aS'despised'
p1654
aS'remains'
p1655
aS'distracted'
p1656
aS'betrays'
p1657
aS'victorious'
p1658
aS'dismisses'
p1659
aS'exactly'
p1660
aS'refrain'
p1661
aS'excuse'
p1662
aS'demand'
p1663
aS'believe'
p1664
aS'begins'
p1665
aS'reliable'
p1666
aS'devices'
p1667
aS'record'
p1668
aS'beliefs'
p1669
aS'examine'
p1670
aS'examined'
p1671
aS'information'
p1672
aS'resigned'
p1673
aS'extorted'
p1674
aS'began'
p1675
aS'belong'
p1676
aS'rebellion'
p1677
aS'equipment'
p1678
aS'disparaged'
p1679
aS'destroy'
p1680
aS'begin'
p1681
aS'negotiate'
p1682
aS'despondent'
p1683
aS'response'
p1684
aS'deny'
p1685
aS'remember'
p1686
aS'without'
p1687
aS'eliza'
p1688
atp1689
Rp1690
sVIH1
p1691
g1
((lp1692
S'immigrants'
p1693
aS'ringing'
p1694
aS'figure'
p1695
aS'disciplined'
p1696
aS'visit'
p1697
aS'into'
p1698
aS'midnight'
p1699
aS'dripping'
p1700
aS'brilliance'
p1701
aS'immigrant'
p1702
aS'middle'
p1703
aS'britain'
p1704
aS'pistols'
p1705
aS'simply'
p1706
aS'symphony'
p1707
aS'singing'
p1708
aS'citizens'
p1709
aS'winning'
p1710
aS'mister'
p1711
aS'drinking'
p1712
aS'really'
p1713
aS'millisecond'
p1714
aS'city'
p1715
aS'little'
p1716
aS'william'
p1717
aS'intercourse'
p1718
aS'giving'
p1719
aS'imminent'
p1720
aS'fingerprints'
p1721
aS'divvy'
p1722
aS'dissidents'
p1723
aS'system'
p1724
aS'liberty'
p1725
aS'situated'
p1726
aS'trigger'
p1727
aS'fidgeting'
p1728
aS'witnessing'
p1729
aS'pretty'
p1730
aS'fiddled'
p1731
aS'military'
p1732
aS'listen'
p1733
aS'business'
p1734
aS'living'
p1735
aS'clearly'
p1736
aS'mission'
p1737
aS'given'
p1738
aS'wisdom'
p1739
aS'ridden'
p1740
aS'rigor'
p1741
aS'difficult'
p1742
aS'serious'
p1743
aS'sisters'
p1744
aS'witted'
p1745
aS'philip'
p1746
aS'difference'
p1747
aS'whisky'
p1748
aS'tyranny'
p1749
aS'distance'
p1750
aS'sister'
p1751
aS'pistol'
p1752
aS'frisky'
p1753
aS'getting'
p1754
aS'inside'
p1755
aS'princeton'
p1756
aS'single'
p1757
aS'british'
p1758
aS'different'
p1759
aS'civics'
p1760
aS'mr'
p1761
aS'giddyup'
p1762
aS'river'
p1763
aS'minutes'
p1764
aS'skittish'
p1765
aS'missing'
p1766
aS'history'
p1767
atp1768
Rp1769
sVUH1RZ
p1770
g1
((lp1771
S'yours'
p1772
atp1773
Rp1774
sVEH1GZ
p1775
g1
((lp1776
S'legs'
p1777
atp1778
Rp1779
sVAH1STS
p1780
g1
((lp1781
S'trusts'
p1782
atp1783
Rp1784
sVAY1Z
p1785
g1
((lp1786
S'eyes'
p1787
aS'wise'
p1788
aS'rise'
p1789
aS'spies'
p1790
aS'lies'
p1791
aS'guys'
p1792
aS'size'
p1793
atp1794
Rp1795
sVAY1S
p1796
g1
((lp1797
S'vice'
p1798
aS'nice'
p1799
atp1800
Rp1801
sVAY1R
p1802
g1
((lp1803
S'fire'
p1804
aS'hire'
p1805
aS'dire'
p1806
atp1807
Rp1808
sVAY1T
p1809
g1
((lp1810
S'right'
p1811
aS'kite'
p1812
aS'knight'
p1813
aS'night'
p1814
aS'site'
p1815
aS'fight'
p1816
aS'write'
p1817
aS'sight'
p1818
aS'light'
p1819
aS'quite'
p1820
aS'might'
p1821
aS'cite'
p1822
atp1823
Rp1824
sVAY1V
p1825
g1
((lp1826
S'live'
p1827
aS'five'
p1828
aS'drive'
p1829
atp1830
Rp1831
sVER1ST
p1832
g1
((lp1833
S'first'
p1834
atp1835
Rp1836
sVAY1M
p1837
g1
((lp1838
S'climb'
p1839
aS"i'm"
p1840
aS'time'
p1841
atp1842
Rp1843
sVAY1L
p1844
g1
((lp1845
S'smile'
p1846
aS'while'
p1847
aS'file'
p1848
aS'trial'
p1849
atp1850
Rp1851
sVAY1N
p1852
g1
((lp1853
S'nine'
p1854
aS'line'
p1855
aS'fine'
p1856
aS'mine'
p1857
atp1858
Rp1859
sVAY1D
p1860
g1
((lp1861
S'ride'
p1862
aS'tide'
p1863
aS'bride'
p1864
aS'slide'
p1865
aS'pride'
p1866
aS'side'
p1867
aS'died'
p1868
atp1869
Rp1870
sVAY1F
p1871
g1
((lp1872
S'life'
p1873
aS'wife'
p1874
atp1875
Rp1876
sVAW1
p1877
g1
((lp1878
S'shower'
p1879
aS'founding'
p1880
aS'founder'
p1881
aS'power'
p1882
aS'scoundrel'
p1883
aS'thousand'
p1884
aS'bow'
p1885
aS'downtown'
p1886
aS'how'
p1887
aS'outside'
p1888
aS'powder'
p1889
aS'now'
p1890
aS'thousands'
p1891
atp1892
Rp1893
sVAW0
p1894
g1
((lp1895
S'outrageous'
p1896
atp1897
Rp1898
sVER1S
p1899
g1
((lp1900
S'verse'
p1901
aS'worse'
p1902
atp1903
Rp1904
sVAH1T
p1905
g1
((lp1906
S'what'
p1907
aS'cut'
p1908
aS'but'
p1909
atp1910
Rp1911
sVAH1V
p1912
g1
((lp1913
S'of'
p1914
aS'love'
p1915
atp1916
Rp1917
sVAH1P
p1918
g1
((lp1919
S'up'
p1920
atp1921
Rp1922
sS'AH1S'
p1923
g1
((lp1924
S'us'
p1925
atp1926
Rp1927
sVAH1Z
p1928
g1
((lp1929
S'does'
p1930
aS'was'
p1931
aS'cuz'
p1932
aS'fuzz'
p1933
atp1934
Rp1935
sVAH1D
p1936
g1
((lp1937
S'flood'
p1938
aS'blood'
p1939
atp1940
Rp1941
sVAH1F
p1942
g1
((lp1943
S'rough'
p1944
atp1945
Rp1946
sVAH1M
p1947
g1
((lp1948
S'from'
p1949
aS'rum'
p1950
aS'some'
p1951
aS'um'
p1952
aS'dumb'
p1953
aS'come'
p1954
atp1955
Rp1956
sVAH1N
p1957
g1
((lp1958
S'none'
p1959
aS'run'
p1960
aS'sun'
p1961
aS'gun'
p1962
aS'one'
p1963
aS'done'
p1964
aS'son'
p1965
atp1966
Rp1967
sVAH1K
p1968
g1
((lp1969
S'fuck'
p1970
aS'luck'
p1971
atp1972
Rp1973
sVIH1PS
p1974
g1
((lp1975
S'ships'
p1976
aS'chips'
p1977
atp1978
Rp1979
sS'AEM'
p1980
g1
((lp1981
S'famished'
p1982
atp1983
Rp1984
sVEY1VD
p1985
g1
((lp1986
S'saved'
p1987
atp1988
Rp1989
sVEY1VZ
p1990
g1
((lp1991
S'slaves'
p1992
aS'waves'
p1993
atp1994
Rp1995
sVUW1ST
p1996
g1
((lp1997
S'boost'
p1998
atp1999
Rp2000
sVIH1NG
p2001
g1
((lp2002
S'king'
p2003
aS'thing'
p2004
aS'bring'
p2005
aS'ning'
p2006
aS'sing'
p2007
atp2008
Rp2009
sVIH1ND
p2010
g1
((lp2011
S'wind'
p2012
atp2013
Rp2014
sVAE1NDZ
p2015
g1
((lp2016
S'stands'
p2017
aS'hands'
p2018
atp2019
Rp2020
sVIH1NT
p2021
g1
((lp2022
S'print'
p2023
atp2024
Rp2025
sVIH1NS
p2026
g1
((lp2027
S'since'
p2028
atp2029
Rp2030
sVIH1NZ
p2031
g1
((lp2032
S'sins'
p2033
atp2034
Rp2035
sVAE1
p2036
g1
((lp2037
S'madison'
p2038
aS'chances'
p2039
aS'scrappy'
p2040
aS'scattered'
p2041
aS'satisfied'
p2042
aS'battle'
p2043
aS'captain'
p2044
aS'brandish'
p2045
aS'happiness'
p2046
aS'glances'
p2047
aS'vacuous'
p2048
aS'stances'
p2049
aS'happened'
p2050
aS'handle'
p2051
aS'matches'
p2052
aS'cannon'
p2053
aS'hatter'
p2054
aS'cannot'
p2055
aS'hamilton'
p2056
aS'alex'
p2057
aS'ranting'
p2058
aS'adams'
p2059
aS'fragile'
p2060
aS'stagger'
p2061
aS'landlord'
p2062
aS'francophile'
p2063
aS'glasses'
p2064
aS'battlefield'
p2065
aS'national'
p2066
aS'yeah'
p2067
aS'carriages'
p2068
aS'happen'
p2069
aS'anarchy'
p2070
aS'happens'
p2071
aS'asking'
p2072
aS'passion'
p2073
aS'ration'
p2074
aS'stallion'
p2075
aS'answers'
p2076
aS'fractured'
p2077
aS'cannons'
p2078
aS'fantasies'
p2079
aS'lancelot'
p2080
aS'practical'
p2081
aS'franklin'
p2082
aS'tactical'
p2083
aS'action'
p2084
aS'battery'
p2085
aS'manage'
p2086
aS'dances'
p2087
aS'manumission'
p2088
aS'traction'
p2089
aS'strategy'
p2090
aS'stamina'
p2091
aS'handles'
p2092
aS'master'
p2093
aS'factions'
p2094
aS'fractions'
p2095
aS'cabinet'
p2096
aS'candidacy'
p2097
aS'casualties'
p2098
aS'handsome'
p2099
aS'practicing'
p2100
aS'frankly'
p2101
aS'challenge'
p2102
aS'classes'
p2103
aS'battering'
p2104
aS'balance'
p2105
aS'scatter'
p2106
aS'panicky'
p2107
aS'fashion'
p2108
aS'ragtag'
p2109
aS'rally'
p2110
aS'angelica'
p2111
aS'planting'
p2112
aS'bastard'
p2113
aS'rather'
p2114
aS'granted'
p2115
aS'battles'
p2116
aS'graduate'
p2117
aS'damages'
p2118
aS'answer'
p2119
aS'status'
p2120
aS'faction'
p2121
aS'passionately'
p2122
aS'after'
p2123
aS'blacker'
p2124
aS'sally'
p2125
aS'happening'
p2126
aS'lasted'
p2127
aS'quagmire'
p2128
aS'basket'
p2129
atp2130
Rp2131
sVAE0
p2132
g1
((lp2133
S'angelica'
p2134
aS'ambassador'
p2135
aS'advice'
p2136
aS'admire'
p2137
aS'accelerated'
p2138
aS'advantages'
p2139
aS'campaigning'
p2140
aS'manhattan'
p2141
atp2142
Rp2143
sVAE2
p2144
g1
((lp2145
S'satisfaction'
p2146
aS'ammunition'
p2147
aS'abolitionists'
p2148
aS'alexander'
p2149
atp2150
Rp2151
sVER1LDZ
p2152
g1
((lp2153
S"world's"
p2154
atp2155
Rp2156
sVOW1ST
p2157
g1
((lp2158
S'most'
p2159
aS'post'
p2160
aS'coast'
p2161
atp2162
Rp2163
sVAE1M
p2164
g1
((lp2165
S'damn'
p2166
aS'am'
p2167
aS'sam'
p2168
atp2169
Rp2170
sVAE1N
p2171
g1
((lp2172
S'van'
p2173
aS'an'
p2174
aS'fan'
p2175
aS'plan'
p2176
aS'man'
p2177
aS'than'
p2178
aS'can'
p2179
atp2180
Rp2181
sVAE1K
p2182
g1
((lp2183
S'smack'
p2184
aS'black'
p2185
aS'back'
p2186
aS'crack'
p2187
atp2188
Rp2189
sS'AA0N'
p2190
g1
((lp2191
S'bonsoir'
p2192
atp2193
Rp2194
sVAE1D
p2195
g1
((lp2196
S'had'
p2197
aS'mad'
p2198
atp2199
Rp2200
sVAE1G
p2201
g1
((lp2202
S'flag'
p2203
aS'dag'
p2204
aS'brag'
p2205
atp2206
Rp2207
sVAE1F
p2208
g1
((lp2209
S'staff'
p2210
aS'laugh'
p2211
aS'half'
p2212
atp2213
Rp2214
sVAE1B
p2215
g1
((lp2216
S'grab'
p2217
atp2218
Rp2219
sVAE1Z
p2220
g1
((lp2221
S'as'
p2222
aS'has'
p2223
atp2224
Rp2225
sVAE1T
p2226
g1
((lp2227
S'at'
p2228
aS'that'
p2229
atp2230
Rp2231
sVAE1V
p2232
g1
((lp2233
S'have'
p2234
atp2235
Rp2236
sVER0M
p2237
g1
((lp2238
S'from'
p2239
atp2240
Rp2241
sVAE1S
p2242
g1
((lp2243
S'ass'
p2244
aS'mass'
p2245
aS'last'
p2246
atp2247
Rp2248
sVAO1NTS
p2249
g1
((lp2250
S'wants'
p2251
atp2252
Rp2253
sVAE1NGKS
p2254
g1
((lp2255
S'thanks'
p2256
atp2257
Rp2258
sVAO1RTS
p2259
g1
((lp2260
S'sorts'
p2261
atp2262
Rp2263
sVAY0
p2264
g1
((lp2265
S'ideals'
p2266
atp2267
Rp2268
sVAO1RTH
p2269
g1
((lp2270
S'north'
p2271
aS'fourth'
p2272
atp2273
Rp2274
sVAH1NCHT
p2275
g1
((lp2276
S'punched'
p2277
atp2278
Rp2279
sVAA1CH
p2280
g1
((lp2281
S'watch'
p2282
atp2283
Rp2284
sVAH1BZ
p2285
g1
((lp2286
S'stubs'
p2287
atp2288
Rp2289
sVIY1LZ
p2290
g1
((lp2291
S'feels'
p2292
atp2293
Rp2294
sVAO1LZ
p2295
g1
((lp2296
S'calls'
p2297
atp2298
Rp2299
sVIH1TH
p2300
g1
((lp2301
S'with'
p2302
atp2303
Rp2304
sVIH1TS
p2305
g1
((lp2306
S'sits'
p2307
aS'wits'
p2308
aS'pits'
p2309
aS'fits'
p2310
aS'gets'
p2311
aS'its'
p2312
atp2313
Rp2314
sVAE1CH
p2315
g1
((lp2316
S'catch'
p2317
aS'scratch'
p2318
aS'snatch'
p2319
aS'match'
p2320
aS'hatch'
p2321
atp2322
Rp2323
sVEY1JH
p2324
g1
((lp2325
S'age'
p2326
atp2327
Rp2328
sVIY1LD
p2329
g1
((lp2330
S'field'
p2331
aS'yield'
p2332
atp2333
Rp2334
sVER1LD
p2335
g1
((lp2336
S'world'
p2337
atp2338
Rp2339
sVAA1RJH
p2340
g1
((lp2341
S'charge'
p2342
atp2343
Rp2344
sVOW1
p2345
g1
((lp2346
S'protean'
p2347
aS'show'
p2348
aS'throwing'
p2349
aS'colder'
p2350
aS'over'
p2351
aS'global'
p2352
aS'loco'
p2353
aS'openly'
p2354
aS'polish'
p2355
aS'go'
p2356
aS'loaded'
p2357
aS'total'
p2358
aS'blow'
p2359
aS'oldest'
p2360
aS'bolder'
p2361
aS'no'
p2362
aS'throw'
p2363
aS'only'
p2364
aS'going'
p2365
aS'slowly'
p2366
aS'poet'
p2367
aS'moses'
p2368
aS'local'
p2369
aS'toe'
p2370
aS'yo'
p2371
aS'though'
p2372
aS'socially'
p2373
aS'rochambeau'
p2374
aS'moment'
p2375
aS'slow'
p2376
aS'soldiers'
p2377
aS'know'
p2378
aS'grow'
p2379
aS'shoulder'
p2380
aS'lower'
p2381
aS'ok'
p2382
aS'oh'
p2383
aS'older'
p2384
aS'bow'
p2385
aS'soldier'
p2386
aS'so'
p2387
aS'social'
p2388
atp2389
Rp2390
sVOW0
p2391
g1
((lp2392
S'protean'
p2393
atp2394
Rp2395
sVOW2
p2396
g1
((lp2397
S'okay'
p2398
atp2399
Rp2400
sVIH0DH
p2401
g1
((lp2402
S'with'
p2403
atp2404
Rp2405
sVIY1D
p2406
g1
((lp2407
S'need'
p2408
aS"she'd"
p2409
aS'lead'
p2410
atp2411
Rp2412
sVAO1CHT
p2413
g1
((lp2414
S'watched'
p2415
atp2416
Rp2417
sVIY1K
p2418
g1
((lp2419
S'week'
p2420
aS'seek'
p2421
aS'weak'
p2422
aS'sneak'
p2423
atp2424
Rp2425
sVEH1ND
p2426
g1
((lp2427
S'fend'
p2428
aS'end'
p2429
aS'lend'
p2430
aS'send'
p2431
aS'bend'
p2432
aS'friend'
p2433
atp2434
Rp2435
sVIY1M
p2436
g1
((lp2437
S'dream'
p2438
aS'scream'
p2439
atp2440
Rp2441
sVIY1L
p2442
g1
((lp2443
S'real'
p2444
aS'feel'
p2445
aS'steal'
p2446
atp2447
Rp2448
sVIY1N
p2449
g1
((lp2450
S'seen'
p2451
aS'queen'
p2452
aS'green'
p2453
aS'mean'
p2454
atp2455
Rp2456
sVIY1P
p2457
g1
((lp2458
S'sleep'
p2459
aS'keep'
p2460
atp2461
Rp2462
sVIY1S
p2463
g1
((lp2464
S'piece'
p2465
aS'cease'
p2466
aS'peace'
p2467
aS'nice'
p2468
atp2469
Rp2470
sVIY1R
p2471
g1
((lp2472
S'hear'
p2473
aS"we're"
p2474
aS'here'
p2475
atp2476
Rp2477
sS'IY1'
p2478
g1
((lp2479
S'seeing'
p2480
aS'oui'
p2481
aS've'
p2482
aS'people'
p2483
aS'being'
p2484
aS'tea'
p2485
aS'jesus'
p2486
aS'really'
p2487
aS'see'
p2488
aS'sea'
p2489
aS'fleeting'
p2490
aS'reasons'
p2491
aS'she'
p2492
aS'even'
p2493
aS'creole'
p2494
aS'needy'
p2495
aS'leading'
p2496
aS'meanwhile'
p2497
aS'three'
p2498
aS'legal'
p2499
aS'fleeing'
p2500
aS're'
p2501
aS'secret'
p2502
aS'eating'
p2503
aS'easy'
p2504
aS'speaker'
p2505
aS'bleeding'
p2506
aS'he'
p2507
aS'meeting'
p2508
aS'either'
p2509
aS'be'
p2510
aS'we'
p2511
aS'hero'
p2512
aS'lee'
p2513
aS'seeking'
p2514
aS'de'
p2515
aS'free'
p2516
aS'reason'
p2517
aS'fee'
p2518
aS'grievance'
p2519
aS'key'
p2520
aS'previous'
p2521
aS'je'
p2522
aS'spree'
p2523
aS'd'
p2524
aS'me'
p2525
aS'feeling'
p2526
aS'e'
p2527
aS'treatise'
p2528
aS'freedom'
p2529
aS'emerge'
p2530
aS'equal'
p2531
aS'seated'
p2532
aS'treaty'
p2533
aS'p'
p2534
aS't'
p2535
aS'treason'
p2536
aS'geniuses'
p2537
atp2538
Rp2539
sVIY1T
p2540
g1
((lp2541
S'beat'
p2542
aS'seat'
p2543
aS'feet'
p2544
aS'heat'
p2545
aS'street'
p2546
aS'treat'
p2547
aS'meet'
p2548
atp2549
Rp2550
sVIY2
p2551
g1
((lp2552
S'require'
p2553
aS'beyond'
p2554
aS'before'
p2555
atp2556
Rp2557
sVIY1Z
p2558
g1
((lp2559
S'these'
p2560
aS'seize'
p2561
atp2562
Rp2563
sVAO1LD
p2564
g1
((lp2565
S'called'
p2566
atp2567
Rp2568
sVAY1RZ
p2569
g1
((lp2570
S'fires'
p2571
aS'hires'
p2572
atp2573
Rp2574
sVAO1ST
p2575
g1
((lp2576
S'last'
p2577
aS'lost'
p2578
atp2579
Rp2580
sVIH1NGKS
p2581
g1
((lp2582
S'thinks'
p2583
atp2584
Rp2585
sVAH0V
p2586
g1
((lp2587
S'of'
p2588
atp2589
Rp2590
sVAH0T
p2591
g1
((lp2592
S'that'
p2593
atp2594
Rp2595
sS'AH0S'
p2596
g1
((lp2597
S'casse'
p2598
atp2599
Rp2600
sVAH0Z
p2601
g1
((lp2602
S'has'
p2603
aS'was'
p2604
atp2605
Rp2606
sVAH0N
p2607
g1
((lp2608
S'an'
p2609
aS'can'
p2610
aS'been'
p2611
aS'than'
p2612
atp2613
Rp2614
sVAH0M
p2615
g1
((lp2616
S"i'm"
p2617
atp2618
Rp2619
sVIH1Z
p2620
g1
((lp2621
S'is'
p2622
aS'his'
p2623
aS'says'
p2624
atp2625
Rp2626
sVIH1T
p2627
g1
((lp2628
S'spit'
p2629
aS'sit'
p2630
aS'get'
p2631
aS'it'
p2632
aS'split'
p2633
aS'bit'
p2634
aS'shit'
p2635
atp2636
Rp2637
sVIH1V
p2638
g1
((lp2639
S'live'
p2640
aS'give'
p2641
atp2642
Rp2643
sVIH1P
p2644
g1
((lp2645
S'skip'
p2646
aS'tip'
p2647
aS'drip'
p2648
aS'slip'
p2649
aS'strip'
p2650
aS'ship'
p2651
atp2652
Rp2653
sVIH1R
p2654
g1
((lp2655
S'dear'
p2656
aS'beer'
p2657
aS"we're"
p2658
atp2659
Rp2660
sVIH1S
p2661
g1
((lp2662
S'this'
p2663
aS'miss'
p2664
aS'kiss'
p2665
aS'piss'
p2666
atp2667
Rp2668
sVIH1L
p2669
g1
((lp2670
S'til'
p2671
aS'till'
p2672
aS'skill'
p2673
aS'still'
p2674
aS'quill'
p2675
atp2676
Rp2677
sVIH1M
p2678
g1
((lp2679
S'him'
p2680
atp2681
Rp2682
sVIH1N
p2683
g1
((lp2684
S'win'
p2685
aS'when'
p2686
aS'kin'
p2687
aS'been'
p2688
aS'in'
p2689
atp2690
Rp2691
sVIH1K
p2692
g1
((lp2693
S'prick'
p2694
aS'sick'
p2695
aS'pick'
p2696
aS'quick'
p2697
aS'chick'
p2698
aS'thick'
p2699
atp2700
Rp2701
sVIH1D
p2702
g1
((lp2703
S'did'
p2704
aS'hid'
p2705
aS'kid'
p2706
atp2707
Rp2708
sVIH1F
p2709
g1
((lp2710
S'if'
p2711
atp2712
Rp2713
sVIH1G
p2714
g1
((lp2715
S'dig'
p2716
atp2717
Rp2718
sVAO1Z
p2719
g1
((lp2720
S'jaws'
p2721
aS'cause'
p2722
aS'was'
p2723
atp2724
Rp2725
sVAO1S
p2726
g1
((lp2727
S'toss'
p2728
atp2729
Rp2730
sVAO1R
p2731
g1
((lp2732
S'or'
p2733
aS'door'
p2734
aS'for'
p2735
aS'pour'
p2736
aS'your'
p2737
aS'four'
p2738
aS'war'
p2739
aS'whore'
p2740
aS'more'
p2741
atp2742
Rp2743
sVAO1P
p2744
g1
((lp2745
S'top'
p2746
aS'drop'
p2747
atp2748
Rp2749
sVAO1T
p2750
g1
((lp2751
S'fraught'
p2752
aS'caught'
p2753
aS'thought'
p2754
aS'fought'
p2755
aS'taught'
p2756
aS'lot'
p2757
aS'ought'
p2758
atp2759
Rp2760
sVAO1K
p2761
g1
((lp2762
S'gawk'
p2763
aS'talk'
p2764
aS'walk'
p2765
atp2766
Rp2767
sVAO1N
p2768
g1
((lp2769
S'on'
p2770
aS'dawn'
p2771
aS'gone'
p2772
atp2773
Rp2774
sVAO1L
p2775
g1
((lp2776
S'wall'
p2777
aS'stall'
p2778
aS'ball'
p2779
aS'fall'
p2780
atp2781
Rp2782
sVIH1FTS
p2783
g1
((lp2784
S'gifts'
p2785
aS'shifts'
p2786
atp2787
Rp2788
sVAO1F
p2789
g1
((lp2790
S'off'
p2791
atp2792
Rp2793
sVEY1K
p2794
g1
((lp2795
S'break'
p2796
aS'make'
p2797
aS'shake'
p2798
aS'take'
p2799
aS'fake'
p2800
atp2801
Rp2802
sVUW2
p2803
g1
((lp2804
S'july'
p2805
aS'superpower'
p2806
atp2807
Rp2808
sVUW1
p2809
g1
((lp2810
S'doing'
p2811
aS'through'
p2812
aS'shoe'
p2813
aS'dueling'
p2814
aS'suicide'
p2815
aS'rumors'
p2816
aS'union'
p2817
aS'true'
p2818
aS'two'
p2819
aS'unite'
p2820
aS'crew'
p2821
aS'to'
p2822
aS'future'
p2823
aS'too'
p2824
aS'mutiny'
p2825
aS'new'
p2826
aS'you'
p2827
aS'movement'
p2828
aS'do'
p2829
aS'knew'
p2830
aS'duels'
p2831
aS'students'
p2832
aS'who'
p2833
aS'ooh'
p2834
aS'drew'
p2835
aS'scrutiny'
p2836
aS'sooner'
p2837
aS'useless'
p2838
aS'truly'
p2839
aS'super'
p2840
aS'ruinous'
p2841
aS'duel'
p2842
aS'ruined'
p2843
aS'fluent'
p2844
aS'stupid'
p2845
aS'brew'
p2846
aS'wounded'
p2847
aS'schoolboy'
p2848
atp2849
Rp2850
sVUW0
p2851
g1
((lp2852
S'uniquely'
p2853
aS'oui'
p2854
aS'lieutenant'
p2855
aS'neutrality'
p2856
aS'tomorrow'
p2857
aS'today'
p2858
atp2859
Rp2860
sVOW1KS
p2861
g1
((lp2862
S'folks'
p2863
atp2864
Rp2865
sVAY1NDZ
p2866
g1
((lp2867
S'winds'
p2868
aS'finds'
p2869
atp2870
Rp2871
sVIH1FS
p2872
g1
((lp2873
S'gifts'
p2874
atp2875
Rp2876
sVOY1N
p2877
g1
((lp2878
S'join'
p2879
atp2880
Rp2881
sVOY1S
p2882
g1
((lp2883
S'voice'
p2884
aS'choice'
p2885
atp2886
Rp2887
sVEH1LTH
p2888
g1
((lp2889
S'health'
p2890
aS'wealth'
p2891
atp2892
Rp2893
sVAH1MZ
p2894
g1
((lp2895
S'comes'
p2896
atp2897
Rp2898
sVUH1R
p2899
g1
((lp2900
S'poor'
p2901
aS'sure'
p2902
aS'your'
p2903
atp2904
Rp2905
sVUH1T
p2906
g1
((lp2907
S'put'
p2908
atp2909
Rp2910
sVUH1K
p2911
g1
((lp2912
S'rook'
p2913
aS'book'
p2914
aS'took'
p2915
aS'look'
p2916
atp2917
Rp2918
sVUH1L
p2919
g1
((lp2920
S'pull'
p2921
aS'full'
p2922
atp2923
Rp2924
sVUH1D
p2925
g1
((lp2926
S'could'
p2927
aS'good'
p2928
aS'would'
p2929
aS'should'
p2930
atp2931
Rp2932
sVOW1Z
p2933
g1
((lp2934
S'foes'
p2935
aS'knows'
p2936
aS'goes'
p2937
aS'those'
p2938
aS'close'
p2939
atp2940
Rp2941
sVAY1NZ
p2942
g1
((lp2943
S'lines'
p2944
atp2945
Rp2946
sVOW1P
p2947
g1
((lp2948
S'hope'
p2949
atp2950
Rp2951
sVOW1S
p2952
g1
((lp2953
S'close'
p2954
aS'most'
p2955
atp2956
Rp2957
sVOW1T
p2958
g1
((lp2959
S'vote'
p2960
aS'quote'
p2961
aS'note'
p2962
aS'wrote'
p2963
atp2964
Rp2965
sVOW1K
p2966
g1
((lp2967
S'broke'
p2968
atp2969
Rp2970
sVOW1M
p2971
g1
((lp2972
S'home'
p2973
atp2974
Rp2975
sVOW1L
p2976
g1
((lp2977
S'goal'
p2978
aS'stole'
p2979
aS'soul'
p2980
aS'coal'
p2981
aS'whole'
p2982
aS'roll'
p2983
atp2984
Rp2985
sVOW1N
p2986
g1
((lp2987
S'own'
p2988
aS'mon'
p2989
atp2990
Rp2991
sVAY1ND
p2992
g1
((lp2993
S'blind'
p2994
aS'kind'
p2995
aS'mind'
p2996
aS'signed'
p2997
aS'find'
p2998
aS'wind'
p2999
atp3000
Rp3001
sVOW1B
p3002
g1
((lp3003
S'job'
p3004
atp3005
Rp3006
sVAA1KS
p3007
g1
((lp3008
S'box'
p3009
aS'blocks'
p3010
aS'fox'
p3011
aS'socks'
p3012
aS'frocks'
p3013
aS'knox'
p3014
atp3015
Rp3016
sVOW1D
p3017
g1
((lp3018
S'load'
p3019
aS'rowed'
p3020
aS'code'
p3021
atp3022
Rp3023
sVAA1BZ
p3024
g1
((lp3025
S'robs'
p3026
atp3027
Rp3028
sVUW1PS
p3029
g1
((lp3030
S'troops'
p3031
atp3032
Rp3033
sVER0Z
p3034
g1
((lp3035
S'yours'
p3036
aS'years'
p3037
atp3038
Rp3039
sVEY1ND
p3040
g1
((lp3041
S'reigned'
p3042
atp3043
Rp3044
sVAA1PS
p3045
g1
((lp3046
S'pops'
p3047
aS'cops'
p3048
aS'stops'
p3049
atp3050
Rp3051
sVAA1PT
p3052
g1
((lp3053
S'dropped'
p3054
atp3055
Rp3056
sVEY1NJH
p3057
g1
((lp3058
S'change'
p3059
atp3060
Rp3061
sVOW1TS
p3062
g1
((lp3063
S'notes'
p3064
atp3065
Rp3066
sVEY1NZ
p3067
g1
((lp3068
S'brains'
p3069
aS'reins'
p3070
atp3071
Rp3072
sVAE1NS
p3073
g1
((lp3074
S'dance'
p3075
aS'chance'
p3076
aS'stance'
p3077
aS'france'
p3078
atp3079
Rp3080
sVAE1NT
p3081
g1
((lp3082
S'plant'
p3083
aS"can't"
p3084
atp3085
Rp3086
sVEH1RZ
p3087
g1
((lp3088
S"there's"
p3089
atp3090
Rp3091
sVAE1NZ
p3092
g1
((lp3093
S'hands'
p3094
atp3095
Rp3096
sVAE1ND
p3097
g1
((lp3098
S'and'
p3099
aS'brand'
p3100
aS'land'
p3101
aS'stand'
p3102
aS'hand'
p3103
atp3104
Rp3105
sVAE1NG
p3106
g1
((lp3107
S'hang'
p3108
atp3109
Rp3110
sVIY1CH
p3111
g1
((lp3112
S'speech'
p3113
aS'teach'
p3114
aS'reach'
p3115
aS'peach'
p3116
aS'each'
p3117
atp3118
Rp3119
sVUW1Z
p3120
g1
((lp3121
S'whose'
p3122
aS'use'
p3123
aS'choose'
p3124
aS'lose'
p3125
atp3126
Rp3127
sVUW1V
p3128
g1
((lp3129
S'move'
p3130
aS'prove'
p3131
atp3132
Rp3133
sVUW1T
p3134
g1
((lp3135
S'shoot'
p3136
aS'suit'
p3137
atp3138
Rp3139
sVUW1S
p3140
g1
((lp3141
S'use'
p3142
atp3143
Rp3144
sVUW1P
p3145
g1
((lp3146
S'group'
p3147
atp3148
Rp3149
sVUW1M
p3150
g1
((lp3151
S'room'
p3152
aS'boom'
p3153
atp3154
Rp3155
sVUW1L
p3156
g1
((lp3157
S'fool'
p3158
aS'school'
p3159
atp3160
Rp3161
sVIH1CH
p3162
g1
((lp3163
S'which'
p3164
aS'rich'
p3165
atp3166
Rp3167
sVAA1RLZ
p3168
g1
((lp3169
S'charles'
p3170
atp3171
Rp3172
sVOW1NT
p3173
g1
((lp3174
S"won't"
p3175
atp3176
Rp3177
sVIH1SHT
p3178
g1
((lp3179
S'wished'
p3180
atp3181
Rp3182
sVEH1NS
p3183
g1
((lp3184
S'whence'
p3185
atp3186
Rp3187
sVEH1NT
p3188
g1
((lp3189
S'meant'
p3190
aS'spent'
p3191
aS'cent'
p3192
aS'went'
p3193
aS'scent'
p3194
aS'sent'
p3195
atp3196
Rp3197
sVEH1NZ
p3198
g1
((lp3199
S'tens'
p3200
aS'friends'
p3201
atp3202
Rp3203
sVAE1PT
p3204
g1
((lp3205
S'kept'
p3206
atp3207
Rp3208
sVEH1KST
p3209
g1
((lp3210
S'next'
p3211
atp3212
Rp3213
sVAA1B
p3214
g1
((lp3215
S'rob'
p3216
aS'job'
p3217
atp3218
Rp3219
sVAA1D
p3220
g1
((lp3221
S'god'
p3222
atp3223
Rp3224
sVAA1KT
p3225
g1
((lp3226
S'shocked'
p3227
atp3228
Rp3229
sVAO1RJH
p3230
g1
((lp3231
S'george'
p3232
atp3233
Rp3234
sVAA1K
p3235
g1
((lp3236
S'lock'
p3237
aS'rock'
p3238
aS'cock'
p3239
aS'knock'
p3240
aS'walk'
p3241
atp3242
Rp3243
sVAA1L
p3244
g1
((lp3245
S'fall'
p3246
atp3247
Rp3248
sVAA1N
p3249
g1
((lp3250
S'on'
p3251
aS'non'
p3252
aS'john'
p3253
aS'mon'
p3254
atp3255
Rp3256
sVAA1P
p3257
g1
((lp3258
S'top'
p3259
aS'drop'
p3260
aS'stop'
p3261
aS'pop'
p3262
atp3263
Rp3264
sVAA1R
p3265
g1
((lp3266
S'far'
p3267
aS'our'
p3268
aS'r'
p3269
aS'are'
p3270
atp3271
Rp3272
sVAA1T
p3273
g1
((lp3274
S'plot'
p3275
aS'squat'
p3276
aS'shot'
p3277
aS'pot'
p3278
aS'spot'
p3279
aS'hot'
p3280
aS'lot'
p3281
aS'not'
p3282
aS'got'
p3283
aS'caught'
p3284
atp3285
Rp3286
sVAA1Z
p3287
g1
((lp3288
S'cause'
p3289
aS'was'
p3290
atp3291
Rp3292
sVER1TH
p3293
g1
((lp3294
S'worth'
p3295
atp3296
Rp3297
s.