ccollections
defaultdict
p0
(c__builtin__
set
p1
tp2
Rp3
VIH0Z
p4
g1
((lp5
S'his'
p6
aS'is'
p7
aS'does'
p8
atp9
Rp10
sVAO1KS
p11
g1
((lp12
S'talks'
p13
atp14
Rp15
sVIH0T
p16
g1
((lp17
S'it'
p18
atp19
Rp20
sVIH0S
p21
g1
((lp22
S'this'
p23
atp24
Rp25
sVAO1KT
p26
g1
((lp27
S'talked'
p28
aS'walked'
p29
atp30
Rp31
sVAH2
p32
g1
((lp33
S'unafraid'
p34
aS'undeniable'
p35
aS'understand'
p36
aS'whatever'
p37
atp38
Rp39
sVIH0N
p40
g1
((lp41
S'ingenuitive'
p42
aS'been'
p43
aS'in'
p44
atp45
Rp46
sVAH0
p47
g1
((lp48
S'affair'
p49
aS'phenomenon'
p50
aS'agreed'
p51
aS'competitive'
p52
aS'unrest'
p53
aS'committed'
p54
aS'aggressive'
p55
aS'debate'
p56
aS'unfinished'
p57
aS'methodically'
p58
aS'to'
p59
aS'astonish'
p60
aS'surprised'
p61
aS'de'
p62
aS'cannot'
p63
aS'supplies'
p64
aS'accumulate'
p65
aS'success'
p66
aS'tobacco'
p67
aS'nathaniel'
p68
aS'specific'
p69
aS'consolidate'
p70
aS'financial'
p71
aS'regret'
p72
aS'quebec'
p73
aS'battalion'
p74
aS'financials'
p75
aS'subject'
p76
aS'provided'
p77
aS'recruits'
p78
aS"america's"
p79
aS'record'
p80
aS'oppressors'
p81
aS'above'
p82
aS'surprise'
p83
aS'across'
p84
aS'parentis'
p85
aS'ability'
p86
aS'unmask'
p87
aS'agreement'
p88
aS'refused'
p89
aS'succeed'
p90
aS'advantages'
p91
aS'alone'
p92
aS'along'
p93
aS'advance'
p94
aS'about'
p95
aS'ahead'
p96
aS'against'
p97
aS'agree'
p98
aS'adored'
p99
aS'admit'
p100
aS'oppose'
p101
aS'opinion'
p102
aS'afar'
p103
aS'astute'
p104
aS'abet'
p105
aS'supply'
p106
aS'confession'
p107
aS'another'
p108
aS'apologize'
p109
aS'apply'
p110
aS'tomorrow'
p111
aS'conventional'
p112
aS'amaze'
p113
aS'political'
p114
aS'attack'
p115
aS'assistance'
p116
aS'until'
p117
aS'today'
p118
aS'attractive'
p119
aS'confer'
p120
aS'monsieur'
p121
aS'afford'
p122
aS'aware'
p123
aS'approachable'
p124
aS'alas'
p125
aS'awake'
p126
aS'july'
p127
aS'abandoning'
p128
aS'commence'
p129
aS'apprentice'
p130
aS'account'
p131
aS'civility'
p132
aS'promotes'
p133
aS'assume'
p134
aS'contrary'
p135
aS'abandon'
p136
aS'opponent'
p137
aS'ascendancy'
p138
aS'suggestions'
p139
aS'provoke'
p140
aS'again'
p141
aS'afraid'
p142
aS"m'appelle"
p143
aS'suggests'
p144
aS'aside'
p145
aS'complicit'
p146
aS'towards'
p147
aS'unless'
p148
aS'confess'
p149
aS'advice'
p150
aS'negotiate'
p151
aS'collection'
p152
aS'abuse'
p153
aS'connected'
p154
aS'position'
p155
aS'apprenticeship'
p156
aS'america'
p157
aS'a'
p158
aS'attempt'
p159
aS'considered'
p160
aS'askance'
p161
aS'american'
p162
aS'sometimes'
p163
aS'upset'
p164
aS'together'
p165
aS'acquitted'
p166
aS'adrenaline'
p167
aS'command'
p168
aS'absurd'
p169
aS'consistency'
p170
aS'occasion'
p171
aS'the'
p172
aS'away'
p173
atp174
Rp175
sVAH1
p176
g1
((lp177
S'gunshot'
p178
aS'shovel'
p179
aS'someday'
p180
aS'hunger'
p181
aS'runner'
p182
aS'money'
p183
aS'trusting'
p184
aS'somehow'
p185
aS'hungry'
p186
aS'running'
p187
aS'something'
p188
aS'summon'
p189
aS'subject'
p190
aS"doesn't"
p191
aS'buddy'
p192
aS'rather'
p193
aS'hudson'
p194
aS'hurricane'
p195
aS'other'
p196
aS'bloodstains'
p197
aS'under'
p198
aS'struggled'
p199
aS'hundred'
p200
aS'public'
p201
aS'covenant'
p202
aS'sullied'
p203
aS'someone'
p204
aS'somebody'
p205
aS'brothers'
p206
aS'government'
p207
aS'couple'
p208
aS'mother'
p209
aS'southern'
p210
aS'cover'
p211
aS'number'
p212
aS"what'll"
p213
aS'coming'
p214
aS'nothing'
p215
aS'cousin'
p216
aS'trouble'
p217
aS'upstate'
p218
aS'publishes'
p219
aS'younger'
p220
aS"someone's"
p221
aS"mother's"
p222
aS"wasn't"
p223
aS'double'
p224
aS'study'
p225
aS'sometimes'
p226
aS'upset'
p227
aS'brother'
p228
aS'doubled'
p229
aS'summary'
p230
aS"brother's"
p231
aS'uh'
p232
aS'country'
p233
aS'knuckleheads'
p234
aS'the'
p235
aS'mulligan'
p236
aS'smuggle'
p237
atp238
Rp239
sVIH0F
p240
g1
((lp241
S'if'
p242
atp243
Rp244
sVIH0D
p245
g1
((lp246
S'did'
p247
aS'good'
p248
atp249
Rp250
sVAE1BZ
p251
g1
((lp252
S'grabs'
p253
atp254
Rp255
sVUW1TH
p256
g1
((lp257
S'truth'
p258
atp259
Rp260
sVEH2
p261
g1
((lp262
S'revolutionary'
p263
aS'devastation'
p264
aS'revolution'
p265
aS'caribbean'
p266
aS'carolina'
p267
aS"revolution's"
p268
aS'expectation'
p269
aS'reputation'
p270
aS'guarantee'
p271
aS'declaration'
p272
aS'speculation'
p273
aS'education'
p274
aS'democratic'
p275
aS'restitution'
p276
atp277
Rp278
sVEH0
p279
g1
((lp280
S'embezzling'
p281
aS'rep'
p282
aS'endorse'
p283
aS'engaged'
p284
aS'escorted'
p285
aS'escort'
p286
aS'endorsement'
p287
aS'entrust'
p288
aS'enlightenment'
p289
aS'essays'
p290
atp291
Rp292
sVEH1
p293
g1
((lp294
S'measurements'
p295
aS'questions'
p296
aS'enterprise'
p297
aS'carefully'
p298
aS'melody'
p299
aS'arrogant'
p300
aS'envy'
p301
aS'venerated'
p302
aS'headline'
p303
aS'betsy'
p304
aS'aaron'
p305
aS'parents'
p306
aS'treasury'
p307
aS'wearing'
p308
aS'very'
p309
aS'every'
p310
aS'pendleton'
p311
aS'reckoning'
p312
aS'jettison'
p313
aS'endless'
p314
aS'enemy'
p315
aS'heaven'
p316
aS'feral'
p317
aS'level'
p318
aS'excellency'
p319
aS'chesapeake'
p320
aS'pleasantries'
p321
aS'eloquence'
p322
aS'settle'
p323
aS'marry'
p324
aS'secretary'
p325
aS'seventeen'
p326
aS'specially'
p327
aS'redcoats'
p328
aS'tempered'
p329
aS'messy'
p330
aS'second'
p331
aS'legacy'
p332
aS'carriages'
p333
aS'desperate'
p334
aS'helpless'
p335
aS'destitute'
p336
aS'centralizing'
p337
aS'enemies'
p338
aS"jefferson's"
p339
aS'kettle'
p340
aS'everything'
p341
aS'medicine'
p342
aS'lecture'
p343
aS"ev'ryone"
p344
aS'ever'
p345
aS'temple'
p346
aS'checkered'
p347
aS'seconds'
p348
aS'never'
p349
aS'peggy'
p350
aS'enterprising'
p351
aS'frenchman'
p352
aS'scary'
p353
aS'benefits'
p354
aS'hesitant'
p355
aS'getting'
p356
aS'many'
p357
aS'terrible'
p358
aS'credit'
p359
aS'testament'
p360
aS'mentions'
p361
aS'reckoned'
p362
aS'letters'
p363
aS'letter'
p364
aS'headed'
p365
aS'lesson'
p366
aS"ev'ry"
p367
aS'better'
p368
aS'spending'
p369
aS'twenty'
p370
aS'question'
p371
aS'anyone'
p372
aS'escort'
p373
aS'memory'
p374
aS'essays'
p375
aS'pencil'
p376
aS'fellow'
p377
aS'meddling'
p378
aS'everywhere'
p379
aS'mellow'
p380
aS'evidence'
p381
aS'endlessly'
p382
aS'present'
p383
aS'anything'
p384
aS'record'
p385
aS'henry'
p386
aS'seven'
p387
aS'century'
p388
aS'general'
p389
aS'ready'
p390
aS'pedestal'
p391
aS'reynolds'
p392
aS'any'
p393
aS'redder'
p394
aS'deadly'
p395
aS'veteran'
p396
aS'elegance'
p397
aS'gentlemen'
p398
aS'penniless'
p399
aS'relatives'
p400
aS'jefferson'
p401
aS'elephant'
p402
aS'elevates'
p403
aS'dresses'
p404
aS'separate'
p405
aS'welcome'
p406
aS'henchmen'
p407
aS'vengeance'
p408
aS'plenty'
p409
aS'president'
p410
aS'decorated'
p411
aS'weapon'
p412
aS'sedative'
p413
aS'anybody'
p414
aS'element'
p415
aS'enter'
p416
aS'precedent'
p417
atp418
Rp419
sVEY1TS
p420
g1
((lp421
S'states'
p422
aS"state's"
p423
atp424
Rp425
sVAE1NTS
p426
g1
((lp427
S'pants'
p428
atp429
Rp430
sVUW1TS
p431
g1
((lp432
S'shoots'
p433
atp434
Rp435
sVIY1TS
p436
g1
((lp437
S'streets'
p438
atp439
Rp440
sVAH1CH
p441
g1
((lp442
S'such'
p443
aS'much'
p444
atp445
Rp446
sVER1MZ
p447
g1
((lp448
S'terms'
p449
atp450
Rp451
sVEY1MZ
p452
g1
((lp453
S'james'
p454
atp455
Rp456
sS'IH0M'
p457
g1
((lp458
S'impoverished'
p459
aS'him'
p460
atp461
Rp462
sVOY1
p463
g1
((lp464
S'boy'
p465
aS'poisoned'
p466
aS'loyalty'
p467
aS'choices'
p468
aS'royalty'
p469
aS'lawyer'
p470
aS'voices'
p471
aS'joining'
p472
atp473
Rp474
sVEY1MD
p475
g1
((lp476
S'named'
p477
atp478
Rp479
sVUW1ZD
p480
g1
((lp481
S'used'
p482
atp483
Rp484
sVUH0
p485
g1
((lp486
S'yourself'
p487
atp488
Rp489
sVUH1
p490
g1
((lp491
S'jury'
p492
aS'bullet'
p493
aS'crooked'
p494
aS"wouldn't"
p495
aS'poorest'
p496
aS'sugar'
p497
aS'looking'
p498
aS'brooklyn'
p499
aS'bullets'
p500
aS"shouldn't"
p501
aS'curious'
p502
atp503
Rp504
sVAE1TS
p505
g1
((lp506
S"that's"
p507
atp508
Rp509
sVAH1NZ
p510
g1
((lp511
S'runs'
p512
aS'sons'
p513
aS'guns'
p514
atp515
Rp516
sVAH1NT
p517
g1
((lp518
S'front'
p519
atp520
Rp521
sVAH1NS
p522
g1
((lp523
S'once'
p524
atp525
Rp526
sVAH1NG
p527
g1
((lp528
S'hungriest'
p529
aS'young'
p530
atp531
Rp532
sVAO1RD
p533
g1
((lp534
S'lord'
p535
atp536
Rp537
sVAO1RK
p538
g1
((lp539
S'york'
p540
atp541
Rp542
sVAO2L
p543
g1
((lp544
S"y'all"
p545
atp546
Rp547
sVAO1RN
p548
g1
((lp549
S'worn'
p550
atp551
Rp552
sVAY1MZ
p553
g1
((lp554
S"time's"
p555
atp556
Rp557
sVAA1NT
p558
g1
((lp559
S'want'
p560
atp561
Rp562
sVAO1RS
p563
g1
((lp564
S'course'
p565
aS'horse'
p566
atp567
Rp568
sVAO1RT
p569
g1
((lp570
S'sort'
p571
aS'short'
p572
atp573
Rp574
sVAO1RZ
p575
g1
((lp576
S'yours'
p577
atp578
Rp579
sVER1CH
p580
g1
((lp581
S'search'
p582
aS'church'
p583
atp584
Rp585
sVOW1TS
p586
g1
((lp587
S'notes'
p588
atp589
Rp590
sVAY1TS
p591
g1
((lp592
S'writes'
p593
aS'rights'
p594
atp595
Rp596
sVUH1KS
p597
g1
((lp598
S'looks'
p599
atp600
Rp601
sVUH1KT
p602
g1
((lp603
S'looked'
p604
atp605
Rp606
sVEH1D
p607
g1
((lp608
S'shed'
p609
aS'said'
p610
aS'led'
p611
aS'lead'
p612
aS'head'
p613
aS'dead'
p614
aS'spread'
p615
aS'bed'
p616
aS'red'
p617
atp618
Rp619
sVIH1RZ
p620
g1
((lp621
S"here's"
p622
aS'years'
p623
atp624
Rp625
sVEY1Z
p626
g1
((lp627
S"day's"
p628
aS'raise'
p629
atp630
Rp631
sVEY1T
p632
g1
((lp633
S'great'
p634
aS'straight'
p635
aS'late'
p636
aS'state'
p637
aS'eight'
p638
aS'wait'
p639
atp640
Rp641
sVEY1P
p642
g1
((lp643
S'shape'
p644
atp645
Rp646
sVEY1S
p647
g1
((lp648
S'case'
p649
aS'place'
p650
aS'face'
p651
atp652
Rp653
sVEY1M
p654
g1
((lp655
S'name'
p656
aS'same'
p657
aS'aim'
p658
aS'shame'
p659
aS'game'
p660
aS'flame'
p661
aS'came'
p662
atp663
Rp664
sVEY1L
p665
g1
((lp666
S"they'll"
p667
atp668
Rp669
sVEY1N
p670
g1
((lp671
S'brain'
p672
aS'drain'
p673
aS'pain'
p674
aS'gain'
p675
aS'cane'
p676
atp677
Rp678
sVEY1K
p679
g1
((lp680
S'break'
p681
aS'make'
p682
aS'shake'
p683
aS'take'
p684
aS'fake'
p685
atp686
Rp687
sVEY1D
p688
g1
((lp689
S'aid'
p690
aS'made'
p691
aS'shade'
p692
aS'paid'
p693
atp694
Rp695
sVAE1FT
p696
g1
((lp697
S'draft'
p698
atp699
Rp700
sVEH1K
p701
g1
((lp702
S'check'
p703
aS'neck'
p704
atp705
Rp706
sVEH1L
p707
g1
((lp708
S'hell'
p709
aS'spell'
p710
aS'well'
p711
aS'tell'
p712
aS'l'
p713
atp714
Rp715
sVEH1M
p716
g1
((lp717
S'em'
p718
atp719
Rp720
sVEH1N
p721
g1
((lp722
S'then'
p723
aS'ben'
p724
aS'ten'
p725
aS'men'
p726
aS'when'
p727
aS'n'
p728
atp729
Rp730
sVER1NZ
p731
g1
((lp732
S'turns'
p733
atp734
Rp735
sVEH1ST
p736
g1
((lp737
S'test'
p738
aS'west'
p739
aS"c'est"
p740
aS'rest'
p741
aS'best'
p742
atp743
Rp744
sVAY1K
p745
g1
((lp746
S'like'
p747
atp748
Rp749
sVEH1G
p750
g1
((lp751
S'keg'
p752
aS'beg'
p753
atp754
Rp755
sVEH1Z
p756
g1
((lp757
S'as'
p758
aS'says'
p759
atp760
Rp761
sVER1ND
p762
g1
((lp763
S'learned'
p764
aS'turned'
p765
atp766
Rp767
sVAO1GZ
p768
g1
((lp769
S'dogs'
p770
atp771
Rp772
sVEH1P
p773
g1
((lp774
S'rep'
p775
aS'step'
p776
atp777
Rp778
sVEH1R
p779
g1
((lp780
S"they're"
p781
aS'there'
p782
aS'bear'
p783
aS'air'
p784
aS'swear'
p785
aS'wear'
p786
aS'where'
p787
atp788
Rp789
sVEH1S
p790
g1
((lp791
S'stress'
p792
aS'less'
p793
aS'mess'
p794
aS'ness'
p795
aS'chess'
p796
aS'press'
p797
aS'yes'
p798
atp799
Rp800
sVEH1T
p801
g1
((lp802
S'vet'
p803
aS'set'
p804
aS'get'
p805
aS'met'
p806
aS'let'
p807
aS'sweat'
p808
aS'debt'
p809
aS'yet'
p810
aS'bet'
p811
atp812
Rp813
sVIY1PS
p814
g1
((lp815
S'keeps'
p816
atp817
Rp818
sVAO1RDZ
p819
g1
((lp820
S'towards'
p821
atp822
Rp823
sVIH1MPS
p824
g1
((lp825
S'glimpse'
p826
atp827
Rp828
sVIH0TH
p829
g1
((lp830
S'with'
p831
atp832
Rp833
sVAO1CHT
p834
g1
((lp835
S'watched'
p836
atp837
Rp838
sVEH1FT
p839
g1
((lp840
S'left'
p841
atp842
Rp843
sVIH0TS
p844
g1
((lp845
S"it's"
p846
aS'its'
p847
atp848
Rp849
sVAA1DZ
p850
g1
((lp851
S'gods'
p852
aS'odds'
p853
atp854
Rp855
sVAO1NT
p856
g1
((lp857
S'want'
p858
atp859
Rp860
sVEY1ST
p861
g1
((lp862
S'placed'
p863
aS'raced'
p864
atp865
Rp866
sVAO1NG
p867
g1
((lp868
S'wrong'
p869
aS'song'
p870
atp871
Rp872
sVIH1NGZ
p873
g1
((lp874
S'things'
p875
aS"king's"
p876
atp877
Rp878
sVIH1DNT
p879
g1
((lp880
S"didn't"
p881
atp882
Rp883
sVAH1NTS
p884
g1
((lp885
S'fronts'
p886
atp887
Rp888
sVER0
p889
g1
((lp890
S'forget'
p891
aS'terrain'
p892
aS'pursuits'
p893
aS'yourself'
p894
aS'are'
p895
aS'forgot'
p896
aS'caribbean'
p897
aS'for'
p898
aS'surprise'
p899
aS'forgets'
p900
aS'surprised'
p901
aS'around'
p902
aS'permission'
p903
aS'were'
p904
aS'virginia'
p905
aS'arrived'
p906
aS'pursuit'
p907
aS'virtuosity'
p908
aS'particular'
p909
aS'surrender'
p910
aS'present'
p911
aS'maria'
p912
aS'parentheses'
p913
aS'virginian'
p914
aS'career'
p915
aS'forgotten'
p916
aS'or'
p917
atp918
Rp919
sVEH1TH
p920
g1
((lp921
S'death'
p922
atp923
Rp924
sVAA1NTS
p925
g1
((lp926
S'wants'
p927
atp928
Rp929
sVEH1TS
p930
g1
((lp931
S'bets'
p932
aS'debts'
p933
aS"let's"
p934
aS'lets'
p935
aS'sets'
p936
aS'gets'
p937
atp938
Rp939
sVAE1KST
p940
g1
((lp941
S'taxed'
p942
atp943
Rp944
sVAH1NCH
p945
g1
((lp946
S'bunch'
p947
atp948
Rp949
sVEY1
p950
g1
((lp951
S'saying'
p952
aS'major'
p953
aS'breaking'
p954
aS'stray'
p955
aS'bayonet'
p956
aS'ladies'
p957
aS'draining'
p958
aS'say'
p959
aS'paces'
p960
aS'trading'
p961
aS'labor'
p962
aS'patiently'
p963
aS'pray'
p964
aS'pay'
p965
aS"c'est"
p966
aS'hey'
p967
aS'pages'
p968
aS'waiting'
p969
aS'station'
p970
aS'way'
p971
aS'papers'
p972
aS'taken'
p973
aS'stalemate'
p974
aS'status'
p975
aS'play'
p976
aS'ration'
p977
aS'statement'
p978
aS'stay'
p979
aS'may'
p980
aS'de'
p981
aS'nation'
p982
aS'waving'
p983
aS'spray'
p984
aS'tailor'
p985
aS'lay'
p986
aS'they'
p987
aS'chasing'
p988
aS'je'
p989
aS'ha'
p990
aS'day'
p991
aS'bravery'
p992
aS'a'
p993
aS'mainland'
p994
aS'places'
p995
aS'sacred'
p996
aS'maybe'
p997
aS'later'
p998
aS'favorite'
p999
aS'slavery'
p1000
aS'bay'
p1001
aS'facing'
p1002
aS'neighbor'
p1003
aS'slaver'
p1004
aS'making'
p1005
aS'latest'
p1006
atp1007
Rp1008
sVEY0
p1009
g1
((lp1010
S'elitist'
p1011
atp1012
Rp1013
sVAY1NTS
p1014
g1
((lp1015
S'pints'
p1016
atp1017
Rp1018
sVAO1CH
p1019
g1
((lp1020
S'watch'
p1021
atp1022
Rp1023
sVAY1
p1024
g1
((lp1025
S'spy'
p1026
aS'itemized'
p1027
aS'schuyler'
p1028
aS'high'
p1029
aS'buy'
p1030
aS'my'
p1031
aS'frightened'
p1032
aS'crisis'
p1033
aS'by'
p1034
aS'eye'
p1035
aS'dying'
p1036
aS'lining'
p1037
aS'flying'
p1038
aS'sky'
p1039
aS'silently'
p1040
aS'writing'
p1041
aS'finally'
p1042
aS'higher'
p1043
aS'diamond'
p1044
aS'rioting'
p1045
aS'lighten'
p1046
aS'dire'
p1047
aS'nineteen'
p1048
aS'why'
p1049
aS'cycle'
p1050
aS'dry'
p1051
aS'die'
p1052
aS'firing'
p1053
aS'fighting'
p1054
aS'try'
p1055
aS'ninety'
p1056
aS'either'
p1057
aS'shy'
p1058
aS'guy'
p1059
aS'shiny'
p1060
aS'lying'
p1061
atp1062
Rp1063
sVAE1SKT
p1064
g1
((lp1065
S'asked'
p1066
atp1067
Rp1068
sVAY2
p1069
g1
((lp1070
S'financial'
p1071
aS'financials'
p1072
aS'diuretic'
p1073
atp1074
Rp1075
sVIH0ST
p1076
g1
((lp1077
S'just'
p1078
atp1079
Rp1080
sVAW1TH
p1081
g1
((lp1082
S'mouth'
p1083
aS'south'
p1084
atp1085
Rp1086
sVAO2
p1087
g1
((lp1088
S'fourteen'
p1089
aS'alright'
p1090
aS'correspondence'
p1091
atp1092
Rp1093
sVAO1
p1094
g1
((lp1095
S'organize'
p1096
aS'almost'
p1097
aS'forfeit'
p1098
aS'orphan'
p1099
aS'yourself'
p1100
aS'talking'
p1101
aS'lawyer'
p1102
aS'broadway'
p1103
aS'corner'
p1104
aS'forthcoming'
p1105
aS'saw'
p1106
aS'orders'
p1107
aS"washington's"
p1108
aS'story'
p1109
aS'law'
p1110
aS'yorkers'
p1111
aS'doctor'
p1112
aS'sordid'
p1113
aS'courted'
p1114
aS'forces'
p1115
aS'forward'
p1116
aS'daughters'
p1117
aS'slaughtered'
p1118
aS'horses'
p1119
aS'draw'
p1120
aS'offer'
p1121
aS'dollar'
p1122
aS'mortally'
p1123
aS'washington'
p1124
aS'fourteen'
p1125
aS'quarterly'
p1126
aS'slaughter'
p1127
aS'wanted'
p1128
aS'boarding'
p1129
aS'longing'
p1130
aS'laurens'
p1131
aS'daughter'
p1132
aS'glory'
p1133
aS'always'
p1134
aS'dollars'
p1135
aS'yorktown'
p1136
aS'chorus'
p1137
aS'orderly'
p1138
atp1139
Rp1140
sVAO0
p1141
g1
((lp1142
S'forgets'
p1143
aS'forgot'
p1144
aS'forget'
p1145
aS'forgotten'
p1146
atp1147
Rp1148
sVIH1DH
p1149
g1
((lp1150
S'with'
p1151
atp1152
Rp1153
sVAE1SK
p1154
g1
((lp1155
S'ask'
p1156
aS'flask'
p1157
aS'task'
p1158
atp1159
Rp1160
sVEH1NCH
p1161
g1
((lp1162
S'trench'
p1163
aS'french'
p1164
aS'bench'
p1165
atp1166
Rp1167
sVAE1SH
p1168
g1
((lp1169
S'cash'
p1170
atp1171
Rp1172
sVAW1D
p1173
g1
((lp1174
S"how'd"
p1175
aS'proud'
p1176
aS'loud'
p1177
aS'crowd'
p1178
atp1179
Rp1180
sVAW1N
p1181
g1
((lp1182
S'down'
p1183
atp1184
Rp1185
sVAW1S
p1186
g1
((lp1187
S'house'
p1188
aS'douse'
p1189
atp1190
Rp1191
sVAW1R
p1192
g1
((lp1193
S'our'
p1194
aS'hour'
p1195
atp1196
Rp1197
sVAW1T
p1198
g1
((lp1199
S'bout'
p1200
aS'doubt'
p1201
aS'out'
p1202
atp1203
Rp1204
sVAE1ST
p1205
g1
((lp1206
S'past'
p1207
aS'last'
p1208
aS'passed'
p1209
aS'fast'
p1210
aS'asked'
p1211
atp1212
Rp1213
sVIH1NGK
p1214
g1
((lp1215
S'drink'
p1216
aS'think'
p1217
aS'brink'
p1218
atp1219
Rp1220
sVAY1NG
p1221
g1
((lp1222
S'trying'
p1223
atp1224
Rp1225
sVEY1NJHD
p1226
g1
((lp1227
S'changed'
p1228
atp1229
Rp1230
sS'AH2N'
p1231
g1
((lp1232
S'unimpeachable'
p1233
atp1234
Rp1235
sVAA1CHT
p1236
g1
((lp1237
S'watched'
p1238
atp1239
Rp1240
sVAA1GZ
p1241
g1
((lp1242
S'dogs'
p1243
atp1244
Rp1245
sVUW1LZ
p1246
g1
((lp1247
S'fools'
p1248
atp1249
Rp1250
sVEH1PT
p1251
g1
((lp1252
S'slept'
p1253
aS'kept'
p1254
atp1255
Rp1256
sVEH1LF
p1257
g1
((lp1258
S'shelf'
p1259
aS'self'
p1260
atp1261
Rp1262
sVAW1NT
p1263
g1
((lp1264
S'count'
p1265
aS'mount'
p1266
atp1267
Rp1268
sVAW1NS
p1269
g1
((lp1270
S'ounce'
p1271
atp1272
Rp1273
sVOW1LD
p1274
g1
((lp1275
S'old'
p1276
atp1277
Rp1278
sVIY1ST
p1279
g1
((lp1280
S'least'
p1281
atp1282
Rp1283
sVEH1LP
p1284
g1
((lp1285
S'help'
p1286
atp1287
Rp1288
sVEH1LS
p1289
g1
((lp1290
S'else'
p1291
atp1292
Rp1293
sVEH1NDZ
p1294
g1
((lp1295
S'friends'
p1296
atp1297
Rp1298
sVEH1LZ
p1299
g1
((lp1300
S'smells'
p1301
aS'bells'
p1302
atp1303
Rp1304
sVAW1ND
p1305
g1
((lp1306
S'ground'
p1307
atp1308
Rp1309
sVER1
p1310
g1
((lp1311
S'hercules'
p1312
aS'further'
p1313
aS'sir'
p1314
aS'merchants'
p1315
aS'clerkin'
p1316
aS'working'
p1317
aS'nervous'
p1318
aS'hurricane'
p1319
aS"we're"
p1320
aS'blur'
p1321
aS'learned'
p1322
aS'stir'
p1323
aS'murder'
p1324
aS'early'
p1325
aS'vernon'
p1326
aS'courage'
p1327
aS'virtue'
p1328
aS'burden'
p1329
aS'burr'
p1330
aS'service'
p1331
aS'thirty'
p1332
aS'were'
p1333
aS'jersey'
p1334
atp1335
Rp1336
sVER1T
p1337
g1
((lp1338
S'flirt'
p1339
aS'dirt'
p1340
atp1341
Rp1342
sVEH1KS
p1343
g1
((lp1344
S'x'
p1345
aS'next'
p1346
aS'sex'
p1347
atp1348
Rp1349
sVER1S
p1350
g1
((lp1351
S'verse'
p1352
aS'worse'
p1353
atp1354
Rp1355
sVER1D
p1356
g1
((lp1357
S'heard'
p1358
aS'word'
p1359
aS'third'
p1360
atp1361
Rp1362
sVER1N
p1363
g1
((lp1364
S'turn'
p1365
aS'burn'
p1366
atp1367
Rp1368
sVER1L
p1369
g1
((lp1370
S'girl'
p1371
atp1372
Rp1373
sVER1K
p1374
g1
((lp1375
S'work'
p1376
atp1377
Rp1378
sVAW1DHZ
p1379
g1
((lp1380
S'mouths'
p1381
atp1382
Rp1383
sVIH1NDZ
p1384
g1
((lp1385
S'winds'
p1386
atp1387
Rp1388
sVIH1KS
p1389
g1
((lp1390
S'six'
p1391
atp1392
Rp1393
sVUW1VD
p1394
g1
((lp1395
S'moved'
p1396
atp1397
Rp1398
sVAE1KS
p1399
g1
((lp1400
S'tax'
p1401
atp1402
Rp1403
sVAH0ND
p1404
g1
((lp1405
S'and'
p1406
atp1407
Rp1408
sVAE1KT
p1409
g1
((lp1410
S'act'
p1411
atp1412
Rp1413
sVAH1ST
p1414
g1
((lp1415
S'just'
p1416
aS'must'
p1417
atp1418
Rp1419
sVIY1DZ
p1420
g1
((lp1421
S'leads'
p1422
aS'seeds'
p1423
atp1424
Rp1425
sVER1DZ
p1426
g1
((lp1427
S'words'
p1428
atp1429
Rp1430
sVEH1THS
p1431
g1
((lp1432
S"death's"
p1433
atp1434
Rp1435
sVIY2
p1436
g1
((lp1437
S'require'
p1438
aS'beyond'
p1439
aS'before'
p1440
atp1441
Rp1442
sVEY1KS
p1443
g1
((lp1444
S'makes'
p1445
aS'takes'
p1446
atp1447
Rp1448
sVAA1RD
p1449
g1
((lp1450
S'guard'
p1451
aS'hard'
p1452
atp1453
Rp1454
sVIY1MZ
p1455
g1
((lp1456
S'seems'
p1457
aS'screams'
p1458
atp1459
Rp1460
sVAA1RK
p1461
g1
((lp1462
S'dark'
p1463
aS'spark'
p1464
atp1465
Rp1466
sVIH1SH
p1467
g1
((lp1468
S'wish'
p1469
atp1470
Rp1471
sVIH1ST
p1472
g1
((lp1473
S'list'
p1474
aS'pissed'
p1475
atp1476
Rp1477
sVAA1
p1478
g1
((lp1479
S'thomas'
p1480
aS'barter'
p1481
aS'charles'
p1482
aS'dollar'
p1483
aS'farther'
p1484
aS'follow'
p1485
aS'pardon'
p1486
aS'father'
p1487
aS'prodigy'
p1488
aS'sorry'
p1489
aS'ami'
p1490
aS'garden'
p1491
aS'watching'
p1492
aS'ya'
p1493
aS'smarter'
p1494
aS'gonna'
p1495
aS'pocket'
p1496
aS'moi'
p1497
aS'posture'
p1498
aS'polish'
p1499
aS'scholar'
p1500
aS'harbor'
p1501
aS'borrow'
p1502
aS'common'
p1503
aS'bother'
p1504
aS'charter'
p1505
aS'onarchy'
p1506
aS'goddamn'
p1507
aS'fathers'
p1508
aS'carted'
p1509
aS'college'
p1510
aS'brrrah'
p1511
aS'gossip'
p1512
aS'conscience'
p1513
aS'bottom'
p1514
aS'monmouth'
p1515
aS"father's"
p1516
aS'providence'
p1517
aS'contraband'
p1518
aS'contrary'
p1519
aS'sorrow'
p1520
aS'monarchy'
p1521
aS'colony'
p1522
aS'wanted'
p1523
aS'knowledge'
p1524
aS'prospects'
p1525
aS"prob'ly"
p1526
aS'dollars'
p1527
aS'honest'
p1528
aS'pockets'
p1529
aS'fallen'
p1530
aS'honor'
p1531
aS'washington'
p1532
aS'promise'
p1533
aS'parties'
p1534
aS"washington's"
p1535
aS'army'
p1536
aS'constantly'
p1537
aS'toi'
p1538
aS'bargained'
p1539
aS'prosperous'
p1540
aS'started'
p1541
aS'brraaah'
p1542
aS'ardently'
p1543
aS'ha'
p1544
aS'starter'
p1545
aS'scotsman'
p1546
aS"wasn't"
p1547
aS'gotta'
p1548
aS'harder'
p1549
aS"body's"
p1550
aS'holler'
p1551
aS'problem'
p1552
aS'modern'
p1553
aS'promised'
p1554
aS'martyr'
p1555
aS'doctor'
p1556
aS'heartbreak'
p1557
aS'goner'
p1558
aS'party'
p1559
aS'colonies'
p1560
aS'martha'
p1561
aS'talkin'
p1562
aS'commonplace'
p1563
aS'congress'
p1564
aS'opposite'
p1565
aS'squalor'
p1566
aS'law'
p1567
aS'scholars'
p1568
aS'tomcat'
p1569
aS'bondage'
p1570
aS'wanna'
p1571
aS'farmers'
p1572
aS'nothin'
p1573
aS'honestly'
p1574
aS'rendezvous'
p1575
aS'model'
p1576
aS'harlem'
p1577
aS'scholarship'
p1578
atp1579
Rp1580
sVAA0
p1581
g1
((lp1582
S'proximity'
p1583
aS'obnoxious'
p1584
aS'montgomery'
p1585
atp1586
Rp1587
sVAA2
p1588
g1
((lp1589
S'marquis'
p1590
aS'camaraderie'
p1591
aS'monticello'
p1592
aS'conversation'
p1593
aS'lafayette'
p1594
aS'particular'
p1595
aS'opportunity'
p1596
aS'volunteer'
p1597
atp1598
Rp1599
sVIY1MD
p1600
g1
((lp1601
S'screamed'
p1602
atp1603
Rp1604
sVAA1RT
p1605
g1
((lp1606
S'start'
p1607
aS'part'
p1608
aS'smart'
p1609
atp1610
Rp1611
sVIH2
p1612
g1
((lp1613
S'information'
p1614
aS'independently'
p1615
aS'indecisive'
p1616
aS'introduction'
p1617
aS'introduce'
p1618
aS'disagreements'
p1619
aS'situation'
p1620
aS'immature'
p1621
aS'independence'
p1622
aS'disadvantage'
p1623
atp1624
Rp1625
sVIH0
p1626
g1
((lp1627
S'beware'
p1628
aS'renown'
p1629
aS'before'
p1630
aS'resemblance'
p1631
aS'behind'
p1632
aS'destroyed'
p1633
aS'to'
p1634
aS'excited'
p1635
aS'eventually'
p1636
aS'embezzling'
p1637
aS'return'
p1638
aS'descendants'
p1639
aS'disquieting'
p1640
aS'redeem'
p1641
aS'deniability'
p1642
aS'decide'
p1643
aS'instead'
p1644
aS'republican'
p1645
aS'resorted'
p1646
aS'relentlessly'
p1647
aS'specific'
p1648
aS'require'
p1649
aS"isn't"
p1650
aS'insane'
p1651
aS'because'
p1652
aS'financial'
p1653
aS'regret'
p1654
aS'resist'
p1655
aS'depends'
p1656
aS'decided'
p1657
aS'precedes'
p1658
aS'elitist'
p1659
aS'beyond'
p1660
aS'financials'
p1661
aS'explode'
p1662
aS'equivocate'
p1663
aS'inside'
p1664
aS'enough'
p1665
aS'experiment'
p1666
aS'between'
p1667
aS'recruits'
p1668
aS'degree'
p1669
aS'defend'
p1670
aS'refused'
p1671
aS'disputes'
p1672
aS'resign'
p1673
aS'imagine'
p1674
aS'beginning'
p1675
aS'defeatist'
p1676
aS'extreme'
p1677
aS'essentially'
p1678
aS'insidious'
p1679
aS'expecting'
p1680
aS'inexperienced'
p1681
aS'defeat'
p1682
aS'emerge'
p1683
aS'into'
p1684
aS'delighted'
p1685
aS'decides'
p1686
aS'defendants'
p1687
aS'resilience'
p1688
aS'despised'
p1689
aS'remains'
p1690
aS'distracted'
p1691
aS'betrays'
p1692
aS'victorious'
p1693
aS'dismisses'
p1694
aS'exactly'
p1695
aS'refrain'
p1696
aS'excuse'
p1697
aS'demand'
p1698
aS'believe'
p1699
aS'begins'
p1700
aS'reliable'
p1701
aS'devices'
p1702
aS'record'
p1703
aS'beliefs'
p1704
aS'examine'
p1705
aS'examined'
p1706
aS'information'
p1707
aS'resigned'
p1708
aS'extorted'
p1709
aS'began'
p1710
aS'belong'
p1711
aS'rebellion'
p1712
aS'equipment'
p1713
aS'disparaged'
p1714
aS'destroy'
p1715
aS'begin'
p1716
aS'negotiate'
p1717
aS'despondent'
p1718
aS'response'
p1719
aS'deny'
p1720
aS'remember'
p1721
aS'without'
p1722
aS'eliza'
p1723
atp1724
Rp1725
sVIH1
p1726
g1
((lp1727
S'immigrants'
p1728
aS'missing'
p1729
aS'ringing'
p1730
aS'figure'
p1731
aS'disciplined'
p1732
aS'visit'
p1733
aS'into'
p1734
aS'midnight'
p1735
aS'dripping'
p1736
aS'brilliance'
p1737
aS'immigrant'
p1738
aS'middle'
p1739
aS'britain'
p1740
aS'pistols'
p1741
aS'simply'
p1742
aS'symphony'
p1743
aS'singing'
p1744
aS'citizens'
p1745
aS"sister's"
p1746
aS'winning'
p1747
aS'mister'
p1748
aS'drinking'
p1749
aS'really'
p1750
aS'millisecond'
p1751
aS'city'
p1752
aS'little'
p1753
aS'william'
p1754
aS'intercourse'
p1755
aS'giving'
p1756
aS'imminent'
p1757
aS'thinkin'
p1758
aS'divvy'
p1759
aS'dissidents'
p1760
aS'system'
p1761
aS'liberty'
p1762
aS'situated'
p1763
aS'trigger'
p1764
aS'fidgeting'
p1765
aS'witnessing'
p1766
aS'pretty'
p1767
aS"hist'ry"
p1768
aS'fiddled'
p1769
aS'military'
p1770
aS'fingerprints'
p1771
aS'listen'
p1772
aS'business'
p1773
aS'living'
p1774
aS'clearly'
p1775
aS'mission'
p1776
aS'given'
p1777
aS'wisdom'
p1778
aS'ridden'
p1779
aS"winter's"
p1780
aS'rigor'
p1781
aS'difficult'
p1782
aS'serious'
p1783
aS'sisters'
p1784
aS'witted'
p1785
aS'philip'
p1786
aS'difference'
p1787
aS'whisky'
p1788
aS'tyranny'
p1789
aS'distance'
p1790
aS'sister'
p1791
aS'pistol'
p1792
aS'frisky'
p1793
aS'getting'
p1794
aS'inside'
p1795
aS'princeton'
p1796
aS'single'
p1797
aS'british'
p1798
aS'different'
p1799
aS'civics'
p1800
aS'mr'
p1801
aS'giddyup'
p1802
aS'river'
p1803
aS'minutes'
p1804
aS'skittish'
p1805
aS"isn't"
p1806
aS'history'
p1807
atp1808
Rp1809
sVUH1RZ
p1810
g1
((lp1811
S'yours'
p1812
atp1813
Rp1814
sVEH1GZ
p1815
g1
((lp1816
S'legs'
p1817
atp1818
Rp1819
sVAH1STS
p1820
g1
((lp1821
S'trusts'
p1822
atp1823
Rp1824
sVAY1Z
p1825
g1
((lp1826
S'eyes'
p1827
aS'wise'
p1828
aS'rise'
p1829
aS'spies'
p1830
aS'lies'
p1831
aS'guys'
p1832
aS'size'
p1833
atp1834
Rp1835
sVAY1S
p1836
g1
((lp1837
S'vice'
p1838
aS'nice'
p1839
atp1840
Rp1841
sVAY1R
p1842
g1
((lp1843
S'fire'
p1844
aS'hire'
p1845
aS'dire'
p1846
atp1847
Rp1848
sVAY1T
p1849
g1
((lp1850
S'right'
p1851
aS'kite'
p1852
aS'knight'
p1853
aS'night'
p1854
aS'site'
p1855
aS'fight'
p1856
aS'write'
p1857
aS'sight'
p1858
aS'light'
p1859
aS'quite'
p1860
aS'might'
p1861
aS'cite'
p1862
atp1863
Rp1864
sVAY1V
p1865
g1
((lp1866
S'live'
p1867
aS'five'
p1868
aS'drive'
p1869
aS"i've"
p1870
atp1871
Rp1872
sVER1ST
p1873
g1
((lp1874
S'first'
p1875
atp1876
Rp1877
sVAY1M
p1878
g1
((lp1879
S"i'm"
p1880
aS'climb'
p1881
aS'time'
p1882
atp1883
Rp1884
sVAY1L
p1885
g1
((lp1886
S"i'll"
p1887
aS'smile'
p1888
aS'while'
p1889
aS'file'
p1890
aS'trial'
p1891
atp1892
Rp1893
sVAY1N
p1894
g1
((lp1895
S'nine'
p1896
aS'line'
p1897
aS'fine'
p1898
aS'mine'
p1899
atp1900
Rp1901
sVAY1D
p1902
g1
((lp1903
S'ride'
p1904
aS'tide'
p1905
aS'bride'
p1906
aS'slide'
p1907
aS"i'd"
p1908
aS'pride'
p1909
aS'side'
p1910
aS'died'
p1911
atp1912
Rp1913
sVAY1F
p1914
g1
((lp1915
S'life'
p1916
aS'wife'
p1917
atp1918
Rp1919
sVAW1
p1920
g1
((lp1921
S'shower'
p1922
aS'founding'
p1923
aS'founder'
p1924
aS'power'
p1925
aS'scoundrel'
p1926
aS'thousand'
p1927
aS'bow'
p1928
aS'downtown'
p1929
aS'how'
p1930
aS'outside'
p1931
aS'powder'
p1932
aS'now'
p1933
aS'thousands'
p1934
atp1935
Rp1936
sVAW0
p1937
g1
((lp1938
S'outrageous'
p1939
atp1940
Rp1941
sVAH1T
p1942
g1
((lp1943
S'what'
p1944
aS'cut'
p1945
aS'but'
p1946
atp1947
Rp1948
sVAH1V
p1949
g1
((lp1950
S'of'
p1951
aS'love'
p1952
atp1953
Rp1954
sVAH1P
p1955
g1
((lp1956
S'up'
p1957
atp1958
Rp1959
sS'AH1S'
p1960
g1
((lp1961
S'us'
p1962
atp1963
Rp1964
sVAH1Z
p1965
g1
((lp1966
S'does'
p1967
aS'was'
p1968
aS'cuz'
p1969
aS'fuzz'
p1970
atp1971
Rp1972
sVAH1D
p1973
g1
((lp1974
S'flood'
p1975
aS'blood'
p1976
atp1977
Rp1978
sVAH1F
p1979
g1
((lp1980
S'rough'
p1981
atp1982
Rp1983
sVAH1M
p1984
g1
((lp1985
S'from'
p1986
aS'rum'
p1987
aS'some'
p1988
aS'um'
p1989
aS'dumb'
p1990
aS'come'
p1991
atp1992
Rp1993
sVAH1N
p1994
g1
((lp1995
S'none'
p1996
aS'run'
p1997
aS'sun'
p1998
aS'gun'
p1999
aS'one'
p2000
aS'done'
p2001
aS'son'
p2002
atp2003
Rp2004
sVAH1K
p2005
g1
((lp2006
S'fuck'
p2007
aS'luck'
p2008
atp2009
Rp2010
sVIH1PS
p2011
g1
((lp2012
S'ships'
p2013
aS'chips'
p2014
atp2015
Rp2016
sS'AEM'
p2017
g1
((lp2018
S'famished'
p2019
atp2020
Rp2021
sVIY0
p2022
g1
((lp2023
S'reactions'
p2024
aS'be'
p2025
aS'creation'
p2026
aS'resist'
p2027
aS'redefining'
p2028
aS'resigned'
p2029
aS'resemblance'
p2030
aS'remains'
p2031
aS'create'
p2032
aS'creator'
p2033
aS'reality'
p2034
aS'enough'
p2035
aS'republic'
p2036
aS'retreat'
p2037
aS'between'
p2038
aS'eventually'
p2039
aS'return'
p2040
aS'recruits'
p2041
aS'require'
p2042
aS'resign'
p2043
aS'republican'
p2044
aS'response'
p2045
aS'present'
p2046
aS'reaction'
p2047
aS'essentially'
p2048
aS'remember'
p2049
aS'created'
p2050
aS'reliable'
p2051
aS'resorted'
p2052
aS'remind'
p2053
aS'retreating'
p2054
aS'the'
p2055
aS'began'
p2056
atp2057
Rp2058
sVEY1VD
p2059
g1
((lp2060
S'saved'
p2061
atp2062
Rp2063
sVEY1VZ
p2064
g1
((lp2065
S'slaves'
p2066
aS'waves'
p2067
atp2068
Rp2069
sVUW1ST
p2070
g1
((lp2071
S'boost'
p2072
atp2073
Rp2074
sVIH1NG
p2075
g1
((lp2076
S'king'
p2077
aS'thing'
p2078
aS'bring'
p2079
aS'sing'
p2080
atp2081
Rp2082
sVIH1ND
p2083
g1
((lp2084
S'wind'
p2085
atp2086
Rp2087
sVAE1NDZ
p2088
g1
((lp2089
S'stands'
p2090
aS'hands'
p2091
atp2092
Rp2093
sVIH1NT
p2094
g1
((lp2095
S'print'
p2096
aS"didn't"
p2097
atp2098
Rp2099
sVIH1NS
p2100
g1
((lp2101
S'since'
p2102
atp2103
Rp2104
sVIH1NZ
p2105
g1
((lp2106
S'sins'
p2107
atp2108
Rp2109
sVAE1
p2110
g1
((lp2111
S'madison'
p2112
aS'chances'
p2113
aS'scrappy'
p2114
aS'scattered'
p2115
aS'satisfied'
p2116
aS'battle'
p2117
aS'captain'
p2118
aS'brandish'
p2119
aS'happiness'
p2120
aS'glances'
p2121
aS'vacuous'
p2122
aS"action's"
p2123
aS'stances'
p2124
aS"haven't"
p2125
aS'happened'
p2126
aS'handle'
p2127
aS'matches'
p2128
aS'cannon'
p2129
aS'hatter'
p2130
aS'cannot'
p2131
aS'hamilton'
p2132
aS'alex'
p2133
aS'ranting'
p2134
aS'adams'
p2135
aS'fragile'
p2136
aS'stagger'
p2137
aS'landlord'
p2138
aS'challenge'
p2139
aS'glasses'
p2140
aS'battlefield'
p2141
aS'national'
p2142
aS'yeah'
p2143
aS'carriages'
p2144
aS'happen'
p2145
aS'anarchy'
p2146
aS'happens'
p2147
aS"cabinet's"
p2148
aS'asking'
p2149
aS'passion'
p2150
aS'ration'
p2151
aS'stallion'
p2152
aS'answers'
p2153
aS'fractured'
p2154
aS"hadn't"
p2155
aS'cannons'
p2156
aS'fantasies'
p2157
aS'lancelot'
p2158
aS'practical'
p2159
aS'franklin'
p2160
aS'tactical'
p2161
aS'action'
p2162
aS'battery'
p2163
aS'manage'
p2164
aS'makin'
p2165
aS'dances'
p2166
aS'manumission'
p2167
aS"hamilton's"
p2168
aS'traction'
p2169
aS'strategy'
p2170
aS'stamina'
p2171
aS'handles'
p2172
aS'master'
p2173
aS'factions'
p2174
aS'fractions'
p2175
aS'cabinet'
p2176
aS'candidacy'
p2177
aS'casualties'
p2178
aS'handsome'
p2179
aS'practicing'
p2180
aS'frankly'
p2181
aS'francophile'
p2182
aS'classes'
p2183
aS'battering'
p2184
aS'balance'
p2185
aS'scatter'
p2186
aS'panicky'
p2187
aS'fashion'
p2188
aS'ragtag'
p2189
aS'rally'
p2190
aS'angelica'
p2191
aS'planting'
p2192
aS'bastard'
p2193
aS'rather'
p2194
aS'granted'
p2195
aS'battles'
p2196
aS'graduate'
p2197
aS'damages'
p2198
aS'answer'
p2199
aS'status'
p2200
aS'faction'
p2201
aS'passionately'
p2202
aS'after'
p2203
aS'blacker'
p2204
aS'sally'
p2205
aS'happening'
p2206
aS"adam's"
p2207
aS'lasted'
p2208
aS'quagmire'
p2209
aS'basket'
p2210
atp2211
Rp2212
sVAE0
p2213
g1
((lp2214
S'angelica'
p2215
aS'ambassador'
p2216
aS'advice'
p2217
aS'admire'
p2218
aS'accelerated'
p2219
aS'advantages'
p2220
aS'campaigning'
p2221
aS'manhattan'
p2222
atp2223
Rp2224
sVAE2
p2225
g1
((lp2226
S'satisfaction'
p2227
aS'ammunition'
p2228
aS'abolitionists'
p2229
aS'alexander'
p2230
atp2231
Rp2232
sVER1LDZ
p2233
g1
((lp2234
S"world's"
p2235
atp2236
Rp2237
sVOW1ST
p2238
g1
((lp2239
S'most'
p2240
aS'post'
p2241
aS'coast'
p2242
atp2243
Rp2244
sVAE1M
p2245
g1
((lp2246
S'damn'
p2247
aS'am'
p2248
aS'sam'
p2249
atp2250
Rp2251
sVAE1N
p2252
g1
((lp2253
S'van'
p2254
aS'an'
p2255
aS'fan'
p2256
aS'plan'
p2257
aS'man'
p2258
aS'than'
p2259
aS'can'
p2260
atp2261
Rp2262
sVAE1K
p2263
g1
((lp2264
S'smack'
p2265
aS'black'
p2266
aS'back'
p2267
aS'crack'
p2268
atp2269
Rp2270
sS'AA0N'
p2271
g1
((lp2272
S'bonsoir'
p2273
atp2274
Rp2275
sVAE1D
p2276
g1
((lp2277
S'had'
p2278
aS'mad'
p2279
atp2280
Rp2281
sVAE1G
p2282
g1
((lp2283
S'flag'
p2284
aS'dag'
p2285
aS'brag'
p2286
atp2287
Rp2288
sVAE1F
p2289
g1
((lp2290
S'staff'
p2291
aS'laugh'
p2292
aS'half'
p2293
atp2294
Rp2295
sVAE1B
p2296
g1
((lp2297
S'grab'
p2298
atp2299
Rp2300
sVAO1RKS
p2301
g1
((lp2302
S"york's"
p2303
atp2304
Rp2305
sVAE1Z
p2306
g1
((lp2307
S'as'
p2308
aS'has'
p2309
atp2310
Rp2311
sVAE1T
p2312
g1
((lp2313
S'at'
p2314
aS'that'
p2315
atp2316
Rp2317
sVAE1V
p2318
g1
((lp2319
S'have'
p2320
atp2321
Rp2322
sVER0M
p2323
g1
((lp2324
S'from'
p2325
atp2326
Rp2327
sVAE1S
p2328
g1
((lp2329
S'ass'
p2330
aS'mass'
p2331
aS'last'
p2332
atp2333
Rp2334
sVAO1NTS
p2335
g1
((lp2336
S'wants'
p2337
atp2338
Rp2339
sVAE1NGKS
p2340
g1
((lp2341
S'thanks'
p2342
atp2343
Rp2344
sVAO1RTS
p2345
g1
((lp2346
S'sorts'
p2347
atp2348
Rp2349
sVAY0
p2350
g1
((lp2351
S'ideals'
p2352
atp2353
Rp2354
sVAO1RTH
p2355
g1
((lp2356
S'north'
p2357
aS'fourth'
p2358
atp2359
Rp2360
sVAH1NCHT
p2361
g1
((lp2362
S'punched'
p2363
atp2364
Rp2365
sVAA1CH
p2366
g1
((lp2367
S'watch'
p2368
atp2369
Rp2370
sVAH1BZ
p2371
g1
((lp2372
S'stubs'
p2373
atp2374
Rp2375
sVIY1LZ
p2376
g1
((lp2377
S'feels'
p2378
atp2379
Rp2380
sVAO1LZ
p2381
g1
((lp2382
S'calls'
p2383
atp2384
Rp2385
sVIH1TH
p2386
g1
((lp2387
S'with'
p2388
atp2389
Rp2390
sVIH1TS
p2391
g1
((lp2392
S'sits'
p2393
aS'wits'
p2394
aS"it's"
p2395
aS'pits'
p2396
aS'fits'
p2397
aS'gets'
p2398
aS'its'
p2399
atp2400
Rp2401
sVAE1CH
p2402
g1
((lp2403
S'catch'
p2404
aS'scratch'
p2405
aS'snatch'
p2406
aS'match'
p2407
aS'hatch'
p2408
atp2409
Rp2410
sVEY1JH
p2411
g1
((lp2412
S'age'
p2413
atp2414
Rp2415
sVIY1LD
p2416
g1
((lp2417
S'field'
p2418
aS'yield'
p2419
atp2420
Rp2421
sVER1LD
p2422
g1
((lp2423
S'world'
p2424
atp2425
Rp2426
sVAA1RJH
p2427
g1
((lp2428
S'charge'
p2429
atp2430
Rp2431
sVOW1
p2432
g1
((lp2433
S'protean'
p2434
aS'show'
p2435
aS'throwing'
p2436
aS'colder'
p2437
aS'over'
p2438
aS'global'
p2439
aS'loco'
p2440
aS'openly'
p2441
aS'loaded'
p2442
aS'go'
p2443
aS'polish'
p2444
aS'total'
p2445
aS'blow'
p2446
aS'oldest'
p2447
aS'bolder'
p2448
aS'no'
p2449
aS'throw'
p2450
aS'only'
p2451
aS'going'
p2452
aS'slowly'
p2453
aS'poet'
p2454
aS'moses'
p2455
aS'local'
p2456
aS'toe'
p2457
aS'yo'
p2458
aS'though'
p2459
aS'socially'
p2460
aS'rochambeau'
p2461
aS'lovin'
p2462
aS'moment'
p2463
aS'slow'
p2464
aS'soldiers'
p2465
aS'know'
p2466
aS'grow'
p2467
aS'shoulder'
p2468
aS'lower'
p2469
aS'ok'
p2470
aS'oh'
p2471
aS'older'
p2472
aS'o'
p2473
aS'bow'
p2474
aS'soldier'
p2475
aS'so'
p2476
aS'social'
p2477
atp2478
Rp2479
sVOW0
p2480
g1
((lp2481
S'protean'
p2482
atp2483
Rp2484
sVOW2
p2485
g1
((lp2486
S'okay'
p2487
atp2488
Rp2489
sVIH0DH
p2490
g1
((lp2491
S'with'
p2492
atp2493
Rp2494
sVIY1D
p2495
g1
((lp2496
S'need'
p2497
aS"he'd"
p2498
aS"she'd"
p2499
aS'lead'
p2500
aS"we'd"
p2501
atp2502
Rp2503
sVAH1NDZ
p2504
g1
((lp2505
S'funds'
p2506
atp2507
Rp2508
sVIY1K
p2509
g1
((lp2510
S'week'
p2511
aS'seek'
p2512
aS'weak'
p2513
aS'sneak'
p2514
atp2515
Rp2516
sVEH1ND
p2517
g1
((lp2518
S'fend'
p2519
aS'end'
p2520
aS'lend'
p2521
aS'send'
p2522
aS'bend'
p2523
aS'friend'
p2524
atp2525
Rp2526
sVIY1M
p2527
g1
((lp2528
S'dream'
p2529
aS'scream'
p2530
atp2531
Rp2532
sVIY1L
p2533
g1
((lp2534
S'real'
p2535
aS'feel'
p2536
aS"we'll"
p2537
aS'steal'
p2538
aS"he'll"
p2539
atp2540
Rp2541
sVIY1N
p2542
g1
((lp2543
S'seen'
p2544
aS'queen'
p2545
aS'green'
p2546
aS'mean'
p2547
atp2548
Rp2549
sVIY1P
p2550
g1
((lp2551
S'sleep'
p2552
aS'keep'
p2553
atp2554
Rp2555
sVIY1S
p2556
g1
((lp2557
S'piece'
p2558
aS'cease'
p2559
aS'peace'
p2560
aS'nice'
p2561
atp2562
Rp2563
sVIY1R
p2564
g1
((lp2565
S'hear'
p2566
aS"we're"
p2567
aS'here'
p2568
atp2569
Rp2570
sS'IY1'
p2571
g1
((lp2572
S'seeing'
p2573
aS'oui'
p2574
aS've'
p2575
aS'people'
p2576
aS'being'
p2577
aS'tea'
p2578
aS'jesus'
p2579
aS'see'
p2580
aS'sea'
p2581
aS'fleeting'
p2582
aS'reasons'
p2583
aS'really'
p2584
aS'even'
p2585
aS'creole'
p2586
aS'needy'
p2587
aS'leading'
p2588
aS'meanwhile'
p2589
aS'three'
p2590
aS'legal'
p2591
aS'fleeing'
p2592
aS'bleeding'
p2593
aS'secret'
p2594
aS'eating'
p2595
aS'easy'
p2596
aS'speaker'
p2597
aS'he'
p2598
aS'meeting'
p2599
aS'she'
p2600
aS'be'
p2601
aS'we'
p2602
aS'hero'
p2603
aS'lee'
p2604
aS'seeking'
p2605
aS'de'
p2606
aS'free'
p2607
aS'reason'
p2608
aS'fee'
p2609
aS'grievance'
p2610
aS'key'
p2611
aS'previous'
p2612
aS'je'
p2613
aS'spree'
p2614
aS'd'
p2615
aS'me'
p2616
aS'feeling'
p2617
aS'e'
p2618
aS'treatise'
p2619
aS'freedom'
p2620
aS'emerge'
p2621
aS'equal'
p2622
aS'seated'
p2623
aS'treaty'
p2624
aS'p'
p2625
aS'either'
p2626
aS'treason'
p2627
aS'geniuses'
p2628
atp2629
Rp2630
sVIY1T
p2631
g1
((lp2632
S'beat'
p2633
aS'seat'
p2634
aS'feet'
p2635
aS'heat'
p2636
aS'street'
p2637
aS'treat'
p2638
aS'meet'
p2639
atp2640
Rp2641
sVIY1V
p2642
g1
((lp2643
S'leave'
p2644
aS"we've"
p2645
aS'sleeve'
p2646
atp2647
Rp2648
sVIY1Z
p2649
g1
((lp2650
S'these'
p2651
aS'seize'
p2652
aS"he's"
p2653
atp2654
Rp2655
sVAO1LD
p2656
g1
((lp2657
S'called'
p2658
atp2659
Rp2660
sVAY1RZ
p2661
g1
((lp2662
S'fires'
p2663
aS'hires'
p2664
atp2665
Rp2666
sVAO1ST
p2667
g1
((lp2668
S'last'
p2669
aS'lost'
p2670
atp2671
Rp2672
sVIH1NGKS
p2673
g1
((lp2674
S'thinks'
p2675
atp2676
Rp2677
sVAH0V
p2678
g1
((lp2679
S'of'
p2680
atp2681
Rp2682
sVAH0T
p2683
g1
((lp2684
S'that'
p2685
atp2686
Rp2687
sS'AH0S'
p2688
g1
((lp2689
S'casse'
p2690
atp2691
Rp2692
sVAH0Z
p2693
g1
((lp2694
S'has'
p2695
aS'was'
p2696
atp2697
Rp2698
sVAH0N
p2699
g1
((lp2700
S'an'
p2701
aS'can'
p2702
aS'been'
p2703
aS'than'
p2704
atp2705
Rp2706
sVAH0M
p2707
g1
((lp2708
S"i'm"
p2709
atp2710
Rp2711
sVIH1Z
p2712
g1
((lp2713
S'is'
p2714
aS'his'
p2715
aS'says'
p2716
atp2717
Rp2718
sVIH1T
p2719
g1
((lp2720
S'spit'
p2721
aS'sit'
p2722
aS'get'
p2723
aS'it'
p2724
aS'split'
p2725
aS'bit'
p2726
aS'shit'
p2727
atp2728
Rp2729
sVIH1V
p2730
g1
((lp2731
S'live'
p2732
aS'give'
p2733
atp2734
Rp2735
sVIH1P
p2736
g1
((lp2737
S'skip'
p2738
aS'tip'
p2739
aS'drip'
p2740
aS'slip'
p2741
aS'strip'
p2742
aS'ship'
p2743
atp2744
Rp2745
sVIH1R
p2746
g1
((lp2747
S'dear'
p2748
aS'beer'
p2749
aS"we're"
p2750
atp2751
Rp2752
sVIH1S
p2753
g1
((lp2754
S'this'
p2755
aS'miss'
p2756
aS'kiss'
p2757
aS'piss'
p2758
atp2759
Rp2760
sVIH1L
p2761
g1
((lp2762
S"we'll"
p2763
aS'til'
p2764
aS'till'
p2765
aS'skill'
p2766
aS'still'
p2767
aS'quill'
p2768
atp2769
Rp2770
sVIH1M
p2771
g1
((lp2772
S'him'
p2773
atp2774
Rp2775
sVIH1N
p2776
g1
((lp2777
S'win'
p2778
aS'when'
p2779
aS'kin'
p2780
aS'been'
p2781
aS'in'
p2782
atp2783
Rp2784
sVIH1K
p2785
g1
((lp2786
S'prick'
p2787
aS'sick'
p2788
aS'pick'
p2789
aS'quick'
p2790
aS'chick'
p2791
aS'thick'
p2792
atp2793
Rp2794
sVIH1D
p2795
g1
((lp2796
S'did'
p2797
aS'hid'
p2798
aS'kid'
p2799
atp2800
Rp2801
sVIH1F
p2802
g1
((lp2803
S'if'
p2804
atp2805
Rp2806
sVIH1G
p2807
g1
((lp2808
S'dig'
p2809
atp2810
Rp2811
sVAO1Z
p2812
g1
((lp2813
S'jaws'
p2814
aS'cause'
p2815
aS'was'
p2816
atp2817
Rp2818
sVAO1S
p2819
g1
((lp2820
S'toss'
p2821
aS'ross'
p2822
atp2823
Rp2824
sVAO1R
p2825
g1
((lp2826
S'or'
p2827
aS'door'
p2828
aS'for'
p2829
aS'pour'
p2830
aS'your'
p2831
aS'four'
p2832
aS'war'
p2833
aS'whore'
p2834
aS'more'
p2835
atp2836
Rp2837
sVAO1P
p2838
g1
((lp2839
S'top'
p2840
aS'drop'
p2841
atp2842
Rp2843
sVAO1T
p2844
g1
((lp2845
S'fraught'
p2846
aS'caught'
p2847
aS'thought'
p2848
aS'fought'
p2849
aS'taught'
p2850
aS'lot'
p2851
aS'ought'
p2852
atp2853
Rp2854
sVAO1K
p2855
g1
((lp2856
S'gawk'
p2857
aS'talk'
p2858
aS'walk'
p2859
atp2860
Rp2861
sVAO1N
p2862
g1
((lp2863
S'on'
p2864
aS'dawn'
p2865
aS'gone'
p2866
atp2867
Rp2868
sVAO1L
p2869
g1
((lp2870
S'wall'
p2871
aS'stall'
p2872
aS'ball'
p2873
aS'fall'
p2874
atp2875
Rp2876
sVAH1TS
p2877
g1
((lp2878
S"what's"
p2879
atp2880
Rp2881
sVIH1FTS
p2882
g1
((lp2883
S'gifts'
p2884
aS'shifts'
p2885
atp2886
Rp2887
sVAO1F
p2888
g1
((lp2889
S'off'
p2890
atp2891
Rp2892
sVOW1TH
p2893
g1
((lp2894
S'both'
p2895
atp2896
Rp2897
sVUW2
p2898
g1
((lp2899
S'july'
p2900
aS'superpower'
p2901
atp2902
Rp2903
sVUW1
p2904
g1
((lp2905
S'doing'
p2906
aS'through'
p2907
aS'shoe'
p2908
aS'crew'
p2909
aS"louis's"
p2910
aS'suicide'
p2911
aS'rumors'
p2912
aS'union'
p2913
aS'true'
p2914
aS'two'
p2915
aS'unite'
p2916
aS'dueling'
p2917
aS'to'
p2918
aS'future'
p2919
aS'too'
p2920
aS'mutiny'
p2921
aS'new'
p2922
aS'you'
p2923
aS'movement'
p2924
aS'do'
p2925
aS'knew'
p2926
aS'duels'
p2927
aS'students'
p2928
aS'who'
p2929
aS'ooh'
p2930
aS'drew'
p2931
aS'scrutiny'
p2932
aS'sooner'
p2933
aS'useless'
p2934
aS'truly'
p2935
aS'super'
p2936
aS'ruinous'
p2937
aS'duel'
p2938
aS'ruined'
p2939
aS'fluent'
p2940
aS'stupid'
p2941
aS'brew'
p2942
aS'wounded'
p2943
aS'schoolboy'
p2944
atp2945
Rp2946
sVUW0
p2947
g1
((lp2948
S'uniquely'
p2949
aS'oui'
p2950
aS'lieutenant'
p2951
aS'neutrality'
p2952
aS'tomorrow'
p2953
aS'today'
p2954
atp2955
Rp2956
sVOW1KS
p2957
g1
((lp2958
S'folks'
p2959
atp2960
Rp2961
sVAY1NDZ
p2962
g1
((lp2963
S'winds'
p2964
aS'finds'
p2965
atp2966
Rp2967
sVIH1FS
p2968
g1
((lp2969
S'gifts'
p2970
atp2971
Rp2972
sVOY1N
p2973
g1
((lp2974
S'join'
p2975
aS'goin'
p2976
atp2977
Rp2978
sVOY1S
p2979
g1
((lp2980
S'voice'
p2981
aS'choice'
p2982
atp2983
Rp2984
sVEH1LTH
p2985
g1
((lp2986
S'health'
p2987
aS'wealth'
p2988
atp2989
Rp2990
sVAH1MZ
p2991
g1
((lp2992
S'comes'
p2993
atp2994
Rp2995
sVUH1R
p2996
g1
((lp2997
S'poor'
p2998
aS"you're"
p2999
aS'sure'
p3000
aS'your'
p3001
atp3002
Rp3003
sVUH1T
p3004
g1
((lp3005
S'put'
p3006
atp3007
Rp3008
sVUH1K
p3009
g1
((lp3010
S'rook'
p3011
aS'book'
p3012
aS'took'
p3013
aS'look'
p3014
atp3015
Rp3016
sVUH1L
p3017
g1
((lp3018
S'pull'
p3019
aS'full'
p3020
atp3021
Rp3022
sVUH1D
p3023
g1
((lp3024
S'could'
p3025
aS'good'
p3026
aS"you'd"
p3027
aS'would'
p3028
aS'should'
p3029
atp3030
Rp3031
sVOW1Z
p3032
g1
((lp3033
S'foes'
p3034
aS'knows'
p3035
aS'goes'
p3036
aS'those'
p3037
aS'close'
p3038
atp3039
Rp3040
sVAY1NZ
p3041
g1
((lp3042
S'lines'
p3043
atp3044
Rp3045
sVOW1P
p3046
g1
((lp3047
S'hope'
p3048
atp3049
Rp3050
sVOW1S
p3051
g1
((lp3052
S'close'
p3053
aS'most'
p3054
atp3055
Rp3056
sVOW1T
p3057
g1
((lp3058
S'vote'
p3059
aS'quote'
p3060
aS'note'
p3061
aS'wrote'
p3062
atp3063
Rp3064
sVOW1K
p3065
g1
((lp3066
S'broke'
p3067
atp3068
Rp3069
sVOW1M
p3070
g1
((lp3071
S'home'
p3072
atp3073
Rp3074
sVOW1L
p3075
g1
((lp3076
S'goal'
p3077
aS'stole'
p3078
aS'soul'
p3079
aS'coal'
p3080
aS'whole'
p3081
aS'roll'
p3082
atp3083
Rp3084
sVOW1N
p3085
g1
((lp3086
S'own'
p3087
aS'mon'
p3088
aS"don't"
p3089
atp3090
Rp3091
sVAY1ND
p3092
g1
((lp3093
S'blind'
p3094
aS'kind'
p3095
aS'mind'
p3096
aS'signed'
p3097
aS'find'
p3098
aS'wind'
p3099
atp3100
Rp3101
sVOW1B
p3102
g1
((lp3103
S'job'
p3104
atp3105
Rp3106
sVAA1KS
p3107
g1
((lp3108
S'box'
p3109
aS'blocks'
p3110
aS'fox'
p3111
aS'socks'
p3112
aS'frocks'
p3113
aS'knox'
p3114
atp3115
Rp3116
sVOW1D
p3117
g1
((lp3118
S'load'
p3119
aS'rowed'
p3120
aS'code'
p3121
atp3122
Rp3123
sVAA1BZ
p3124
g1
((lp3125
S'robs'
p3126
atp3127
Rp3128
sVUW1PS
p3129
g1
((lp3130
S'troops'
p3131
atp3132
Rp3133
sVER0Z
p3134
g1
((lp3135
S'yours'
p3136
aS'years'
p3137
atp3138
Rp3139
sVEY1ND
p3140
g1
((lp3141
S'reigned'
p3142
atp3143
Rp3144
sVAA1PS
p3145
g1
((lp3146
S'pops'
p3147
aS'cops'
p3148
aS'stops'
p3149
atp3150
Rp3151
sVAA1PT
p3152
g1
((lp3153
S'dropped'
p3154
atp3155
Rp3156
sVEY1NJH
p3157
g1
((lp3158
S'change'
p3159
atp3160
Rp3161
sVEY1NT
p3162
g1
((lp3163
S"ain't"
p3164
atp3165
Rp3166
sVEY1NZ
p3167
g1
((lp3168
S'brains'
p3169
aS'reins'
p3170
aS"brain's"
p3171
atp3172
Rp3173
sVAE1NS
p3174
g1
((lp3175
S'dance'
p3176
aS'chance'
p3177
aS'stance'
p3178
aS'france'
p3179
atp3180
Rp3181
sVAE1NT
p3182
g1
((lp3183
S'plant'
p3184
aS"can't"
p3185
atp3186
Rp3187
sVEH1RZ
p3188
g1
((lp3189
S"there's"
p3190
atp3191
Rp3192
sVAE1NZ
p3193
g1
((lp3194
S"man's"
p3195
aS'hands'
p3196
atp3197
Rp3198
sVAE1ND
p3199
g1
((lp3200
S'and'
p3201
aS'brand'
p3202
aS'land'
p3203
aS'stand'
p3204
aS'hand'
p3205
atp3206
Rp3207
sVAE1NG
p3208
g1
((lp3209
S'hang'
p3210
atp3211
Rp3212
sVIY1CH
p3213
g1
((lp3214
S'speech'
p3215
aS'teach'
p3216
aS'reach'
p3217
aS'peach'
p3218
aS'each'
p3219
atp3220
Rp3221
sVUW1Z
p3222
g1
((lp3223
S'whose'
p3224
aS'use'
p3225
aS"who's"
p3226
aS'choose'
p3227
aS'lose'
p3228
atp3229
Rp3230
sVUW1V
p3231
g1
((lp3232
S'move'
p3233
aS"you've"
p3234
aS'prove'
p3235
atp3236
Rp3237
sVUW1T
p3238
g1
((lp3239
S'shoot'
p3240
aS'suit'
p3241
atp3242
Rp3243
sVUW1S
p3244
g1
((lp3245
S'use'
p3246
atp3247
Rp3248
sVUW1R
p3249
g1
((lp3250
S"you're"
p3251
atp3252
Rp3253
sVUW1P
p3254
g1
((lp3255
S'group'
p3256
atp3257
Rp3258
sVUW1M
p3259
g1
((lp3260
S'room'
p3261
aS'boom'
p3262
atp3263
Rp3264
sVUW1L
p3265
g1
((lp3266
S'fool'
p3267
aS"you'll"
p3268
aS'school'
p3269
atp3270
Rp3271
sVUW1D
p3272
g1
((lp3273
S"you'd"
p3274
atp3275
Rp3276
sVIH1CH
p3277
g1
((lp3278
S'which'
p3279
aS'rich'
p3280
atp3281
Rp3282
sVAA1RLZ
p3283
g1
((lp3284
S'charles'
p3285
atp3286
Rp3287
sVOW1NT
p3288
g1
((lp3289
S"won't"
p3290
aS"don't"
p3291
atp3292
Rp3293
sVIH1SHT
p3294
g1
((lp3295
S'wished'
p3296
atp3297
Rp3298
sVEH1NS
p3299
g1
((lp3300
S'whence'
p3301
atp3302
Rp3303
sVEH1NT
p3304
g1
((lp3305
S'meant'
p3306
aS'spent'
p3307
aS'cent'
p3308
aS'went'
p3309
aS'scent'
p3310
aS'sent'
p3311
atp3312
Rp3313
sVEH1NZ
p3314
g1
((lp3315
S"when's"
p3316
aS'tens'
p3317
aS'friends'
p3318
atp3319
Rp3320
sVAE1PT
p3321
g1
((lp3322
S'kept'
p3323
atp3324
Rp3325
sVEH1KST
p3326
g1
((lp3327
S'next'
p3328
atp3329
Rp3330
sVAA1B
p3331
g1
((lp3332
S'rob'
p3333
aS'job'
p3334
atp3335
Rp3336
sVAA1D
p3337
g1
((lp3338
S'god'
p3339
atp3340
Rp3341
sVAA1KT
p3342
g1
((lp3343
S'shocked'
p3344
atp3345
Rp3346
sVAO1RJH
p3347
g1
((lp3348
S'george'
p3349
atp3350
Rp3351
sVAA1K
p3352
g1
((lp3353
S'lock'
p3354
aS'rock'
p3355
aS'cock'
p3356
aS'knock'
p3357
aS'walk'
p3358
atp3359
Rp3360
sVAA1L
p3361
g1
((lp3362
S'fall'
p3363
atp3364
Rp3365
sVAA1N
p3366
g1
((lp3367
S'on'
p3368
aS'non'
p3369
aS'john'
p3370
aS'mon'
p3371
atp3372
Rp3373
sVAA1P
p3374
g1
((lp3375
S'top'
p3376
aS'drop'
p3377
aS'stop'
p3378
aS'pop'
p3379
atp3380
Rp3381
sVAA1S
p3382
g1
((lp3383
S'ross'
p3384
atp3385
Rp3386
sVAA1R
p3387
g1
((lp3388
S'far'
p3389
aS'our'
p3390
aS'r'
p3391
aS'are'
p3392
atp3393
Rp3394
sVAA1T
p3395
g1
((lp3396
S'plot'
p3397
aS'squat'
p3398
aS'shot'
p3399
aS'pot'
p3400
aS'spot'
p3401
aS'hot'
p3402
aS'lot'
p3403
aS'not'
p3404
aS'got'
p3405
aS'caught'
p3406
atp3407
Rp3408
sVAA1Z
p3409
g1
((lp3410
S'cause'
p3411
aS'was'
p3412
atp3413
Rp3414
sVER1TH
p3415
g1
((lp3416
S'worth'
p3417
atp3418
Rp3419
s.