ccollections
defaultdict
p0
(c__main__
dd
p1
tp2
Rp3
I1
g0
(c__builtin__
float
p4
tp5
Rp6
I0
F0.029411764705882353
ssI2
g0
(g4
tp7
Rp8
I0
F0.05042016806722689
sI1
F0.02100840336134454
ssI3
g0
(g4
tp9
Rp10
I0
F0.0546218487394958
sI1
F0.02100840336134454
sI2
F0.03361344537815126
ssI4
g0
(g4
tp11
Rp12
I0
F0.029411764705882353
sI1
F0.01680672268907563
sI2
F0.0546218487394958
sI3
F0.03361344537815126
ssI5
g0
(g4
tp13
Rp14
I0
F0.025210084033613446
sI1
F0.029411764705882353
sI2
F0.04201680672268908
sI3
F0.046218487394957986
sI4
F0.012605042016806723
ssI6
g0
(g4
tp15
Rp16
I0
F0.04201680672268908
sI1
F0.029411764705882353
sI2
F0.058823529411764705
sI3
F0.029411764705882353
sI4
F0.0546218487394958
sI5
F0.02100840336134454
ssI7
g0
(g4
tp17
Rp18
I0
F0.03361344537815126
sI1
F0.02100840336134454
sI2
F0.037815126050420166
sI3
F0.06302521008403361
sI4
F0.037815126050420166
sI5
F0.025210084033613446
sI6
F0.01680672268907563
ssI8
g0
(g4
tp19
Rp20
I0
F0.04201680672268908
sI1
F0.03361344537815126
sI2
F0.025210084033613446
sI3
F0.03361344537815126
sI4
F0.046218487394957986
sI5
F0.029411764705882353
sI6
F0.012605042016806723
sI7
F0.025210084033613446
ssI9
g0
(g4
tp21
Rp22
I0
F0.012605042016806723
sI1
F0.01680672268907563
sI2
F0.05042016806722689
sI3
F0.029411764705882353
sI4
F0.02100840336134454
sI5
F0.04201680672268908
sI6
F0.037815126050420166
sI7
F0.04201680672268908
sI8
F0.025210084033613446
ssI10
g0
(g4
tp23
Rp24
I0
F0.02100840336134454
sI1
F0.058823529411764705
sI2
F0.06302521008403361
sI3
F0.0546218487394958
sI4
F0.037815126050420166
sI5
F0.05042016806722689
sI6
F0.05042016806722689
sI7
F0.029411764705882353
sI8
F0.029411764705882353
sI9
F0.02100840336134454
ssI11
g0
(g4
tp25
Rp26
I0
F0.029411764705882353
sI1
F0.02100840336134454
sI2
F0.03361344537815126
sI3
F0.02100840336134454
sI4
F0.012605042016806723
sI5
F0.02100840336134454
sI6
F0.03361344537815126
sI7
F0.03361344537815126
sI8
F0.029411764705882353
sI9
F0.025210084033613446
sI10
F0.02100840336134454
ssI12
g0
(g4
tp27
Rp28
I0
F0.0546218487394958
sI1
F0.029411764705882353
sI2
F0.0546218487394958
sI3
F0.037815126050420166
sI4
F0.037815126050420166
sI5
F0.025210084033613446
sI6
F0.05042016806722689
sI7
F0.025210084033613446
sI8
F0.029411764705882353
sI9
F0.046218487394957986
sI10
F0.0546218487394958
sI11
F0.012605042016806723
ssI13
g0
(g4
tp29
Rp30
I0
F0.025210084033613446
sI1
F0.04201680672268908
sI2
F0.04201680672268908
sI3
F0.03361344537815126
sI4
F0.03361344537815126
sI5
F0.03361344537815126
sI6
F0.03361344537815126
sI7
F0.05042016806722689
sI8
F0.037815126050420166
sI9
F0.04201680672268908
sI10
F0.03361344537815126
sI11
F0.01680672268907563
sI12
F0.029411764705882353
ssI14
g0
(g4
tp31
Rp32
I0
F0.02100840336134454
sI1
F0.046218487394957986
sI2
F0.05042016806722689
sI3
F0.029411764705882353
sI4
F0.0546218487394958
sI5
F0.029411764705882353
sI6
F0.037815126050420166
sI7
F0.0546218487394958
sI8
F0.04201680672268908
sI9
F0.06302521008403361
sI10
F0.02100840336134454
sI11
F0.03361344537815126
sI12
F0.025210084033613446
sI13
F0.01680672268907563
ssI15
g0
(g4
tp33
Rp34
I0
F0.029411764705882353
sI1
F0.01680672268907563
sI2
F0.02100840336134454
sI3
F0.012605042016806723
sI4
F0.025210084033613446
sI5
F0.03361344537815126
sI6
F0.029411764705882353
sI7
F0.03361344537815126
sI8
F0.046218487394957986
sI9
F0.025210084033613446
sI10
F0.004201680672268907
sI11
F0.02100840336134454
sI12
F0.03361344537815126
sI13
F0.037815126050420166
sI14
F0.02100840336134454
ssI16
g0
(g4
tp35
Rp36
I0
F0.029411764705882353
sI1
F0.029411764705882353
sI2
F0.03361344537815126
sI3
F0.03361344537815126
sI4
F0.04201680672268908
sI5
F0.046218487394957986
sI6
F0.05042016806722689
sI7
F0.037815126050420166
sI8
F0.02100840336134454
sI9
F0.008403361344537815
sI10
F0.03361344537815126
sI11
F0.025210084033613446
sI12
F0.05042016806722689
sI13
F0.02100840336134454
sI14
F0.03361344537815126
sI15
F0.029411764705882353
ssI17
g0
(g4
tp37
Rp38
I0
F0.025210084033613446
sI1
F0.04201680672268908
sI2
F0.07983193277310924
sI3
F0.02100840336134454
sI4
F0.037815126050420166
sI5
F0.05042016806722689
sI6
F0.03361344537815126
sI7
F0.06722689075630252
sI8
F0.046218487394957986
sI9
F0.05042016806722689
sI10
F0.03361344537815126
sI11
F0.029411764705882353
sI12
F0.0546218487394958
sI13
F0.058823529411764705
sI14
F0.03361344537815126
sI15
F0.03361344537815126
sI16
F0.04201680672268908
ssI18
g0
(g4
tp39
Rp40
I0
F0.037815126050420166
sI1
F0.03361344537815126
sI2
F0.025210084033613446
sI3
F0.04201680672268908
sI4
F0.037815126050420166
sI5
F0.03361344537815126
sI6
F0.0546218487394958
sI7
F0.037815126050420166
sI8
F0.03361344537815126
sI9
F0.037815126050420166
sI10
F0.037815126050420166
sI11
F0.046218487394957986
sI12
F0.058823529411764705
sI13
F0.03361344537815126
sI14
F0.029411764705882353
sI15
F0.046218487394957986
sI16
F0.025210084033613446
sI17
F0.03361344537815126
ssI19
g0
(g4
tp41
Rp42
I0
F0.029411764705882353
sI1
F0.029411764705882353
sI2
F0.06722689075630252
sI3
F0.037815126050420166
sI4
F0.037815126050420166
sI5
F0.037815126050420166
sI6
F0.046218487394957986
sI7
F0.058823529411764705
sI8
F0.037815126050420166
sI9
F0.03361344537815126
sI10
F0.046218487394957986
sI11
F0.05042016806722689
sI12
F0.02100840336134454
sI13
F0.037815126050420166
sI14
F0.025210084033613446
sI15
F0.037815126050420166
sI16
F0.03361344537815126
sI17
F0.06302521008403361
sI18
F0.037815126050420166
ssI20
g0
(g4
tp43
Rp44
I0
F0.02100840336134454
sI1
F0.025210084033613446
sI2
F0.03361344537815126
sI3
F0.0546218487394958
sI4
F0.02100840336134454
sI5
F0.03361344537815126
sI6
F0.04201680672268908
sI7
F0.03361344537815126
sI8
F0.04201680672268908
sI9
F0.025210084033613446
sI10
F0.05042016806722689
sI11
F0.02100840336134454
sI12
F0.025210084033613446
sI13
F0.0546218487394958
sI14
F0.01680672268907563
sI15
F0.029411764705882353
sI16
F0.029411764705882353
sI17
F0.046218487394957986
sI18
F0.037815126050420166
sI19
F0.0546218487394958
ssI21
g0
(g4
tp45
Rp46
I0
F0.046218487394957986
sI1
F0.037815126050420166
sI2
F0.058823529411764705
sI3
F0.025210084033613446
sI4
F0.046218487394957986
sI5
F0.025210084033613446
sI6
F0.05042016806722689
sI7
F0.037815126050420166
sI8
F0.046218487394957986
sI9
F0.0546218487394958
sI10
F0.029411764705882353
sI11
F0.037815126050420166
sI12
F0.012605042016806723
sI13
F0.037815126050420166
sI14
F0.03361344537815126
sI15
F0.029411764705882353
sI16
F0.037815126050420166
sI17
F0.05042016806722689
sI18
F0.037815126050420166
sI19
F0.029411764705882353
sI20
F0.02100840336134454
ssI22
g0
(g4
tp47
Rp48
I0
F0.025210084033613446
sI1
F0.02100840336134454
sI2
F0.02100840336134454
sI3
F0.008403361344537815
sI4
F0.02100840336134454
sI5
F0.01680672268907563
sI6
F0.012605042016806723
sI7
F0.037815126050420166
sI8
F0.025210084033613446
sI9
F0.025210084033613446
sI10
F0.02100840336134454
sI11
F0.029411764705882353
sI12
F0.04201680672268908
sI13
F0.01680672268907563
sI14
F0.037815126050420166
sI15
F0.01680672268907563
sI16
F0.037815126050420166
sI17
F0.01680672268907563
sI18
F0.04201680672268908
sI19
F0.037815126050420166
sI20
F0.029411764705882353
sI21
F0.03361344537815126
ssI23
g0
(g4
tp49
Rp50
I0
F0.04201680672268908
sI1
F0.037815126050420166
sI2
F0.03361344537815126
sI3
F0.037815126050420166
sI4
F0.025210084033613446
sI5
F0.01680672268907563
sI6
F0.046218487394957986
sI7
F0.029411764705882353
sI8
F0.046218487394957986
sI9
F0.046218487394957986
sI10
F0.0546218487394958
sI11
F0.029411764705882353
sI12
F0.037815126050420166
sI13
F0.03361344537815126
sI14
F0.025210084033613446
sI15
F0.02100840336134454
sI16
F0.03361344537815126
sI17
F0.0546218487394958
sI18
F0.05042016806722689
sI19
F0.04201680672268908
sI20
F0.025210084033613446
sI21
F0.03361344537815126
sI22
F0.012605042016806723
ssI24
g0
(g4
tp51
Rp52
I0
F0.025210084033613446
sI1
F0.012605042016806723
sI2
F0.037815126050420166
sI3
F0.037815126050420166
sI4
F0.029411764705882353
sI5
F0.025210084033613446
sI6
F0.04201680672268908
sI7
F0.04201680672268908
sI8
F0.046218487394957986
sI9
F0.029411764705882353
sI10
F0.037815126050420166
sI11
F0.037815126050420166
sI12
F0.037815126050420166
sI13
F0.05042016806722689
sI14
F0.04201680672268908
sI15
F0.05042016806722689
sI16
F0.037815126050420166
sI17
F0.046218487394957986
sI18
F0.03361344537815126
sI19
F0.02100840336134454
sI20
F0.03361344537815126
sI21
F0.025210084033613446
sI22
F0.025210084033613446
sI23
F0.03361344537815126
ssI25
g0
(g4
tp53
Rp54
I0
F0.03361344537815126
sI1
F0.037815126050420166
sI2
F0.04201680672268908
sI3
F0.046218487394957986
sI4
F0.03361344537815126
sI5
F0.01680672268907563
sI6
F0.008403361344537815
sI7
F0.05042016806722689
sI8
F0.01680672268907563
sI9
F0.02100840336134454
sI10
F0.03361344537815126
sI11
F0.05042016806722689
sI12
F0.025210084033613446
sI13
F0.029411764705882353
sI14
F0.029411764705882353
sI15
F0.029411764705882353
sI16
F0.037815126050420166
sI17
F0.037815126050420166
sI18
F0.029411764705882353
sI19
F0.025210084033613446
sI20
F0.02100840336134454
sI21
F0.046218487394957986
sI22
F0.012605042016806723
sI23
F0.046218487394957986
sI24
F0.04201680672268908
ssI26
g0
(g4
tp55
Rp56
I0
F0.029411764705882353
sI1
F0.03361344537815126
sI2
F0.01680672268907563
sI3
F0.03361344537815126
sI4
F0.037815126050420166
sI5
F0.02100840336134454
sI6
F0.02100840336134454
sI7
F0.0546218487394958
sI8
F0.012605042016806723
sI9
F0.025210084033613446
sI10
F0.03361344537815126
sI11
F0.029411764705882353
sI12
F0.025210084033613446
sI13
F0.04201680672268908
sI14
F0.037815126050420166
sI15
F0.04201680672268908
sI16
F0.03361344537815126
sI17
F0.02100840336134454
sI18
F0.04201680672268908
sI19
F0.025210084033613446
sI20
F0.037815126050420166
sI21
F0.04201680672268908
sI22
F0.02100840336134454
sI23
F0.029411764705882353
sI24
F0.02100840336134454
sI25
F0.012605042016806723
ssI27
g0
(g4
tp57
Rp58
I0
F0.04201680672268908
sI1
F0.012605042016806723
sI2
F0.03361344537815126
sI3
F0.03361344537815126
sI4
F0.02100840336134454
sI5
F0.025210084033613446
sI6
F0.046218487394957986
sI7
F0.046218487394957986
sI8
F0.025210084033613446
sI9
F0.04201680672268908
sI10
F0.03361344537815126
sI11
F0.025210084033613446
sI12
F0.01680672268907563
sI13
F0.04201680672268908
sI14
F0.04201680672268908
sI15
F0.029411764705882353
sI16
F0.01680672268907563
sI17
F0.03361344537815126
sI18
F0.029411764705882353
sI19
F0.046218487394957986
sI20
F0.03361344537815126
sI21
F0.037815126050420166
sI22
F0.029411764705882353
sI23
F0.03361344537815126
sI24
F0.0546218487394958
sI25
F0.01680672268907563
sI26
F0.025210084033613446
ssI28
g0
(g4
tp59
Rp60
I0
F0.02100840336134454
sI1
F0.025210084033613446
sI2
F0.029411764705882353
sI3
F0.025210084033613446
sI4
F0.012605042016806723
sI5
F0.025210084033613446
sI6
F0.04201680672268908
sI7
F0.02100840336134454
sI8
F0.02100840336134454
sI9
F0.029411764705882353
sI10
F0.029411764705882353
sI11
F0.02100840336134454
sI12
F0.02100840336134454
sI13
F0.008403361344537815
sI14
F0.025210084033613446
sI15
F0.03361344537815126
sI16
F0.04201680672268908
sI17
F0.03361344537815126
sI18
F0.01680672268907563
sI19
F0.04201680672268908
sI20
F0.02100840336134454
sI21
F0.05042016806722689
sI22
F0.03361344537815126
sI23
F0.029411764705882353
sI24
F0.025210084033613446
sI25
F0.058823529411764705
sI26
F0.02100840336134454
sI27
F0.004201680672268907
ssI29
g0
(g4
tp61
Rp62
I0
F0.02100840336134454
sI1
F0.025210084033613446
sI2
F0.01680672268907563
sI3
F0.008403361344537815
sI4
F0.029411764705882353
sI5
F0.012605042016806723
sI6
F0.012605042016806723
sI7
F0.01680672268907563
sI8
F0.01680672268907563
sI9
F0.01680672268907563
sI10
F0.037815126050420166
sI11
F0.037815126050420166
sI12
F0.03361344537815126
sI13
F0.037815126050420166
sI14
F0.01680672268907563
sI15
F0.05042016806722689
sI16
F0.025210084033613446
sI17
F0.01680672268907563
sI18
F0.03361344537815126
sI19
F0.037815126050420166
sI20
F0.025210084033613446
sI21
F0.025210084033613446
sI22
F0.029411764705882353
sI23
F0.02100840336134454
sI24
F0.046218487394957986
sI25
F0.03361344537815126
sI26
F0.03361344537815126
sI27
F0.025210084033613446
sI28
F0.03361344537815126
ssI30
g0
(g4
tp63
Rp64
I0
F0.012605042016806723
sI1
F0.025210084033613446
sI2
F0.02100840336134454
sI3
F0.012605042016806723
sI4
F0.012605042016806723
sI5
F0.025210084033613446
sI6
F0.029411764705882353
sI7
F0.025210084033613446
sI8
F0.004201680672268907
sI9
F0.02100840336134454
sI10
F0.04201680672268908
sI11
F0.01680672268907563
sI12
F0.02100840336134454
sI13
F0.037815126050420166
sI14
F0.01680672268907563
sI15
F0.025210084033613446
sI16
F0.025210084033613446
sI17
F0.046218487394957986
sI18
F0.01680672268907563
sI19
F0.01680672268907563
sI20
F0.025210084033613446
sI21
F0.02100840336134454
sI22
F0.025210084033613446
sI23
F0.02100840336134454
sI24
F0.004201680672268907
sI25
F0.02100840336134454
sI26
F0.02100840336134454
sI27
F0.02100840336134454
sI28
F0.037815126050420166
sI29
F0.01680672268907563
ssI31
g0
(g4
tp65
Rp66
I0
F0.029411764705882353
sI1
F0.025210084033613446
sI2
F0.037815126050420166
sI3
F0.012605042016806723
sI4
F0.008403361344537815
sI5
F0.01680672268907563
sI6
F0.029411764705882353
sI7
F0.004201680672268907
sI8
F0.012605042016806723
sI9
F0.037815126050420166
sI10
F0.037815126050420166
sI11
F0.012605042016806723
sI12
F0.02100840336134454
sI13
F0.05042016806722689
sI14
F0.037815126050420166
sI15
F0.02100840336134454
sI16
F0.04201680672268908
sI17
F0.04201680672268908
sI18
F0.029411764705882353
sI19
F0.029411764705882353
sI20
F0.01680672268907563
sI21
F0.06302521008403361
sI22
F0.012605042016806723
sI23
F0.029411764705882353
sI24
F0.02100840336134454
sI25
F0.037815126050420166
sI26
F0.025210084033613446
sI27
F0.025210084033613446
sI28
F0.01680672268907563
sI29
F0.025210084033613446
sI30
F0.025210084033613446
ssI32
g0
(g4
tp67
Rp68
I0
F0.012605042016806723
sI1
F0.02100840336134454
sI2
F0.025210084033613446
sI3
F0.03361344537815126
sI4
F0.025210084033613446
sI5
F0.02100840336134454
sI6
F0.03361344537815126
sI7
F0.02100840336134454
sI8
F0.01680672268907563
sI9
F0.01680672268907563
sI10
F0.02100840336134454
sI11
F0.008403361344537815
sI12
F0.012605042016806723
sI13
F0.025210084033613446
sI14
F0.02100840336134454
sI15
F0.01680672268907563
sI16
F0.008403361344537815
sI17
F0.029411764705882353
sI18
F0.025210084033613446
sI19
F0.04201680672268908
sI20
F0.03361344537815126
sI21
F0.02100840336134454
sI22
F0.02100840336134454
sI23
F0.025210084033613446
sI24
F0.025210084033613446
sI25
F0.025210084033613446
sI26
F0.029411764705882353
sI27
F0.025210084033613446
sI28
F0.04201680672268908
sI29
F0.02100840336134454
sI30
F0.01680672268907563
sI31
F0.004201680672268907
ssI33
g0
(g4
tp69
Rp70
I0
F0.02100840336134454
sI1
F0.01680672268907563
sI2
F0.004201680672268907
sI3
F0.025210084033613446
sI4
F0.012605042016806723
sI5
F0.012605042016806723
sI6
F0.025210084033613446
sI7
F0.037815126050420166
sI8
F0.01680672268907563
sI9
F0.025210084033613446
sI10
F0.029411764705882353
sI11
F0.025210084033613446
sI12
F0.02100840336134454
sI13
F0.025210084033613446
sI14
F0.029411764705882353
sI15
F0.012605042016806723
sI16
F0.012605042016806723
sI17
F0.012605042016806723
sI18
F0.02100840336134454
sI19
F0.025210084033613446
sI20
F0.025210084033613446
sI21
F0.03361344537815126
sI22
F0.02100840336134454
sI23
F0.029411764705882353
sI24
F0.025210084033613446
sI25
F0.02100840336134454
sI26
F0.02100840336134454
sI27
F0.008403361344537815
sI28
F0.03361344537815126
sI29
F0.01680672268907563
sI30
F0.029411764705882353
sI31
F0.02100840336134454
sI32
F0.012605042016806723
ssI34
g0
(g4
tp71
Rp72
I0
F0.02100840336134454
sI1
F0.008403361344537815
sI2
F0.0546218487394958
sI3
F0.004201680672268907
sI4
F0.012605042016806723
sI5
F0.025210084033613446
sI6
F0.029411764705882353
sI7
F0.012605042016806723
sI8
F0.01680672268907563
sI9
F0.01680672268907563
sI10
F0.01680672268907563
sI11
F0.01680672268907563
sI12
F0.012605042016806723
sI13
F0.008403361344537815
sI14
F0.029411764705882353
sI15
F0.012605042016806723
sI16
F0.025210084033613446
sI17
F0.029411764705882353
sI18
F0.025210084033613446
sI19
F0.025210084033613446
sI20
F0.01680672268907563
sI21
F0.025210084033613446
sI22
F0.037815126050420166
sI23
F0.02100840336134454
sI24
F0.029411764705882353
sI25
F0.025210084033613446
sI26
F0.02100840336134454
sI27
F0.029411764705882353
sI28
F0.037815126050420166
sI29
F0.004201680672268907
sI30
F0.025210084033613446
sI31
F0.02100840336134454
sI32
F0.012605042016806723
sI33
F0.01680672268907563
ssI35
g0
(g4
tp73
Rp74
I0
F0.008403361344537815
sI1
F0.008403361344537815
sI2
F0.02100840336134454
sI3
F0.008403361344537815
sI4
F0.025210084033613446
sI5
F0.008403361344537815
sI6
F0.025210084033613446
sI7
F0.008403361344537815
sI8
F0.008403361344537815
sI9
F0.008403361344537815
sI10
F0.008403361344537815
sI11
F0.01680672268907563
sI12
F0.008403361344537815
sI13
F0.012605042016806723
sI14
F0.008403361344537815
sI15
F0.012605042016806723
sI16
F0.008403361344537815
sI17
F0.01680672268907563
sI18
F0.02100840336134454
sI19
F0.008403361344537815
sI20
F0.012605042016806723
sI21
F0.02100840336134454
sI22
F0.012605042016806723
sI23
F0.01680672268907563
sI24
F0.037815126050420166
sI25
F0.008403361344537815
sI26
F0.012605042016806723
sI27
F0.012605042016806723
sI28
F0.008403361344537815
sI29
F0.03361344537815126
sI30
F0.01680672268907563
sI31
F0.008403361344537815
sI32
F0.01680672268907563
sI33
F0.012605042016806723
sI34
F0.008403361344537815
ssI36
g0
(g4
tp75
Rp76
I0
F0.01680672268907563
sI1
F0.01680672268907563
sI2
F0.01680672268907563
sI3
F0.02100840336134454
sI4
F0.012605042016806723
sI5
F0.025210084033613446
sI6
F0.037815126050420166
sI7
F0.012605042016806723
sI8
F0.025210084033613446
sI9
F0.02100840336134454
sI10
F0.029411764705882353
sI11
F0.012605042016806723
sI12
F0.02100840336134454
sI13
F0.008403361344537815
sI14
F0.03361344537815126
sI15
F0.01680672268907563
sI16
F0.029411764705882353
sI17
F0.02100840336134454
sI18
F0.004201680672268907
sI19
F0.01680672268907563
sI20
F0.008403361344537815
sI21
F0.02100840336134454
sI22
F0.012605042016806723
sI23
F0.037815126050420166
sI24
F0.008403361344537815
sI25
F0.025210084033613446
sI26
F0.01680672268907563
sI27
F0.01680672268907563
sI28
F0.025210084033613446
sI29
F0.02100840336134454
sI30
F0.029411764705882353
sI31
F0.05042016806722689
sI32
F0.01680672268907563
sI33
F0.012605042016806723
sI34
F0.02100840336134454
ssI37
g0
(g4
tp77
Rp78
I0
F0.008403361344537815
sI1
F0.008403361344537815
sI2
F0.01680672268907563
sI3
F0.004201680672268907
sI4
F0.004201680672268907
sI5
F0.012605042016806723
sI6
F0.025210084033613446
sI7
F0.02100840336134454
sI8
F0.012605042016806723
sI9
F0.008403361344537815
sI10
F0.008403361344537815
sI11
F0.008403361344537815
sI12
F0.012605042016806723
sI13
F0.02100840336134454
sI14
F0.025210084033613446
sI15
F0.004201680672268907
sI16
F0.012605042016806723
sI17
F0.012605042016806723
sI18
F0.01680672268907563
sI19
F0.01680672268907563
sI20
F0.01680672268907563
sI21
F0.004201680672268907
sI22
F0.02100840336134454
sI23
F0.025210084033613446
sI24
F0.008403361344537815
sI25
F0.029411764705882353
sI26
F0.012605042016806723
sI27
F0.008403361344537815
sI28
F0.01680672268907563
sI29
F0.012605042016806723
sI30
F0.012605042016806723
sI31
F0.025210084033613446
sI32
F0.004201680672268907
sI33
F0.029411764705882353
sI34
F0.008403361344537815
sI35
F0.008403361344537815
sI36
F0.012605042016806723
ssI38
g0
(g4
tp79
Rp80
I0
F0.012605042016806723
sI1
F0.008403361344537815
sI2
F0.012605042016806723
sI3
F0.01680672268907563
sI4
F0.01680672268907563
sI5
F0.012605042016806723
sI6
F0.01680672268907563
sI7
F0.012605042016806723
sI8
F0.029411764705882353
sI9
F0.01680672268907563
sI10
F0.012605042016806723
sI11
F0.012605042016806723
sI12
F0.01680672268907563
sI13
F0.029411764705882353
sI14
F0.025210084033613446
sI15
F0.02100840336134454
sI16
F0.01680672268907563
sI17
F0.025210084033613446
sI18
F0.012605042016806723
sI19
F0.025210084033613446
sI20
F0.008403361344537815
sI21
F0.01680672268907563
sI22
F0.01680672268907563
sI23
F0.01680672268907563
sI24
F0.01680672268907563
sI25
F0.008403361344537815
sI26
F0.029411764705882353
sI27
F0.012605042016806723
sI28
F0.02100840336134454
sI29
F0.02100840336134454
sI30
F0.012605042016806723
sI31
F0.03361344537815126
sI32
F0.01680672268907563
sI33
F0.01680672268907563
sI34
F0.02100840336134454
sI35
F0.008403361344537815
sI36
F0.037815126050420166
sI37
F0.012605042016806723
ssI39
g0
(g4
tp81
Rp82
I0
F0.004201680672268907
sI1
F0.008403361344537815
sI2
F0.012605042016806723
sI3
F0.008403361344537815
sI4
F0.01680672268907563
sI5
F0.004201680672268907
sI6
F0.008403361344537815
sI7
F0.01680672268907563
sI8
F0.008403361344537815
sI9
F0.02100840336134454
sI10
F0.01680672268907563
sI11
F0.01680672268907563
sI12
F0.01680672268907563
sI13
F0.02100840336134454
sI14
F0.012605042016806723
sI15
F0.012605042016806723
sI17
F0.01680672268907563
sI18
F0.01680672268907563
sI19
F0.01680672268907563
sI20
F0.029411764705882353
sI21
F0.012605042016806723
sI22
F0.012605042016806723
sI23
F0.004201680672268907
sI24
F0.004201680672268907
sI25
F0.02100840336134454
sI26
F0.01680672268907563
sI27
F0.029411764705882353
sI28
F0.004201680672268907
sI29
F0.008403361344537815
sI30
F0.025210084033613446
sI31
F0.012605042016806723
sI32
F0.008403361344537815
sI33
F0.01680672268907563
sI34
F0.012605042016806723
sI35
F0.02100840336134454
sI36
F0.004201680672268907
sI37
F0.01680672268907563
sI38
F0.025210084033613446
ssI40
g0
(g4
tp83
Rp84
I0
F0.01680672268907563
sI1
F0.01680672268907563
sI2
F0.012605042016806723
sI3
F0.004201680672268907
sI4
F0.004201680672268907
sI5
F0.004201680672268907
sI6
F0.012605042016806723
sI7
F0.004201680672268907
sI8
F0.008403361344537815
sI9
F0.004201680672268907
sI10
F0.012605042016806723
sI11
F0.008403361344537815
sI12
F0.004201680672268907
sI13
F0.012605042016806723
sI14
F0.029411764705882353
sI15
F0.008403361344537815
sI16
F0.008403361344537815
sI17
F0.01680672268907563
sI18
F0.004201680672268907
sI19
F0.012605042016806723
sI20
F0.008403361344537815
sI21
F0.008403361344537815
sI22
F0.01680672268907563
sI23
F0.008403361344537815
sI24
F0.008403361344537815
sI25
F0.01680672268907563
sI26
F0.025210084033613446
sI27
F0.01680672268907563
sI28
F0.008403361344537815
sI29
F0.008403361344537815
sI30
F0.008403361344537815
sI31
F0.02100840336134454
sI32
F0.029411764705882353
sI33
F0.008403361344537815
sI34
F0.008403361344537815
sI35
F0.008403361344537815
sI36
F0.008403361344537815
sI37
F0.02100840336134454
sI38
F0.01680672268907563
sI39
F0.008403361344537815
ssI41
g0
(g4
tp85
Rp86
I0
F0.008403361344537815
sI1
F0.012605042016806723
sI2
F0.029411764705882353
sI3
F0.004201680672268907
sI4
F0.004201680672268907
sI5
F0.004201680672268907
sI6
F0.004201680672268907
sI7
F0.008403361344537815
sI8
F0.02100840336134454
sI9
F0.008403361344537815
sI10
F0.01680672268907563
sI11
F0.02100840336134454
sI12
F0.01680672268907563
sI14
F0.012605042016806723
sI15
F0.012605042016806723
sI16
F0.02100840336134454
sI17
F0.02100840336134454
sI18
F0.008403361344537815
sI19
F0.025210084033613446
sI20
F0.01680672268907563
sI21
F0.01680672268907563
sI22
F0.004201680672268907
sI23
F0.01680672268907563
sI24
F0.02100840336134454
sI25
F0.025210084033613446
sI27
F0.03361344537815126
sI28
F0.01680672268907563
sI29
F0.025210084033613446
sI30
F0.02100840336134454
sI31
F0.004201680672268907
sI32
F0.008403361344537815
sI33
F0.01680672268907563
sI34
F0.008403361344537815
sI35
F0.012605042016806723
sI36
F0.012605042016806723
sI37
F0.012605042016806723
sI38
F0.004201680672268907
sI39
F0.02100840336134454
sI40
F0.004201680672268907
ssI42
g0
(g4
tp87
Rp88
I0
F0.004201680672268907
sI1
F0.008403361344537815
sI2
F0.02100840336134454
sI3
F0.01680672268907563
sI4
F0.029411764705882353
sI5
F0.008403361344537815
sI6
F0.008403361344537815
sI7
F0.012605042016806723
sI8
F0.012605042016806723
sI10
F0.02100840336134454
sI11
F0.025210084033613446
sI12
F0.01680672268907563
sI13
F0.008403361344537815
sI14
F0.012605042016806723
sI16
F0.004201680672268907
sI17
F0.01680672268907563
sI18
F0.008403361344537815
sI19
F0.012605042016806723
sI20
F0.004201680672268907
sI21
F0.02100840336134454
sI22
F0.01680672268907563
sI25
F0.012605042016806723
sI26
F0.025210084033613446
sI27
F0.008403361344537815
sI28
F0.012605042016806723
sI29
F0.02100840336134454
sI30
F0.012605042016806723
sI31
F0.008403361344537815
sI32
F0.01680672268907563
sI33
F0.012605042016806723
sI35
F0.01680672268907563
sI36
F0.012605042016806723
sI37
F0.004201680672268907
sI38
F0.004201680672268907
sI39
F0.008403361344537815
sI40
F0.008403361344537815
sI41
F0.012605042016806723
ssI43
g0
(g4
tp89
Rp90
I0
F0.012605042016806723
sI1
F0.004201680672268907
sI2
F0.008403361344537815
sI4
F0.008403361344537815
sI5
F0.012605042016806723
sI6
F0.012605042016806723
sI7
F0.008403361344537815
sI8
F0.004201680672268907
sI9
F0.01680672268907563
sI10
F0.012605042016806723
sI12
F0.008403361344537815
sI13
F0.008403361344537815
sI14
F0.008403361344537815
sI16
F0.012605042016806723
sI17
F0.01680672268907563
sI18
F0.008403361344537815
sI19
F0.012605042016806723
sI21
F0.004201680672268907
sI22
F0.012605042016806723
sI23
F0.008403361344537815
sI24
F0.008403361344537815
sI26
F0.012605042016806723
sI27
F0.008403361344537815
sI28
F0.008403361344537815
sI30
F0.01680672268907563
sI31
F0.012605042016806723
sI32
F0.008403361344537815
sI33
F0.01680672268907563
sI34
F0.008403361344537815
sI35
F0.004201680672268907
sI36
F0.012605042016806723
sI38
F0.008403361344537815
sI39
F0.004201680672268907
sI40
F0.008403361344537815
sI41
F0.02100840336134454
sI42
F0.008403361344537815
ssI44
g0
(g4
tp91
Rp92
I0
F0.012605042016806723
sI1
F0.004201680672268907
sI2
F0.012605042016806723
sI3
F0.004201680672268907
sI4
F0.012605042016806723
sI5
F0.004201680672268907
sI6
F0.037815126050420166
sI7
F0.012605042016806723
sI8
F0.004201680672268907
sI9
F0.01680672268907563
sI10
F0.02100840336134454
sI12
F0.008403361344537815
sI13
F0.012605042016806723
sI14
F0.004201680672268907
sI15
F0.01680672268907563
sI16
F0.012605042016806723
sI17
F0.008403361344537815
sI18
F0.004201680672268907
sI19
F0.004201680672268907
sI20
F0.004201680672268907
sI21
F0.004201680672268907
sI23
F0.012605042016806723
sI24
F0.025210084033613446
sI25
F0.012605042016806723
sI26
F0.02100840336134454
sI27
F0.012605042016806723
sI28
F0.004201680672268907
sI29
F0.02100840336134454
sI30
F0.02100840336134454
sI31
F0.004201680672268907
sI32
F0.004201680672268907
sI33
F0.008403361344537815
sI34
F0.004201680672268907
sI35
F0.008403361344537815
sI36
F0.01680672268907563
sI37
F0.012605042016806723
sI38
F0.01680672268907563
sI39
F0.004201680672268907
sI40
F0.012605042016806723
sI41
F0.004201680672268907
sI42
F0.012605042016806723
sI43
F0.004201680672268907
ssI45
g0
(g4
tp93
Rp94
I0
F0.004201680672268907
sI1
F0.012605042016806723
sI2
F0.012605042016806723
sI4
F0.012605042016806723
sI6
F0.008403361344537815
sI7
F0.012605042016806723
sI8
F0.004201680672268907
sI9
F0.004201680672268907
sI10
F0.008403361344537815
sI11
F0.012605042016806723
sI12
F0.004201680672268907
sI14
F0.02100840336134454
sI15
F0.004201680672268907
sI16
F0.008403361344537815
sI17
F0.008403361344537815
sI18
F0.004201680672268907
sI21
F0.004201680672268907
sI23
F0.008403361344537815
sI24
F0.004201680672268907
sI25
F0.008403361344537815
sI26
F0.008403361344537815
sI27
F0.008403361344537815
sI28
F0.012605042016806723
sI29
F0.01680672268907563
sI30
F0.01680672268907563
sI31
F0.008403361344537815
sI32
F0.02100840336134454
sI33
F0.012605042016806723
sI34
F0.01680672268907563
sI35
F0.008403361344537815
sI36
F0.004201680672268907
sI37
F0.008403361344537815
sI38
F0.004201680672268907
sI39
F0.004201680672268907
sI40
F0.02100840336134454
sI41
F0.008403361344537815
sI43
F0.012605042016806723
ssI46
g0
(g4
tp95
Rp96
I1
F0.004201680672268907
sI2
F0.008403361344537815
sI5
F0.004201680672268907
sI6
F0.008403361344537815
sI7
F0.008403361344537815
sI8
F0.008403361344537815
sI9
F0.004201680672268907
sI10
F0.004201680672268907
sI12
F0.004201680672268907
sI13
F0.004201680672268907
sI16
F0.008403361344537815
sI17
F0.008403361344537815
sI19
F0.01680672268907563
sI21
F0.008403361344537815
sI22
F0.012605042016806723
sI23
F0.004201680672268907
sI24
F0.004201680672268907
sI25
F0.012605042016806723
sI26
F0.004201680672268907
sI27
F0.008403361344537815
sI29
F0.004201680672268907
sI31
F0.008403361344537815
sI33
F0.012605042016806723
sI34
F0.012605042016806723
sI35
F0.008403361344537815
sI36
F0.004201680672268907
sI37
F0.008403361344537815
sI38
F0.008403361344537815
sI39
F0.008403361344537815
sI40
F0.008403361344537815
sI41
F0.012605042016806723
sI42
F0.004201680672268907
sI44
F0.004201680672268907
sI45
F0.004201680672268907
ssI47
g0
(g4
tp97
Rp98
I0
F0.004201680672268907
sI1
F0.008403361344537815
sI2
F0.004201680672268907
sI4
F0.01680672268907563
sI6
F0.008403361344537815
sI7
F0.004201680672268907
sI8
F0.012605042016806723
sI9
F0.008403361344537815
sI11
F0.008403361344537815
sI12
F0.004201680672268907
sI13
F0.008403361344537815
sI14
F0.008403361344537815
sI18
F0.004201680672268907
sI19
F0.012605042016806723
sI20
F0.008403361344537815
sI21
F0.004201680672268907
sI22
F0.012605042016806723
sI24
F0.004201680672268907
sI25
F0.008403361344537815
sI27
F0.004201680672268907
sI28
F0.008403361344537815
sI29
F0.004201680672268907
sI30
F0.01680672268907563
sI31
F0.01680672268907563
sI32
F0.004201680672268907
sI33
F0.008403361344537815
sI34
F0.008403361344537815
sI35
F0.008403361344537815
sI36
F0.008403361344537815
sI37
F0.004201680672268907
sI38
F0.008403361344537815
sI39
F0.008403361344537815
sI40
F0.01680672268907563
sI41
F0.008403361344537815
sI43
F0.004201680672268907
sI46
F0.004201680672268907
ssI48
g0
(g4
tp99
Rp100
I0
F0.004201680672268907
sI1
F0.008403361344537815
sI2
F0.004201680672268907
sI3
F0.004201680672268907
sI6
F0.008403361344537815
sI7
F0.008403361344537815
sI8
F0.012605042016806723
sI9
F0.004201680672268907
sI10
F0.008403361344537815
sI11
F0.012605042016806723
sI12
F0.004201680672268907
sI13
F0.004201680672268907
sI14
F0.01680672268907563
sI16
F0.008403361344537815
sI17
F0.008403361344537815
sI18
F0.004201680672268907
sI19
F0.008403361344537815
sI20
F0.008403361344537815
sI21
F0.008403361344537815
sI22
F0.004201680672268907
sI23
F0.01680672268907563
sI24
F0.008403361344537815
sI25
F0.004201680672268907
sI26
F0.008403361344537815
sI27
F0.012605042016806723
sI29
F0.008403361344537815
sI30
F0.01680672268907563
sI31
F0.004201680672268907
sI32
F0.004201680672268907
sI33
F0.008403361344537815
sI34
F0.004201680672268907
sI35
F0.004201680672268907
sI36
F0.01680672268907563
sI37
F0.012605042016806723
sI39
F0.004201680672268907
sI40
F0.008403361344537815
sI41
F0.004201680672268907
sI42
F0.004201680672268907
sI43
F0.004201680672268907
sI44
F0.004201680672268907
sI45
F0.008403361344537815
sI46
F0.008403361344537815
sI47
F0.012605042016806723
ssI49
g0
(g4
tp101
Rp102
I0
F0.004201680672268907
sI1
F0.004201680672268907
sI2
F0.004201680672268907
sI3
F0.008403361344537815
sI4
F0.012605042016806723
sI5
F0.012605042016806723
sI9
F0.008403361344537815
sI10
F0.004201680672268907
sI11
F0.008403361344537815
sI12
F0.012605042016806723
sI13
F0.008403361344537815
sI15
F0.004201680672268907
sI16
F0.004201680672268907
sI17
F0.01680672268907563
sI18
F0.01680672268907563
sI19
F0.004201680672268907
sI20
F0.004201680672268907
sI21
F0.008403361344537815
sI22
F0.004201680672268907
sI23
F0.008403361344537815
sI24
F0.008403361344537815
sI25
F0.004201680672268907
sI26
F0.004201680672268907
sI28
F0.004201680672268907
sI29
F0.004201680672268907
sI30
F0.008403361344537815
sI31
F0.004201680672268907
sI33
F0.004201680672268907
sI34
F0.012605042016806723
sI35
F0.012605042016806723
sI37
F0.012605042016806723
sI38
F0.004201680672268907
sI39
F0.008403361344537815
sI40
F0.004201680672268907
sI41
F0.004201680672268907
sI42
F0.008403361344537815
sI43
F0.008403361344537815
sI45
F0.004201680672268907
sI46
F0.004201680672268907
sI47
F0.012605042016806723
sI48
F0.004201680672268907
ssI50
g0
(g4
tp103
Rp104
I0
F0.004201680672268907
sI1
F0.008403361344537815
sI2
F0.01680672268907563
sI4
F0.008403361344537815
sI5
F0.004201680672268907
sI6
F0.012605042016806723
sI7
F0.012605042016806723
sI8
F0.004201680672268907
sI10
F0.012605042016806723
sI11
F0.004201680672268907
sI12
F0.004201680672268907
sI13
F0.012605042016806723
sI14
F0.004201680672268907
sI15
F0.004201680672268907
sI16
F0.004201680672268907
sI17
F0.008403361344537815
sI18
F0.008403361344537815
sI19
F0.004201680672268907
sI21
F0.004201680672268907
sI22
F0.004201680672268907
sI23
F0.008403361344537815
sI24
F0.012605042016806723
sI25
F0.01680672268907563
sI26
F0.008403361344537815
sI27
F0.004201680672268907
sI28
F0.012605042016806723
sI29
F0.004201680672268907
sI30
F0.008403361344537815
sI31
F0.008403361344537815
sI33
F0.008403361344537815
sI34
F0.012605042016806723
sI35
F0.004201680672268907
sI36
F0.008403361344537815
sI38
F0.004201680672268907
sI39
F0.004201680672268907
sI40
F0.004201680672268907
sI41
F0.008403361344537815
sI42
F0.004201680672268907
sI43
F0.01680672268907563
sI44
F0.008403361344537815
sI45
F0.012605042016806723
sI46
F0.01680672268907563
sI48
F0.008403361344537815
ssI51
g0
(g4
tp105
Rp106
I0
F0.008403361344537815
sI1
F0.004201680672268907
sI3
F0.004201680672268907
sI4
F0.004201680672268907
sI6
F0.012605042016806723
sI7
F0.004201680672268907
sI8
F0.008403361344537815
sI10
F0.004201680672268907
sI11
F0.012605042016806723
sI13
F0.008403361344537815
sI14
F0.004201680672268907
sI17
F0.008403361344537815
sI18
F0.004201680672268907
sI20
F0.008403361344537815
sI23
F0.004201680672268907
sI24
F0.004201680672268907
sI25
F0.008403361344537815
sI26
F0.004201680672268907
sI27
F0.01680672268907563
sI29
F0.012605042016806723
sI30
F0.02100840336134454
sI31
F0.008403361344537815
sI32
F0.008403361344537815
sI33
F0.008403361344537815
sI34
F0.004201680672268907
sI35
F0.004201680672268907
sI36
F0.012605042016806723
sI38
F0.008403361344537815
sI39
F0.012605042016806723
sI40
F0.012605042016806723
sI41
F0.008403361344537815
sI42
F0.008403361344537815
sI43
F0.008403361344537815
sI44
F0.012605042016806723
sI45
F0.008403361344537815
sI46
F0.004201680672268907
sI48
F0.008403361344537815
sI50
F0.004201680672268907
ssI52
g0
(g4
tp107
Rp108
I0
F0.004201680672268907
sI2
F0.012605042016806723
sI3
F0.008403361344537815
sI4
F0.008403361344537815
sI5
F0.004201680672268907
sI6
F0.004201680672268907
sI8
F0.004201680672268907
sI10
F0.008403361344537815
sI11
F0.01680672268907563
sI12
F0.008403361344537815
sI14
F0.012605042016806723
sI15
F0.004201680672268907
sI16
F0.008403361344537815
sI17
F0.004201680672268907
sI18
F0.008403361344537815
sI19
F0.008403361344537815
sI21
F0.012605042016806723
sI22
F0.012605042016806723
sI23
F0.008403361344537815
sI25
F0.004201680672268907
sI26
F0.025210084033613446
sI27
F0.004201680672268907
sI28
F0.008403361344537815
sI29
F0.004201680672268907
sI30
F0.004201680672268907
sI31
F0.004201680672268907
sI32
F0.008403361344537815
sI33
F0.012605042016806723
sI34
F0.004201680672268907
sI35
F0.008403361344537815
sI37
F0.012605042016806723
sI38
F0.012605042016806723
sI39
F0.004201680672268907
sI40
F0.008403361344537815
sI41
F0.008403361344537815
sI42
F0.012605042016806723
sI44
F0.008403361344537815
sI45
F0.008403361344537815
sI46
F0.004201680672268907
sI48
F0.004201680672268907
sI49
F0.004201680672268907
sI50
F0.008403361344537815
sI51
F0.012605042016806723
ssI53
g0
(g4
tp109
Rp110
I1
F0.004201680672268907
sI2
F0.012605042016806723
sI4
F0.012605042016806723
sI5
F0.004201680672268907
sI6
F0.012605042016806723
sI8
F0.01680672268907563
sI10
F0.012605042016806723
sI11
F0.004201680672268907
sI12
F0.012605042016806723
sI13
F0.008403361344537815
sI14
F0.008403361344537815
sI16
F0.004201680672268907
sI17
F0.008403361344537815
sI18
F0.008403361344537815
sI19
F0.02100840336134454
sI20
F0.004201680672268907
sI23
F0.008403361344537815
sI24
F0.004201680672268907
sI25
F0.004201680672268907
sI26
F0.004201680672268907
sI27
F0.012605042016806723
sI28
F0.004201680672268907
sI29
F0.004201680672268907
sI30
F0.008403361344537815
sI31
F0.012605042016806723
sI32
F0.02100840336134454
sI33
F0.008403361344537815
sI34
F0.004201680672268907
sI36
F0.008403361344537815
sI37
F0.004201680672268907
sI38
F0.004201680672268907
sI39
F0.004201680672268907
sI40
F0.012605042016806723
sI41
F0.012605042016806723
sI42
F0.004201680672268907
sI43
F0.008403361344537815
sI44
F0.004201680672268907
sI46
F0.004201680672268907
sI48
F0.004201680672268907
sI49
F0.012605042016806723
sI50
F0.004201680672268907
sI51
F0.008403361344537815
sI52
F0.008403361344537815
ssI54
g0
(g4
tp111
Rp112
I2
F0.008403361344537815
sI4
F0.004201680672268907
sI6
F0.004201680672268907
sI8
F0.004201680672268907
sI9
F0.004201680672268907
sI10
F0.004201680672268907
sI11
F0.004201680672268907
sI12
F0.012605042016806723
sI13
F0.004201680672268907
sI17
F0.008403361344537815
sI19
F0.004201680672268907
sI21
F0.004201680672268907
sI25
F0.008403361344537815
sI26
F0.004201680672268907
sI27
F0.004201680672268907
sI29
F0.004201680672268907
sI31
F0.008403361344537815
sI33
F0.004201680672268907
sI34
F0.012605042016806723
sI35
F0.004201680672268907
sI37
F0.004201680672268907
sI38
F0.008403361344537815
sI40
F0.012605042016806723
sI44
F0.012605042016806723
sI46
F0.008403361344537815
sI47
F0.004201680672268907
sI50
F0.004201680672268907
sI51
F0.004201680672268907
sI53
F0.004201680672268907
ssI55
g0
(g4
tp113
Rp114
I1
F0.008403361344537815
sI2
F0.004201680672268907
sI4
F0.008403361344537815
sI7
F0.004201680672268907
sI8
F0.004201680672268907
sI9
F0.008403361344537815
sI10
F0.004201680672268907
sI11
F0.004201680672268907
sI12
F0.004201680672268907
sI13
F0.004201680672268907
sI14
F0.008403361344537815
sI17
F0.004201680672268907
sI18
F0.004201680672268907
sI19
F0.012605042016806723
sI20
F0.012605042016806723
sI21
F0.004201680672268907
sI22
F0.01680672268907563
sI23
F0.008403361344537815
sI25
F0.008403361344537815
sI28
F0.004201680672268907
sI30
F0.004201680672268907
sI34
F0.004201680672268907
sI35
F0.004201680672268907
sI37
F0.004201680672268907
sI38
F0.004201680672268907
sI39
F0.01680672268907563
sI41
F0.004201680672268907
sI42
F0.008403361344537815
sI45
F0.004201680672268907
sI47
F0.012605042016806723
sI49
F0.008403361344537815
sI53
F0.012605042016806723
ssI56
g0
(g4
tp115
Rp116
I1
F0.004201680672268907
sI3
F0.008403361344537815
sI4
F0.008403361344537815
sI8
F0.004201680672268907
sI9
F0.004201680672268907
sI11
F0.008403361344537815
sI13
F0.004201680672268907
sI14
F0.01680672268907563
sI16
F0.004201680672268907
sI18
F0.004201680672268907
sI20
F0.008403361344537815
sI22
F0.012605042016806723
sI29
F0.004201680672268907
sI31
F0.004201680672268907
sI32
F0.004201680672268907
sI33
F0.004201680672268907
sI34
F0.004201680672268907
sI36
F0.004201680672268907
sI38
F0.004201680672268907
sI40
F0.008403361344537815
sI42
F0.012605042016806723
sI48
F0.004201680672268907
sI52
F0.008403361344537815
sI55
F0.008403361344537815
ssI57
g0
(g4
tp117
Rp118
I1
F0.004201680672268907
sI2
F0.008403361344537815
sI6
F0.008403361344537815
sI7
F0.004201680672268907
sI8
F0.004201680672268907
sI10
F0.004201680672268907
sI11
F0.004201680672268907
sI12
F0.004201680672268907
sI13
F0.004201680672268907
sI15
F0.004201680672268907
sI16
F0.008403361344537815
sI24
F0.008403361344537815
sI26
F0.004201680672268907
sI27
F0.008403361344537815
sI29
F0.004201680672268907
sI30
F0.008403361344537815
sI31
F0.008403361344537815
sI32
F0.004201680672268907
sI33
F0.004201680672268907
sI35
F0.004201680672268907
sI38
F0.012605042016806723
sI39
F0.004201680672268907
sI41
F0.004201680672268907
sI46
F0.004201680672268907
sI49
F0.004201680672268907
sI50
F0.004201680672268907
sI51
F0.004201680672268907
sI52
F0.004201680672268907
sI53
F0.008403361344537815
sI54
F0.008403361344537815
ssI58
g0
(g4
tp119
Rp120
I0
F0.008403361344537815
sI1
F0.004201680672268907
sI2
F0.004201680672268907
sI3
F0.004201680672268907
sI9
F0.008403361344537815
sI10
F0.008403361344537815
sI11
F0.008403361344537815
sI13
F0.004201680672268907
sI16
F0.004201680672268907
sI17
F0.004201680672268907
sI19
F0.008403361344537815
sI20
F0.004201680672268907
sI21
F0.004201680672268907
sI23
F0.004201680672268907
sI25
F0.004201680672268907
sI26
F0.004201680672268907
sI30
F0.004201680672268907
sI31
F0.004201680672268907
sI32
F0.004201680672268907
sI33
F0.004201680672268907
sI34
F0.008403361344537815
sI35
F0.004201680672268907
sI39
F0.004201680672268907
sI40
F0.008403361344537815
sI41
F0.004201680672268907
sI42
F0.004201680672268907
sI44
F0.004201680672268907
sI45
F0.004201680672268907
sI47
F0.008403361344537815
sI48
F0.008403361344537815
sI49
F0.004201680672268907
sI51
F0.012605042016806723
sI52
F0.008403361344537815
sI53
F0.008403361344537815
sI54
F0.008403361344537815
sI55
F0.008403361344537815
ssI59
g0
(g4
tp121
Rp122
I3
F0.004201680672268907
sI4
F0.008403361344537815
sI6
F0.004201680672268907
sI7
F0.004201680672268907
sI9
F0.008403361344537815
sI12
F0.004201680672268907
sI13
F0.004201680672268907
sI14
F0.008403361344537815
sI16
F0.004201680672268907
sI17
F0.004201680672268907
sI18
F0.004201680672268907
sI19
F0.004201680672268907
sI20
F0.008403361344537815
sI22
F0.004201680672268907
sI24
F0.004201680672268907
sI25
F0.004201680672268907
sI30
F0.004201680672268907
sI36
F0.004201680672268907
sI38
F0.004201680672268907
sI39
F0.008403361344537815
sI40
F0.004201680672268907
sI41
F0.008403361344537815
sI42
F0.008403361344537815
sI44
F0.004201680672268907
sI46
F0.004201680672268907
sI51
F0.008403361344537815
sI54
F0.004201680672268907
sI55
F0.004201680672268907
sI56
F0.004201680672268907
sI58
F0.008403361344537815
ssI60
g0
(g4
tp123
Rp124
I1
F0.004201680672268907
sI2
F0.008403361344537815
sI4
F0.008403361344537815
sI6
F0.004201680672268907
sI8
F0.008403361344537815
sI10
F0.004201680672268907
sI11
F0.004201680672268907
sI12
F0.004201680672268907
sI13
F0.004201680672268907
sI17
F0.004201680672268907
sI21
F0.004201680672268907
sI24
F0.004201680672268907
sI30
F0.004201680672268907
sI31
F0.004201680672268907
sI34
F0.004201680672268907
sI40
F0.004201680672268907
sI41
F0.004201680672268907
sI42
F0.008403361344537815
sI43
F0.004201680672268907
sI47
F0.008403361344537815
sI49
F0.008403361344537815
sI50
F0.004201680672268907
sI52
F0.004201680672268907
sI53
F0.008403361344537815
sI54
F0.004201680672268907
sI55
F0.008403361344537815
sI57
F0.004201680672268907
sI58
F0.004201680672268907
ssI61
g0
(g4
tp125
Rp126
I1
F0.012605042016806723
sI2
F0.004201680672268907
sI4
F0.008403361344537815
sI6
F0.004201680672268907
sI8
F0.004201680672268907
sI10
F0.004201680672268907
sI12
F0.004201680672268907
sI14
F0.004201680672268907
sI15
F0.004201680672268907
sI16
F0.012605042016806723
sI19
F0.01680672268907563
sI21
F0.004201680672268907
sI22
F0.004201680672268907
sI23
F0.004201680672268907
sI25
F0.004201680672268907
sI26
F0.012605042016806723
sI27
F0.004201680672268907
sI28
F0.004201680672268907
sI29
F0.004201680672268907
sI30
F0.004201680672268907
sI31
F0.004201680672268907
sI32
F0.004201680672268907
sI34
F0.004201680672268907
sI35
F0.008403361344537815
sI38
F0.012605042016806723
sI40
F0.008403361344537815
sI41
F0.008403361344537815
sI42
F0.004201680672268907
sI46
F0.004201680672268907
sI47
F0.008403361344537815
sI49
F0.008403361344537815
sI52
F0.008403361344537815
sI53
F0.004201680672268907
sI54
F0.004201680672268907
sI55
F0.004201680672268907
sI56
F0.004201680672268907
sI58
F0.008403361344537815
sI59
F0.004201680672268907
ssI62
g0
(g4
tp127
Rp128
I2
F0.004201680672268907
sI3
F0.004201680672268907
sI4
F0.008403361344537815
sI7
F0.004201680672268907
sI9
F0.004201680672268907
sI12
F0.008403361344537815
sI16
F0.004201680672268907
sI18
F0.004201680672268907
sI19
F0.012605042016806723
sI21
F0.004201680672268907
sI22
F0.004201680672268907
sI25
F0.004201680672268907
sI26
F0.004201680672268907
sI27
F0.004201680672268907
sI29
F0.004201680672268907
sI33
F0.004201680672268907
sI34
F0.004201680672268907
sI35
F0.004201680672268907
sI37
F0.004201680672268907
sI38
F0.008403361344537815
sI39
F0.008403361344537815
sI46
F0.004201680672268907
sI47
F0.004201680672268907
sI50
F0.004201680672268907
sI52
F0.004201680672268907
sI54
F0.004201680672268907
sI55
F0.004201680672268907
sI57
F0.004201680672268907
sI58
F0.004201680672268907
sI61
F0.004201680672268907
ssI63
g0
(g4
tp129
Rp130
I2
F0.008403361344537815
sI3
F0.008403361344537815
sI4
F0.004201680672268907
sI8
F0.004201680672268907
sI17
F0.004201680672268907
sI23
F0.004201680672268907
sI30
F0.004201680672268907
sI31
F0.004201680672268907
sI32
F0.004201680672268907
sI33
F0.004201680672268907
sI36
F0.008403361344537815
sI37
F0.004201680672268907
sI41
F0.004201680672268907
sI43
F0.004201680672268907
sI45
F0.008403361344537815
sI47
F0.004201680672268907
sI48
F0.004201680672268907
sI49
F0.008403361344537815
sI51
F0.008403361344537815
sI53
F0.004201680672268907
sI54
F0.004201680672268907
sI60
F0.004201680672268907
ssI64
g0
(g4
tp131
Rp132
I0
F0.004201680672268907
sI2
F0.008403361344537815
sI4
F0.008403361344537815
sI5
F0.004201680672268907
sI7
F0.004201680672268907
sI8
F0.004201680672268907
sI12
F0.004201680672268907
sI13
F0.008403361344537815
sI17
F0.004201680672268907
sI18
F0.004201680672268907
sI21
F0.004201680672268907
sI22
F0.004201680672268907
sI23
F0.004201680672268907
sI24
F0.008403361344537815
sI25
F0.004201680672268907
sI28
F0.004201680672268907
sI29
F0.004201680672268907
sI30
F0.012605042016806723
sI31
F0.004201680672268907
sI32
F0.004201680672268907
sI33
F0.008403361344537815
sI34
F0.004201680672268907
sI35
F0.004201680672268907
sI40
F0.004201680672268907
sI41
F0.008403361344537815
sI42
F0.004201680672268907
sI43
F0.008403361344537815
sI44
F0.008403361344537815
sI45
F0.008403361344537815
sI47
F0.008403361344537815
sI48
F0.008403361344537815
sI49
F0.01680672268907563
sI50
F0.004201680672268907
sI51
F0.004201680672268907
sI53
F0.012605042016806723
sI55
F0.004201680672268907
sI57
F0.004201680672268907
sI58
F0.004201680672268907
sI59
F0.004201680672268907
sI60
F0.008403361344537815
sI61
F0.004201680672268907
sI62
F0.004201680672268907
sI63
F0.004201680672268907
ssI65
g0
(g4
tp133
Rp134
I37
F0.004201680672268907
sI42
F0.004201680672268907
sI11
F0.004201680672268907
sI50
F0.004201680672268907
sI52
F0.004201680672268907
sI53
F0.004201680672268907
sI24
F0.004201680672268907
sI58
F0.004201680672268907
sI63
F0.008403361344537815
sI10
F0.004201680672268907
sI31
F0.004201680672268907
ssI66
g0
(g4
tp135
Rp136
I0
F0.004201680672268907
sI33
F0.004201680672268907
sI2
F0.004201680672268907
sI34
F0.004201680672268907
sI4
F0.004201680672268907
sI38
F0.004201680672268907
sI51
F0.004201680672268907
sI40
F0.004201680672268907
sI13
F0.004201680672268907
sI46
F0.004201680672268907
sI19
F0.008403361344537815
sI21
F0.004201680672268907
sI54
F0.004201680672268907
sI3
F0.004201680672268907
sI61
F0.004201680672268907
sI62
F0.004201680672268907
sI31
F0.004201680672268907
ssI67
g0
(g4
tp137
Rp138
I1
F0.008403361344537815
sI3
F0.004201680672268907
sI4
F0.004201680672268907
sI6
F0.004201680672268907
sI12
F0.004201680672268907
sI19
F0.012605042016806723
sI22
F0.004201680672268907
sI23
F0.008403361344537815
sI27
F0.004201680672268907
sI28
F0.008403361344537815
sI30
F0.008403361344537815
sI31
F0.004201680672268907
sI34
F0.004201680672268907
sI35
F0.004201680672268907
sI38
F0.008403361344537815
sI39
F0.008403361344537815
sI40
F0.004201680672268907
sI44
F0.004201680672268907
sI45
F0.004201680672268907
sI46
F0.008403361344537815
sI47
F0.004201680672268907
sI48
F0.004201680672268907
sI49
F0.004201680672268907
sI50
F0.004201680672268907
sI51
F0.012605042016806723
sI53
F0.008403361344537815
sI59
F0.004201680672268907
sI61
F0.008403361344537815
sI62
F0.004201680672268907
sI64
F0.008403361344537815
sI66
F0.004201680672268907
ssI68
g0
(g4
tp139
Rp140
I0
F0.004201680672268907
sI1
F0.004201680672268907
sI2
F0.004201680672268907
sI4
F0.004201680672268907
sI5
F0.004201680672268907
sI16
F0.004201680672268907
sI20
F0.004201680672268907
sI21
F0.004201680672268907
sI22
F0.004201680672268907
sI25
F0.004201680672268907
sI26
F0.004201680672268907
sI27
F0.004201680672268907
sI28
F0.004201680672268907
sI29
F0.004201680672268907
sI30
F0.004201680672268907
sI31
F0.004201680672268907
sI32
F0.004201680672268907
sI42
F0.004201680672268907
sI46
F0.004201680672268907
sI47
F0.008403361344537815
sI49
F0.004201680672268907
sI51
F0.004201680672268907
sI52
F0.008403361344537815
sI54
F0.004201680672268907
sI55
F0.004201680672268907
sI56
F0.004201680672268907
sI58
F0.008403361344537815
sI60
F0.004201680672268907
sI61
F0.004201680672268907
sI64
F0.004201680672268907
sI66
F0.004201680672268907
ssI69
g0
(g4
tp141
Rp142
I5
F0.004201680672268907
sI6
F0.004201680672268907
sI39
F0.004201680672268907
sI12
F0.004201680672268907
sI49
F0.004201680672268907
sI18
F0.008403361344537815
sI19
F0.004201680672268907
sI52
F0.004201680672268907
sI53
F0.004201680672268907
sI22
F0.004201680672268907
sI59
F0.004201680672268907
sI61
F0.004201680672268907
sI31
F0.004201680672268907
ssI70
g0
(g4
tp143
Rp144
I0
F0.004201680672268907
sI64
F0.008403361344537815
sI2
F0.004201680672268907
sI67
F0.004201680672268907
sI4
F0.008403361344537815
sI32
F0.004201680672268907
sI40
F0.004201680672268907
sI41
F0.004201680672268907
sI43
F0.004201680672268907
sI45
F0.004201680672268907
sI14
F0.004201680672268907
sI48
F0.004201680672268907
sI50
F0.004201680672268907
sI19
F0.004201680672268907
sI20
F0.004201680672268907
sI62
F0.004201680672268907
sI25
F0.004201680672268907
sI58
F0.008403361344537815
sI28
F0.004201680672268907
sI30
F0.004201680672268907
sI31
F0.004201680672268907
ssI71
g0
(g4
tp145
Rp146
I11
F0.004201680672268907
ssI72
g0
(g4
tp147
Rp148
I3
F0.004201680672268907
sI5
F0.004201680672268907
sI7
F0.004201680672268907
sI8
F0.004201680672268907
sI19
F0.004201680672268907
sI21
F0.004201680672268907
sI26
F0.004201680672268907
sI30
F0.004201680672268907
sI32
F0.004201680672268907
sI38
F0.004201680672268907
sI40
F0.004201680672268907
sI41
F0.004201680672268907
sI46
F0.004201680672268907
sI47
F0.008403361344537815
sI48
F0.008403361344537815
sI49
F0.004201680672268907
sI52
F0.004201680672268907
sI53
F0.008403361344537815
sI56
F0.004201680672268907
sI58
F0.004201680672268907
sI64
F0.004201680672268907
sI67
F0.004201680672268907
sI68
F0.004201680672268907
sI69
F0.004201680672268907
sI70
F0.004201680672268907
ssI73
g0
(g4
tp149
Rp150
I3
F0.004201680672268907
sI4
F0.008403361344537815
sI8
F0.004201680672268907
sI9
F0.004201680672268907
sI12
F0.004201680672268907
sI18
F0.004201680672268907
sI19
F0.008403361344537815
sI32
F0.004201680672268907
sI34
F0.004201680672268907
sI36
F0.004201680672268907
sI38
F0.004201680672268907
sI39
F0.004201680672268907
sI46
F0.004201680672268907
sI51
F0.004201680672268907
sI53
F0.004201680672268907
sI55
F0.004201680672268907
sI58
F0.004201680672268907
sI59
F0.008403361344537815
sI61
F0.004201680672268907
sI64
F0.004201680672268907
sI67
F0.008403361344537815
sI69
F0.004201680672268907
ssI74
g0
(g4
tp151
Rp152
I0
F0.004201680672268907
sI2
F0.012605042016806723
sI4
F0.004201680672268907
sI6
F0.004201680672268907
sI10
F0.004201680672268907
sI11
F0.008403361344537815
sI12
F0.008403361344537815
sI23
F0.008403361344537815
sI25
F0.004201680672268907
sI28
F0.004201680672268907
sI31
F0.004201680672268907
sI33
F0.004201680672268907
sI34
F0.012605042016806723
sI37
F0.004201680672268907
sI40
F0.004201680672268907
sI42
F0.004201680672268907
sI43
F0.004201680672268907
sI45
F0.004201680672268907
sI50
F0.008403361344537815
sI51
F0.004201680672268907
sI53
F0.008403361344537815
sI54
F0.004201680672268907
sI56
F0.004201680672268907
sI57
F0.004201680672268907
sI58
F0.004201680672268907
sI60
F0.008403361344537815
sI61
F0.004201680672268907
sI64
F0.004201680672268907
sI65
F0.004201680672268907
sI67
F0.004201680672268907
sI70
F0.004201680672268907
ssI75
g0
(g4
tp153
Rp154
I32
F0.004201680672268907
sI64
F0.004201680672268907
sI68
F0.004201680672268907
sI69
F0.004201680672268907
sI6
F0.004201680672268907
sI33
F0.004201680672268907
sI72
F0.004201680672268907
sI9
F0.004201680672268907
sI39
F0.004201680672268907
sI51
F0.004201680672268907
sI61
F0.004201680672268907
sI30
F0.004201680672268907
ssI76
g0
(g4
tp155
Rp156
I2
F0.008403361344537815
sI6
F0.004201680672268907
sI8
F0.004201680672268907
sI10
F0.004201680672268907
sI12
F0.008403361344537815
sI24
F0.004201680672268907
sI31
F0.004201680672268907
sI34
F0.008403361344537815
sI38
F0.004201680672268907
sI40
F0.004201680672268907
sI47
F0.004201680672268907
sI50
F0.004201680672268907
sI53
F0.004201680672268907
sI54
F0.004201680672268907
sI57
F0.004201680672268907
sI60
F0.004201680672268907
sI61
F0.008403361344537815
sI62
F0.008403361344537815
sI64
F0.004201680672268907
sI66
F0.004201680672268907
sI74
F0.008403361344537815
sI75
F0.004201680672268907
ssI77
g0
(g4
tp157
Rp158
I2
F0.004201680672268907
sI66
F0.004201680672268907
sI38
F0.004201680672268907
sI40
F0.004201680672268907
sI76
F0.004201680672268907
sI74
F0.004201680672268907
sI12
F0.004201680672268907
sI34
F0.004201680672268907
sI47
F0.004201680672268907
sI54
F0.004201680672268907
sI61
F0.004201680672268907
sI31
F0.004201680672268907
ssI78
g0
(g4
tp159
Rp160
I0
F0.004201680672268907
sI64
F0.008403361344537815
sI2
F0.008403361344537815
sI67
F0.008403361344537815
sI4
F0.004201680672268907
sI65
F0.004201680672268907
sI33
F0.004201680672268907
sI9
F0.004201680672268907
sI74
F0.004201680672268907
sI43
F0.004201680672268907
sI44
F0.004201680672268907
sI45
F0.004201680672268907
sI14
F0.004201680672268907
sI76
F0.004201680672268907
sI50
F0.004201680672268907
sI51
F0.004201680672268907
sI54
F0.004201680672268907
sI25
F0.004201680672268907
sI58
F0.004201680672268907
sI75
F0.004201680672268907
sI28
F0.004201680672268907
ssI79
g0
(g4
tp161
Rp162
I33
F0.004201680672268907
sI2
F0.004201680672268907
sI65
F0.004201680672268907
sI78
F0.004201680672268907
sI51
F0.004201680672268907
sI31
F0.004201680672268907
sI63
F0.004201680672268907
ssI80
g0
(g4
tp163
Rp164
I65
F0.004201680672268907
sI2
F0.004201680672268907
sI40
F0.004201680672268907
sI76
F0.004201680672268907
sI34
F0.004201680672268907
sI14
F0.004201680672268907
sI77
F0.004201680672268907
sI54
F0.004201680672268907
sI61
F0.004201680672268907
sI30
F0.004201680672268907
sI31
F0.004201680672268907
ssI81
g0
(g4
tp165
Rp166
I63
F0.004201680672268907
ssI82
g0
(g4
tp167
Rp168
I42
F0.004201680672268907
sI33
F0.004201680672268907
sI2
F0.004201680672268907
sI67
F0.004201680672268907
sI74
F0.004201680672268907
sI65
F0.004201680672268907
sI73
F0.004201680672268907
sI10
F0.004201680672268907
sI11
F0.004201680672268907
sI51
F0.008403361344537815
sI52
F0.004201680672268907
sI24
F0.008403361344537815
sI58
F0.008403361344537815
sI59
F0.004201680672268907
sI61
F0.004201680672268907
ssI83
g0
(g4
tp169
Rp170
I5
F0.004201680672268907
sI81
F0.004201680672268907
sI72
F0.004201680672268907
sI16
F0.004201680672268907
sI49
F0.004201680672268907
sI53
F0.004201680672268907
sI57
F0.004201680672268907
sI63
F0.004201680672268907
sI62
F0.004201680672268907
sI69
F0.004201680672268907
ssI84
g0
(g4
tp171
Rp172
I2
F0.004201680672268907
sI66
F0.004201680672268907
sI38
F0.004201680672268907
sI40
F0.004201680672268907
sI76
F0.004201680672268907
sI74
F0.004201680672268907
sI12
F0.004201680672268907
sI34
F0.004201680672268907
sI77
F0.004201680672268907
sI47
F0.004201680672268907
sI80
F0.004201680672268907
sI54
F0.004201680672268907
sI61
F0.004201680672268907
sI31
F0.004201680672268907
ssI85
g0
(g4
tp173
Rp174
I32
F0.004201680672268907
sI1
F0.004201680672268907
sI2
F0.004201680672268907
sI35
F0.004201680672268907
sI41
F0.004201680672268907
sI19
F0.004201680672268907
sI23
F0.004201680672268907
sI61
F0.004201680672268907
ssI86
g0
(g4
tp175
Rp176
I34
F0.004201680672268907
sI67
F0.004201680672268907
sI70
F0.004201680672268907
sI73
F0.004201680672268907
sI78
F0.004201680672268907
sI51
F0.004201680672268907
sI14
F0.004201680672268907
sI54
F0.004201680672268907
sI23
F0.004201680672268907
sI58
F0.004201680672268907
sI59
F0.004201680672268907
sI61
F0.004201680672268907
ssI87
g0
(g4
tp177
Rp178
I80
F0.004201680672268907
sI65
F0.004201680672268907
sI62
F0.004201680672268907
sI16
F0.004201680672268907
sI57
F0.004201680672268907
ssI88
g0
(g4
tp179
Rp180
I64
F0.004201680672268907
sI1
F0.004201680672268907
sI34
F0.004201680672268907
sI4
F0.004201680672268907
sI70
F0.004201680672268907
sI7
F0.004201680672268907
sI72
F0.004201680672268907
sI74
F0.004201680672268907
sI45
F0.004201680672268907
sI78
F0.004201680672268907
sI50
F0.004201680672268907
sI51
F0.004201680672268907
sI52
F0.004201680672268907
sI21
F0.004201680672268907
sI23
F0.004201680672268907
sI28
F0.004201680672268907
ssI89
g0
(g4
tp181
Rp182
I32
F0.004201680672268907
sI8
F0.004201680672268907
sI75
F0.004201680672268907
sI68
F0.004201680672268907
sI55
F0.004201680672268907
ssI90
g0
(g4
tp183
Rp184
I0
F0.004201680672268907
sI64
F0.004201680672268907
sI2
F0.004201680672268907
sI67
F0.004201680672268907
sI4
F0.004201680672268907
sI70
F0.004201680672268907
sI74
F0.004201680672268907
sI43
F0.004201680672268907
sI34
F0.004201680672268907
sI78
F0.004201680672268907
sI45
F0.004201680672268907
sI50
F0.004201680672268907
sI23
F0.004201680672268907
sI88
F0.004201680672268907
sI25
F0.004201680672268907
sI28
F0.004201680672268907
ssI92
g0
(g4
tp185
Rp186
I0
F0.004201680672268907
sI64
F0.004201680672268907
sI2
F0.004201680672268907
sI67
F0.004201680672268907
sI4
F0.004201680672268907
sI74
F0.004201680672268907
sI43
F0.004201680672268907
sI45
F0.004201680672268907
sI14
F0.004201680672268907
sI50
F0.004201680672268907
sI86
F0.004201680672268907
sI88
F0.004201680672268907
sI25
F0.004201680672268907
sI58
F0.004201680672268907
sI28
F0.004201680672268907
sI90
F0.004201680672268907
ssI94
g0
(g4
tp187
Rp188
I80
F0.004201680672268907
sI65
F0.004201680672268907
sI87
F0.004201680672268907
ss.