ccollections
defaultdict
p0
(c__builtin__
set
p1
tp2
Rp3
VIH0Z
p4
g1
((lp5
S'is'
p6
aS'his'
p7
atp8
Rp9
sVIH0T
p10
g1
((lp11
S'it'
p12
atp13
Rp14
sVIH0S
p15
g1
((lp16
S'this'
p17
atp18
Rp19
sVAO1KT
p20
g1
((lp21
S'talked'
p22
aS'walked'
p23
atp24
Rp25
sVAH2
p26
g1
((lp27
S'motherfucking'
p28
aS'unfamiliar'
p29
aS'whatever'
p30
aS'motherfucker'
p31
atp32
Rp33
sVIH0N
p34
g1
((lp35
S'been'
p36
aS'in'
p37
atp38
Rp39
sVAH0
p40
g1
((lp41
S'salon'
p42
aS'casino'
p43
aS'patrol'
p44
aS'suspended'
p45
aS'supply'
p46
aS'confuse'
p47
aS'tonight'
p48
aS'recruitment'
p49
aS'esteem'
p50
aS'another'
p51
aS'again'
p52
aS'afraid'
p53
aS'possessions'
p54
aS'chicago'
p55
aS'addicted'
p56
aS'away'
p57
aS'accent'
p58
aS'aside'
p59
aS'specifically'
p60
aS'to'
p61
aS'cassette'
p62
aS'above'
p63
aS'supplier'
p64
aS'themselves'
p65
aS'officially'
p66
aS'banana'
p67
aS'today'
p68
aS'prophetic'
p69
aS'umbrella'
p70
aS'de'
p71
aS'upon'
p72
aS'account'
p73
aS'galore'
p74
aS'cannot'
p75
aS'addict'
p76
aS'safari'
p77
aS'along'
p78
aS'america'
p79
aS'complain'
p80
aS'apart'
p81
aS'a'
p82
aS'about'
p83
aS'submission'
p84
aS'tobacco'
p85
aS'collapsing'
p86
aS'sometimes'
p87
aS'together'
p88
aS'concrete'
p89
aS'appealing'
p90
aS'militia'
p91
aS'subpoena'
p92
aS'abandon'
p93
aS'position'
p94
aS'the'
p95
aS'confucius'
p96
aS'alike'
p97
atp98
Rp99
sVAH1
p100
g1
((lp101
S'buzzer'
p102
aS'summer'
p103
aS'humble'
p104
aS'color'
p105
aS'money'
p106
aS'wonder'
p107
aS'number'
p108
aS'brother'
p109
aS'honey'
p110
aS'culture'
p111
aS'colors'
p112
aS'sometime'
p113
aS'something'
p114
aS'budget'
p115
aS'umbrella'
p116
aS'trumpet'
p117
aS'custody'
p118
aS'dozen'
p119
aS"doesn't"
p120
aS'monkey'
p121
aS'hunting'
p122
aS'rumbles'
p123
aS'somewhere'
p124
aS'cousins'
p125
aS'buckle'
p126
aS'hungry'
p127
aS'hurricane'
p128
aS'fucking'
p129
aS'other'
p130
aS'lullabies'
p131
aS'wondrous'
p132
aS'under'
p133
aS'covered'
p134
aS'hundred'
p135
aS'bunny'
p136
aS'pumpkin'
p137
aS'somebody'
p138
aS'mustard'
p139
aS'huggy'
p140
aS'stutter'
p141
aS'lucky'
p142
aS'butlers'
p143
aS'hundreds'
p144
aS'chuckie'
p145
aS'running'
p146
aS'putting'
p147
aS'fucker'
p148
aS'nothing'
p149
aS'cousin'
p150
aS'justin'
p151
aS"wasn't"
p152
aS'sometimes'
p153
aS'bucket'
p154
aS'bustin'
p155
aS'public'
p156
aS'dusted'
p157
aS'mumble'
p158
aS'mother'
p159
aS'husky'
p160
aS'the'
p161
aS'russian'
p162
aS'numbers'
p163
atp164
Rp165
sVIH0F
p166
g1
((lp167
S'if'
p168
atp169
Rp170
sVIH0D
p171
g1
((lp172
S'did'
p173
aS'good'
p174
atp175
Rp176
sVUW1TH
p177
g1
((lp178
S'youth'
p179
aS'booth'
p180
aS'truth'
p181
atp182
Rp183
sVEH2
p184
g1
((lp185
S'generation'
p186
aS'lsd'
p187
atp188
Rp189
sVER1JH
p190
g1
((lp191
S'merge'
p192
atp193
Rp194
sVEH0
p195
g1
((lp196
S'employee'
p197
aS'genitalia'
p198
aS'themselves'
p199
aS'entrusted'
p200
atp201
Rp202
sVEH1
p203
g1
((lp204
S'refugees'
p205
aS'seven'
p206
aS'jericho'
p207
aS'letterman'
p208
aS'edify'
p209
aS'headed'
p210
aS'hedwig'
p211
aS'menzies'
p212
aS'lending'
p213
aS'bennett'
p214
aS'flexing'
p215
aS'carry'
p216
aS'second'
p217
aS'member'
p218
aS'ready'
p219
aS'levis'
p220
aS'helpless'
p221
aS'any'
p222
aS'kevin'
p223
aS'everybody'
p224
aS'anyone'
p225
aS"heaven's"
p226
aS'baritone'
p227
aS'sentiments'
p228
aS'sentence'
p229
aS'leno'
p230
aS'desktop'
p231
aS'better'
p232
aS'everything'
p233
aS'benford'
p234
aS'derek'
p235
aS'marathon'
p236
aS'wendy'
p237
aS'debit'
p238
aS'medicine'
p239
aS'parents'
p240
aS'fetty'
p241
aS'ever'
p242
aS'texas'
p243
aS'belly'
p244
aS'lessons'
p245
aS'never'
p246
aS'7'
p247
aS'petrified'
p248
aS"leno's"
p249
aS'petty'
p250
aS'reconciled'
p251
aS'blessing'
p252
aS'seventh'
p253
aS'empty'
p254
aS'redeye'
p255
aS'helping'
p256
aS'devil'
p257
aS'every'
p258
aS'aires'
p259
aS'members'
p260
aS'exes'
p261
aS'jealous'
p262
aS'pedal'
p263
aS'barely'
p264
aS'endless'
p265
aS'enemy'
p266
aS'sending'
p267
aS'heaven'
p268
aS'yelling'
p269
aS'pregnant'
p270
aS'whether'
p271
aS'many'
p272
aS'trending'
p273
aS'getting'
p274
aS'steady'
p275
aS'pencils'
p276
aS'blessings'
p277
aS'marriage'
p278
aS'dresses'
p279
aS'necklace'
p280
aS'mentions'
p281
aS"harold's"
p282
aS'friendship'
p283
aS"everything's"
p284
aS'pesticide'
p285
aS'wednesdays'
p286
atp287
Rp288
sVEY1TH
p289
g1
((lp290
S'faith'
p291
atp292
Rp293
sVEY1TS
p294
g1
((lp295
S'gates'
p296
aS'hates'
p297
atp298
Rp299
sVAE1MZ
p300
g1
((lp301
S'dams'
p302
aS'jams'
p303
atp304
Rp305
sVAE1MP
p306
g1
((lp307
S'camp'
p308
aS'champ'
p309
atp310
Rp311
sVUW1TS
p312
g1
((lp313
S'fruits'
p314
atp315
Rp316
sVIY1TS
p317
g1
((lp318
S'streets'
p319
aS'seats'
p320
atp321
Rp322
sVAO1RMTH
p323
g1
((lp324
S'warmth'
p325
atp326
Rp327
sVAH1CH
p328
g1
((lp329
S'touch'
p330
aS'much'
p331
aS'hutch'
p332
atp333
Rp334
sVOW1DHZ
p335
g1
((lp336
S'clothes'
p337
atp338
Rp339
sVIY1TH
p340
g1
((lp341
S'teeth'
p342
atp343
Rp344
sVEY1MZ
p345
g1
((lp346
S'james'
p347
atp348
Rp349
sVIH1KST
p350
g1
((lp351
S'mixed'
p352
atp353
Rp354
sVIH0M
p355
g1
((lp356
S'him'
p357
atp358
Rp359
sVOY1
p360
g1
((lp361
S'boy'
p362
aS'troy'
p363
aS'joy'
p364
atp365
Rp366
sVUW1ZD
p367
g1
((lp368
S'used'
p369
atp370
Rp371
sVUH2
p372
g1
((lp373
S'goodbyes'
p374
atp375
Rp376
sVUH0
p377
g1
((lp378
S"could've"
p379
aS'yourself'
p380
atp381
Rp382
sVUH1
p383
g1
((lp384
S'pussy'
p385
aS"wouldn't"
p386
aS'cooking'
p387
aS'purest'
p388
aS'goodnight'
p389
aS'putting'
p390
aS"couldn't"
p391
aS'pullin'
p392
aS'bullshit'
p393
atp394
Rp395
sVAE1TS
p396
g1
((lp397
S"that's"
p398
atp399
Rp400
sVAH1NZ
p401
g1
((lp402
S'ones'
p403
aS'guns'
p404
atp405
Rp406
sVAH1NT
p407
g1
((lp408
S'front'
p409
aS'blunt'
p410
atp411
Rp412
sVAH1NS
p413
g1
((lp414
S'once'
p415
atp416
Rp417
sVAH1NG
p418
g1
((lp419
S'tongue'
p420
aS'young'
p421
atp422
Rp423
sVAA1ND
p424
g1
((lp425
S'blonde'
p426
atp427
Rp428
sVAO1RD
p429
g1
((lp430
S'lord'
p431
aS'board'
p432
aS'sword'
p433
atp434
Rp435
sVAO2L
p436
g1
((lp437
S"y'all"
p438
atp439
Rp440
sVAO1RN
p441
g1
((lp442
S'warn'
p443
aS'morn'
p444
aS'horn'
p445
atp446
Rp447
sVAO1RM
p448
g1
((lp449
S'warm'
p450
atp451
Rp452
sVAA1NT
p453
g1
((lp454
S'want'
p455
atp456
Rp457
sVAO1RS
p458
g1
((lp459
S'fourths'
p460
aS'force'
p461
atp462
Rp463
sVAO1RZ
p464
g1
((lp465
S'drawers'
p466
aS'yours'
p467
aS'doors'
p468
atp469
Rp470
sVER1CH
p471
g1
((lp472
S'search'
p473
aS'church'
p474
atp475
Rp476
sVUH1KS
p477
g1
((lp478
S'hooks'
p479
aS'books'
p480
atp481
Rp482
sVUH1KT
p483
g1
((lp484
S'looked'
p485
aS'booked'
p486
atp487
Rp488
sVEH1D
p489
g1
((lp490
S'head'
p491
aS'said'
p492
aS'read'
p493
aS'dead'
p494
aS'bed'
p495
aS'red'
p496
atp497
Rp498
sVIH1RZ
p499
g1
((lp500
S'years'
p501
atp502
Rp503
sVEY1Z
p504
g1
((lp505
S'ways'
p506
aS'days'
p507
aS'praise'
p508
atp509
Rp510
sVEY1T
p511
g1
((lp512
S'straight'
p513
aS'late'
p514
aS'gate'
p515
aS'hate'
p516
aS'nate'
p517
aS'wait'
p518
atp519
Rp520
sVEY1V
p521
g1
((lp522
S'save'
p523
aS"they've"
p524
aS'gave'
p525
atp526
Rp527
sVEY1P
p528
g1
((lp529
S'cape'
p530
atp531
Rp532
sVEY1S
p533
g1
((lp534
S'case'
p535
aS'space'
p536
aS'face'
p537
aS'race'
p538
aS'place'
p539
aS'chase'
p540
atp541
Rp542
sVEY1M
p543
g1
((lp544
S'name'
p545
aS'lame'
p546
aS'same'
p547
aS'shame'
p548
aS'flame'
p549
aS'came'
p550
atp551
Rp552
sVEY1L
p553
g1
((lp554
S"they'll"
p555
atp556
Rp557
sVEY1N
p558
g1
((lp559
S'lane'
p560
aS'cane'
p561
aS'pain'
p562
aS'rain'
p563
aS'plane'
p564
aS'stain'
p565
atp566
Rp567
sVOW1TH
p568
g1
((lp569
S'both'
p570
aS'growth'
p571
atp572
Rp573
sVEY1D
p574
g1
((lp575
S'grade'
p576
aS'made'
p577
aS'stayed'
p578
aS'paid'
p579
aS'played'
p580
atp581
Rp582
sVEY1G
p583
g1
((lp584
S'craig'
p585
aS'plague'
p586
atp587
Rp588
sVIY1KS
p589
g1
((lp590
S'leaks'
p591
aS'weeks'
p592
atp593
Rp594
sVEH1K
p595
g1
((lp596
S'neck'
p597
atp598
Rp599
sVEH1L
p600
g1
((lp601
S'shell'
p602
aS'well'
p603
aS'fell'
p604
aS'hell'
p605
aS'smell'
p606
aS'tell'
p607
atp608
Rp609
sVEH1M
p610
g1
((lp611
S'em'
p612
aS'them'
p613
atp614
Rp615
sVEH1N
p616
g1
((lp617
S'then'
p618
aS'when'
p619
aS'ben'
p620
aS'ten'
p621
aS'zen'
p622
atp623
Rp624
sVEH1ST
p625
g1
((lp626
S'dressed'
p627
aS'crest'
p628
aS'best'
p629
aS'rest'
p630
atp631
Rp632
sVAY1K
p633
g1
((lp634
S'mike'
p635
aS'bike'
p636
aS'like'
p637
atp638
Rp639
sVAA1SH
p640
g1
((lp641
S'wash'
p642
atp643
Rp644
sVEH1Z
p645
g1
((lp646
S'as'
p647
atp648
Rp649
sVAA1ST
p650
g1
((lp651
S'cost'
p652
atp653
Rp654
sVER1ND
p655
g1
((lp656
S'turned'
p657
atp658
Rp659
sVEH1R
p660
g1
((lp661
S'square'
p662
aS'share'
p663
aS'air'
p664
aS'hair'
p665
aS'swear'
p666
aS'prayer'
p667
aS'chair'
p668
aS'where'
p669
atp670
Rp671
sVEH1S
p672
g1
((lp673
S'mess'
p674
aS'guess'
p675
aS'yes'
p676
aS'less'
p677
atp678
Rp679
sVEH1T
p680
g1
((lp681
S'met'
p682
aS'let'
p683
aS'bet'
p684
aS'get'
p685
atp686
Rp687
sVAO1RDZ
p688
g1
((lp689
S'swords'
p690
atp691
Rp692
sVAH1GD
p693
g1
((lp694
S'drugged'
p695
atp696
Rp697
sVOW1MZ
p698
g1
((lp699
S'foams'
p700
atp701
Rp702
sVAH1GZ
p703
g1
((lp704
S'drugs'
p705
aS'bugs'
p706
atp707
Rp708
sVEY1ZD
p709
g1
((lp710
S'raised'
p711
atp712
Rp713
sVAH1NTHS
p714
g1
((lp715
S'months'
p716
atp717
Rp718
sVIH0TH
p719
g1
((lp720
S'with'
p721
atp722
Rp723
sVEH1FT
p724
g1
((lp725
S'left'
p726
atp727
Rp728
sVIH0TS
p729
g1
((lp730
S"it's"
p731
aS'its'
p732
atp733
Rp734
sVAA1DZ
p735
g1
((lp736
S"god's"
p737
atp738
Rp739
sVIH1NGK
p740
g1
((lp741
S'link'
p742
aS'think'
p743
aS'rink'
p744
atp745
Rp746
sVAH1NTH
p747
g1
((lp748
S'month'
p749
atp750
Rp751
sVAO1NZ
p752
g1
((lp753
S'lawns'
p754
atp755
Rp756
sVAO1RJHD
p757
g1
((lp758
S'forged'
p759
atp760
Rp761
sVEY1ST
p762
g1
((lp763
S'faced'
p764
aS'taste'
p765
aS'based'
p766
aS'waist'
p767
atp768
Rp769
sVAO1NG
p770
g1
((lp771
S'wrong'
p772
aS'long'
p773
aS'song'
p774
atp775
Rp776
sVIH1NGZ
p777
g1
((lp778
S'kings'
p779
aS'rings'
p780
aS'wings'
p781
aS'things'
p782
atp783
Rp784
sVIH1DNT
p785
g1
((lp786
S"didn't"
p787
atp788
Rp789
sVER0
p790
g1
((lp791
S'perfect'
p792
aS'saran'
p793
aS'around'
p794
aS'her'
p795
aS'guerillas'
p796
aS'perform'
p797
aS'performing'
p798
aS'forgetful'
p799
aS'yourself'
p800
aS'for'
p801
aS'forgetting'
p802
aS'performed'
p803
aS'were'
p804
aS'arenas'
p805
aS'er'
p806
aS'herself'
p807
aS'or'
p808
aS'forget'
p809
atp810
Rp811
sVEH1TH
p812
g1
((lp813
S'breath'
p814
atp815
Rp816
sVAA1MZ
p817
g1
((lp818
S'proms'
p819
atp820
Rp821
sVIH1LD
p822
g1
((lp823
S'grilled'
p824
aS'build'
p825
atp826
Rp827
sVEH1TS
p828
g1
((lp829
S"let's"
p830
atp831
Rp832
sVAO1NGZ
p833
g1
((lp834
S'wrongs'
p835
aS'songs'
p836
atp837
Rp838
sVAH1NCH
p839
g1
((lp840
S'bunch'
p841
atp842
Rp843
sVIH1VD
p844
g1
((lp845
S'lived'
p846
atp847
Rp848
sVEY1
p849
g1
((lp850
S'skating'
p851
aS'saying'
p852
aS'crazy'
p853
aS'saving'
p854
aS'savior'
p855
aS'angel'
p856
aS'danger'
p857
aS'labels'
p858
aS'lazy'
p859
aS'praying'
p860
aS'mater'
p861
aS'paper'
p862
aS'radio'
p863
aS'prayer'
p864
aS'ay'
p865
aS'neighborhood'
p866
aS'aged'
p867
aS'mayor'
p868
aS'katie'
p869
aS'aiming'
p870
aS'ha'
p871
aS'pray'
p872
aS'caveman'
p873
aS'hey'
p874
aS'label'
p875
aS'satan'
p876
aS'way'
p877
aS'napalm'
p878
aS'dating'
p879
aS'angels'
p880
aS'apron'
p881
aS'play'
p882
aS'paperwork'
p883
aS'buenos'
p884
aS'maker'
p885
aS'may'
p886
aS'mayo'
p887
aS'de'
p888
aS'stay'
p889
aS'famous'
p890
aS'vegas'
p891
aS'lay'
p892
aS'they'
p893
aS'baby'
p894
aS'safer'
p895
aS'nation'
p896
aS'day'
p897
aS'a'
p898
aS'stranger'
p899
aS'racing'
p900
aS'taking'
p901
aS'haters'
p902
aS'favorite'
p903
aS'gator'
p904
aS'lakers'
p905
aS'bay'
p906
aS'trey'
p907
aS'vega'
p908
aS'maybe'
p909
aS'faking'
p910
aS'making'
p911
aS'aka'
p912
aS'tasted'
p913
aS'playing'
p914
atp915
Rp916
sVAW1LZ
p917
g1
((lp918
S'owls'
p919
atp920
Rp921
sVAO1CH
p922
g1
((lp923
S'watch'
p924
atp925
Rp926
sVAY1
p927
g1
((lp928
S'signing'
p929
aS'violence'
p930
aS'liar'
p931
aS'fired'
p932
aS'tired'
p933
aS"michael's"
p934
aS'high'
p935
aS'dialing'
p936
aS'ay'
p937
aS'lie'
p938
aS'dying'
p939
aS'spineless'
p940
aS'sky'
p941
aS'mikey'
p942
aS'writing'
p943
aS'brighter'
p944
aS"i'mma"
p945
aS'wilding'
p946
aS'righteous'
p947
aS'higher'
p948
aS'dry'
p949
aS'buy'
p950
aS'minus'
p951
aS'wiley'
p952
aS'nightly'
p953
aS'flyer'
p954
aS'lighter'
p955
aS'buyer'
p956
aS'coyote'
p957
aS'sinus'
p958
aS'why'
p959
aS'fly'
p960
aS'timeshare'
p961
aS'die'
p962
aS'cry'
p963
aS'michael'
p964
aS'lightning'
p965
aS'nicest'
p966
aS'science'
p967
aS'y'
p968
aS'guy'
p969
aS'my'
p970
aS'childhood'
p971
aS'lying'
p972
atp973
Rp974
sVAY0
p975
g1
((lp976
S'coyote'
p977
aS'violations'
p978
aS'ideas'
p979
aS'minute'
p980
aS'diagonal'
p981
atp982
Rp983
sVAY2
p984
g1
((lp985
S'bio'
p986
aS'myself'
p987
aS'iraqi'
p988
atp989
Rp990
sVEY1PS
p991
g1
((lp992
S'tapes'
p993
atp994
Rp995
sVIH0ST
p996
g1
((lp997
S'just'
p998
atp999
Rp1000
sVIH1DZ
p1001
g1
((lp1002
S'kids'
p1003
atp1004
Rp1005
sVAW1TS
p1006
g1
((lp1007
S'shouts'
p1008
atp1009
Rp1010
sVAW1TH
p1011
g1
((lp1012
S'mouth'
p1013
atp1014
Rp1015
sVAO2
p1016
g1
((lp1017
S'montano'
p1018
atp1019
Rp1020
sVAO1
p1021
g1
((lp1022
S'ordered'
p1023
aS'often'
p1024
aS'auntie'
p1025
aS'dollar'
p1026
aS'yourself'
p1027
aS'talking'
p1028
aS'fortify'
p1029
aS'broadway'
p1030
aS'saw'
p1031
aS'solstice'
p1032
aS'baller'
p1033
aS'hallways'
p1034
aS'costly'
p1035
aS'shorter'
p1036
aS'color'
p1037
aS'orange'
p1038
aS'bosses'
p1039
aS'borders'
p1040
aS'hallway'
p1041
aS'glorify'
p1042
aS'oscar'
p1043
aS'raunchy'
p1044
aS'shorty'
p1045
aS'water'
p1046
aS'couric'
p1047
aS'jordan'
p1048
aS'correlating'
p1049
aS'salsa'
p1050
aS'shortness'
p1051
aS'rollie'
p1052
aS'faucet'
p1053
aS'daughter'
p1054
aS'alma'
p1055
aS'launcher'
p1056
aS'always'
p1057
aS'dollars'
p1058
aS'forfeited'
p1059
aS'stories'
p1060
aS'saudi'
p1061
aS'mortar'
p1062
aS'crossing'
p1063
aS'swallow'
p1064
aS'quarter'
p1065
aS'order'
p1066
atp1067
Rp1068
sVAO0
p1069
g1
((lp1070
S'forgetting'
p1071
aS'forgetful'
p1072
aS'forget'
p1073
atp1074
Rp1075
sVIH1DH
p1076
g1
((lp1077
S'with'
p1078
atp1079
Rp1080
sVAH1KT
p1081
g1
((lp1082
S'fucked'
p1083
aS'ducked'
p1084
atp1085
Rp1086
sVAE1SH
p1087
g1
((lp1088
S'smash'
p1089
aS'ash'
p1090
aS'hash'
p1091
aS'cash'
p1092
atp1093
Rp1094
sVAW1D
p1095
g1
((lp1096
S'proud'
p1097
atp1098
Rp1099
sVAW1N
p1100
g1
((lp1101
S'down'
p1102
aS'brown'
p1103
aS'drown'
p1104
aS'crown'
p1105
atp1106
Rp1107
sVAW1S
p1108
g1
((lp1109
S'house'
p1110
atp1111
Rp1112
sVAW1R
p1113
g1
((lp1114
S'our'
p1115
aS'sour'
p1116
aS'hour'
p1117
atp1118
Rp1119
sVAW1T
p1120
g1
((lp1121
S'bout'
p1122
aS'shout'
p1123
aS'drought'
p1124
aS'out'
p1125
atp1126
Rp1127
sVAE1ST
p1128
g1
((lp1129
S'past'
p1130
aS'last'
p1131
aS'asked'
p1132
aS'passed'
p1133
atp1134
Rp1135
sVAO1NT
p1136
g1
((lp1137
S'want'
p1138
atp1139
Rp1140
sVAY1LD
p1141
g1
((lp1142
S'child'
p1143
atp1144
Rp1145
sVAA1KT
p1146
g1
((lp1147
S'blocked'
p1148
atp1149
Rp1150
sVEY1NJHD
p1151
g1
((lp1152
S'changed'
p1153
atp1154
Rp1155
sVIY1ND
p1156
g1
((lp1157
S'fiend'
p1158
atp1159
Rp1160
sVUW1LZ
p1161
g1
((lp1162
S'rules'
p1163
aS'schools'
p1164
atp1165
Rp1166
sVIY1NZ
p1167
g1
((lp1168
S'screens'
p1169
aS'beans'
p1170
atp1171
Rp1172
sVEH1PS
p1173
g1
((lp1174
S'steps'
p1175
atp1176
Rp1177
sVER1KS
p1178
g1
((lp1179
S'percs'
p1180
atp1181
Rp1182
sVEH1LD
p1183
g1
((lp1184
S'held'
p1185
atp1186
Rp1187
sVAH1NGZ
p1188
g1
((lp1189
S'lungs'
p1190
atp1191
Rp1192
sVOW1LZ
p1193
g1
((lp1194
S'souls'
p1195
atp1196
Rp1197
sVEH1LT
p1198
g1
((lp1199
S'felt'
p1200
atp1201
Rp1202
sVOW1LD
p1203
g1
((lp1204
S'old'
p1205
aS'rolled'
p1206
aS'sold'
p1207
aS'fold'
p1208
aS'cold'
p1209
aS'hold'
p1210
aS'told'
p1211
atp1212
Rp1213
sVIY1ST
p1214
g1
((lp1215
S'least'
p1216
atp1217
Rp1218
sVEH1LP
p1219
g1
((lp1220
S'help'
p1221
atp1222
Rp1223
sVAW1ND
p1224
g1
((lp1225
S'sound'
p1226
aS'found'
p1227
atp1228
Rp1229
sVEH1NDZ
p1230
g1
((lp1231
S'friends'
p1232
atp1233
Rp1234
sVER1
p1235
g1
((lp1236
S'serpent'
p1237
aS'thursdays'
p1238
aS'burner'
p1239
aS'verses'
p1240
aS'currency'
p1241
aS'worldly'
p1242
aS'worship'
p1243
aS'worry'
p1244
aS'perfect'
p1245
aS'sir'
p1246
aS'worthless'
p1247
aS'thirsty'
p1248
aS'working'
p1249
aS'purple'
p1250
aS'birthdays'
p1251
aS'hurricane'
p1252
aS'purses'
p1253
aS"we're"
p1254
aS'churches'
p1255
aS'bourbon'
p1256
aS'murder'
p1257
aS'sermon'
p1258
aS'early'
p1259
aS'persons'
p1260
aS'murdered'
p1261
aS'hurry'
p1262
aS'herpes'
p1263
aS'searches'
p1264
aS'purchase'
p1265
aS'service'
p1266
aS'worried'
p1267
aS'her'
p1268
aS'were'
p1269
aS'murdering'
p1270
aS'jersey'
p1271
atp1272
Rp1273
sVER1V
p1274
g1
((lp1275
S'swerve'
p1276
atp1277
Rp1278
sVER1T
p1279
g1
((lp1280
S'flirt'
p1281
aS'spurt'
p1282
aS'dirt'
p1283
aS'hurt'
p1284
atp1285
Rp1286
sVEH1KS
p1287
g1
((lp1288
S'x'
p1289
aS'sex'
p1290
aS'ex'
p1291
aS'flex'
p1292
aS'next'
p1293
atp1294
Rp1295
sVER1S
p1296
g1
((lp1297
S'verse'
p1298
aS'curse'
p1299
aS'worse'
p1300
atp1301
Rp1302
sVER1P
p1303
g1
((lp1304
S'burp'
p1305
atp1306
Rp1307
sVER1D
p1308
g1
((lp1309
S'heard'
p1310
aS'word'
p1311
aS'bird'
p1312
aS'third'
p1313
aS'herd'
p1314
atp1315
Rp1316
sVER1N
p1317
g1
((lp1318
S'turn'
p1319
aS'burn'
p1320
atp1321
Rp1322
sVER1L
p1323
g1
((lp1324
S'earl'
p1325
aS'girl'
p1326
atp1327
Rp1328
sVER1K
p1329
g1
((lp1330
S'perc'
p1331
aS'work'
p1332
atp1333
Rp1334
sVIH1KS
p1335
g1
((lp1336
S'fix'
p1337
aS"vic's"
p1338
atp1339
Rp1340
sVAH1SK
p1341
g1
((lp1342
S'dusk'
p1343
atp1344
Rp1345
sVIY1DH
p1346
g1
((lp1347
S'breathe'
p1348
atp1349
Rp1350
sVAE1KS
p1351
g1
((lp1352
S'packs'
p1353
aS'snacks'
p1354
aS'racks'
p1355
aS'wax'
p1356
atp1357
Rp1358
sVAH0ND
p1359
g1
((lp1360
S'and'
p1361
atp1362
Rp1363
sVAE1KT
p1364
g1
((lp1365
S'cracked'
p1366
aS'packed'
p1367
aS'fact'
p1368
aS'act'
p1369
atp1370
Rp1371
sVAH1ST
p1372
g1
((lp1373
S'trust'
p1374
aS'just'
p1375
aS'must'
p1376
atp1377
Rp1378
sVER1DZ
p1379
g1
((lp1380
S'words'
p1381
atp1382
Rp1383
sVIY1T
p1384
g1
((lp1385
S'skeet'
p1386
aS'beat'
p1387
aS'sweet'
p1388
aS'peat'
p1389
aS'seat'
p1390
aS'feet'
p1391
aS'cheat'
p1392
aS'street'
p1393
aS'treat'
p1394
aS'meet'
p1395
aS'eat'
p1396
atp1397
Rp1398
sVIY2
p1399
g1
((lp1400
S'iraqi'
p1401
aS'greedier'
p1402
aS'before'
p1403
atp1404
Rp1405
sVAA1RD
p1406
g1
((lp1407
S'hard'
p1408
aS'card'
p1409
atp1410
Rp1411
sVEY1KT
p1412
g1
((lp1413
S'faked'
p1414
atp1415
Rp1416
sVAA1RK
p1417
g1
((lp1418
S'dark'
p1419
aS'park'
p1420
atp1421
Rp1422
sVIH1SH
p1423
g1
((lp1424
S'wish'
p1425
atp1426
Rp1427
sVIH1ST
p1428
g1
((lp1429
S'kissed'
p1430
aS'missed'
p1431
atp1432
Rp1433
sVAA1
p1434
g1
((lp1435
S'follow'
p1436
aS'modesty'
p1437
aS'followers'
p1438
aS'costly'
p1439
aS'carter'
p1440
aS'rocket'
p1441
aS'ya'
p1442
aS'armchair'
p1443
aS'papa'
p1444
aS'donnie'
p1445
aS'dollar'
p1446
aS'artsy'
p1447
aS'momma'
p1448
aS'harness'
p1449
aS'college'
p1450
aS'promised'
p1451
aS'khaki'
p1452
aS'parking'
p1453
aS'politics'
p1454
aS'blockbuster'
p1455
aS'popping'
p1456
aS'partners'
p1457
aS'bottles'
p1458
aS'pardon'
p1459
aS'la'
p1460
aS'father'
p1461
aS'jolly'
p1462
aS'harmless'
p1463
aS'cocky'
p1464
aS'models'
p1465
aS'arguments'
p1466
aS'mama'
p1467
aS'party'
p1468
aS'falling'
p1469
aS'soccer'
p1470
aS'talkin'
p1471
aS'body'
p1472
aS'entree'
p1473
aS'marbles'
p1474
aS'cha'
p1475
aS'started'
p1476
aS'molly'
p1477
aS'follies'
p1478
aS'modify'
p1479
aS'gonna'
p1480
aS'qualify'
p1481
aS'odyssey'
p1482
aS'probably'
p1483
aS'aka'
p1484
aS'ha'
p1485
aS'collar'
p1486
aS'popeye'
p1487
aS'darkness'
p1488
aS'tommy'
p1489
aS'casa'
p1490
aS'frolicking'
p1491
aS'hopping'
p1492
aS'darling'
p1493
aS"wasn't"
p1494
aS'bodied'
p1495
aS'gotta'
p1496
aS'bottom'
p1497
aS'barak'
p1498
aS'controversy'
p1499
aS'concrete'
p1500
aS'barbershop'
p1501
aS'swallow'
p1502
aS'costner'
p1503
aS'poppy'
p1504
aS'prodigy'
p1505
aS'wanna'
p1506
aS'dollars'
p1507
aS'mater'
p1508
atp1509
Rp1510
sVAA0
p1511
g1
((lp1512
S'amin'
p1513
atp1514
Rp1515
sVAA2
p1516
g1
((lp1517
S'opposition'
p1518
atp1519
Rp1520
sVAO1FT
p1521
g1
((lp1522
S'soft'
p1523
atp1524
Rp1525
sVAA1RT
p1526
g1
((lp1527
S'heart'
p1528
aS'start'
p1529
aS'art'
p1530
aS'fart'
p1531
atp1532
Rp1533
sVIH2
p1534
g1
((lp1535
S'disbelief'
p1536
aS'cigarettes'
p1537
aS'introduce'
p1538
aS'introspective'
p1539
aS'cigarette'
p1540
aS'introduced'
p1541
aS'misdemeanors'
p1542
atp1543
Rp1544
sVIH0
p1545
g1
((lp1546
S'crescendo'
p1547
aS'iraqi'
p1548
aS'into'
p1549
aS'recruitment'
p1550
aS'discussions'
p1551
aS'events'
p1552
aS'before'
p1553
aS'rely'
p1554
aS'invoked'
p1555
aS'exalt'
p1556
aS'electrify'
p1557
aS'enough'
p1558
aS'to'
p1559
aS'behind'
p1560
aS'believing'
p1561
aS'descend'
p1562
aS'employee'
p1563
aS'illusion'
p1564
aS'chinchilla'
p1565
aS'designer'
p1566
aS'rehearsing'
p1567
aS'becoming'
p1568
aS'inhaled'
p1569
aS'nintendo'
p1570
aS'reclining'
p1571
aS'believe'
p1572
aS'declining'
p1573
aS'finesse'
p1574
aS'remember'
p1575
aS'goodbyes'
p1576
aS'involved'
p1577
aS'inside'
p1578
aS'discernment'
p1579
aS'deserted'
p1580
aS'determined'
p1581
aS'militia'
p1582
aS'invented'
p1583
aS'believed'
p1584
aS"isn't"
p1585
atp1586
Rp1587
sVIH1
p1588
g1
((lp1589
S'inside'
p1590
aS'bitty'
p1591
aS'nigga'
p1592
aS'listening'
p1593
aS'singer'
p1594
aS'minto'
p1595
aS'mishaps'
p1596
aS'into'
p1597
aS'tippy'
p1598
aS'dripping'
p1599
aS'blisters'
p1600
aS'middle'
p1601
aS'intro'
p1602
aS'sniffing'
p1603
aS'village'
p1604
aS'kicking'
p1605
aS'singing'
p1606
aS'really'
p1607
aS'city'
p1608
aS'different'
p1609
aS'killin'
p1610
aS'thriller'
p1611
aS'glitters'
p1612
aS'milly'
p1613
aS'giving'
p1614
aS'mister'
p1615
aS'thinkin'
p1616
aS'mistletoe'
p1617
aS'pigeon'
p1618
aS'twisted'
p1619
aS'cinnabon'
p1620
aS'literary'
p1621
aS'hitting'
p1622
aS'window'
p1623
aS'kiddies'
p1624
aS'digging'
p1625
aS'hillman'
p1626
aS'lingo'
p1627
aS'millions'
p1628
aS'whistle'
p1629
aS'nickels'
p1630
aS'cinnamon'
p1631
aS'kingdom'
p1632
aS'mixture'
p1633
aS'pretty'
p1634
aS'missing'
p1635
aS'literally'
p1636
aS'filter'
p1637
aS'bitches'
p1638
aS'minimum'
p1639
aS'little'
p1640
aS'timmy'
p1641
aS'richest'
p1642
aS'cinco'
p1643
aS'lickety'
p1644
aS'shitty'
p1645
aS'nitty'
p1646
aS'kinda'
p1647
aS'mistic'
p1648
aS'difference'
p1649
aS'tripping'
p1650
aS'minute'
p1651
aS'women'
p1652
aS'building'
p1653
aS'sister'
p1654
aS'hitter'
p1655
aS'getting'
p1656
aS'windows'
p1657
aS'hinges'
p1658
aS'chisel'
p1659
aS'winter'
p1660
aS'lipstick'
p1661
aS'gimme'
p1662
aS'lindsey'
p1663
aS'piggy'
p1664
aS'mr'
p1665
aS'kissing'
p1666
aS"killer's"
p1667
aS'industry'
p1668
aS"isn't"
p1669
atp1670
Rp1671
sVUH1RZ
p1672
g1
((lp1673
S'yours'
p1674
atp1675
Rp1676
sVEH1GZ
p1677
g1
((lp1678
S'legs'
p1679
atp1680
Rp1681
sVAY1Z
p1682
g1
((lp1683
S'lies'
p1684
aS'eyes'
p1685
aS'fries'
p1686
aS'pies'
p1687
aS'whys'
p1688
atp1689
Rp1690
sVAY1P
p1691
g1
((lp1692
S'type'
p1693
atp1694
Rp1695
sVAY1S
p1696
g1
((lp1697
S'rice'
p1698
aS'ice'
p1699
aS'nice'
p1700
atp1701
Rp1702
sVAY1R
p1703
g1
((lp1704
S'fire'
p1705
atp1706
Rp1707
sVAY1T
p1708
g1
((lp1709
S'right'
p1710
aS'kite'
p1711
aS'light'
p1712
aS'bite'
p1713
aS'fight'
p1714
aS'write'
p1715
aS'night'
p1716
aS'white'
p1717
aS'might'
p1718
atp1719
Rp1720
sVAY1V
p1721
g1
((lp1722
S'live'
p1723
aS'five'
p1724
aS'drive'
p1725
aS"i've"
p1726
atp1727
Rp1728
sVER1ST
p1729
g1
((lp1730
S'worst'
p1731
aS'thirst'
p1732
aS'first'
p1733
atp1734
Rp1735
sVAY1M
p1736
g1
((lp1737
S"i'm"
p1738
aS'crime'
p1739
aS'rhyme'
p1740
aS'time'
p1741
atp1742
Rp1743
sVAY1L
p1744
g1
((lp1745
S"i'll"
p1746
aS'smile'
p1747
aS'while'
p1748
aS'dial'
p1749
atp1750
Rp1751
sVAY1N
p1752
g1
((lp1753
S'shine'
p1754
aS'line'
p1755
aS'mine'
p1756
aS'sign'
p1757
atp1758
Rp1759
sVAY1D
p1760
g1
((lp1761
S'wide'
p1762
aS'hide'
p1763
aS'tried'
p1764
aS'ride'
p1765
aS'tied'
p1766
aS"i'd"
p1767
aS'eyed'
p1768
aS'fried'
p1769
aS'side'
p1770
aS'died'
p1771
atp1772
Rp1773
sVAY1F
p1774
g1
((lp1775
S'life'
p1776
atp1777
Rp1778
sVAW1
p1779
g1
((lp1780
S'power'
p1781
aS'housewife'
p1782
aS'downtown'
p1783
aS'how'
p1784
aS'outside'
p1785
aS'saudi'
p1786
aS'lauer'
p1787
aS'southside'
p1788
aS'now'
p1789
atp1790
Rp1791
sVAW0
p1792
g1
((lp1793
S'southampton'
p1794
atp1795
Rp1796
sVAO1TS
p1797
g1
((lp1798
S'thoughts'
p1799
atp1800
Rp1801
sVAH1T
p1802
g1
((lp1803
S'what'
p1804
aS'shut'
p1805
aS'but'
p1806
atp1807
Rp1808
sVAH1V
p1809
g1
((lp1810
S'love'
p1811
atp1812
Rp1813
sVAH1P
p1814
g1
((lp1815
S'up'
p1816
atp1817
Rp1818
sS'AH1S'
p1819
g1
((lp1820
S'plus'
p1821
aS'us'
p1822
atp1823
Rp1824
sVAH1Z
p1825
g1
((lp1826
S'was'
p1827
atp1828
Rp1829
sVAH1D
p1830
g1
((lp1831
S'mud'
p1832
aS'blood'
p1833
atp1834
Rp1835
sVAH1F
p1836
g1
((lp1837
S'stuff'
p1838
atp1839
Rp1840
sVAH1G
p1841
g1
((lp1842
S'shrug'
p1843
aS'hug'
p1844
aS'ugh'
p1845
atp1846
Rp1847
sVAY1ZD
p1848
g1
((lp1849
S'sized'
p1850
atp1851
Rp1852
sVAH1B
p1853
g1
((lp1854
S'club'
p1855
atp1856
Rp1857
sVOY1NTS
p1858
g1
((lp1859
S'joints'
p1860
aS'points'
p1861
atp1862
Rp1863
sVAH1M
p1864
g1
((lp1865
S'come'
p1866
aS'dumb'
p1867
aS'some'
p1868
aS'yum'
p1869
aS'from'
p1870
atp1871
Rp1872
sVAH1N
p1873
g1
((lp1874
S'none'
p1875
aS'sun'
p1876
aS'gun'
p1877
aS'one'
p1878
aS'un'
p1879
aS'ton'
p1880
aS'done'
p1881
aS'son'
p1882
atp1883
Rp1884
sVAH1K
p1885
g1
((lp1886
S'stuck'
p1887
aS'buck'
p1888
aS'truck'
p1889
aS'fuck'
p1890
aS'chuck'
p1891
atp1892
Rp1893
sVIH1PT
p1894
g1
((lp1895
S'slipped'
p1896
aS'tripped'
p1897
atp1898
Rp1899
sVIH1PS
p1900
g1
((lp1901
S'ships'
p1902
aS'flips'
p1903
aS'hips'
p1904
atp1905
Rp1906
sVOW1ZD
p1907
g1
((lp1908
S'closed'
p1909
atp1910
Rp1911
sVEY1VD
p1912
g1
((lp1913
S'saved'
p1914
atp1915
Rp1916
sVEY1VZ
p1917
g1
((lp1918
S'slaves'
p1919
atp1920
Rp1921
sVOY1NT
p1922
g1
((lp1923
S'joint'
p1924
aS'point'
p1925
atp1926
Rp1927
sVIH1NG
p1928
g1
((lp1929
S'king'
p1930
aS'thing'
p1931
aS'bring'
p1932
aS'cling'
p1933
aS'sing'
p1934
aS'ring'
p1935
atp1936
Rp1937
sVEY1LZ
p1938
g1
((lp1939
S'bales'
p1940
atp1941
Rp1942
sVAE1NDZ
p1943
g1
((lp1944
S'bands'
p1945
aS'lands'
p1946
aS'hands'
p1947
atp1948
Rp1949
sVIH1NT
p1950
g1
((lp1951
S"didn't"
p1952
atp1953
Rp1954
sVIH1NS
p1955
g1
((lp1956
S'since'
p1957
atp1958
Rp1959
sVAY1MZ
p1960
g1
((lp1961
S'dimes'
p1962
aS'rhymes'
p1963
aS'times'
p1964
atp1965
Rp1966
sVAE1
p1967
g1
((lp1968
S'ratify'
p1969
aS'manager'
p1970
aS'captain'
p1971
aS'afro'
p1972
aS'shadow'
p1973
aS'avid'
p1974
aS'backpack'
p1975
aS'actually'
p1976
aS'gangsta'
p1977
aS'magnify'
p1978
aS'dandelion'
p1979
aS'matches'
p1980
aS'practice'
p1981
aS'caterpillar'
p1982
aS'cannot'
p1983
aS'balancing'
p1984
aS'nasty'
p1985
aS'tagging'
p1986
aS'alma'
p1987
aS'rapper'
p1988
aS'candy'
p1989
aS'anxious'
p1990
aS'ashes'
p1991
aS'laughing'
p1992
aS'fallon'
p1993
aS'taffy'
p1994
aS'habit'
p1995
aS'yeah'
p1996
aS'vagabond'
p1997
aS'catching'
p1998
aS'taxes'
p1999
aS'happen'
p2000
aS'acid'
p2001
aS'hammer'
p2002
aS'album'
p2003
aS'palette'
p2004
aS"daddy's"
p2005
aS'jackson'
p2006
aS'rascal'
p2007
aS'acting'
p2008
aS'asking'
p2009
aS"grandma's"
p2010
aS'khaki'
p2011
aS'packing'
p2012
aS'santa'
p2013
aS'grandma'
p2014
aS'standpoint'
p2015
aS'chatham'
p2016
aS'acrobat'
p2017
aS'backless'
p2018
aS'talent'
p2019
aS'language'
p2020
aS'ashy'
p2021
aS'apple'
p2022
aS'family'
p2023
aS'auntie'
p2024
aS'anti'
p2025
aS'carry'
p2026
aS'ballin'
p2027
aS'standing'
p2028
aS'pastures'
p2029
aS'accent'
p2030
aS'plastic'
p2031
aS'savin'
p2032
aS'master'
p2033
aS'rancher'
p2034
aS'happy'
p2035
aS'vagabonds'
p2036
aS'maxim'
p2037
aS'baptized'
p2038
aS'atom'
p2039
aS'actual'
p2040
aS'packers'
p2041
aS'raspy'
p2042
aS'matter'
p2043
aS'daffodils'
p2044
aS'apples'
p2045
aS'faggot'
p2046
aS'daddy'
p2047
aS'alley'
p2048
aS'mater'
p2049
aS'gallon'
p2050
aS'fallin'
p2051
aS'bangers'
p2052
aS'lacking'
p2053
aS'dancing'
p2054
aS'campers'
p2055
aS'gravity'
p2056
aS'actor'
p2057
aS'gallo'
p2058
aS'classmates'
p2059
aS'manor'
p2060
aS'after'
p2061
aS'addict'
p2062
aS'cracking'
p2063
aS'faculty'
p2064
aS'backyard'
p2065
aS'alibis'
p2066
aS'tallied'
p2067
aS'tassel'
p2068
aS'ashley'
p2069
aS'snapping'
p2070
aS'magical'
p2071
aS'jacket'
p2072
aS'classy'
p2073
aS'flapping'
p2074
atp2075
Rp2076
sVAE0
p2077
g1
((lp2078
S'tattoo'
p2079
aS'ballet'
p2080
aS'baptized'
p2081
aS'valet'
p2082
atp2083
Rp2084
sVAY1MD
p2085
g1
((lp2086
S'rhymed'
p2087
atp2088
Rp2089
sVOW1B
p2090
g1
((lp2091
S'job'
p2092
atp2093
Rp2094
sVOW1ST
p2095
g1
((lp2096
S'most'
p2097
aS'post'
p2098
atp2099
Rp2100
sVAY1VD
p2101
g1
((lp2102
S'lived'
p2103
atp2104
Rp2105
sVAE1M
p2106
g1
((lp2107
S'am'
p2108
aS'jam'
p2109
aS'damn'
p2110
atp2111
Rp2112
sVAE1N
p2113
g1
((lp2114
S'zan'
p2115
aS'jan'
p2116
aS'fan'
p2117
aS'plan'
p2118
aS'man'
p2119
aS'than'
p2120
aS'can'
p2121
atp2122
Rp2123
sVAE1K
p2124
g1
((lp2125
S'back'
p2126
aS'mac'
p2127
aS'pac'
p2128
aS'black'
p2129
aS'jack'
p2130
aS'crack'
p2131
aS'knack'
p2132
aS'pack'
p2133
atp2134
Rp2135
sVAE1D
p2136
g1
((lp2137
S'dad'
p2138
aS'ad'
p2139
aS'had'
p2140
aS'bad'
p2141
aS'pad'
p2142
aS'mad'
p2143
aS'glad'
p2144
atp2145
Rp2146
sVAE1G
p2147
g1
((lp2148
S'rag'
p2149
aS'tag'
p2150
atp2151
Rp2152
sVAE1F
p2153
g1
((lp2154
S'laugh'
p2155
aS'half'
p2156
atp2157
Rp2158
sVAE1B
p2159
g1
((lp2160
S'cab'
p2161
aS'grab'
p2162
aS'tab'
p2163
aS'lab'
p2164
atp2165
Rp2166
sVAE1Z
p2167
g1
((lp2168
S'as'
p2169
aS'has'
p2170
atp2171
Rp2172
sVAE1T
p2173
g1
((lp2174
S'matt'
p2175
aS'pat'
p2176
aS'that'
p2177
aS'fat'
p2178
aS'nat'
p2179
aS'kat'
p2180
aS'hat'
p2181
atp2182
Rp2183
sVER0M
p2184
g1
((lp2185
S'from'
p2186
atp2187
Rp2188
sVAE1P
p2189
g1
((lp2190
S'map'
p2191
aS'scrap'
p2192
aS'slap'
p2193
aS'nap'
p2194
aS'rap'
p2195
aS'wrap'
p2196
aS'lap'
p2197
aS'clap'
p2198
atp2199
Rp2200
sVAE1S
p2201
g1
((lp2202
S'ass'
p2203
aS'last'
p2204
aS'gas'
p2205
aS'class'
p2206
aS'pass'
p2207
atp2208
Rp2209
sVAE1SHT
p2210
g1
((lp2211
S'smashed'
p2212
atp2213
Rp2214
sVAE1NGKS
p2215
g1
((lp2216
S'thanks'
p2217
atp2218
Rp2219
sVAO1RTS
p2220
g1
((lp2221
S'forts'
p2222
atp2223
Rp2224
sVAE1SKT
p2225
g1
((lp2226
S'asked'
p2227
atp2228
Rp2229
sVAO1RTH
p2230
g1
((lp2231
S'forth'
p2232
atp2233
Rp2234
sVAA1CH
p2235
g1
((lp2236
S'watch'
p2237
atp2238
Rp2239
sVAH1BZ
p2240
g1
((lp2241
S'dubs'
p2242
atp2243
Rp2244
sVAH1NGK
p2245
g1
((lp2246
S'punk'
p2247
atp2248
Rp2249
sVIY1LZ
p2250
g1
((lp2251
S'heels'
p2252
atp2253
Rp2254
sVER1LZ
p2255
g1
((lp2256
S"girl's"
p2257
aS'girls'
p2258
atp2259
Rp2260
sVIH1TH
p2261
g1
((lp2262
S'with'
p2263
atp2264
Rp2265
sVIH1TS
p2266
g1
((lp2267
S"it's"
p2268
aS'its'
p2269
aS'splits'
p2270
atp2271
Rp2272
sVAE1CH
p2273
g1
((lp2274
S'catch'
p2275
aS'batch'
p2276
aS'match'
p2277
aS'snatch'
p2278
atp2279
Rp2280
sVEY1JH
p2281
g1
((lp2282
S'rage'
p2283
atp2284
Rp2285
sVAW1DZ
p2286
g1
((lp2287
S'clouds'
p2288
atp2289
Rp2290
sVER1LD
p2291
g1
((lp2292
S'world'
p2293
atp2294
Rp2295
sVIH1SP
p2296
g1
((lp2297
S'crisp'
p2298
atp2299
Rp2300
sVAA1RDZ
p2301
g1
((lp2302
S'cards'
p2303
atp2304
Rp2305
sVOW1
p2306
g1
((lp2307
S'hoping'
p2308
aS'show'
p2309
aS'throwing'
p2310
aS'over'
p2311
aS'bro'
p2312
aS'tony'
p2313
aS'sosa'
p2314
aS'go'
p2315
aS'kobe'
p2316
aS'open'
p2317
aS'blow'
p2318
aS'slow'
p2319
aS'opened'
p2320
aS'no'
p2321
aS'throw'
p2322
aS'okie'
p2323
aS'only'
p2324
aS'joseph'
p2325
aS'low'
p2326
aS'holding'
p2327
aS'pro'
p2328
aS'toe'
p2329
aS'noble'
p2330
aS'chauffeurs'
p2331
aS'yo'
p2332
aS'though'
p2333
aS'showing'
p2334
aS'bo'
p2335
aS'mow'
p2336
aS'broker'
p2337
aS'tokens'
p2338
aS'broken'
p2339
aS'know'
p2340
aS'rolling'
p2341
aS'smoking'
p2342
aS'grow'
p2343
aS'joe'
p2344
aS'rollie'
p2345
aS'oh'
p2346
aS'older'
p2347
aS'holiest'
p2348
aS'kosher'
p2349
aS'bogus'
p2350
aS'rodeo'
p2351
aS'so'
p2352
aS'overseas'
p2353
aS'ho'
p2354
atp2355
Rp2356
sVOW0
p2357
g1
((lp2358
S'chauffeurs'
p2359
aS'holistic'
p2360
aS'hotels'
p2361
atp2362
Rp2363
sVOW2
p2364
g1
((lp2365
S'okay'
p2366
atp2367
Rp2368
sVIH0DH
p2369
g1
((lp2370
S'with'
p2371
atp2372
Rp2373
sVAA1RMZ
p2374
g1
((lp2375
S'arms'
p2376
atp2377
Rp2378
sVIY1D
p2379
g1
((lp2380
S'read'
p2381
aS'weed'
p2382
aS'seed'
p2383
aS'need'
p2384
aS'fried'
p2385
aS'speed'
p2386
aS'bleed'
p2387
atp2388
Rp2389
sVIY1F
p2390
g1
((lp2391
S'keef'
p2392
aS'leaf'
p2393
aS'beef'
p2394
atp2395
Rp2396
sVIH1KT
p2397
g1
((lp2398
S'kicked'
p2399
aS'picked'
p2400
atp2401
Rp2402
sVIY1K
p2403
g1
((lp2404
S'week'
p2405
aS'tweak'
p2406
aS'weak'
p2407
aS'speak'
p2408
atp2409
Rp2410
sVIY1M
p2411
g1
((lp2412
S'beam'
p2413
aS'seem'
p2414
aS'team'
p2415
aS'dream'
p2416
aS'cream'
p2417
atp2418
Rp2419
sVIY1L
p2420
g1
((lp2421
S'real'
p2422
aS"she'll"
p2423
aS'deal'
p2424
aS'feel'
p2425
aS'steal'
p2426
aS"he'll"
p2427
atp2428
Rp2429
sVIY1N
p2430
g1
((lp2431
S'spleen'
p2432
aS'queen'
p2433
aS'lean'
p2434
aS'bean'
p2435
aS'green'
p2436
aS'clean'
p2437
aS'seen'
p2438
aS'mean'
p2439
atp2440
Rp2441
sVIY1P
p2442
g1
((lp2443
S'sheep'
p2444
aS'sleep'
p2445
aS'deep'
p2446
aS'keep'
p2447
atp2448
Rp2449
sVIY1S
p2450
g1
((lp2451
S'peace'
p2452
aS'nice'
p2453
atp2454
Rp2455
sVIY1R
p2456
g1
((lp2457
S'hear'
p2458
aS"we're"
p2459
aS'here'
p2460
atp2461
Rp2462
sVIY1
p2463
g1
((lp2464
S'pre'
p2465
aS'seeing'
p2466
aS've'
p2467
aS'people'
p2468
aS'being'
p2469
aS'tea'
p2470
aS'meetings'
p2471
aS'leaning'
p2472
aS'reader'
p2473
aS'jesus'
p2474
aS'reborn'
p2475
aS'see'
p2476
aS'pieces'
p2477
aS'stealing'
p2478
aS'sneaking'
p2479
aS'cremate'
p2480
aS'peter'
p2481
aS'really'
p2482
aS'even'
p2483
aS'cheeses'
p2484
aS'pizzas'
p2485
aS'genius'
p2486
aS'evenings'
p2487
aS'c'
p2488
aS'weekends'
p2489
aS'leafless'
p2490
aS'three'
p2491
aS'demons'
p2492
aS'dreaming'
p2493
aS'dino'
p2494
aS'eating'
p2495
aS'nico'
p2496
aS'beater'
p2497
aS'teaching'
p2498
aS'dreamer'
p2499
aS'easier'
p2500
aS't'
p2501
aS'kiwi'
p2502
aS'we'
p2503
aS'breathing'
p2504
aS'dj'
p2505
aS'deeper'
p2506
aS"leno's"
p2507
aS'de'
p2508
aS'leno'
p2509
aS'equals'
p2510
aS'free'
p2511
aS'feeding'
p2512
aS'evil'
p2513
aS"people's"
p2514
aS'feelings'
p2515
aS'screaming'
p2516
aS'realize'
p2517
aS'he'
p2518
aS'me'
p2519
aS'realized'
p2520
aS'e'
p2521
aS'd'
p2522
aS'freedom'
p2523
aS'needing'
p2524
aS'mi'
p2525
aS'leaving'
p2526
aS'si'
p2527
aS'pico'
p2528
aS'levis'
p2529
aS'she'
p2530
aS'sleeveless'
p2531
aS'threesome'
p2532
aS'senior'
p2533
aS'feeling'
p2534
aS'creeping'
p2535
aS'teammates'
p2536
atp2537
Rp2538
sVIY0
p2539
g1
((lp2540
S'rely'
p2541
aS'reclining'
p2542
aS'remember'
p2543
aS'replays'
p2544
aS'recruitment'
p2545
aS'enough'
p2546
aS'replay'
p2547
aS'the'
p2548
aS'events'
p2549
atp2550
Rp2551
sVIY1V
p2552
g1
((lp2553
S'steve'
p2554
aS'leave'
p2555
atp2556
Rp2557
sVIY1Z
p2558
g1
((lp2559
S'knees'
p2560
aS'cheese'
p2561
aS'these'
p2562
aS'please'
p2563
aS'trees'
p2564
aS"she's"
p2565
atp2566
Rp2567
sVAO1SH
p2568
g1
((lp2569
S'wash'
p2570
atp2571
Rp2572
sVAO1LD
p2573
g1
((lp2574
S'called'
p2575
atp2576
Rp2577
sVAO1ST
p2578
g1
((lp2579
S'cost'
p2580
aS'last'
p2581
aS'lost'
p2582
atp2583
Rp2584
sVIH1NGKS
p2585
g1
((lp2586
S'thinks'
p2587
atp2588
Rp2589
sVAH0T
p2590
g1
((lp2591
S'that'
p2592
atp2593
Rp2594
sVAH0Z
p2595
g1
((lp2596
S'has'
p2597
aS'was'
p2598
atp2599
Rp2600
sVAA1FT
p2601
g1
((lp2602
S'soft'
p2603
atp2604
Rp2605
sVAH0N
p2606
g1
((lp2607
S'can'
p2608
aS'been'
p2609
aS'than'
p2610
atp2611
Rp2612
sVAH0M
p2613
g1
((lp2614
S"i'm"
p2615
aS'them'
p2616
atp2617
Rp2618
sVAE1SK
p2619
g1
((lp2620
S'ask'
p2621
atp2622
Rp2623
sVAA1TS
p2624
g1
((lp2625
S'hots'
p2626
aS'shots'
p2627
atp2628
Rp2629
sVIH1Z
p2630
g1
((lp2631
S'is'
p2632
aS'his'
p2633
atp2634
Rp2635
sVIH1T
p2636
g1
((lp2637
S'hit'
p2638
aS'fit'
p2639
aS'spit'
p2640
aS'get'
p2641
aS'sit'
p2642
aS'it'
p2643
aS'kit'
p2644
aS'lit'
p2645
aS'split'
p2646
aS'bit'
p2647
aS'shit'
p2648
atp2649
Rp2650
sVIH1V
p2651
g1
((lp2652
S'live'
p2653
aS'give'
p2654
atp2655
Rp2656
sVIH1P
p2657
g1
((lp2658
S'hip'
p2659
aS'grip'
p2660
aS'sip'
p2661
aS'flip'
p2662
aS'ship'
p2663
aS'dip'
p2664
aS'trip'
p2665
aS'whip'
p2666
atp2667
Rp2668
sVIH1R
p2669
g1
((lp2670
S'dear'
p2671
aS"we're"
p2672
aS'year'
p2673
atp2674
Rp2675
sVIH1S
p2676
g1
((lp2677
S'this'
p2678
aS'chris'
p2679
aS'miss'
p2680
atp2681
Rp2682
sVIH1L
p2683
g1
((lp2684
S'spill'
p2685
aS'lil'
p2686
aS'bill'
p2687
aS'til'
p2688
aS'till'
p2689
aS'kill'
p2690
aS'still'
p2691
aS'pill'
p2692
aS'chill'
p2693
atp2694
Rp2695
sVIH1M
p2696
g1
((lp2697
S'him'
p2698
atp2699
Rp2700
sVIH1N
p2701
g1
((lp2702
S'win'
p2703
aS'when'
p2704
aS'been'
p2705
aS'chin'
p2706
aS'in'
p2707
aS'gin'
p2708
aS'sin'
p2709
atp2710
Rp2711
sVIH1K
p2712
g1
((lp2713
S'flick'
p2714
aS'vic'
p2715
aS'pic'
p2716
aS'mic'
p2717
aS'dick'
p2718
aS'bic'
p2719
aS'lick'
p2720
aS'sick'
p2721
aS'pick'
p2722
aS'brick'
p2723
aS'kick'
p2724
atp2725
Rp2726
sVIH1D
p2727
g1
((lp2728
S'did'
p2729
aS'rid'
p2730
aS'cid'
p2731
aS'hid'
p2732
aS'kid'
p2733
atp2734
Rp2735
sVIH1F
p2736
g1
((lp2737
S'if'
p2738
atp2739
Rp2740
sVIH1G
p2741
g1
((lp2742
S'big'
p2743
atp2744
Rp2745
sVIH1B
p2746
g1
((lp2747
S'bib'
p2748
aS'lib'
p2749
aS'crib'
p2750
atp2751
Rp2752
sVAO1Z
p2753
g1
((lp2754
S'cause'
p2755
aS'was'
p2756
atp2757
Rp2758
sVAO1S
p2759
g1
((lp2760
S'toss'
p2761
aS'sauce'
p2762
aS'boss'
p2763
atp2764
Rp2765
sVAO1R
p2766
g1
((lp2767
S'or'
p2768
aS'door'
p2769
aS'wore'
p2770
aS'for'
p2771
aS'floor'
p2772
aS'pour'
p2773
aS'war'
p2774
aS'four'
p2775
aS'score'
p2776
aS'fore'
p2777
aS'thor'
p2778
aS'your'
p2779
aS'whore'
p2780
aS'more'
p2781
atp2782
Rp2783
sVAO1P
p2784
g1
((lp2785
S'top'
p2786
aS'drop'
p2787
atp2788
Rp2789
sVAO1T
p2790
g1
((lp2791
S'thought'
p2792
aS'caught'
p2793
aS'taught'
p2794
aS'lot'
p2795
atp2796
Rp2797
sVAO1K
p2798
g1
((lp2799
S'talk'
p2800
atp2801
Rp2802
sVAO1N
p2803
g1
((lp2804
S'lawn'
p2805
aS'dawn'
p2806
atp2807
Rp2808
sVAO1M
p2809
g1
((lp2810
S'bomb'
p2811
atp2812
Rp2813
sVAO1L
p2814
g1
((lp2815
S'all'
p2816
aS'ball'
p2817
aS'wall'
p2818
aS'call'
p2819
aS'fall'
p2820
aS'small'
p2821
aS'tall'
p2822
atp2823
Rp2824
sVAH1TS
p2825
g1
((lp2826
S"what's"
p2827
atp2828
Rp2829
sVAO1G
p2830
g1
((lp2831
S'dog'
p2832
atp2833
Rp2834
sVAO1F
p2835
g1
((lp2836
S'off'
p2837
atp2838
Rp2839
sVEY1K
p2840
g1
((lp2841
S'make'
p2842
aS'lake'
p2843
aS'drake'
p2844
aS'break'
p2845
aS'wake'
p2846
aS'take'
p2847
aS'shake'
p2848
atp2849
Rp2850
sVUW1
p2851
g1
((lp2852
S'uber'
p2853
aS'houston'
p2854
aS'doing'
p2855
aS'funerals'
p2856
aS'beautiful'
p2857
aS'hoover'
p2858
aS'through'
p2859
aS'choosing'
p2860
aS'cruising'
p2861
aS'glue'
p2862
aS'shooting'
p2863
aS'cubicle'
p2864
aS'looser'
p2865
aS'chewing'
p2866
aS'blue'
p2867
aS'mutual'
p2868
aS'suicide'
p2869
aS'ruthless'
p2870
aS'super'
p2871
aS'hugh'
p2872
aS'two'
p2873
aS'cupid'
p2874
aS'to'
p2875
aS'studious'
p2876
aS'lucifer'
p2877
aS'music'
p2878
aS'too'
p2879
aS'booties'
p2880
aS'new'
p2881
aS'you'
p2882
aS'un'
p2883
aS'tuesdays'
p2884
aS'shooters'
p2885
aS'blueprint'
p2886
aS'do'
p2887
aS'who'
p2888
aS'stupid'
p2889
aS'beauty'
p2890
aS'students'
p2891
aS'lucid'
p2892
aS'knew'
p2893
aS'ooh'
p2894
aS'dougie'
p2895
aS'losing'
p2896
aS'future'
p2897
aS'true'
p2898
aS'mucus'
p2899
aS'grew'
p2900
aS'cooler'
p2901
aS'loosely'
p2902
aS'lucy'
p2903
aS'coupon'
p2904
aS'movies'
p2905
aS'goofy'
p2906
aS'crucifix'
p2907
aS'oooh'
p2908
aS'threw'
p2909
aS'lupus'
p2910
aS'view'
p2911
atp2912
Rp2913
sVUW0
p2914
g1
((lp2915
S'tonight'
p2916
aS'today'
p2917
atp2918
Rp2919
sVOW1KS
p2920
g1
((lp2921
S'folks'
p2922
aS'jokes'
p2923
atp2924
Rp2925
sVAE1NGK
p2926
g1
((lp2927
S'drank'
p2928
aS'tank'
p2929
aS'thank'
p2930
aS'bank'
p2931
atp2932
Rp2933
sVIY1LDZ
p2934
g1
((lp2935
S'fields'
p2936
atp2937
Rp2938
sVUH1SH
p2939
g1
((lp2940
S'push'
p2941
atp2942
Rp2943
sVAO1RTHS
p2944
g1
((lp2945
S'fourths'
p2946
atp2947
Rp2948
sVEH1LTS
p2949
g1
((lp2950
S'melts'
p2951
atp2952
Rp2953
sVIH1FT
p2954
g1
((lp2955
S'lift'
p2956
aS'gift'
p2957
atp2958
Rp2959
sVIH1FS
p2960
g1
((lp2961
S'fifths'
p2962
atp2963
Rp2964
sVOY1N
p2965
g1
((lp2966
S'goin'
p2967
atp2968
Rp2969
sVOY1L
p2970
g1
((lp2971
S'soil'
p2972
atp2973
Rp2974
sVOY1S
p2975
g1
((lp2976
S'voice'
p2977
aS'choice'
p2978
atp2979
Rp2980
sVOY1Z
p2981
g1
((lp2982
S'boys'
p2983
atp2984
Rp2985
sVAH1MP
p2986
g1
((lp2987
S'jump'
p2988
atp2989
Rp2990
sVAH1MZ
p2991
g1
((lp2992
S'gums'
p2993
aS'slums'
p2994
atp2995
Rp2996
sVUH1R
p2997
g1
((lp2998
S"you're"
p2999
aS'tour'
p3000
aS'sure'
p3001
aS'your'
p3002
aS'pure'
p3003
atp3004
Rp3005
sVUH1T
p3006
g1
((lp3007
S'put'
p3008
aS'foot'
p3009
atp3010
Rp3011
sVUH1K
p3012
g1
((lp3013
S'book'
p3014
aS'took'
p3015
aS'look'
p3016
atp3017
Rp3018
sVUH1L
p3019
g1
((lp3020
S'pull'
p3021
aS'full'
p3022
aS'bull'
p3023
atp3024
Rp3025
sVUH1D
p3026
g1
((lp3027
S'good'
p3028
aS"you'd"
p3029
aS'would'
p3030
aS'could'
p3031
aS'should'
p3032
aS'hood'
p3033
atp3034
Rp3035
sVUH1F
p3036
g1
((lp3037
S'roof'
p3038
atp3039
Rp3040
sVOW1Z
p3041
g1
((lp3042
S'toes'
p3043
aS'nose'
p3044
aS'goes'
p3045
aS'hoes'
p3046
aS'close'
p3047
aS'shows'
p3048
aS'those'
p3049
aS'clothes'
p3050
atp3051
Rp3052
sVAY1NZ
p3053
g1
((lp3054
S'signs'
p3055
atp3056
Rp3057
sVOW1P
p3058
g1
((lp3059
S'hope'
p3060
atp3061
Rp3062
sVOW1S
p3063
g1
((lp3064
S'close'
p3065
aS'most'
p3066
atp3067
Rp3068
sVOW1T
p3069
g1
((lp3070
S'note'
p3071
aS'wrote'
p3072
atp3073
Rp3074
sVEY1JHD
p3075
g1
((lp3076
S'aged'
p3077
atp3078
Rp3079
sVOW1K
p3080
g1
((lp3081
S'joke'
p3082
aS'poke'
p3083
aS'smoke'
p3084
aS'woke'
p3085
aS'choke'
p3086
atp3087
Rp3088
sVOW1M
p3089
g1
((lp3090
S'home'
p3091
atp3092
Rp3093
sVOW1L
p3094
g1
((lp3095
S'bowl'
p3096
aS'sole'
p3097
aS'whole'
p3098
aS'soul'
p3099
aS'roll'
p3100
atp3101
Rp3102
sVOW1N
p3103
g1
((lp3104
S'grown'
p3105
aS'phone'
p3106
aS'stone'
p3107
aS'own'
p3108
aS"don't"
p3109
atp3110
Rp3111
sVAY1ND
p3112
g1
((lp3113
S'kind'
p3114
aS'lined'
p3115
aS'find'
p3116
aS'signed'
p3117
atp3118
Rp3119
sVAY1NG
p3120
g1
((lp3121
S'trying'
p3122
atp3123
Rp3124
sVAA1KS
p3125
g1
((lp3126
S'fox'
p3127
aS'socks'
p3128
aS'rocks'
p3129
atp3130
Rp3131
sVOW1D
p3132
g1
((lp3133
S'toed'
p3134
aS'road'
p3135
atp3136
Rp3137
sVIH1FTHS
p3138
g1
((lp3139
S'fifths'
p3140
atp3141
Rp3142
sVER0Z
p3143
g1
((lp3144
S'yours'
p3145
aS'years'
p3146
atp3147
Rp3148
sVEY1ND
p3149
g1
((lp3150
S'stained'
p3151
atp3152
Rp3153
sVAA1PS
p3154
g1
((lp3155
S'pops'
p3156
aS'cops'
p3157
atp3158
Rp3159
sVAA1PT
p3160
g1
((lp3161
S'popped'
p3162
atp3163
Rp3164
sVEY1NJH
p3165
g1
((lp3166
S'change'
p3167
atp3168
Rp3169
sVEY1NT
p3170
g1
((lp3171
S"ain't"
p3172
atp3173
Rp3174
sVAE1GZ
p3175
g1
((lp3176
S'bags'
p3177
atp3178
Rp3179
sVEY1NZ
p3180
g1
((lp3181
S'chains'
p3182
atp3183
Rp3184
sVAE1NS
p3185
g1
((lp3186
S'dance'
p3187
aS'chance'
p3188
atp3189
Rp3190
sVAE1NT
p3191
g1
((lp3192
S"can't"
p3193
atp3194
Rp3195
sVEH1RZ
p3196
g1
((lp3197
S"there's"
p3198
aS'stairs'
p3199
aS'squares'
p3200
atp3201
Rp3202
sVAE1NZ
p3203
g1
((lp3204
S'fans'
p3205
aS'hands'
p3206
atp3207
Rp3208
sVIY1MZ
p3209
g1
((lp3210
S'dreams'
p3211
atp3212
Rp3213
sVAE1ND
p3214
g1
((lp3215
S'and'
p3216
aS'land'
p3217
aS'brand'
p3218
aS'hand'
p3219
aS'sand'
p3220
aS'stand'
p3221
aS'grand'
p3222
atp3223
Rp3224
sVAE1NG
p3225
g1
((lp3226
S'dang'
p3227
aS'sang'
p3228
aS'bang'
p3229
aS'hang'
p3230
aS'gang'
p3231
atp3232
Rp3233
sVEH1RD
p3234
g1
((lp3235
S'scared'
p3236
atp3237
Rp3238
sVUW1Z
p3239
g1
((lp3240
S'use'
p3241
aS'shoes'
p3242
aS'views'
p3243
aS"who's"
p3244
aS'lose'
p3245
aS'chews'
p3246
aS'blues'
p3247
aS'news'
p3248
atp3249
Rp3250
sVUW1V
p3251
g1
((lp3252
S'move'
p3253
aS"you've"
p3254
atp3255
Rp3256
sVUW1T
p3257
g1
((lp3258
S'shoot'
p3259
aS'cute'
p3260
aS'fruit'
p3261
aS'boot'
p3262
aS'suit'
p3263
atp3264
Rp3265
sVUW1S
p3266
g1
((lp3267
S'juice'
p3268
aS'use'
p3269
aS'deuce'
p3270
atp3271
Rp3272
sVUW1R
p3273
g1
((lp3274
S"you're"
p3275
atp3276
Rp3277
sVUW1P
p3278
g1
((lp3279
S'oop'
p3280
atp3281
Rp3282
sVUW1M
p3283
g1
((lp3284
S'room'
p3285
atp3286
Rp3287
sVUW1L
p3288
g1
((lp3289
S'fool'
p3290
aS'school'
p3291
aS'cool'
p3292
atp3293
Rp3294
sVUW1K
p3295
g1
((lp3296
S'juke'
p3297
atp3298
Rp3299
sVUW1F
p3300
g1
((lp3301
S'poof'
p3302
aS'roof'
p3303
aS'proof'
p3304
atp3305
Rp3306
sVUW1D
p3307
g1
((lp3308
S'food'
p3309
aS'dude'
p3310
aS"you'd"
p3311
atp3312
Rp3313
sVIH1CH
p3314
g1
((lp3315
S'bitch'
p3316
aS'rich'
p3317
atp3318
Rp3319
sVIH1LZ
p3320
g1
((lp3321
S'kills'
p3322
atp3323
Rp3324
sVOW1NZ
p3325
g1
((lp3326
S'stones'
p3327
atp3328
Rp3329
sVEH1ND
p3330
g1
((lp3331
S'end'
p3332
aS'spend'
p3333
aS'friend'
p3334
atp3335
Rp3336
sVOW1NT
p3337
g1
((lp3338
S"won't"
p3339
aS"don't"
p3340
atp3341
Rp3342
sVIH1LT
p3343
g1
((lp3344
S'spilt'
p3345
atp3346
Rp3347
sVEH1NS
p3348
g1
((lp3349
S'tense'
p3350
aS'sense'
p3351
atp3352
Rp3353
sVIH1LK
p3354
g1
((lp3355
S'milk'
p3356
atp3357
Rp3358
sVEH1NT
p3359
g1
((lp3360
S'went'
p3361
atp3362
Rp3363
sVEH1NZ
p3364
g1
((lp3365
S'friends'
p3366
atp3367
Rp3368
sVAE1PT
p3369
g1
((lp3370
S'slapped'
p3371
aS'trapped'
p3372
atp3373
Rp3374
sVAE1PS
p3375
g1
((lp3376
S'raps'
p3377
atp3378
Rp3379
sVAA1RZ
p3380
g1
((lp3381
S'cars'
p3382
aS'scars'
p3383
aS'gars'
p3384
atp3385
Rp3386
sVEH1KST
p3387
g1
((lp3388
S'next'
p3389
atp3390
Rp3391
sVAA1B
p3392
g1
((lp3393
S'job'
p3394
atp3395
Rp3396
sVER1TS
p3397
g1
((lp3398
S'shirts'
p3399
atp3400
Rp3401
sVAA1D
p3402
g1
((lp3403
S'god'
p3404
aS'squad'
p3405
aS'rod'
p3406
atp3407
Rp3408
sVAA1G
p3409
g1
((lp3410
S'hog'
p3411
aS'jog'
p3412
atp3413
Rp3414
sVAA1K
p3415
g1
((lp3416
S'kok'
p3417
aS'clock'
p3418
aS'stock'
p3419
aS'rock'
p3420
atp3421
Rp3422
sVAA1M
p3423
g1
((lp3424
S'bomb'
p3425
aS'mom'
p3426
atp3427
Rp3428
sVAA1L
p3429
g1
((lp3430
S'fall'
p3431
atp3432
Rp3433
sS'AA1N'
p3434
g1
((lp3435
S'kanye'
p3436
aS'xan'
p3437
atp3438
Rp3439
sVAA1P
p3440
g1
((lp3441
S'shop'
p3442
aS'cop'
p3443
aS'bop'
p3444
aS'top'
p3445
aS'drop'
p3446
aS'stop'
p3447
aS'pop'
p3448
atp3449
Rp3450
sVAA1S
p3451
g1
((lp3452
S'boss'
p3453
atp3454
Rp3455
sVAA1R
p3456
g1
((lp3457
S'our'
p3458
aS'car'
p3459
atp3460
Rp3461
sVAA1T
p3462
g1
((lp3463
S'shot'
p3464
aS'caught'
p3465
aS'spot'
p3466
aS'lot'
p3467
aS'not'
p3468
aS'got'
p3469
atp3470
Rp3471
sVAA1Z
p3472
g1
((lp3473
S'cause'
p3474
aS'was'
p3475
aS'cars'
p3476
atp3477
Rp3478
sVER1TH
p3479
g1
((lp3480
S'earth'
p3481
aS'worth'
p3482
atp3483
Rp3484
s.