ccollections
defaultdict
p0
(c__main__
dd
p1
tp2
Rp3
I9
g0
(c__builtin__
float
p4
tp5
Rp6
I0
F0.5
sI5
F0.5
sI7
F0.5
ssI10
g0
(g4
tp7
Rp8
I0
F0.5
sI9
F0.5
sI5
F0.5
sI7
F0.5
ssI3
g0
(g4
tp9
Rp10
I1
F0.5
ssI5
g0
(g4
tp11
Rp12
I0
F0.5
ssI7
g0
(g4
tp13
Rp14
I3
F0.5
sI5
F0.5
ss.