ccollections
defaultdict
p0
(c__main__
dd
p1
tp2
Rp3
I1
g0
(c__builtin__
float
p4
tp5
Rp6
I0
F0.0019646365422396855
ssI2
g0
(g4
tp7
Rp8
I0
F0.029469548133595286
sI1
F0.0137524557956778
ssI3
g0
(g4
tp9
Rp10
I0
F0.019646365422396856
sI1
F0.023575638506876228
sI2
F0.007858546168958742
ssI4
g0
(g4
tp11
Rp12
I0
F0.0412573673870334
sI1
F0.025540275049115914
sI2
F0.03339882121807466
sI3
F0.009823182711198428
ssI5
g0
(g4
tp13
Rp14
I0
F0.015717092337917484
sI1
F0.023575638506876228
sI2
F0.03143418467583497
sI3
F0.021611001964636542
sI4
F0.060903732809430254
ssI6
g0
(g4
tp15
Rp16
I0
F0.01768172888015717
sI1
F0.025540275049115914
sI2
F0.03536345776031434
sI3
F0.011787819253438114
sI4
F0.007858546168958742
sI5
F0.023575638506876228
ssI7
g0
(g4
tp17
Rp18
I0
F0.007858546168958742
sI1
F0.011787819253438114
sI2
F0.01768172888015717
sI3
F0.01768172888015717
sI4
F0.011787819253438114
sI5
F0.023575638506876228
sI6
F0.007858546168958742
ssI8
g0
(g4
tp19
Rp20
I0
F0.029469548133595286
sI1
F0.023575638506876228
sI2
F0.023575638506876228
sI3
F0.021611001964636542
sI4
F0.043222003929273084
sI5
F0.015717092337917484
sI6
F0.0137524557956778
sI7
F0.011787819253438114
ssI9
g0
(g4
tp21
Rp22
I0
F0.0275049115913556
sI1
F0.0275049115913556
sI2
F0.007858546168958742
sI3
F0.03339882121807466
sI4
F0.03929273084479371
sI5
F0.029469548133595286
sI6
F0.011787819253438114
sI7
F0.025540275049115914
sI8
F0.023575638506876228
ssI10
g0
(g4
tp23
Rp24
I0
F0.025540275049115914
sI1
F0.01768172888015717
sI2
F0.0412573673870334
sI3
F0.025540275049115914
sI4
F0.0137524557956778
sI5
F0.0275049115913556
sI6
F0.043222003929273084
sI7
F0.01768172888015717
sI8
F0.019646365422396856
sI9
F0.0137524557956778
ssI11
g0
(g4
tp25
Rp26
I0
F0.011787819253438114
sI1
F0.011787819253438114
sI2
F0.023575638506876228
sI3
F0.0137524557956778
sI4
F0.019646365422396856
sI5
F0.01768172888015717
sI6
F0.011787819253438114
sI7
F0.021611001964636542
sI8
F0.01768172888015717
sI9
F0.01768172888015717
sI10
F0.021611001964636542
ssI12
g0
(g4
tp27
Rp28
I0
F0.021611001964636542
sI1
F0.007858546168958742
sI2
F0.03143418467583497
sI3
F0.019646365422396856
sI4
F0.03929273084479371
sI5
F0.03536345776031434
sI6
F0.01768172888015717
sI7
F0.011787819253438114
sI8
F0.0275049115913556
sI9
F0.015717092337917484
sI10
F0.01768172888015717
sI11
F0.011787819253438114
ssI13
g0
(g4
tp29
Rp30
I0
F0.015717092337917484
sI1
F0.015717092337917484
sI2
F0.025540275049115914
sI3
F0.009823182711198428
sI4
F0.03929273084479371
sI5
F0.021611001964636542
sI6
F0.021611001964636542
sI7
F0.009823182711198428
sI8
F0.0137524557956778
sI9
F0.019646365422396856
sI10
F0.007858546168958742
sI11
F0.023575638506876228
sI12
F0.03143418467583497
ssI14
g0
(g4
tp31
Rp32
I0
F0.007858546168958742
sI1
F0.003929273084479371
sI2
F0.019646365422396856
sI3
F0.0137524557956778
sI4
F0.025540275049115914
sI5
F0.009823182711198428
sI6
F0.03143418467583497
sI7
F0.0137524557956778
sI8
F0.01768172888015717
sI9
F0.007858546168958742
sI10
F0.019646365422396856
sI11
F0.009823182711198428
sI12
F0.011787819253438114
sI13
F0.015717092337917484
ssI15
g0
(g4
tp33
Rp34
I0
F0.011787819253438114
sI1
F0.023575638506876228
sI2
F0.03536345776031434
sI3
F0.021611001964636542
sI4
F0.021611001964636542
sI5
F0.01768172888015717
sI6
F0.025540275049115914
sI7
F0.0137524557956778
sI8
F0.019646365422396856
sI9
F0.007858546168958742
sI10
F0.0137524557956778
sI11
F0.023575638506876228
sI12
F0.009823182711198428
sI13
F0.01768172888015717
sI14
F0.005893909626719057
ssI16
g0
(g4
tp35
Rp36
I0
F0.0137524557956778
sI1
F0.007858546168958742
sI2
F0.015717092337917484
sI3
F0.007858546168958742
sI4
F0.0137524557956778
sI5
F0.009823182711198428
sI6
F0.01768172888015717
sI7
F0.005893909626719057
sI8
F0.0137524557956778
sI9
F0.01768172888015717
sI10
F0.025540275049115914
sI11
F0.011787819253438114
sI12
F0.015717092337917484
sI13
F0.0137524557956778
sI14
F0.009823182711198428
sI15
F0.005893909626719057
ssI17
g0
(g4
tp37
Rp38
I0
F0.0019646365422396855
sI1
F0.0137524557956778
sI2
F0.009823182711198428
sI3
F0.0137524557956778
sI4
F0.023575638506876228
sI5
F0.005893909626719057
sI6
F0.005893909626719057
sI7
F0.0137524557956778
sI8
F0.009823182711198428
sI9
F0.019646365422396856
sI10
F0.015717092337917484
sI11
F0.011787819253438114
sI12
F0.011787819253438114
sI13
F0.0137524557956778
sI14
F0.005893909626719057
sI15
F0.0137524557956778
sI16
F0.007858546168958742
ssI18
g0
(g4
tp39
Rp40
I0
F0.0019646365422396855
sI1
F0.007858546168958742
sI2
F0.015717092337917484
sI3
F0.003929273084479371
sI4
F0.011787819253438114
sI5
F0.009823182711198428
sI6
F0.015717092337917484
sI7
F0.015717092337917484
sI8
F0.0019646365422396855
sI9
F0.003929273084479371
sI10
F0.0275049115913556
sI11
F0.009823182711198428
sI12
F0.0137524557956778
sI13
F0.0137524557956778
sI14
F0.009823182711198428
sI15
F0.0137524557956778
sI16
F0.0137524557956778
sI17
F0.003929273084479371
ssI19
g0
(g4
tp41
Rp42
I0
F0.011787819253438114
sI1
F0.009823182711198428
sI2
F0.003929273084479371
sI3
F0.0137524557956778
sI4
F0.0137524557956778
sI5
F0.007858546168958742
sI6
F0.007858546168958742
sI7
F0.011787819253438114
sI8
F0.011787819253438114
sI9
F0.009823182711198428
sI10
F0.011787819253438114
sI11
F0.007858546168958742
sI12
F0.007858546168958742
sI13
F0.019646365422396856
sI14
F0.007858546168958742
sI15
F0.007858546168958742
sI16
F0.005893909626719057
sI17
F0.003929273084479371
ssI20
g0
(g4
tp43
Rp44
I0
F0.003929273084479371
sI1
F0.007858546168958742
sI2
F0.0137524557956778
sI3
F0.005893909626719057
sI4
F0.007858546168958742
sI5
F0.003929273084479371
sI6
F0.011787819253438114
sI7
F0.0019646365422396855
sI8
F0.011787819253438114
sI9
F0.0137524557956778
sI10
F0.015717092337917484
sI11
F0.007858546168958742
sI12
F0.009823182711198428
sI13
F0.009823182711198428
sI14
F0.007858546168958742
sI15
F0.005893909626719057
sI16
F0.007858546168958742
sI17
F0.0019646365422396855
sI18
F0.007858546168958742
sI19
F0.005893909626719057
ssI21
g0
(g4
tp45
Rp46
I0
F0.003929273084479371
sI1
F0.0019646365422396855
sI2
F0.003929273084479371
sI3
F0.0019646365422396855
sI4
F0.005893909626719057
sI5
F0.009823182711198428
sI6
F0.003929273084479371
sI7
F0.0019646365422396855
sI9
F0.009823182711198428
sI10
F0.005893909626719057
sI11
F0.009823182711198428
sI12
F0.005893909626719057
sI13
F0.003929273084479371
sI14
F0.011787819253438114
sI15
F0.005893909626719057
sI16
F0.007858546168958742
sI18
F0.0137524557956778
sI19
F0.003929273084479371
sI20
F0.003929273084479371
ssI22
g0
(g4
tp47
Rp48
I0
F0.0019646365422396855
sI1
F0.007858546168958742
sI2
F0.009823182711198428
sI3
F0.005893909626719057
sI4
F0.003929273084479371
sI5
F0.003929273084479371
sI6
F0.007858546168958742
sI7
F0.009823182711198428
sI8
F0.007858546168958742
sI9
F0.005893909626719057
sI10
F0.015717092337917484
sI11
F0.005893909626719057
sI12
F0.005893909626719057
sI13
F0.003929273084479371
sI14
F0.005893909626719057
sI15
F0.007858546168958742
sI16
F0.007858546168958742
sI17
F0.005893909626719057
sI18
F0.0137524557956778
sI19
F0.007858546168958742
sI20
F0.0019646365422396855
sI21
F0.003929273084479371
ssI23
g0
(g4
tp49
Rp50
I0
F0.0019646365422396855
sI1
F0.0019646365422396855
sI2
F0.003929273084479371
sI3
F0.007858546168958742
sI4
F0.009823182711198428
sI5
F0.003929273084479371
sI6
F0.007858546168958742
sI7
F0.0019646365422396855
sI8
F0.003929273084479371
sI9
F0.007858546168958742
sI10
F0.003929273084479371
sI11
F0.005893909626719057
sI12
F0.009823182711198428
sI13
F0.005893909626719057
sI14
F0.005893909626719057
sI15
F0.003929273084479371
sI16
F0.0019646365422396855
sI17
F0.0019646365422396855
sI18
F0.009823182711198428
sI19
F0.003929273084479371
sI20
F0.0019646365422396855
sI21
F0.005893909626719057
sI22
F0.0019646365422396855
ssI24
g0
(g4
tp51
Rp52
I2
F0.005893909626719057
sI3
F0.005893909626719057
sI5
F0.0019646365422396855
sI6
F0.005893909626719057
sI7
F0.0019646365422396855
sI8
F0.005893909626719057
sI9
F0.007858546168958742
sI10
F0.0019646365422396855
sI11
F0.003929273084479371
sI12
F0.0019646365422396855
sI13
F0.005893909626719057
sI14
F0.005893909626719057
sI15
F0.0019646365422396855
sI16
F0.003929273084479371
sI17
F0.0019646365422396855
sI18
F0.005893909626719057
sI19
F0.005893909626719057
sI20
F0.003929273084479371
sI22
F0.007858546168958742
sI23
F0.0019646365422396855
ssI25
g0
(g4
tp53
Rp54
I0
F0.0019646365422396855
sI3
F0.0019646365422396855
sI4
F0.003929273084479371
sI6
F0.005893909626719057
sI7
F0.003929273084479371
sI8
F0.003929273084479371
sI10
F0.003929273084479371
sI11
F0.003929273084479371
sI12
F0.003929273084479371
sI13
F0.005893909626719057
sI14
F0.003929273084479371
sI15
F0.0019646365422396855
sI17
F0.0019646365422396855
sI18
F0.005893909626719057
sI19
F0.003929273084479371
sI20
F0.005893909626719057
sI21
F0.0019646365422396855
sI23
F0.0019646365422396855
ssI26
g0
(g4
tp55
Rp56
I2
F0.0019646365422396855
sI4
F0.003929273084479371
sI5
F0.003929273084479371
sI6
F0.007858546168958742
sI10
F0.0019646365422396855
sI11
F0.0019646365422396855
sI12
F0.003929273084479371
sI13
F0.003929273084479371
sI14
F0.009823182711198428
sI15
F0.0019646365422396855
sI17
F0.0019646365422396855
sI18
F0.003929273084479371
sI20
F0.0019646365422396855
sI21
F0.0019646365422396855
sI22
F0.003929273084479371
sI23
F0.003929273084479371
sI25
F0.003929273084479371
ssI27
g0
(g4
tp57
Rp58
I4
F0.0019646365422396855
sI5
F0.0019646365422396855
sI9
F0.003929273084479371
sI10
F0.0019646365422396855
sI13
F0.0019646365422396855
sI16
F0.0019646365422396855
sI20
F0.0019646365422396855
sI21
F0.0019646365422396855
sI22
F0.0019646365422396855
sI23
F0.0019646365422396855
sI25
F0.0019646365422396855
ssI28
g0
(g4
tp59
Rp60
I2
F0.0019646365422396855
sI4
F0.0019646365422396855
sI7
F0.0019646365422396855
sI8
F0.0019646365422396855
sI11
F0.0019646365422396855
sI12
F0.003929273084479371
sI13
F0.0019646365422396855
sI14
F0.005893909626719057
sI15
F0.0019646365422396855
sI17
F0.0019646365422396855
sI20
F0.003929273084479371
sI23
F0.0019646365422396855
sI26
F0.0019646365422396855
sI27
F0.0019646365422396855
ssI29
g0
(g4
tp61
Rp62
I1
F0.0019646365422396855
sI3
F0.0019646365422396855
sI4
F0.0019646365422396855
sI5
F0.0019646365422396855
sI6
F0.0019646365422396855
sI12
F0.0019646365422396855
sI13
F0.0019646365422396855
sI14
F0.0019646365422396855
sI15
F0.0019646365422396855
sI16
F0.0019646365422396855
sI17
F0.003929273084479371
sI18
F0.0019646365422396855
sI20
F0.0019646365422396855
sI26
F0.0019646365422396855
sI27
F0.0019646365422396855
sI28
F0.0019646365422396855
ssI30
g0
(g4
tp63
Rp64
I2
F0.0019646365422396855
sI3
F0.0019646365422396855
sI5
F0.003929273084479371
sI6
F0.005893909626719057
sI7
F0.0019646365422396855
sI9
F0.0019646365422396855
sI10
F0.0019646365422396855
sI12
F0.0019646365422396855
sI15
F0.0019646365422396855
sI16
F0.0019646365422396855
sI18
F0.0019646365422396855
sI19
F0.0019646365422396855
sI23
F0.0019646365422396855
sI25
F0.0019646365422396855
sI29
F0.003929273084479371
ssI31
g0
(g4
tp65
Rp66
I27
F0.0019646365422396855
sI29
F0.0019646365422396855
ssI32
g0
(g4
tp67
Rp68
I7
F0.0019646365422396855
sI11
F0.0019646365422396855
sI14
F0.0019646365422396855
sI16
F0.0019646365422396855
sI17
F0.0019646365422396855
sI18
F0.0019646365422396855
sI22
F0.0019646365422396855
sI24
F0.0019646365422396855
sI28
F0.0019646365422396855
sI30
F0.0019646365422396855
ssI33
g0
(g4
tp69
Rp70
I32
F0.0019646365422396855
sI1
F0.0019646365422396855
sI2
F0.005893909626719057
sI5
F0.0019646365422396855
sI7
F0.003929273084479371
sI10
F0.0019646365422396855
sI11
F0.0019646365422396855
sI12
F0.0019646365422396855
sI15
F0.0019646365422396855
sI17
F0.0019646365422396855
sI18
F0.0019646365422396855
sI19
F0.0019646365422396855
sI22
F0.0019646365422396855
sI23
F0.0019646365422396855
sI26
F0.0019646365422396855
sI27
F0.0019646365422396855
sI28
F0.0019646365422396855
sI29
F0.003929273084479371
sI30
F0.0019646365422396855
sI31
F0.0019646365422396855
ssI34
g0
(g4
tp71
Rp72
I33
F0.0019646365422396855
sI3
F0.0019646365422396855
sI6
F0.0019646365422396855
sI7
F0.0019646365422396855
sI8
F0.0019646365422396855
sI12
F0.0019646365422396855
sI15
F0.0019646365422396855
sI17
F0.0019646365422396855
sI18
F0.0019646365422396855
sI25
F0.0019646365422396855
sI29
F0.0019646365422396855
ssI35
g0
(g4
tp73
Rp74
I0
F0.0019646365422396855
sI32
F0.0019646365422396855
sI2
F0.0019646365422396855
sI33
F0.0019646365422396855
sI7
F0.0019646365422396855
sI11
F0.0019646365422396855
sI17
F0.0019646365422396855
sI21
F0.0019646365422396855
sI23
F0.0019646365422396855
sI28
F0.0019646365422396855
ssI36
g0
(g4
tp75
Rp76
I32
F0.0019646365422396855
sI33
F0.0019646365422396855
sI35
F0.0019646365422396855
sI7
F0.0019646365422396855
sI11
F0.0019646365422396855
sI14
F0.0019646365422396855
sI17
F0.0019646365422396855
sI18
F0.0019646365422396855
sI24
F0.0019646365422396855
sI28
F0.0019646365422396855
sI30
F0.0019646365422396855
ssI37
g0
(g4
tp77
Rp78
I1
F0.0019646365422396855
sI5
F0.0019646365422396855
ssI38
g0
(g4
tp79
Rp80
I3
F0.0019646365422396855
sI7
F0.0019646365422396855
ssI39
g0
(g4
tp81
Rp82
I33
F0.003929273084479371
sI29
F0.0019646365422396855
ssI40
g0
(g4
tp83
Rp84
I32
F0.0019646365422396855
sI33
F0.0019646365422396855
sI2
F0.0019646365422396855
sI35
F0.0019646365422396855
sI36
F0.0019646365422396855
sI7
F0.0019646365422396855
sI11
F0.0019646365422396855
sI17
F0.0019646365422396855
sI23
F0.0019646365422396855
sI28
F0.0019646365422396855
ssI43
g0
(g4
tp85
Rp86
I40
F0.0019646365422396855
sI18
F0.0019646365422396855
sI27
F0.0019646365422396855
sI36
F0.0019646365422396855
ssI45
g0
(g4
tp87
Rp88
I17
F0.0019646365422396855
sI34
F0.0019646365422396855
sI25
F0.0019646365422396855
ss.