ccollections
defaultdict
p0
(c__main__
dd
p1
tp2
Rp3
I1
g0
(c__builtin__
float
p4
tp5
Rp6
I0
F1.0
ssI2
g0
(g4
tp7
Rp8
I0
F0.625
sI1
F0.375
ssI3
g0
(g4
tp9
Rp10
I0
F0.4166666666666667
sI1
F0.2916666666666667
sI2
F0.2916666666666667
ssI4
g0
(g4
tp11
Rp12
I0
F0.22448979591836735
sI1
F0.2789115646258503
sI2
F0.3333333333333333
sI3
F0.16326530612244897
ssI5
g0
(g4
tp13
Rp14
I0
F0.16770186335403728
sI1
F0.2670807453416149
sI2
F0.18633540372670807
sI3
F0.2422360248447205
sI4
F0.13664596273291926
ssI6
g0
(g4
tp15
Rp16
I0
F0.20982142857142858
sI1
F0.07589285714285714
sI2
F0.27232142857142855
sI3
F0.20089285714285715
sI4
F0.15178571428571427
sI5
F0.08928571428571429
ssI7
g0
(g4
tp17
Rp18
I0
F0.14522821576763487
sI1
F0.17842323651452283
sI2
F0.15352697095435686
sI3
F0.1908713692946058
sI4
F0.14522821576763487
sI5
F0.11203319502074689
sI6
F0.07468879668049792
ssI8
g0
(g4
tp19
Rp20
I0
F0.11522633744855967
sI1
F0.10699588477366255
sI2
F0.1646090534979424
sI3
F0.12345679012345678
sI4
F0.13580246913580246
sI5
F0.13168724279835392
sI6
F0.11522633744855967
sI7
F0.10699588477366255
ssI9
g0
(g4
tp21
Rp22
I0
F0.1073170731707317
sI1
F0.1024390243902439
sI2
F0.16097560975609757
sI3
F0.13170731707317074
sI4
F0.11707317073170732
sI5
F0.09268292682926829
sI6
F0.1024390243902439
sI7
F0.12195121951219512
sI8
F0.06341463414634146
ssI10
g0
(g4
tp23
Rp24
I0
F0.08695652173913043
sI1
F0.07608695652173914
sI2
F0.14673913043478262
sI3
F0.1358695652173913
sI4
F0.10869565217391304
sI5
F0.10869565217391304
sI6
F0.07608695652173914
sI7
F0.11413043478260869
sI8
F0.08695652173913043
sI9
F0.059782608695652176
ssI11
g0
(g4
tp25
Rp26
I0
F0.06944444444444445
sI1
F0.08333333333333333
sI2
F0.10416666666666667
sI3
F0.1111111111111111
sI4
F0.08333333333333333
sI5
F0.10416666666666667
sI6
F0.125
sI7
F0.125
sI8
F0.08333333333333333
sI9
F0.0625
sI10
F0.04861111111111111
ssI12
g0
(g4
tp27
Rp28
I0
F0.10273972602739725
sI1
F0.0684931506849315
sI2
F0.10273972602739725
sI3
F0.0821917808219178
sI4
F0.1643835616438356
sI5
F0.0547945205479452
sI6
F0.07534246575342465
sI7
F0.0684931506849315
sI8
F0.08904109589041095
sI9
F0.06164383561643835
sI10
F0.0958904109589041
sI11
F0.03424657534246575
ssI13
g0
(g4
tp29
Rp30
I0
F0.0594059405940594
sI1
F0.0594059405940594
sI2
F0.09900990099009901
sI3
F0.0891089108910891
sI4
F0.0891089108910891
sI5
F0.09900990099009901
sI6
F0.06930693069306931
sI7
F0.0891089108910891
sI8
F0.04950495049504951
sI9
F0.07920792079207921
sI10
F0.0594059405940594
sI11
F0.10891089108910891
sI12
F0.04950495049504951
ssI14
g0
(g4
tp31
Rp32
I0
F0.08333333333333333
sI1
F0.08333333333333333
sI2
F0.1388888888888889
sI4
F0.19444444444444445
sI5
F0.05555555555555555
sI6
F0.08333333333333333
sI7
F0.027777777777777776
sI8
F0.05555555555555555
sI9
F0.1111111111111111
sI10
F0.027777777777777776
sI11
F0.08333333333333333
sI12
F0.027777777777777776
sI13
F0.027777777777777776
ssI15
g0
(g4
tp33
Rp34
I0
F0.13636363636363635
sI1
F0.045454545454545456
sI2
F0.09090909090909091
sI3
F0.045454545454545456
sI5
F0.045454545454545456
sI6
F0.045454545454545456
sI7
F0.045454545454545456
sI8
F0.045454545454545456
sI9
F0.13636363636363635
sI10
F0.18181818181818182
sI11
F0.045454545454545456
sI12
F0.045454545454545456
sI13
F0.09090909090909091
ssI16
g0
(g4
tp35
Rp36
I0
F0.125
sI2
F0.125
sI3
F0.125
sI4
F0.125
sI7
F0.125
sI8
F0.125
sI12
F0.125
sI14
F0.125
ssI17
g0
(g4
tp37
Rp38
I1
F0.15384615384615385
sI3
F0.15384615384615385
sI5
F0.07692307692307693
sI7
F0.07692307692307693
sI9
F0.07692307692307693
sI10
F0.15384615384615385
sI11
F0.07692307692307693
sI12
F0.07692307692307693
sI13
F0.07692307692307693
sI15
F0.07692307692307693
ssI18
g0
(g4
tp39
Rp40
I0
F0.09090909090909091
sI1
F0.09090909090909091
sI3
F0.09090909090909091
sI4
F0.045454545454545456
sI6
F0.13636363636363635
sI7
F0.09090909090909091
sI8
F0.09090909090909091
sI10
F0.045454545454545456
sI11
F0.045454545454545456
sI12
F0.09090909090909091
sI13
F0.045454545454545456
sI15
F0.045454545454545456
sI17
F0.09090909090909091
ssI19
g0
(g4
tp41
Rp42
I1
F0.25
sI5
F0.16666666666666666
sI7
F0.16666666666666666
sI11
F0.08333333333333333
sI13
F0.08333333333333333
sI17
F0.16666666666666666
sI18
F0.08333333333333333
ssI20
g0
(g4
tp43
Rp44
I0
F0.3333333333333333
sI12
F0.3333333333333333
sI4
F0.3333333333333333
ssI21
g0
(g4
tp45
Rp46
I2
F0.14285714285714285
sI3
F0.14285714285714285
sI5
F0.14285714285714285
sI6
F0.14285714285714285
sI8
F0.14285714285714285
sI13
F0.14285714285714285
sI18
F0.14285714285714285
ssI22
g0
(g4
tp47
Rp48
I0
F0.2
sI1
F0.1
sI2
F0.1
sI7
F0.2
sI11
F0.1
sI13
F0.1
sI18
F0.1
sI19
F0.1
ssI23
g0
(g4
tp49
Rp50
I8
F0.5
sI20
F0.5
ssI24
g0
(g4
tp51
Rp52
I17
F0.3333333333333333
sI11
F0.3333333333333333
sI9
F0.3333333333333333
ssI25
g0
(g4
tp53
Rp54
I0
F0.2
sI12
F0.2
sI18
F0.2
sI4
F0.2
sI20
F0.2
ssI26
g0
(g4
tp55
Rp56
I21
F0.3333333333333333
sI5
F0.3333333333333333
sI13
F0.3333333333333333
ssI27
g0
(g4
tp57
Rp58
I3
F0.14285714285714285
sI4
F0.14285714285714285
sI6
F0.14285714285714285
sI12
F0.14285714285714285
sI18
F0.2857142857142857
sI25
F0.14285714285714285
ssI28
g0
(g4
tp59
Rp60
I2
F0.5
sI7
F0.5
ssI31
g0
(g4
tp61
Rp62
I3
F0.14285714285714285
sI4
F0.14285714285714285
sI6
F0.14285714285714285
sI12
F0.14285714285714285
sI18
F0.14285714285714285
sI19
F0.14285714285714285
sI27
F0.14285714285714285
ssI32
g0
(g4
tp63
Rp64
I28
F0.25
sI2
F0.25
sI20
F0.25
sI7
F0.25
ssI33
g0
(g4
tp65
Rp66
I25
F0.3333333333333333
sI18
F0.3333333333333333
sI27
F0.3333333333333333
ssI35
g0
(g4
tp67
Rp68
I0
F0.3333333333333333
sI22
F0.3333333333333333
sI7
F0.3333333333333333
ssI36
g0
(g4
tp69
Rp70
I30
F1.0
ssI41
g0
(g4
tp71
Rp72
I36
F0.5
sI30
F0.5
ssI43
g0
(g4
tp73
Rp74
I42
F1.0
ssI44
g0
(g4
tp75
Rp76
I9
F1.0
ssI47
g0
(g4
tp77
Rp78
I32
F0.16666666666666666
sI41
F0.16666666666666666
sI19
F0.16666666666666666
sI20
F0.16666666666666666
sI30
F0.16666666666666666
sI31
F0.16666666666666666
ssI48
g0
(g4
tp79
Rp80
I41
F0.3333333333333333
sI30
F0.3333333333333333
sI47
F0.3333333333333333
ssI49
g0
(g4
tp81
Rp82
I45
F1.0
ssI50
g0
(g4
tp83
Rp84
I46
F1.0
ss.