ccollections
defaultdict
p0
(c__main__
dd
p1
tp2
Rp3
I1
g0
(c__builtin__
float
p4
tp5
Rp6
I0
F1.0
ssI2
g0
(g4
tp7
Rp8
I0
F0.545045045045045
sI1
F0.45495495495495497
ssI3
g0
(g4
tp9
Rp10
I0
F0.3230769230769231
sI1
F0.36
sI2
F0.3169230769230769
ssI4
g0
(g4
tp11
Rp12
I0
F0.212253829321663
sI1
F0.25601750547045954
sI2
F0.33916849015317285
sI3
F0.1925601750547046
ssI5
g0
(g4
tp13
Rp14
I0
F0.18110236220472442
sI1
F0.234251968503937
sI2
F0.2106299212598425
sI3
F0.21850393700787402
sI4
F0.15551181102362205
ssI6
g0
(g4
tp15
Rp16
I0
F0.15813953488372093
sI1
F0.11782945736434108
sI2
F0.20930232558139536
sI3
F0.1875968992248062
sI4
F0.2
sI5
F0.12713178294573643
ssI7
g0
(g4
tp17
Rp18
I0
F0.12719298245614036
sI1
F0.1652046783625731
sI2
F0.14181286549707603
sI3
F0.16374269005847952
sI4
F0.13304093567251463
sI5
F0.14473684210526316
sI6
F0.12426900584795321
ssI8
g0
(g4
tp19
Rp20
I0
F0.10757575757575757
sI1
F0.10909090909090909
sI2
F0.15757575757575756
sI3
F0.10757575757575757
sI4
F0.15303030303030302
sI5
F0.1303030303030303
sI6
F0.13484848484848486
sI7
F0.1
ssI9
g0
(g4
tp21
Rp22
I0
F0.09369951534733441
sI1
F0.09693053311793215
sI2
F0.13408723747980614
sI3
F0.11954765751211632
sI4
F0.11793214862681745
sI5
F0.10662358642972536
sI6
F0.10823909531502424
sI7
F0.13408723747980614
sI8
F0.0888529886914378
ssI10
g0
(g4
tp23
Rp24
I0
F0.08774834437086093
sI1
F0.08443708609271523
sI2
F0.1291390728476821
sI3
F0.09933774834437085
sI4
F0.09933774834437085
sI5
F0.09768211920529801
sI6
F0.09602649006622517
sI7
F0.1076158940397351
sI8
F0.11423841059602649
sI9
F0.08443708609271523
ssI11
g0
(g4
tp25
Rp26
I0
F0.08447937131630648
sI1
F0.08055009823182711
sI2
F0.08644400785854617
sI3
F0.10805500982318271
sI4
F0.10216110019646366
sI5
F0.09233791748526522
sI6
F0.0962671905697446
sI7
F0.09037328094302555
sI8
F0.09823182711198428
sI9
F0.09430255402750491
sI10
F0.06679764243614932
ssI12
g0
(g4
tp27
Rp28
I0
F0.07110091743119266
sI1
F0.06192660550458716
sI2
F0.11009174311926606
sI3
F0.0871559633027523
sI4
F0.12385321100917432
sI5
F0.06880733944954129
sI6
F0.10091743119266056
sI7
F0.0871559633027523
sI8
F0.06880733944954129
sI9
F0.06651376146788991
sI10
F0.08944954128440367
sI11
F0.06422018348623854
ssI13
g0
(g4
tp29
Rp30
I0
F0.05405405405405406
sI1
F0.060810810810810814
sI2
F0.10135135135135136
sI3
F0.0945945945945946
sI4
F0.07432432432432433
sI5
F0.08445945945945946
sI6
F0.0777027027027027
sI7
F0.09121621621621621
sI8
F0.06418918918918919
sI9
F0.0777027027027027
sI10
F0.07094594594594594
sI11
F0.09797297297297297
sI12
F0.05067567567567568
ssI14
g0
(g4
tp31
Rp32
I0
F0.05660377358490566
sI1
F0.07547169811320754
sI2
F0.07547169811320754
sI3
F0.03773584905660377
sI4
F0.12578616352201258
sI5
F0.06918238993710692
sI6
F0.10062893081761007
sI7
F0.06289308176100629
sI8
F0.06289308176100629
sI9
F0.05660377358490566
sI10
F0.07547169811320754
sI11
F0.0880503144654088
sI12
F0.06918238993710692
sI13
F0.0440251572327044
ssI15
g0
(g4
tp33
Rp34
I0
F0.12658227848101267
sI1
F0.0759493670886076
sI2
F0.0759493670886076
sI3
F0.05063291139240506
sI4
F0.02531645569620253
sI5
F0.11392405063291139
sI6
F0.08860759493670886
sI7
F0.05063291139240506
sI8
F0.05063291139240506
sI9
F0.06329113924050633
sI10
F0.08860759493670886
sI11
F0.0379746835443038
sI12
F0.05063291139240506
sI13
F0.0759493670886076
sI14
F0.02531645569620253
ssI16
g0
(g4
tp35
Rp36
I0
F0.05128205128205128
sI1
F0.02564102564102564
sI2
F0.05128205128205128
sI3
F0.10256410256410256
sI4
F0.05128205128205128
sI5
F0.05128205128205128
sI6
F0.05128205128205128
sI7
F0.07692307692307693
sI8
F0.10256410256410256
sI9
F0.02564102564102564
sI10
F0.07692307692307693
sI11
F0.07692307692307693
sI12
F0.07692307692307693
sI13
F0.05128205128205128
sI14
F0.07692307692307693
sI15
F0.05128205128205128
ssI17
g0
(g4
tp37
Rp38
I1
F0.10810810810810811
sI2
F0.05405405405405406
sI3
F0.08108108108108109
sI5
F0.08108108108108109
sI6
F0.02702702702702703
sI7
F0.10810810810810811
sI8
F0.05405405405405406
sI9
F0.08108108108108109
sI10
F0.13513513513513514
sI11
F0.02702702702702703
sI12
F0.05405405405405406
sI13
F0.05405405405405406
sI14
F0.02702702702702703
sI15
F0.05405405405405406
sI16
F0.05405405405405406
ssI18
g0
(g4
tp39
Rp40
I0
F0.03773584905660377
sI1
F0.05660377358490566
sI2
F0.03773584905660377
sI3
F0.03773584905660377
sI4
F0.03773584905660377
sI5
F0.05660377358490566
sI6
F0.09433962264150944
sI7
F0.07547169811320754
sI8
F0.07547169811320754
sI9
F0.07547169811320754
sI10
F0.05660377358490566
sI11
F0.09433962264150944
sI12
F0.05660377358490566
sI13
F0.03773584905660377
sI14
F0.03773584905660377
sI15
F0.05660377358490566
sI16
F0.018867924528301886
sI17
F0.05660377358490566
ssI19
g0
(g4
tp41
Rp42
I1
F0.07692307692307693
sI2
F0.02564102564102564
sI3
F0.05128205128205128
sI5
F0.07692307692307693
sI6
F0.02564102564102564
sI7
F0.07692307692307693
sI8
F0.07692307692307693
sI9
F0.05128205128205128
sI10
F0.07692307692307693
sI11
F0.02564102564102564
sI12
F0.02564102564102564
sI13
F0.05128205128205128
sI14
F0.02564102564102564
sI15
F0.07692307692307693
sI16
F0.07692307692307693
sI17
F0.10256410256410256
sI18
F0.07692307692307693
ssI20
g0
(g4
tp43
Rp44
I0
F0.07692307692307693
sI3
F0.15384615384615385
sI4
F0.07692307692307693
sI7
F0.07692307692307693
sI8
F0.07692307692307693
sI10
F0.07692307692307693
sI12
F0.07692307692307693
sI13
F0.07692307692307693
sI14
F0.07692307692307693
sI16
F0.15384615384615385
sI19
F0.07692307692307693
ssI21
g0
(g4
tp45
Rp46
I1
F0.05555555555555555
sI2
F0.05555555555555555
sI3
F0.1111111111111111
sI5
F0.16666666666666666
sI6
F0.05555555555555555
sI7
F0.05555555555555555
sI8
F0.05555555555555555
sI10
F0.05555555555555555
sI13
F0.1111111111111111
sI17
F0.1111111111111111
sI18
F0.1111111111111111
sI19
F0.05555555555555555
ssI22
g0
(g4
tp47
Rp48
I0
F0.09090909090909091
sI1
F0.09090909090909091
sI2
F0.045454545454545456
sI5
F0.045454545454545456
sI7
F0.13636363636363635
sI8
F0.045454545454545456
sI9
F0.045454545454545456
sI10
F0.045454545454545456
sI11
F0.045454545454545456
sI13
F0.09090909090909091
sI14
F0.045454545454545456
sI17
F0.045454545454545456
sI18
F0.09090909090909091
sI19
F0.09090909090909091
sI21
F0.045454545454545456
ssI23
g0
(g4
tp49
Rp50
I8
F0.6666666666666666
sI20
F0.3333333333333333
ssI24
g0
(g4
tp51
Rp52
I0
F0.13333333333333333
sI2
F0.06666666666666667
sI7
F0.06666666666666667
sI8
F0.06666666666666667
sI9
F0.06666666666666667
sI10
F0.06666666666666667
sI11
F0.13333333333333333
sI13
F0.06666666666666667
sI14
F0.06666666666666667
sI17
F0.13333333333333333
sI18
F0.06666666666666667
sI22
F0.06666666666666667
ssI25
g0
(g4
tp53
Rp54
I0
F0.1
sI4
F0.1
sI6
F0.1
sI8
F0.1
sI11
F0.1
sI12
F0.1
sI18
F0.1
sI19
F0.1
sI20
F0.1
sI24
F0.1
ssI26
g0
(g4
tp55
Rp56
I1
F0.1111111111111111
sI2
F0.05555555555555555
sI3
F0.05555555555555555
sI5
F0.1111111111111111
sI7
F0.05555555555555555
sI9
F0.05555555555555555
sI10
F0.05555555555555555
sI13
F0.05555555555555555
sI15
F0.05555555555555555
sI17
F0.1111111111111111
sI18
F0.05555555555555555
sI19
F0.1111111111111111
sI21
F0.05555555555555555
sI22
F0.05555555555555555
ssI27
g0
(g4
tp57
Rp58
I3
F0.09090909090909091
sI4
F0.09090909090909091
sI6
F0.18181818181818182
sI8
F0.09090909090909091
sI11
F0.09090909090909091
sI12
F0.09090909090909091
sI18
F0.18181818181818182
sI19
F0.09090909090909091
sI25
F0.09090909090909091
ssI28
g0
(g4
tp59
Rp60
I2
F0.14285714285714285
sI3
F0.07142857142857142
sI7
F0.07142857142857142
sI8
F0.07142857142857142
sI9
F0.07142857142857142
sI10
F0.07142857142857142
sI11
F0.07142857142857142
sI15
F0.07142857142857142
sI17
F0.14285714285714285
sI19
F0.07142857142857142
sI24
F0.07142857142857142
sI26
F0.07142857142857142
ssI29
g0
(g4
tp61
Rp62
I16
F0.2
sI10
F0.2
sI13
F0.2
sI5
F0.2
sI21
F0.2
ssI30
g0
(g4
tp63
Rp64
I1
F0.1111111111111111
sI3
F0.1111111111111111
sI6
F0.1111111111111111
sI8
F0.1111111111111111
sI11
F0.1111111111111111
sI18
F0.1111111111111111
sI25
F0.1111111111111111
sI26
F0.1111111111111111
sI27
F0.1111111111111111
ssI31
g0
(g4
tp65
Rp66
I3
F0.09090909090909091
sI4
F0.09090909090909091
sI6
F0.09090909090909091
sI8
F0.09090909090909091
sI12
F0.09090909090909091
sI18
F0.18181818181818182
sI19
F0.09090909090909091
sI25
F0.09090909090909091
sI27
F0.18181818181818182
ssI32
g0
(g4
tp67
Rp68
I2
F0.08333333333333333
sI3
F0.08333333333333333
sI7
F0.08333333333333333
sI9
F0.08333333333333333
sI10
F0.08333333333333333
sI11
F0.08333333333333333
sI15
F0.08333333333333333
sI17
F0.08333333333333333
sI19
F0.08333333333333333
sI20
F0.08333333333333333
sI26
F0.08333333333333333
sI28
F0.08333333333333333
ssI33
g0
(g4
tp69
Rp70
I6
F0.1111111111111111
sI8
F0.1111111111111111
sI11
F0.1111111111111111
sI18
F0.1111111111111111
sI19
F0.1111111111111111
sI25
F0.1111111111111111
sI27
F0.1111111111111111
sI30
F0.1111111111111111
sI31
F0.1111111111111111
ssI34
g0
(g4
tp71
Rp72
I2
F0.16666666666666666
sI8
F0.16666666666666666
sI14
F0.16666666666666666
sI17
F0.16666666666666666
sI24
F0.16666666666666666
sI28
F0.16666666666666666
ssI35
g0
(g4
tp73
Rp74
I0
F0.3333333333333333
sI22
F0.3333333333333333
sI7
F0.3333333333333333
ssI36
g0
(g4
tp75
Rp76
I3
F0.5
sI30
F0.5
ssI37
g0
(g4
tp77
Rp78
I11
F0.5
sI4
F0.5
ssI38
g0
(g4
tp79
Rp80
I33
F0.14285714285714285
sI8
F0.14285714285714285
sI18
F0.14285714285714285
sI19
F0.14285714285714285
sI25
F0.14285714285714285
sI27
F0.14285714285714285
sI31
F0.14285714285714285
ssI39
g0
(g4
tp81
Rp82
I16
F0.2
sI10
F0.2
sI29
F0.2
sI5
F0.2
sI21
F0.2
ssI40
g0
(g4
tp83
Rp84
I13
F0.5
sI21
F0.5
ssI41
g0
(g4
tp85
Rp86
I33
F0.1
sI3
F0.1
sI36
F0.1
sI6
F0.1
sI8
F0.1
sI11
F0.1
sI18
F0.1
sI25
F0.1
sI27
F0.1
sI30
F0.1
ssI42
g0
(g4
tp87
Rp88
I1
F1.0
ssI43
g0
(g4
tp89
Rp90
I1
F0.5
sI42
F0.5
ssI44
g0
(g4
tp91
Rp92
I9
F1.0
ssI45
g0
(g4
tp93
Rp94
I11
F0.3333333333333333
sI4
F0.3333333333333333
sI37
F0.3333333333333333
ssI46
g0
(g4
tp95
Rp96
I33
F0.1111111111111111
sI6
F0.1111111111111111
sI8
F0.1111111111111111
sI41
F0.1111111111111111
sI11
F0.1111111111111111
sI18
F0.1111111111111111
sI25
F0.1111111111111111
sI27
F0.1111111111111111
sI30
F0.1111111111111111
ssI47
g0
(g4
tp97
Rp98
I32
F0.06666666666666667
sI33
F0.06666666666666667
sI38
F0.06666666666666667
sI6
F0.06666666666666667
sI8
F0.06666666666666667
sI41
F0.06666666666666667
sI11
F0.06666666666666667
sI46
F0.06666666666666667
sI18
F0.06666666666666667
sI19
F0.06666666666666667
sI20
F0.06666666666666667
sI25
F0.06666666666666667
sI27
F0.06666666666666667
sI30
F0.06666666666666667
sI31
F0.06666666666666667
ssI48
g0
(g4
tp99
Rp100
I33
F0.06666666666666667
sI6
F0.06666666666666667
sI39
F0.06666666666666667
sI8
F0.06666666666666667
sI41
F0.06666666666666667
sI10
F0.06666666666666667
sI11
F0.06666666666666667
sI46
F0.06666666666666667
sI47
F0.06666666666666667
sI16
F0.06666666666666667
sI18
F0.06666666666666667
sI25
F0.06666666666666667
sI27
F0.06666666666666667
sI29
F0.06666666666666667
sI30
F0.06666666666666667
ssI49
g0
(g4
tp101
Rp102
I11
F0.25
sI4
F0.25
sI37
F0.25
sI45
F0.25
ssI50
g0
(g4
tp103
Rp104
I33
F0.08333333333333333
sI6
F0.08333333333333333
sI8
F0.08333333333333333
sI41
F0.08333333333333333
sI11
F0.08333333333333333
sI46
F0.08333333333333333
sI47
F0.08333333333333333
sI48
F0.08333333333333333
sI18
F0.08333333333333333
sI25
F0.08333333333333333
sI27
F0.08333333333333333
sI30
F0.08333333333333333
ss.