ccollections
defaultdict
p0
(c__main__
dd
p1
tp2
Rp3
I1
g0
(c__builtin__
float
p4
tp5
Rp6
I0
F1.0
ssI2
g0
(g4
tp7
Rp8
I0
F0.5076923076923077
sI1
F0.49230769230769234
ssI3
g0
(g4
tp9
Rp10
I0
F0.3125
sI1
F0.3229166666666667
sI2
F0.3645833333333333
ssI4
g0
(g4
tp11
Rp12
I0
F0.2076923076923077
sI1
F0.26153846153846155
sI2
F0.26153846153846155
sI3
F0.2692307692307692
ssI5
g0
(g4
tp13
Rp14
I0
F0.1796875
sI1
F0.2421875
sI2
F0.21875
sI3
F0.21875
sI4
F0.140625
ssI6
g0
(g4
tp15
Rp16
I0
F0.13541666666666666
sI1
F0.13020833333333334
sI2
F0.23958333333333334
sI3
F0.15104166666666666
sI4
F0.21875
sI5
F0.125
ssI7
g0
(g4
tp17
Rp18
I0
F0.14393939393939395
sI1
F0.17045454545454544
sI2
F0.12121212121212122
sI3
F0.1856060606060606
sI4
F0.14772727272727273
sI5
F0.11363636363636363
sI6
F0.11742424242424243
ssI8
g0
(g4
tp19
Rp20
I0
F0.11152416356877323
sI1
F0.12639405204460966
sI2
F0.17472118959107807
sI3
F0.11895910780669144
sI4
F0.13011152416356878
sI5
F0.137546468401487
sI6
F0.11524163568773234
sI7
F0.08550185873605948
ssI9
g0
(g4
tp21
Rp22
I0
F0.087248322147651
sI1
F0.1040268456375839
sI2
F0.13758389261744966
sI3
F0.12416107382550336
sI4
F0.10067114093959731
sI5
F0.087248322147651
sI6
F0.11409395973154363
sI7
F0.1476510067114094
sI8
F0.09731543624161074
ssI10
g0
(g4
tp23
Rp24
I0
F0.10670731707317073
sI1
F0.10670731707317073
sI2
F0.10975609756097561
sI3
F0.10060975609756098
sI4
F0.07621951219512195
sI5
F0.10975609756097561
sI6
F0.0975609756097561
sI7
F0.10060975609756098
sI8
F0.10365853658536585
sI9
F0.08841463414634146
ssI11
g0
(g4
tp25
Rp26
I0
F0.05113636363636364
sI1
F0.08238636363636363
sI2
F0.10795454545454546
sI3
F0.11079545454545454
sI4
F0.10795454545454546
sI5
F0.07954545454545454
sI6
F0.08238636363636363
sI7
F0.11363636363636363
sI8
F0.10795454545454546
sI9
F0.09375
sI10
F0.0625
ssI12
g0
(g4
tp27
Rp28
I0
F0.0663265306122449
sI1
F0.06887755102040816
sI2
F0.10459183673469388
sI3
F0.08163265306122448
sI4
F0.08928571428571429
sI5
F0.08928571428571429
sI6
F0.09438775510204081
sI7
F0.07908163265306123
sI8
F0.07908163265306123
sI9
F0.08928571428571429
sI10
F0.09693877551020408
sI11
F0.061224489795918366
ssI13
g0
(g4
tp29
Rp30
I0
F0.06290672451193059
sI1
F0.0650759219088937
sI2
F0.09327548806941431
sI3
F0.08893709327548807
sI4
F0.0824295010845987
sI5
F0.07158351409978309
sI6
F0.08459869848156182
sI7
F0.08893709327548807
sI8
F0.0911062906724512
sI9
F0.06724511930585683
sI10
F0.06290672451193059
sI11
F0.06724511930585683
sI12
F0.0737527114967462
ssI14
g0
(g4
tp31
Rp32
I0
F0.04035874439461883
sI1
F0.08071748878923767
sI2
F0.07623318385650224
sI3
F0.08295964125560538
sI4
F0.07623318385650224
sI5
F0.06502242152466367
sI6
F0.07399103139013453
sI7
F0.07399103139013453
sI8
F0.07399103139013453
sI9
F0.08744394618834081
sI10
F0.07174887892376682
sI11
F0.07847533632286996
sI12
F0.06502242152466367
sI13
F0.053811659192825115
ssI15
g0
(g4
tp33
Rp34
I0
F0.06
sI1
F0.05333333333333334
sI2
F0.06666666666666667
sI3
F0.06888888888888889
sI4
F0.07333333333333333
sI5
F0.08222222222222222
sI6
F0.06888888888888889
sI7
F0.05555555555555555
sI8
F0.08
sI9
F0.06888888888888889
sI10
F0.06222222222222222
sI11
F0.07111111111111111
sI12
F0.051111111111111114
sI13
F0.09333333333333334
sI14
F0.044444444444444446
ssI16
g0
(g4
tp35
Rp36
I0
F0.042884990253411304
sI1
F0.0682261208576998
sI2
F0.06237816764132553
sI3
F0.06042884990253411
sI4
F0.08382066276803118
sI5
F0.06237816764132553
sI6
F0.07407407407407407
sI7
F0.04483430799220273
sI8
F0.06042884990253411
sI9
F0.05458089668615984
sI10
F0.07407407407407407
sI11
F0.05458089668615984
sI12
F0.08187134502923976
sI13
F0.07992202729044834
sI14
F0.05263157894736842
sI15
F0.042884990253411304
ssI17
g0
(g4
tp37
Rp38
I0
F0.04753820033955857
sI1
F0.050933786078098474
sI2
F0.06791171477079797
sI3
F0.06281833616298811
sI4
F0.06112054329371817
sI5
F0.04753820033955857
sI6
F0.07130730050933787
sI7
F0.07809847198641766
sI8
F0.06112054329371817
sI9
F0.05432937181663837
sI10
F0.04584040747028863
sI11
F0.06791171477079797
sI12
F0.059422750424448216
sI13
F0.06281833616298811
sI14
F0.057724957555178265
sI15
F0.05432937181663837
sI16
F0.04923599320882852
ssI18
g0
(g4
tp39
Rp40
I0
F0.045454545454545456
sI1
F0.061128526645768025
sI2
F0.054858934169279
sI3
F0.05799373040752351
sI4
F0.05329153605015674
sI5
F0.048589341692789965
sI6
F0.06269592476489028
sI7
F0.06269592476489028
sI8
F0.05642633228840126
sI9
F0.06269592476489028
sI10
F0.045454545454545456
sI11
F0.05642633228840126
sI12
F0.06426332288401254
sI13
F0.06269592476489028
sI14
F0.047021943573667714
sI15
F0.06269592476489028
sI16
F0.05329153605015674
sI17
F0.04231974921630094
ssI19
g0
(g4
tp41
Rp42
I0
F0.035653650254668934
sI1
F0.028862478777589132
sI2
F0.05602716468590832
sI3
F0.044142614601018676
sI4
F0.050933786078098474
sI5
F0.05432937181663837
sI6
F0.07130730050933787
sI7
F0.050933786078098474
sI8
F0.06112054329371817
sI9
F0.05432937181663837
sI10
F0.06112054329371817
sI11
F0.06621392190152801
sI12
F0.05602716468590832
sI13
F0.05602716468590832
sI14
F0.050933786078098474
sI15
F0.05263157894736842
sI16
F0.05263157894736842
sI17
F0.059422750424448216
sI18
F0.03735144312393888
ssI20
g0
(g4
tp43
Rp44
I0
F0.049586776859504134
sI1
F0.05289256198347107
sI2
F0.06115702479338843
sI3
F0.047933884297520664
sI4
F0.03966942148760331
sI5
F0.03471074380165289
sI6
F0.06446280991735537
sI7
F0.05454545454545454
sI8
F0.06115702479338843
sI9
F0.0512396694214876
sI10
F0.03801652892561983
sI11
F0.04462809917355372
sI12
F0.03966942148760331
sI13
F0.06115702479338843
sI14
F0.04628099173553719
sI15
F0.05289256198347107
sI16
F0.047933884297520664
sI17
F0.0512396694214876
sI18
F0.05454545454545454
sI19
F0.04628099173553719
ssI21
g0
(g4
tp45
Rp46
I0
F0.040697674418604654
sI1
F0.04215116279069767
sI2
F0.050872093023255814
sI3
F0.040697674418604654
sI4
F0.04215116279069767
sI5
F0.03924418604651163
sI6
F0.0625
sI7
F0.05232558139534884
sI8
F0.04796511627906977
sI9
F0.0625
sI10
F0.04796511627906977
sI11
F0.046511627906976744
sI12
F0.0436046511627907
sI13
F0.04505813953488372
sI14
F0.04941860465116279
sI15
F0.0436046511627907
sI16
F0.0436046511627907
sI17
F0.050872093023255814
sI18
F0.05813953488372093
sI19
F0.04796511627906977
sI20
F0.04215116279069767
ssI22
g0
(g4
tp47
Rp48
I0
F0.028333333333333332
sI1
F0.051666666666666666
sI2
F0.04833333333333333
sI3
F0.04666666666666667
sI4
F0.04666666666666667
sI5
F0.04833333333333333
sI6
F0.03333333333333333
sI7
F0.055
sI8
F0.028333333333333332
sI9
F0.056666666666666664
sI10
F0.05
sI11
F0.045
sI12
F0.05
sI13
F0.043333333333333335
sI14
F0.055
sI15
F0.03666666666666667
sI16
F0.056666666666666664
sI17
F0.041666666666666664
sI18
F0.06
sI19
F0.045
sI20
F0.03333333333333333
sI21
F0.04
ssI23
g0
(g4
tp49
Rp50
I0
F0.02556818181818182
sI1
F0.03977272727272727
sI2
F0.048295454545454544
sI3
F0.036931818181818184
sI4
F0.041193181818181816
sI5
F0.036931818181818184
sI6
F0.04971590909090909
sI7
F0.03409090909090909
sI8
F0.045454545454545456
sI9
F0.041193181818181816
sI10
F0.05113636363636364
sI11
F0.041193181818181816
sI12
F0.04261363636363636
sI13
F0.052556818181818184
sI14
F0.04971590909090909
sI15
F0.05113636363636364
sI16
F0.03977272727272727
sI17
F0.052556818181818184
sI18
F0.04403409090909091
sI19
F0.048295454545454544
sI20
F0.04261363636363636
sI21
F0.05113636363636364
sI22
F0.03409090909090909
ssI24
g0
(g4
tp51
Rp52
I0
F0.031746031746031744
sI1
F0.03607503607503607
sI2
F0.046176046176046176
sI3
F0.049062049062049064
sI4
F0.04040404040404041
sI5
F0.03896103896103896
sI6
F0.03896103896103896
sI7
F0.03463203463203463
sI8
F0.047619047619047616
sI9
F0.03607503607503607
sI10
F0.044733044733044736
sI11
F0.03751803751803752
sI12
F0.04184704184704185
sI13
F0.049062049062049064
sI14
F0.05772005772005772
sI15
F0.030303030303030304
sI16
F0.050505050505050504
sI17
F0.044733044733044736
sI18
F0.049062049062049064
sI19
F0.030303030303030304
sI20
F0.03896103896103896
sI21
F0.03751803751803752
sI22
F0.046176046176046176
sI23
F0.04184704184704185
ssI25
g0
(g4
tp53
Rp54
I0
F0.03644314868804665
sI1
F0.03935860058309038
sI2
F0.04664723032069971
sI3
F0.030612244897959183
sI4
F0.04227405247813411
sI5
F0.03644314868804665
sI6
F0.03935860058309038
sI7
F0.04518950437317784
sI8
F0.030612244897959183
sI9
F0.037900874635568516
sI10
F0.03935860058309038
sI11
F0.037900874635568516
sI12
F0.03935860058309038
sI13
F0.048104956268221574
sI14
F0.05539358600583091
sI15
F0.04956268221574344
sI16
F0.033527696793002916
sI17
F0.04227405247813411
sI18
F0.029154518950437316
sI19
F0.043731778425655975
sI20
F0.03935860058309038
sI21
F0.05102040816326531
sI22
F0.033527696793002916
sI23
F0.04081632653061224
sI24
F0.03206997084548105
ssI26
g0
(g4
tp55
Rp56
I0
F0.030927835051546393
sI1
F0.04252577319587629
sI2
F0.045103092783505154
sI3
F0.04252577319587629
sI4
F0.055412371134020616
sI5
F0.03221649484536082
sI6
F0.03221649484536082
sI7
F0.04639175257731959
sI8
F0.03865979381443299
sI9
F0.03608247422680412
sI10
F0.03221649484536082
sI11
F0.03350515463917526
sI12
F0.03994845360824742
sI13
F0.04768041237113402
sI14
F0.03221649484536082
sI15
F0.05025773195876289
sI16
F0.03479381443298969
sI17
F0.029639175257731958
sI18
F0.05154639175257732
sI19
F0.03350515463917526
sI20
F0.03350515463917526
sI21
F0.028350515463917526
sI22
F0.04639175257731959
sI23
F0.037371134020618556
sI24
F0.04252577319587629
sI25
F0.024484536082474227
ssI27
g0
(g4
tp57
Rp58
I0
F0.038011695906432746
sI1
F0.03070175438596491
sI2
F0.03070175438596491
sI3
F0.03654970760233918
sI4
F0.04239766081871345
sI5
F0.039473684210526314
sI6
F0.039473684210526314
sI7
F0.04093567251461988
sI8
F0.03216374269005848
sI9
F0.04532163742690058
sI10
F0.04239766081871345
sI11
F0.029239766081871343
sI12
F0.033625730994152045
sI13
F0.04093567251461988
sI14
F0.04239766081871345
sI15
F0.027777777777777776
sI16
F0.04093567251461988
sI17
F0.03654970760233918
sI18
F0.043859649122807015
sI19
F0.039473684210526314
sI20
F0.03216374269005848
sI21
F0.03508771929824561
sI22
F0.03508771929824561
sI23
F0.04239766081871345
sI24
F0.04093567251461988
sI25
F0.03216374269005848
sI26
F0.029239766081871343
ssI28
g0
(g4
tp59
Rp60
I0
F0.03068181818181818
sI1
F0.03068181818181818
sI2
F0.04090909090909091
sI3
F0.0375
sI4
F0.04318181818181818
sI5
F0.031818181818181815
sI6
F0.04090909090909091
sI7
F0.03295454545454545
sI8
F0.03068181818181818
sI9
F0.03409090909090909
sI10
F0.03068181818181818
sI11
F0.03295454545454545
sI12
F0.035227272727272725
sI13
F0.029545454545454545
sI14
F0.03977272727272727
sI15
F0.038636363636363635
sI16
F0.04431818181818182
sI17
F0.04659090909090909
sI18
F0.04090909090909091
sI19
F0.03295454545454545
sI20
F0.03295454545454545
sI21
F0.04659090909090909
sI22
F0.03977272727272727
sI23
F0.038636363636363635
sI24
F0.028409090909090908
sI25
F0.03295454545454545
sI26
F0.031818181818181815
sI27
F0.023863636363636365
ssI29
g0
(g4
tp61
Rp62
I0
F0.036935704514363885
sI1
F0.04103967168262654
sI2
F0.036935704514363885
sI3
F0.03146374829001368
sI4
F0.036935704514363885
sI5
F0.023255813953488372
sI6
F0.03419972640218878
sI7
F0.02188782489740082
sI8
F0.03419972640218878
sI9
F0.028727770177838577
sI10
F0.04240766073871409
sI11
F0.03146374829001368
sI12
F0.025991792065663474
sI13
F0.04103967168262654
sI14
F0.03556771545827633
sI15
F0.04103967168262654
sI16
F0.046511627906976744
sI17
F0.03556771545827633
sI18
F0.0506155950752394
sI19
F0.036935704514363885
sI20
F0.030095759233926128
sI21
F0.036935704514363885
sI22
F0.023255813953488372
sI23
F0.03419972640218878
sI24
F0.03283173734610123
sI25
F0.03146374829001368
sI26
F0.03283173734610123
sI27
F0.03556771545827633
sI28
F0.030095759233926128
ssI30
g0
(g4
tp63
Rp64
I0
F0.022130013831258646
sI1
F0.03319502074688797
sI2
F0.03319502074688797
sI3
F0.030428769017980636
sI4
F0.03872752420470263
sI5
F0.027662517289073305
sI6
F0.035961272475795295
sI7
F0.03734439834024896
sI8
F0.0318118948824343
sI9
F0.03319502074688797
sI10
F0.042876901798063624
sI11
F0.03319502074688797
sI12
F0.03319502074688797
sI13
F0.027662517289073305
sI14
F0.027662517289073305
sI15
F0.027662517289073305
sI16
F0.04426002766251729
sI17
F0.035961272475795295
sI18
F0.02351313969571231
sI19
F0.029045643153526972
sI20
F0.03734439834024896
sI21
F0.03319502074688797
sI22
F0.035961272475795295
sI23
F0.034578146611341634
sI24
F0.03319502074688797
sI25
F0.04426002766251729
sI26
F0.030428769017980636
sI27
F0.03872752420470263
sI28
F0.04149377593360996
sI29
F0.022130013831258646
ssI31
g0
(g4
tp65
Rp66
I0
F0.037484885126964934
sI1
F0.026602176541717048
sI2
F0.03869407496977025
sI3
F0.036275695284159616
sI4
F0.02781136638452237
sI5
F0.02902055622732769
sI6
F0.03385731559854897
sI7
F0.030229746070133012
sI8
F0.03143893591293833
sI9
F0.030229746070133012
sI10
F0.03385731559854897
sI11
F0.02176541717049577
sI12
F0.032648125755743655
sI13
F0.030229746070133012
sI14
F0.02418379685610641
sI15
F0.037484885126964934
sI16
F0.02781136638452237
sI17
F0.037484885126964934
sI18
F0.04353083434099154
sI19
F0.037484885126964934
sI20
F0.02781136638452237
sI21
F0.0471584038694075
sI22
F0.02902055622732769
sI23
F0.02902055622732769
sI24
F0.022974607013301087
sI25
F0.02781136638452237
sI26
F0.03385731559854897
sI27
F0.03990326481257558
sI28
F0.037484885126964934
sI29
F0.03990326481257558
sI30
F0.016928657799274487
ssI32
g0
(g4
tp67
Rp68
I0
F0.027259684361549498
sI1
F0.021520803443328552
sI2
F0.040172166427546625
sI3
F0.03730272596843615
sI4
F0.03443328550932568
sI5
F0.020086083213773313
sI6
F0.040172166427546625
sI7
F0.03443328550932568
sI8
F0.024390243902439025
sI9
F0.02295552367288379
sI10
F0.040172166427546625
sI11
F0.02582496413199426
sI12
F0.03156384505021521
sI13
F0.04160688665710186
sI14
F0.03730272596843615
sI15
F0.03730272596843615
sI16
F0.03299856527977044
sI17
F0.03156384505021521
sI18
F0.03156384505021521
sI19
F0.040172166427546625
sI20
F0.028694404591104734
sI21
F0.03443328550932568
sI22
F0.024390243902439025
sI23
F0.03443328550932568
sI24
F0.03012912482065997
sI25
F0.028694404591104734
sI26
F0.03873744619799139
sI27
F0.018651362984218076
sI28
F0.03443328550932568
sI29
F0.021520803443328552
sI30
F0.03299856527977044
sI31
F0.020086083213773313
ssI33
g0
(g4
tp69
Rp70
I0
F0.02250351617440225
sI1
F0.02812939521800281
sI2
F0.030942334739803096
sI3
F0.029535864978902954
sI4
F0.030942334739803096
sI5
F0.03656821378340366
sI6
F0.02531645569620253
sI7
F0.02812939521800281
sI8
F0.03938115330520394
sI9
F0.02812939521800281
sI10
F0.02390998593530239
sI11
F0.04219409282700422
sI12
F0.03234880450070324
sI13
F0.026722925457102673
sI14
F0.02390998593530239
sI15
F0.02109704641350211
sI16
F0.04219409282700422
sI17
F0.02250351617440225
sI18
F0.0379746835443038
sI19
F0.03234880450070324
sI20
F0.03234880450070324
sI21
F0.029535864978902954
sI22
F0.026722925457102673
sI23
F0.03234880450070324
sI24
F0.030942334739803096
sI25
F0.03375527426160337
sI26
F0.03375527426160337
sI27
F0.03234880450070324
sI28
F0.03234880450070324
sI29
F0.029535864978902954
sI30
F0.0379746835443038
sI31
F0.026722925457102673
sI32
F0.016877637130801686
ssI34
g0
(g4
tp71
Rp72
I0
F0.02679830747531735
sI1
F0.02538787023977433
sI2
F0.03244005641748942
sI3
F0.022566995768688293
sI4
F0.029619181946403384
sI5
F0.018335684062059238
sI6
F0.02538787023977433
sI7
F0.02679830747531735
sI8
F0.036671368124118475
sI9
F0.03244005641748942
sI10
F0.028208744710860368
sI11
F0.03385049365303244
sI12
F0.031029619181946404
sI13
F0.023977433004231313
sI14
F0.023977433004231313
sI15
F0.029619181946403384
sI16
F0.023977433004231313
sI17
F0.03385049365303244
sI18
F0.03526093088857546
sI19
F0.031029619181946404
sI20
F0.02538787023977433
sI21
F0.04090267983074753
sI22
F0.03244005641748942
sI23
F0.04090267983074753
sI24
F0.028208744710860368
sI25
F0.029619181946403384
sI26
F0.02679830747531735
sI27
F0.028208744710860368
sI28
F0.03526093088857546
sI29
F0.021156558533145273
sI30
F0.03244005641748942
sI31
F0.0380818053596615
sI32
F0.029619181946403384
sI33
F0.019746121297602257
ssI35
g0
(g4
tp73
Rp74
I0
F0.023931623931623933
sI1
F0.02905982905982906
sI2
F0.039316239316239315
sI3
F0.017094017094017096
sI4
F0.035897435897435895
sI5
F0.013675213675213675
sI6
F0.02905982905982906
sI7
F0.02564102564102564
sI8
F0.02564102564102564
sI9
F0.017094017094017096
sI10
F0.03076923076923077
sI11
F0.035897435897435895
sI12
F0.02735042735042735
sI13
F0.022222222222222223
sI14
F0.02905982905982906
sI15
F0.02735042735042735
sI16
F0.03247863247863248
sI17
F0.035897435897435895
sI18
F0.02735042735042735
sI19
F0.03418803418803419
sI20
F0.020512820512820513
sI21
F0.02905982905982906
sI22
F0.03247863247863248
sI23
F0.02564102564102564
sI24
F0.035897435897435895
sI25
F0.02735042735042735
sI26
F0.03076923076923077
sI27
F0.03247863247863248
sI28
F0.042735042735042736
sI29
F0.02905982905982906
sI30
F0.02735042735042735
sI31
F0.02735042735042735
sI32
F0.02735042735042735
sI33
F0.03076923076923077
sI34
F0.022222222222222223
ssI36
g0
(g4
tp75
Rp76
I0
F0.020558002936857563
sI1
F0.020558002936857563
sI2
F0.032305433186490456
sI3
F0.032305433186490456
sI4
F0.023494860499265784
sI5
F0.02936857562408223
sI6
F0.020558002936857563
sI7
F0.024963289280469897
sI8
F0.032305433186490456
sI9
F0.020558002936857563
sI10
F0.03524229074889868
sI11
F0.03524229074889868
sI12
F0.039647577092511016
sI13
F0.020558002936857563
sI14
F0.033773861967694566
sI15
F0.016152716593245228
sI16
F0.032305433186490456
sI17
F0.02643171806167401
sI18
F0.024963289280469897
sI19
F0.02643171806167401
sI20
F0.022026431718061675
sI21
F0.024963289280469897
sI22
F0.02643171806167401
sI23
F0.032305433186490456
sI24
F0.030837004405286344
sI25
F0.030837004405286344
sI26
F0.023494860499265784
sI27
F0.024963289280469897
sI28
F0.030837004405286344
sI29
F0.032305433186490456
sI30
F0.039647577092511016
sI31
F0.01908957415565345
sI32
F0.03524229074889868
sI33
F0.022026431718061675
sI34
F0.03671071953010279
sI35
F0.020558002936857563
ssI37
g0
(g4
tp77
Rp78
I0
F0.022288261515601784
sI1
F0.014858841010401188
sI2
F0.029717682020802376
sI3
F0.02674591381872214
sI4
F0.02674591381872214
sI5
F0.022288261515601784
sI6
F0.020802377414561663
sI7
F0.020802377414561663
sI8
F0.02526002971768202
sI9
F0.029717682020802376
sI10
F0.02674591381872214
sI11
F0.022288261515601784
sI12
F0.02823179791976226
sI13
F0.01634472511144131
sI14
F0.03268945022288262
sI15
F0.031203566121842496
sI16
F0.02823179791976226
sI17
F0.02674591381872214
sI18
F0.03417533432392273
sI19
F0.019316493313521546
sI20
F0.029717682020802376
sI21
F0.02823179791976226
sI22
F0.02823179791976226
sI23
F0.03417533432392273
sI24
F0.020802377414561663
sI25
F0.041604754829123326
sI26
F0.03566121842496285
sI27
F0.02526002971768202
sI28
F0.03417533432392273
sI29
F0.03863298662704309
sI30
F0.017830609212481426
sI31
F0.04011887072808321
sI32
F0.03417533432392273
sI33
F0.02674591381872214
sI34
F0.02526002971768202
sI35
F0.014858841010401188
sI36
F0.019316493313521546
ssI38
g0
(g4
tp79
Rp80
I0
F0.029282576866764276
sI1
F0.016105417276720352
sI2
F0.02342606149341142
sI3
F0.032210834553440704
sI4
F0.03367496339677892
sI5
F0.02342606149341142
sI6
F0.01903367496339678
sI7
F0.027818448023426062
sI8
F0.03074670571010249
sI9
F0.024890190336749635
sI10
F0.02635431918008785
sI11
F0.029282576866764276
sI12
F0.016105417276720352
sI13
F0.029282576866764276
sI14
F0.020497803806734993
sI15
F0.017569546120058566
sI16
F0.01903367496339678
sI17
F0.029282576866764276
sI18
F0.03074670571010249
sI19
F0.020497803806734993
sI20
F0.029282576866764276
sI21
F0.027818448023426062
sI22
F0.020497803806734993
sI23
F0.02342606149341142
sI24
F0.024890190336749635
sI25
F0.03074670571010249
sI26
F0.02342606149341142
sI27
F0.03074670571010249
sI28
F0.04538799414348463
sI29
F0.017569546120058566
sI30
F0.02342606149341142
sI31
F0.027818448023426062
sI32
F0.024890190336749635
sI33
F0.036603221083455345
sI34
F0.036603221083455345
sI35
F0.02342606149341142
sI36
F0.03367496339677892
sI37
F0.020497803806734993
ssI39
g0
(g4
tp81
Rp82
I0
F0.018050541516245487
sI1
F0.030685920577617327
sI2
F0.02888086642599278
sI3
F0.010830324909747292
sI4
F0.02888086642599278
sI5
F0.018050541516245487
sI6
F0.016245487364620937
sI7
F0.018050541516245487
sI8
F0.030685920577617327
sI9
F0.016245487364620937
sI10
F0.021660649819494584
sI11
F0.021660649819494584
sI12
F0.02888086642599278
sI13
F0.016245487364620937
sI14
F0.032490974729241874
sI15
F0.019855595667870037
sI16
F0.030685920577617327
sI17
F0.02527075812274368
sI18
F0.02707581227436823
sI19
F0.02888086642599278
sI20
F0.019855595667870037
sI21
F0.032490974729241874
sI22
F0.023465703971119134
sI23
F0.019855595667870037
sI24
F0.030685920577617327
sI25
F0.03429602888086643
sI26
F0.018050541516245487
sI27
F0.02888086642599278
sI28
F0.02707581227436823
sI29
F0.02888086642599278
sI30
F0.036101083032490974
sI31
F0.036101083032490974
sI32
F0.019855595667870037
sI33
F0.032490974729241874
sI34
F0.032490974729241874
sI35
F0.02888086642599278
sI36
F0.030685920577617327
sI37
F0.021660649819494584
sI38
F0.02888086642599278
ssI40
g0
(g4
tp83
Rp84
I0
F0.0199203187250996
sI1
F0.021912350597609563
sI2
F0.02390438247011952
sI3
F0.03187250996015936
sI4
F0.021912350597609563
sI5
F0.025896414342629483
sI6
F0.03187250996015936
sI7
F0.027888446215139442
sI8
F0.02390438247011952
sI9
F0.025896414342629483
sI10
F0.0199203187250996
sI11
F0.025896414342629483
sI12
F0.021912350597609563
sI13
F0.02390438247011952
sI14
F0.03187250996015936
sI15
F0.03187250996015936
sI16
F0.029880478087649404
sI17
F0.027888446215139442
sI18
F0.029880478087649404
sI19
F0.03386454183266932
sI20
F0.02390438247011952
sI21
F0.0199203187250996
sI22
F0.021912350597609563
sI23
F0.0199203187250996
sI24
F0.01593625498007968
sI25
F0.017928286852589643
sI26
F0.03187250996015936
sI27
F0.027888446215139442
sI28
F0.017928286852589643
sI29
F0.0199203187250996
sI30
F0.021912350597609563
sI31
F0.021912350597609563
sI32
F0.037848605577689244
sI33
F0.025896414342629483
sI34
F0.02390438247011952
sI35
F0.0099601593625498
sI36
F0.025896414342629483
sI37
F0.03187250996015936
sI38
F0.03187250996015936
sI39
F0.0199203187250996
ssI41
g0
(g4
tp85
Rp86
I0
F0.012027491408934709
sI1
F0.027491408934707903
sI2
F0.03264604810996564
sI3
F0.020618556701030927
sI4
F0.024054982817869417
sI5
F0.01718213058419244
sI6
F0.024054982817869417
sI7
F0.024054982817869417
sI8
F0.024054982817869417
sI9
F0.024054982817869417
sI10
F0.020618556701030927
sI11
F0.02577319587628866
sI12
F0.027491408934707903
sI13
F0.020618556701030927
sI14
F0.022336769759450172
sI15
F0.01718213058419244
sI16
F0.027491408934707903
sI17
F0.024054982817869417
sI18
F0.018900343642611683
sI19
F0.022336769759450172
sI20
F0.02577319587628866
sI21
F0.029209621993127148
sI22
F0.020618556701030927
sI23
F0.020618556701030927
sI24
F0.029209621993127148
sI25
F0.03608247422680412
sI26
F0.024054982817869417
sI27
F0.029209621993127148
sI28
F0.02577319587628866
sI29
F0.02577319587628866
sI30
F0.029209621993127148
sI31
F0.027491408934707903
sI32
F0.010309278350515464
sI33
F0.041237113402061855
sI34
F0.029209621993127148
sI35
F0.020618556701030927
sI36
F0.020618556701030927
sI37
F0.022336769759450172
sI38
F0.027491408934707903
sI39
F0.03264604810996564
sI40
F0.015463917525773196
ssI42
g0
(g4
tp87
Rp88
I0
F0.012987012987012988
sI1
F0.012987012987012988
sI2
F0.0367965367965368
sI3
F0.021645021645021644
sI4
F0.025974025974025976
sI5
F0.015151515151515152
sI6
F0.021645021645021644
sI7
F0.017316017316017316
sI8
F0.025974025974025976
sI9
F0.004329004329004329
sI10
F0.032467532467532464
sI11
F0.025974025974025976
sI12
F0.025974025974025976
sI13
F0.025974025974025976
sI14
F0.021645021645021644
sI15
F0.025974025974025976
sI16
F0.023809523809523808
sI17
F0.030303030303030304
sI18
F0.032467532467532464
sI19
F0.021645021645021644
sI20
F0.023809523809523808
sI21
F0.023809523809523808
sI22
F0.021645021645021644
sI23
F0.025974025974025976
sI24
F0.023809523809523808
sI25
F0.017316017316017316
sI26
F0.023809523809523808
sI27
F0.025974025974025976
sI28
F0.032467532467532464
sI29
F0.021645021645021644
sI30
F0.025974025974025976
sI31
F0.030303030303030304
sI32
F0.02813852813852814
sI33
F0.021645021645021644
sI34
F0.02813852813852814
sI35
F0.032467532467532464
sI36
F0.025974025974025976
sI37
F0.017316017316017316
sI38
F0.023809523809523808
sI39
F0.025974025974025976
sI40
F0.023809523809523808
sI41
F0.015151515151515152
ssI43
g0
(g4
tp89
Rp90
I0
F0.027139874739039668
sI1
F0.020876826722338204
sI2
F0.027139874739039668
sI3
F0.016701461377870562
sI4
F0.025052192066805846
sI5
F0.014613778705636743
sI6
F0.020876826722338204
sI7
F0.018789144050104383
sI8
F0.025052192066805846
sI9
F0.031315240083507306
sI10
F0.020876826722338204
sI11
F0.020876826722338204
sI12
F0.025052192066805846
sI13
F0.018789144050104383
sI14
F0.033402922755741124
sI15
F0.014613778705636743
sI16
F0.022964509394572025
sI17
F0.03549060542797495
sI18
F0.018789144050104383
sI19
F0.033402922755741124
sI20
F0.020876826722338204
sI21
F0.018789144050104383
sI22
F0.014613778705636743
sI23
F0.014613778705636743
sI24
F0.027139874739039668
sI25
F0.018789144050104383
sI26
F0.029227557411273485
sI27
F0.020876826722338204
sI28
F0.025052192066805846
sI29
F0.031315240083507306
sI30
F0.031315240083507306
sI31
F0.027139874739039668
sI32
F0.020876826722338204
sI33
F0.018789144050104383
sI34
F0.018789144050104383
sI35
F0.018789144050104383
sI36
F0.025052192066805846
sI37
F0.027139874739039668
sI38
F0.018789144050104383
sI39
F0.025052192066805846
sI40
F0.022964509394572025
sI41
F0.03966597077244259
sI42
F0.012526096033402923
ssI44
g0
(g4
tp91
Rp92
I0
F0.02
sI1
F0.02
sI2
F0.0225
sI3
F0.0275
sI4
F0.02
sI5
F0.0125
sI6
F0.0275
sI7
F0.025
sI8
F0.0225
sI9
F0.02
sI10
F0.03
sI11
F0.0175
sI12
F0.02
sI13
F0.035
sI14
F0.0275
sI15
F0.0225
sI16
F0.02
sI17
F0.025
sI18
F0.035
sI19
F0.015
sI20
F0.0275
sI21
F0.0225
sI22
F0.015
sI23
F0.0225
sI24
F0.03
sI25
F0.025
sI26
F0.0125
sI27
F0.035
sI28
F0.0175
sI29
F0.0225
sI30
F0.02
sI31
F0.025
sI32
F0.0225
sI33
F0.025
sI34
F0.025
sI35
F0.0325
sI36
F0.0225
sI37
F0.0375
sI38
F0.0225
sI39
F0.005
sI40
F0.0175
sI41
F0.0175
sI42
F0.02
sI43
F0.0125
ssI45
g0
(g4
tp93
Rp94
I0
F0.015915119363395226
sI1
F0.013262599469496022
sI2
F0.03183023872679045
sI3
F0.023872679045092837
sI4
F0.01856763925729443
sI5
F0.007957559681697613
sI6
F0.01856763925729443
sI7
F0.023872679045092837
sI8
F0.015915119363395226
sI9
F0.023872679045092837
sI10
F0.026525198938992044
sI11
F0.023872679045092837
sI12
F0.010610079575596816
sI13
F0.026525198938992044
sI14
F0.029177718832891247
sI15
F0.01856763925729443
sI16
F0.01856763925729443
sI17
F0.023872679045092837
sI18
F0.01856763925729443
sI19
F0.023872679045092837
sI20
F0.01856763925729443
sI21
F0.03713527851458886
sI22
F0.029177718832891247
sI23
F0.01856763925729443
sI24
F0.023872679045092837
sI25
F0.023872679045092837
sI26
F0.015915119363395226
sI27
F0.015915119363395226
sI28
F0.029177718832891247
sI29
F0.026525198938992044
sI30
F0.023872679045092837
sI31
F0.034482758620689655
sI32
F0.021220159151193633
sI33
F0.023872679045092837
sI34
F0.03978779840848806
sI35
F0.026525198938992044
sI36
F0.013262599469496022
sI37
F0.023872679045092837
sI38
F0.023872679045092837
sI39
F0.026525198938992044
sI40
F0.013262599469496022
sI41
F0.021220159151193633
sI42
F0.021220159151193633
sI43
F0.023872679045092837
sI44
F0.010610079575596816
ssI46
g0
(g4
tp95
Rp96
I0
F0.012121212121212121
sI1
F0.024242424242424242
sI2
F0.015151515151515152
sI3
F0.024242424242424242
sI4
F0.021212121212121213
sI5
F0.01818181818181818
sI6
F0.01818181818181818
sI7
F0.030303030303030304
sI8
F0.030303030303030304
sI9
F0.024242424242424242
sI10
F0.02727272727272727
sI11
F0.01818181818181818
sI12
F0.021212121212121213
sI13
F0.015151515151515152
sI14
F0.024242424242424242
sI15
F0.024242424242424242
sI16
F0.021212121212121213
sI17
F0.021212121212121213
sI18
F0.02727272727272727
sI19
F0.024242424242424242
sI20
F0.015151515151515152
sI21
F0.024242424242424242
sI22
F0.021212121212121213
sI23
F0.02727272727272727
sI24
F0.01818181818181818
sI25
F0.01818181818181818
sI26
F0.024242424242424242
sI27
F0.021212121212121213
sI28
F0.030303030303030304
sI29
F0.01818181818181818
sI30
F0.012121212121212121
sI31
F0.024242424242424242
sI32
F0.02727272727272727
sI33
F0.01818181818181818
sI34
F0.030303030303030304
sI35
F0.015151515151515152
sI36
F0.030303030303030304
sI37
F0.021212121212121213
sI38
F0.015151515151515152
sI39
F0.015151515151515152
sI40
F0.03636363636363636
sI41
F0.024242424242424242
sI42
F0.021212121212121213
sI43
F0.012121212121212121
sI44
F0.024242424242424242
sI45
F0.012121212121212121
ssI47
g0
(g4
tp97
Rp98
I0
F0.013888888888888888
sI1
F0.027777777777777776
sI2
F0.020833333333333332
sI3
F0.013888888888888888
sI4
F0.03125
sI5
F0.010416666666666666
sI6
F0.017361111111111112
sI7
F0.020833333333333332
sI8
F0.013888888888888888
sI9
F0.013888888888888888
sI10
F0.020833333333333332
sI11
F0.017361111111111112
sI12
F0.010416666666666666
sI13
F0.034722222222222224
sI14
F0.03125
sI15
F0.020833333333333332
sI16
F0.017361111111111112
sI17
F0.03125
sI18
F0.020833333333333332
sI19
F0.024305555555555556
sI20
F0.020833333333333332
sI21
F0.013888888888888888
sI22
F0.03125
sI23
F0.010416666666666666
sI24
F0.024305555555555556
sI25
F0.024305555555555556
sI26
F0.024305555555555556
sI27
F0.006944444444444444
sI28
F0.03125
sI29
F0.027777777777777776
sI30
F0.020833333333333332
sI31
F0.024305555555555556
sI32
F0.027777777777777776
sI33
F0.017361111111111112
sI34
F0.020833333333333332
sI35
F0.013888888888888888
sI36
F0.006944444444444444
sI37
F0.013888888888888888
sI38
F0.034722222222222224
sI39
F0.020833333333333332
sI40
F0.03125
sI41
F0.027777777777777776
sI42
F0.027777777777777776
sI43
F0.027777777777777776
sI44
F0.013888888888888888
sI45
F0.034722222222222224
sI46
F0.006944444444444444
ssI48
g0
(g4
tp99
Rp100
I0
F0.03293413173652695
sI1
F0.014970059880239521
sI2
F0.020958083832335328
sI3
F0.011976047904191617
sI4
F0.02694610778443114
sI5
F0.011976047904191617
sI6
F0.020958083832335328
sI7
F0.023952095808383235
sI8
F0.029940119760479042
sI9
F0.020958083832335328
sI10
F0.020958083832335328
sI11
F0.017964071856287425
sI12
F0.02694610778443114
sI13
F0.011976047904191617
sI14
F0.029940119760479042
sI15
F0.020958083832335328
sI16
F0.02694610778443114
sI17
F0.020958083832335328
sI18
F0.023952095808383235
sI19
F0.011976047904191617
sI20
F0.017964071856287425
sI21
F0.020958083832335328
sI22
F0.029940119760479042
sI23
F0.020958083832335328
sI24
F0.005988023952095809
sI25
F0.017964071856287425
sI26
F0.017964071856287425
sI27
F0.020958083832335328
sI28
F0.014970059880239521
sI29
F0.014970059880239521
sI30
F0.014970059880239521
sI31
F0.023952095808383235
sI32
F0.03293413173652695
sI33
F0.023952095808383235
sI34
F0.029940119760479042
sI35
F0.020958083832335328
sI36
F0.023952095808383235
sI37
F0.03293413173652695
sI38
F0.017964071856287425
sI39
F0.017964071856287425
sI40
F0.023952095808383235
sI41
F0.020958083832335328
sI42
F0.017964071856287425
sI43
F0.023952095808383235
sI44
F0.017964071856287425
sI45
F0.017964071856287425
sI46
F0.014970059880239521
sI47
F0.011976047904191617
ssI49
g0
(g4
tp101
Rp102
I0
F0.015267175572519083
sI1
F0.022900763358778626
sI2
F0.026717557251908396
sI3
F0.015267175572519083
sI4
F0.015267175572519083
sI5
F0.007633587786259542
sI6
F0.011450381679389313
sI7
F0.011450381679389313
sI8
F0.003816793893129771
sI9
F0.026717557251908396
sI10
F0.011450381679389313
sI11
F0.019083969465648856
sI12
F0.03435114503816794
sI13
F0.011450381679389313
sI14
F0.019083969465648856
sI15
F0.030534351145038167
sI16
F0.015267175572519083
sI17
F0.04198473282442748
sI18
F0.026717557251908396
sI19
F0.011450381679389313
sI20
F0.007633587786259542
sI21
F0.015267175572519083
sI22
F0.011450381679389313
sI23
F0.026717557251908396
sI24
F0.011450381679389313
sI25
F0.011450381679389313
sI26
F0.019083969465648856
sI27
F0.019083969465648856
sI28
F0.026717557251908396
sI29
F0.030534351145038167
sI30
F0.022900763358778626
sI31
F0.030534351145038167
sI32
F0.026717557251908396
sI33
F0.019083969465648856
sI34
F0.030534351145038167
sI35
F0.026717557251908396
sI36
F0.022900763358778626
sI37
F0.022900763358778626
sI38
F0.026717557251908396
sI39
F0.022900763358778626
sI40
F0.019083969465648856
sI41
F0.019083969465648856
sI42
F0.007633587786259542
sI43
F0.03435114503816794
sI44
F0.030534351145038167
sI45
F0.015267175572519083
sI46
F0.015267175572519083
sI47
F0.030534351145038167
sI48
F0.019083969465648856
ssI50
g0
(g4
tp103
Rp104
I0
F0.019943019943019943
sI1
F0.017094017094017096
sI2
F0.017094017094017096
sI3
F0.014245014245014245
sI4
F0.022792022792022793
sI5
F0.014245014245014245
sI6
F0.008547008547008548
sI7
F0.019943019943019943
sI8
F0.011396011396011397
sI9
F0.02564102564102564
sI10
F0.022792022792022793
sI11
F0.014245014245014245
sI12
F0.017094017094017096
sI13
F0.017094017094017096
sI14
F0.03133903133903134
sI15
F0.02564102564102564
sI16
F0.011396011396011397
sI17
F0.02849002849002849
sI18
F0.014245014245014245
sI19
F0.011396011396011397
sI20
F0.014245014245014245
sI21
F0.017094017094017096
sI22
F0.011396011396011397
sI23
F0.02849002849002849
sI24
F0.022792022792022793
sI25
F0.02564102564102564
sI26
F0.008547008547008548
sI27
F0.02564102564102564
sI28
F0.03133903133903134
sI29
F0.019943019943019943
sI30
F0.014245014245014245
sI31
F0.03418803418803419
sI32
F0.017094017094017096
sI33
F0.022792022792022793
sI34
F0.02564102564102564
sI35
F0.02564102564102564
sI36
F0.005698005698005698
sI37
F0.017094017094017096
sI38
F0.03133903133903134
sI39
F0.019943019943019943
sI40
F0.017094017094017096
sI41
F0.02564102564102564
sI42
F0.017094017094017096
sI43
F0.02564102564102564
sI44
F0.02849002849002849
sI45
F0.022792022792022793
sI46
F0.017094017094017096
sI47
F0.011396011396011397
sI48
F0.03133903133903134
sI49
F0.019943019943019943
ssI51
g0
(g4
tp105
Rp106
I0
F0.022222222222222223
sI1
F0.022222222222222223
sI2
F0.022222222222222223
sI3
F0.011111111111111112
sI4
F0.005555555555555556
sI5
F0.016666666666666666
sI6
F0.022222222222222223
sI7
F0.011111111111111112
sI8
F0.044444444444444446
sI9
F0.011111111111111112
sI10
F0.011111111111111112
sI11
F0.027777777777777776
sI12
F0.005555555555555556
sI13
F0.016666666666666666
sI14
F0.011111111111111112
sI15
F0.005555555555555556
sI16
F0.011111111111111112
sI17
F0.03333333333333333
sI18
F0.005555555555555556
sI19
F0.05
sI20
F0.022222222222222223
sI21
F0.022222222222222223
sI22
F0.016666666666666666
sI23
F0.005555555555555556
sI24
F0.005555555555555556
sI25
F0.011111111111111112
sI26
F0.022222222222222223
sI27
F0.027777777777777776
sI28
F0.022222222222222223
sI29
F0.027777777777777776
sI30
F0.022222222222222223
sI31
F0.022222222222222223
sI32
F0.03333333333333333
sI33
F0.022222222222222223
sI34
F0.011111111111111112
sI35
F0.022222222222222223
sI36
F0.022222222222222223
sI37
F0.03333333333333333
sI38
F0.022222222222222223
sI39
F0.027777777777777776
sI40
F0.016666666666666666
sI41
F0.022222222222222223
sI42
F0.016666666666666666
sI43
F0.027777777777777776
sI44
F0.022222222222222223
sI45
F0.016666666666666666
sI46
F0.022222222222222223
sI47
F0.027777777777777776
sI48
F0.011111111111111112
sI49
F0.022222222222222223
sI50
F0.005555555555555556
ssI52
g0
(g4
tp107
Rp108
I0
F0.017361111111111112
sI1
F0.010416666666666666
sI2
F0.027777777777777776
sI3
F0.017361111111111112
sI4
F0.03125
sI5
F0.017361111111111112
sI6
F0.017361111111111112
sI7
F0.010416666666666666
sI8
F0.017361111111111112
sI9
F0.027777777777777776
sI10
F0.024305555555555556
sI11
F0.013888888888888888
sI12
F0.017361111111111112
sI13
F0.010416666666666666
sI14
F0.03125
sI15
F0.013888888888888888
sI16
F0.006944444444444444
sI17
F0.017361111111111112
sI18
F0.020833333333333332
sI19
F0.010416666666666666
sI20
F0.010416666666666666
sI21
F0.017361111111111112
sI22
F0.006944444444444444
sI23
F0.024305555555555556
sI24
F0.017361111111111112
sI25
F0.020833333333333332
sI26
F0.03125
sI27
F0.020833333333333332
sI28
F0.03125
sI29
F0.020833333333333332
sI30
F0.013888888888888888
sI31
F0.03125
sI32
F0.013888888888888888
sI33
F0.020833333333333332
sI34
F0.020833333333333332
sI35
F0.020833333333333332
sI36
F0.020833333333333332
sI37
F0.024305555555555556
sI38
F0.020833333333333332
sI39
F0.013888888888888888
sI40
F0.017361111111111112
sI41
F0.020833333333333332
sI42
F0.024305555555555556
sI43
F0.024305555555555556
sI44
F0.017361111111111112
sI45
F0.013888888888888888
sI46
F0.027777777777777776
sI47
F0.010416666666666666
sI48
F0.017361111111111112
sI49
F0.020833333333333332
sI50
F0.034722222222222224
sI51
F0.006944444444444444
ssI53
g0
(g4
tp109
Rp110
I0
F0.02252252252252252
sI1
F0.013513513513513514
sI2
F0.02702702702702703
sI3
F0.009009009009009009
sI4
F0.009009009009009009
sI5
F0.018018018018018018
sI6
F0.02252252252252252
sI7
F0.013513513513513514
sI8
F0.02252252252252252
sI9
F0.013513513513513514
sI10
F0.03153153153153153
sI11
F0.009009009009009009
sI12
F0.02252252252252252
sI13
F0.02252252252252252
sI14
F0.013513513513513514
sI15
F0.009009009009009009
sI16
F0.013513513513513514
sI17
F0.018018018018018018
sI18
F0.02252252252252252
sI19
F0.04054054054054054
sI20
F0.009009009009009009
sI21
F0.0045045045045045045
sI22
F0.02252252252252252
sI23
F0.018018018018018018
sI24
F0.013513513513513514
sI25
F0.02252252252252252
sI26
F0.02702702702702703
sI27
F0.009009009009009009
sI28
F0.013513513513513514
sI29
F0.013513513513513514
sI30
F0.02252252252252252
sI31
F0.03153153153153153
sI32
F0.02252252252252252
sI33
F0.02702702702702703
sI34
F0.009009009009009009
sI35
F0.02252252252252252
sI36
F0.02252252252252252
sI37
F0.0045045045045045045
sI38
F0.02252252252252252
sI39
F0.02252252252252252
sI40
F0.036036036036036036
sI41
F0.02252252252252252
sI42
F0.02702702702702703
sI43
F0.02702702702702703
sI44
F0.02702702702702703
sI45
F0.013513513513513514
sI46
F0.02252252252252252
sI47
F0.009009009009009009
sI48
F0.0045045045045045045
sI49
F0.009009009009009009
sI50
F0.013513513513513514
sI51
F0.02252252252252252
sI52
F0.03153153153153153
ssI54
g0
(g4
tp111
Rp112
I0
F0.022935779816513763
sI1
F0.01834862385321101
sI2
F0.03669724770642202
sI3
F0.009174311926605505
sI4
F0.013761467889908258
sI5
F0.01834862385321101
sI6
F0.022935779816513763
sI7
F0.013761467889908258
sI8
F0.01834862385321101
sI9
F0.013761467889908258
sI10
F0.01834862385321101
sI11
F0.0045871559633027525
sI12
F0.01834862385321101
sI13
F0.013761467889908258
sI14
F0.022935779816513763
sI15
F0.01834862385321101
sI16
F0.01834862385321101
sI17
F0.03211009174311927
sI18
F0.013761467889908258
sI19
F0.009174311926605505
sI20
F0.009174311926605505
sI21
F0.01834862385321101
sI22
F0.009174311926605505
sI23
F0.022935779816513763
sI24
F0.027522935779816515
sI25
F0.01834862385321101
sI26
F0.022935779816513763
sI27
F0.009174311926605505
sI28
F0.01834862385321101
sI29
F0.022935779816513763
sI30
F0.013761467889908258
sI31
F0.03669724770642202
sI32
F0.009174311926605505
sI33
F0.01834862385321101
sI34
F0.01834862385321101
sI35
F0.013761467889908258
sI36
F0.009174311926605505
sI37
F0.013761467889908258
sI38
F0.03669724770642202
sI39
F0.027522935779816515
sI40
F0.027522935779816515
sI41
F0.027522935779816515
sI42
F0.01834862385321101
sI43
F0.022935779816513763
sI44
F0.013761467889908258
sI45
F0.009174311926605505
sI46
F0.01834862385321101
sI47
F0.022935779816513763
sI48
F0.009174311926605505
sI49
F0.013761467889908258
sI50
F0.027522935779816515
sI51
F0.0045871559633027525
sI52
F0.03669724770642202
sI53
F0.013761467889908258
ssI55
g0
(g4
tp113
Rp114
I0
F0.011976047904191617
sI1
F0.005988023952095809
sI2
F0.017964071856287425
sI3
F0.005988023952095809
sI4
F0.023952095808383235
sI5
F0.017964071856287425
sI6
F0.011976047904191617
sI7
F0.005988023952095809
sI8
F0.011976047904191617
sI9
F0.023952095808383235
sI10
F0.011976047904191617
sI11
F0.017964071856287425
sI12
F0.011976047904191617
sI13
F0.017964071856287425
sI14
F0.029940119760479042
sI15
F0.005988023952095809
sI16
F0.017964071856287425
sI17
F0.029940119760479042
sI18
F0.017964071856287425
sI19
F0.023952095808383235
sI20
F0.029940119760479042
sI21
F0.017964071856287425
sI22
F0.017964071856287425
sI23
F0.017964071856287425
sI24
F0.023952095808383235
sI25
F0.041916167664670656
sI26
F0.011976047904191617
sI27
F0.005988023952095809
sI28
F0.017964071856287425
sI29
F0.017964071856287425
sI30
F0.011976047904191617
sI31
F0.011976047904191617
sI32
F0.023952095808383235
sI33
F0.017964071856287425
sI34
F0.011976047904191617
sI35
F0.017964071856287425
sI36
F0.011976047904191617
sI37
F0.017964071856287425
sI38
F0.023952095808383235
sI39
F0.029940119760479042
sI40
F0.005988023952095809
sI41
F0.03592814371257485
sI43
F0.029940119760479042
sI44
F0.011976047904191617
sI45
F0.011976047904191617
sI46
F0.017964071856287425
sI47
F0.017964071856287425
sI48
F0.029940119760479042
sI49
F0.017964071856287425
sI50
F0.029940119760479042
sI51
F0.029940119760479042
sI52
F0.017964071856287425
sI53
F0.017964071856287425
sI54
F0.017964071856287425
ssI56
g0
(g4
tp115
Rp116
I0
F0.006578947368421052
sI1
F0.013157894736842105
sI2
F0.02631578947368421
sI3
F0.013157894736842105
sI4
F0.019736842105263157
sI5
F0.019736842105263157
sI6
F0.006578947368421052
sI7
F0.013157894736842105
sI8
F0.02631578947368421
sI9
F0.02631578947368421
sI10
F0.03289473684210526
sI11
F0.019736842105263157
sI12
F0.013157894736842105
sI13
F0.02631578947368421
sI14
F0.03289473684210526
sI15
F0.006578947368421052
sI16
F0.019736842105263157
sI17
F0.013157894736842105
sI18
F0.019736842105263157
sI19
F0.02631578947368421
sI20
F0.006578947368421052
sI21
F0.013157894736842105
sI22
F0.019736842105263157
sI23
F0.019736842105263157
sI24
F0.019736842105263157
sI25
F0.013157894736842105
sI26
F0.019736842105263157
sI27
F0.019736842105263157
sI28
F0.006578947368421052
sI29
F0.006578947368421052
sI30
F0.013157894736842105
sI31
F0.03289473684210526
sI32
F0.006578947368421052
sI33
F0.03289473684210526
sI34
F0.013157894736842105
sI35
F0.006578947368421052
sI36
F0.019736842105263157
sI37
F0.006578947368421052
sI38
F0.013157894736842105
sI39
F0.03289473684210526
sI40
F0.019736842105263157
sI41
F0.006578947368421052
sI42
F0.039473684210526314
sI43
F0.019736842105263157
sI44
F0.013157894736842105
sI45
F0.006578947368421052
sI46
F0.013157894736842105
sI47
F0.013157894736842105
sI48
F0.019736842105263157
sI49
F0.013157894736842105
sI50
F0.02631578947368421
sI51
F0.006578947368421052
sI52
F0.039473684210526314
sI53
F0.02631578947368421
sI54
F0.02631578947368421
sI55
F0.006578947368421052
ssI57
g0
(g4
tp117
Rp118
I0
F0.037037037037037035
sI1
F0.02962962962962963
sI2
F0.007407407407407408
sI3
F0.007407407407407408
sI4
F0.014814814814814815
sI5
F0.022222222222222223
sI7
F0.014814814814814815
sI8
F0.022222222222222223
sI9
F0.007407407407407408
sI10
F0.02962962962962963
sI11
F0.014814814814814815
sI12
F0.007407407407407408
sI13
F0.014814814814814815
sI14
F0.044444444444444446
sI15
F0.007407407407407408
sI16
F0.02962962962962963
sI17
F0.014814814814814815
sI18
F0.007407407407407408
sI19
F0.007407407407407408
sI20
F0.022222222222222223
sI21
F0.014814814814814815
sI22
F0.022222222222222223
sI23
F0.014814814814814815
sI24
F0.02962962962962963
sI25
F0.007407407407407408
sI26
F0.022222222222222223
sI27
F0.014814814814814815
sI28
F0.014814814814814815
sI29
F0.022222222222222223
sI30
F0.02962962962962963
sI31
F0.02962962962962963
sI32
F0.022222222222222223
sI33
F0.022222222222222223
sI34
F0.007407407407407408
sI35
F0.014814814814814815
sI36
F0.014814814814814815
sI37
F0.007407407407407408
sI38
F0.022222222222222223
sI39
F0.022222222222222223
sI40
F0.014814814814814815
sI41
F0.014814814814814815
sI42
F0.007407407407407408
sI43
F0.022222222222222223
sI44
F0.014814814814814815
sI45
F0.007407407407407408
sI46
F0.022222222222222223
sI47
F0.022222222222222223
sI48
F0.014814814814814815
sI49
F0.022222222222222223
sI50
F0.014814814814814815
sI51
F0.014814814814814815
sI52
F0.014814814814814815
sI53
F0.02962962962962963
sI54
F0.014814814814814815
sI55
F0.014814814814814815
sI56
F0.014814814814814815
ssI58
g0
(g4
tp119
Rp120
I0
F0.017699115044247787
sI2
F0.017699115044247787
sI3
F0.017699115044247787
sI4
F0.017699115044247787
sI5
F0.008849557522123894
sI6
F0.017699115044247787
sI7
F0.008849557522123894
sI8
F0.017699115044247787
sI9
F0.008849557522123894
sI10
F0.035398230088495575
sI11
F0.008849557522123894
sI12
F0.017699115044247787
sI13
F0.02654867256637168
sI14
F0.008849557522123894
sI15
F0.017699115044247787
sI16
F0.017699115044247787
sI17
F0.017699115044247787
sI18
F0.02654867256637168
sI19
F0.02654867256637168
sI20
F0.008849557522123894
sI21
F0.017699115044247787
sI23
F0.017699115044247787
sI25
F0.008849557522123894
sI26
F0.02654867256637168
sI27
F0.008849557522123894
sI28
F0.02654867256637168
sI29
F0.017699115044247787
sI30
F0.02654867256637168
sI31
F0.02654867256637168
sI32
F0.008849557522123894
sI33
F0.017699115044247787
sI34
F0.02654867256637168
sI36
F0.017699115044247787
sI38
F0.017699115044247787
sI39
F0.008849557522123894
sI40
F0.02654867256637168
sI41
F0.017699115044247787
sI42
F0.017699115044247787
sI43
F0.04424778761061947
sI44
F0.008849557522123894
sI45
F0.008849557522123894
sI46
F0.02654867256637168
sI48
F0.02654867256637168
sI49
F0.017699115044247787
sI50
F0.017699115044247787
sI52
F0.02654867256637168
sI53
F0.035398230088495575
sI54
F0.04424778761061947
sI55
F0.017699115044247787
sI56
F0.02654867256637168
sI57
F0.017699115044247787
ssI59
g0
(g4
tp121
Rp122
I1
F0.01020408163265306
sI2
F0.030612244897959183
sI3
F0.01020408163265306
sI4
F0.02040816326530612
sI5
F0.01020408163265306
sI6
F0.02040816326530612
sI7
F0.02040816326530612
sI9
F0.02040816326530612
sI10
F0.01020408163265306
sI11
F0.02040816326530612
sI12
F0.02040816326530612
sI14
F0.030612244897959183
sI15
F0.02040816326530612
sI16
F0.02040816326530612
sI17
F0.02040816326530612
sI19
F0.01020408163265306
sI20
F0.02040816326530612
sI21
F0.02040816326530612
sI22
F0.01020408163265306
sI23
F0.04081632653061224
sI24
F0.02040816326530612
sI25
F0.01020408163265306
sI26
F0.01020408163265306
sI27
F0.01020408163265306
sI28
F0.02040816326530612
sI29
F0.01020408163265306
sI30
F0.030612244897959183
sI31
F0.01020408163265306
sI32
F0.01020408163265306
sI33
F0.01020408163265306
sI35
F0.01020408163265306
sI36
F0.01020408163265306
sI37
F0.02040816326530612
sI38
F0.02040816326530612
sI39
F0.030612244897959183
sI40
F0.01020408163265306
sI41
F0.030612244897959183
sI42
F0.02040816326530612
sI43
F0.02040816326530612
sI44
F0.01020408163265306
sI45
F0.02040816326530612
sI46
F0.02040816326530612
sI49
F0.02040816326530612
sI50
F0.01020408163265306
sI51
F0.02040816326530612
sI52
F0.05102040816326531
sI53
F0.04081632653061224
sI54
F0.02040816326530612
sI55
F0.030612244897959183
sI56
F0.02040816326530612
sI57
F0.02040816326530612
sI58
F0.01020408163265306
ssI60
g0
(g4
tp123
Rp124
I0
F0.024390243902439025
sI1
F0.018292682926829267
sI2
F0.018292682926829267
sI3
F0.018292682926829267
sI4
F0.012195121951219513
sI5
F0.006097560975609756
sI6
F0.012195121951219513
sI7
F0.018292682926829267
sI8
F0.006097560975609756
sI9
F0.018292682926829267
sI10
F0.024390243902439025
sI11
F0.018292682926829267
sI12
F0.018292682926829267
sI13
F0.018292682926829267
sI14
F0.024390243902439025
sI15
F0.036585365853658534
sI16
F0.006097560975609756
sI17
F0.024390243902439025
sI18
F0.012195121951219513
sI19
F0.006097560975609756
sI20
F0.006097560975609756
sI21
F0.012195121951219513
sI22
F0.006097560975609756
sI23
F0.012195121951219513
sI24
F0.006097560975609756
sI25
F0.012195121951219513
sI26
F0.03048780487804878
sI28
F0.036585365853658534
sI30
F0.024390243902439025
sI31
F0.03048780487804878
sI32
F0.012195121951219513
sI33
F0.018292682926829267
sI34
F0.012195121951219513
sI35
F0.012195121951219513
sI36
F0.018292682926829267
sI38
F0.03048780487804878
sI39
F0.006097560975609756
sI40
F0.024390243902439025
sI41
F0.03048780487804878
sI42
F0.018292682926829267
sI43
F0.018292682926829267
sI44
F0.006097560975609756
sI45
F0.012195121951219513
sI46
F0.006097560975609756
sI47
F0.018292682926829267
sI48
F0.03048780487804878
sI49
F0.012195121951219513
sI50
F0.024390243902439025
sI52
F0.024390243902439025
sI53
F0.024390243902439025
sI54
F0.03048780487804878
sI55
F0.012195121951219513
sI56
F0.018292682926829267
sI57
F0.024390243902439025
sI58
F0.036585365853658534
ssI61
g0
(g4
tp125
Rp126
I0
F0.013422818791946308
sI1
F0.020134228187919462
sI2
F0.026845637583892617
sI3
F0.020134228187919462
sI4
F0.03355704697986577
sI5
F0.006711409395973154
sI6
F0.013422818791946308
sI7
F0.026845637583892617
sI8
F0.006711409395973154
sI9
F0.020134228187919462
sI10
F0.013422818791946308
sI11
F0.026845637583892617
sI12
F0.013422818791946308
sI14
F0.026845637583892617
sI16
F0.006711409395973154
sI17
F0.006711409395973154
sI18
F0.006711409395973154
sI19
F0.006711409395973154
sI20
F0.006711409395973154
sI21
F0.020134228187919462
sI22
F0.006711409395973154
sI23
F0.026845637583892617
sI24
F0.020134228187919462
sI25
F0.020134228187919462
sI26
F0.026845637583892617
sI27
F0.013422818791946308
sI28
F0.020134228187919462
sI29
F0.020134228187919462
sI30
F0.026845637583892617
sI31
F0.006711409395973154
sI32
F0.026845637583892617
sI33
F0.006711409395973154
sI34
F0.03355704697986577
sI35
F0.006711409395973154
sI36
F0.013422818791946308
sI37
F0.013422818791946308
sI38
F0.03355704697986577
sI39
F0.026845637583892617
sI40
F0.006711409395973154
sI41
F0.013422818791946308
sI42
F0.006711409395973154
sI43
F0.006711409395973154
sI44
F0.026845637583892617
sI45
F0.006711409395973154
sI46
F0.020134228187919462
sI47
F0.006711409395973154
sI48
F0.026845637583892617
sI49
F0.026845637583892617
sI50
F0.03355704697986577
sI52
F0.03355704697986577
sI53
F0.013422818791946308
sI54
F0.020134228187919462
sI56
F0.013422818791946308
sI57
F0.013422818791946308
sI58
F0.026845637583892617
sI59
F0.006711409395973154
sI60
F0.020134228187919462
ssI62
g0
(g4
tp127
Rp128
I1
F0.050505050505050504
sI2
F0.030303030303030304
sI4
F0.04040404040404041
sI5
F0.010101010101010102
sI7
F0.010101010101010102
sI10
F0.010101010101010102
sI11
F0.020202020202020204
sI12
F0.020202020202020204
sI13
F0.010101010101010102
sI14
F0.020202020202020204
sI18
F0.010101010101010102
sI19
F0.010101010101010102
sI20
F0.010101010101010102
sI21
F0.010101010101010102
sI22
F0.020202020202020204
sI23
F0.04040404040404041
sI24
F0.020202020202020204
sI25
F0.010101010101010102
sI26
F0.020202020202020204
sI27
F0.020202020202020204
sI28
F0.050505050505050504
sI29
F0.010101010101010102
sI30
F0.020202020202020204
sI32
F0.010101010101010102
sI33
F0.020202020202020204
sI34
F0.06060606060606061
sI35
F0.010101010101010102
sI36
F0.030303030303030304
sI37
F0.020202020202020204
sI38
F0.020202020202020204
sI39
F0.030303030303030304
sI40
F0.010101010101010102
sI41
F0.030303030303030304
sI42
F0.010101010101010102
sI44
F0.030303030303030304
sI45
F0.020202020202020204
sI46
F0.010101010101010102
sI47
F0.030303030303030304
sI48
F0.020202020202020204
sI49
F0.020202020202020204
sI50
F0.020202020202020204
sI52
F0.010101010101010102
sI54
F0.030303030303030304
sI55
F0.010101010101010102
sI56
F0.010101010101010102
sI57
F0.010101010101010102
sI59
F0.010101010101010102
sI60
F0.010101010101010102
sI61
F0.030303030303030304
ssI63
g0
(g4
tp129
Rp130
I0
F0.028169014084507043
sI1
F0.007042253521126761
sI2
F0.02112676056338028
sI4
F0.02112676056338028
sI5
F0.014084507042253521
sI6
F0.007042253521126761
sI7
F0.007042253521126761
sI8
F0.007042253521126761
sI9
F0.035211267605633804
sI10
F0.02112676056338028
sI11
F0.02112676056338028
sI12
F0.007042253521126761
sI13
F0.007042253521126761
sI14
F0.014084507042253521
sI15
F0.007042253521126761
sI16
F0.02112676056338028
sI17
F0.014084507042253521
sI18
F0.014084507042253521
sI19
F0.007042253521126761
sI20
F0.014084507042253521
sI21
F0.007042253521126761
sI22
F0.007042253521126761
sI23
F0.007042253521126761
sI24
F0.014084507042253521
sI25
F0.035211267605633804
sI26
F0.02112676056338028
sI27
F0.014084507042253521
sI28
F0.007042253521126761
sI29
F0.02112676056338028
sI30
F0.02112676056338028
sI31
F0.028169014084507043
sI32
F0.014084507042253521
sI33
F0.014084507042253521
sI34
F0.02112676056338028
sI35
F0.007042253521126761
sI36
F0.014084507042253521
sI37
F0.007042253521126761
sI38
F0.02112676056338028
sI39
F0.028169014084507043
sI40
F0.007042253521126761
sI41
F0.028169014084507043
sI42
F0.007042253521126761
sI43
F0.04929577464788732
sI44
F0.014084507042253521
sI45
F0.02112676056338028
sI46
F0.007042253521126761
sI47
F0.014084507042253521
sI48
F0.014084507042253521
sI49
F0.014084507042253521
sI50
F0.02112676056338028
sI51
F0.02112676056338028
sI52
F0.02112676056338028
sI53
F0.02112676056338028
sI54
F0.02112676056338028
sI55
F0.035211267605633804
sI56
F0.014084507042253521
sI57
F0.007042253521126761
sI58
F0.014084507042253521
sI59
F0.007042253521126761
sI60
F0.028169014084507043
sI61
F0.007042253521126761
ssI64
g0
(g4
tp131
Rp132
I0
F0.024390243902439025
sI2
F0.018292682926829267
sI4
F0.018292682926829267
sI5
F0.006097560975609756
sI6
F0.006097560975609756
sI7
F0.012195121951219513
sI8
F0.006097560975609756
sI9
F0.024390243902439025
sI10
F0.012195121951219513
sI11
F0.006097560975609756
sI12
F0.012195121951219513
sI13
F0.024390243902439025
sI14
F0.012195121951219513
sI15
F0.012195121951219513
sI16
F0.012195121951219513
sI17
F0.036585365853658534
sI18
F0.012195121951219513
sI20
F0.006097560975609756
sI21
F0.024390243902439025
sI22
F0.012195121951219513
sI23
F0.018292682926829267
sI24
F0.018292682926829267
sI25
F0.018292682926829267
sI26
F0.012195121951219513
sI27
F0.012195121951219513
sI28
F0.018292682926829267
sI29
F0.036585365853658534
sI30
F0.012195121951219513
sI31
F0.012195121951219513
sI32
F0.012195121951219513
sI33
F0.018292682926829267
sI34
F0.018292682926829267
sI35
F0.006097560975609756
sI36
F0.024390243902439025
sI37
F0.006097560975609756
sI38
F0.018292682926829267
sI39
F0.006097560975609756
sI40
F0.018292682926829267
sI41
F0.006097560975609756
sI42
F0.012195121951219513
sI43
F0.036585365853658534
sI44
F0.012195121951219513
sI45
F0.018292682926829267
sI46
F0.012195121951219513
sI47
F0.024390243902439025
sI48
F0.024390243902439025
sI49
F0.018292682926829267
sI50
F0.018292682926829267
sI51
F0.018292682926829267
sI52
F0.03048780487804878
sI53
F0.018292682926829267
sI54
F0.018292682926829267
sI55
F0.018292682926829267
sI56
F0.018292682926829267
sI57
F0.024390243902439025
sI58
F0.018292682926829267
sI59
F0.018292682926829267
sI60
F0.018292682926829267
sI61
F0.012195121951219513
sI62
F0.006097560975609756
sI63
F0.012195121951219513
ssI65
g0
(g4
tp133
Rp134
I0
F0.009900990099009901
sI1
F0.019801980198019802
sI2
F0.019801980198019802
sI5
F0.019801980198019802
sI7
F0.019801980198019802
sI9
F0.04950495049504951
sI10
F0.019801980198019802
sI12
F0.009900990099009901
sI13
F0.009900990099009901
sI14
F0.019801980198019802
sI16
F0.039603960396039604
sI17
F0.009900990099009901
sI18
F0.019801980198019802
sI19
F0.009900990099009901
sI20
F0.019801980198019802
sI21
F0.0297029702970297
sI23
F0.009900990099009901
sI24
F0.009900990099009901
sI25
F0.039603960396039604
sI26
F0.009900990099009901
sI27
F0.0297029702970297
sI28
F0.009900990099009901
sI29
F0.009900990099009901
sI30
F0.0297029702970297
sI31
F0.019801980198019802
sI32
F0.009900990099009901
sI33
F0.019801980198019802
sI34
F0.0297029702970297
sI35
F0.019801980198019802
sI36
F0.019801980198019802
sI38
F0.019801980198019802
sI39
F0.019801980198019802
sI40
F0.009900990099009901
sI41
F0.009900990099009901
sI43
F0.0297029702970297
sI44
F0.009900990099009901
sI45
F0.0297029702970297
sI46
F0.019801980198019802
sI47
F0.019801980198019802
sI48
F0.009900990099009901
sI50
F0.019801980198019802
sI51
F0.009900990099009901
sI52
F0.009900990099009901
sI53
F0.04950495049504951
sI55
F0.009900990099009901
sI56
F0.009900990099009901
sI57
F0.0297029702970297
sI58
F0.019801980198019802
sI59
F0.009900990099009901
sI60
F0.009900990099009901
sI61
F0.009900990099009901
sI62
F0.009900990099009901
sI63
F0.019801980198019802
sI64
F0.009900990099009901
ssI66
g0
(g4
tp135
Rp136
I0
F0.025
sI2
F0.0375
sI3
F0.0125
sI4
F0.0125
sI6
F0.0125
sI7
F0.025
sI10
F0.025
sI12
F0.0375
sI14
F0.0125
sI17
F0.0125
sI18
F0.025
sI19
F0.0125
sI21
F0.025
sI22
F0.0125
sI23
F0.025
sI24
F0.05
sI26
F0.0125
sI28
F0.0375
sI29
F0.0125
sI30
F0.0125
sI31
F0.025
sI32
F0.0125
sI33
F0.0125
sI34
F0.0125
sI35
F0.0125
sI37
F0.025
sI38
F0.025
sI39
F0.025
sI41
F0.0125
sI42
F0.025
sI43
F0.0125
sI44
F0.025
sI45
F0.0125
sI46
F0.025
sI47
F0.025
sI48
F0.025
sI50
F0.05
sI52
F0.0125
sI53
F0.025
sI54
F0.025
sI55
F0.025
sI57
F0.0125
sI58
F0.0125
sI59
F0.025
sI60
F0.0125
sI61
F0.0125
sI62
F0.025
sI64
F0.0125
ssI67
g0
(g4
tp137
Rp138
I0
F0.042735042735042736
sI1
F0.008547008547008548
sI2
F0.02564102564102564
sI4
F0.02564102564102564
sI5
F0.017094017094017096
sI7
F0.008547008547008548
sI8
F0.008547008547008548
sI9
F0.02564102564102564
sI10
F0.017094017094017096
sI12
F0.02564102564102564
sI13
F0.02564102564102564
sI17
F0.008547008547008548
sI18
F0.02564102564102564
sI19
F0.008547008547008548
sI20
F0.017094017094017096
sI21
F0.008547008547008548
sI23
F0.017094017094017096
sI25
F0.008547008547008548
sI26
F0.008547008547008548
sI27
F0.02564102564102564
sI28
F0.042735042735042736
sI29
F0.017094017094017096
sI30
F0.008547008547008548
sI31
F0.02564102564102564
sI32
F0.017094017094017096
sI33
F0.017094017094017096
sI34
F0.017094017094017096
sI35
F0.03418803418803419
sI37
F0.008547008547008548
sI38
F0.008547008547008548
sI39
F0.017094017094017096
sI41
F0.017094017094017096
sI42
F0.008547008547008548
sI43
F0.017094017094017096
sI44
F0.008547008547008548
sI45
F0.02564102564102564
sI47
F0.017094017094017096
sI48
F0.017094017094017096
sI49
F0.008547008547008548
sI50
F0.03418803418803419
sI51
F0.02564102564102564
sI52
F0.017094017094017096
sI53
F0.03418803418803419
sI54
F0.008547008547008548
sI55
F0.02564102564102564
sI56
F0.008547008547008548
sI57
F0.008547008547008548
sI58
F0.008547008547008548
sI59
F0.008547008547008548
sI60
F0.008547008547008548
sI62
F0.017094017094017096
sI63
F0.02564102564102564
sI64
F0.02564102564102564
sI65
F0.042735042735042736
sI66
F0.008547008547008548
ssI68
g0
(g4
tp139
Rp140
I0
F0.02631578947368421
sI3
F0.013157894736842105
sI4
F0.02631578947368421
sI5
F0.013157894736842105
sI8
F0.013157894736842105
sI9
F0.02631578947368421
sI10
F0.02631578947368421
sI11
F0.02631578947368421
sI13
F0.02631578947368421
sI14
F0.013157894736842105
sI15
F0.013157894736842105
sI16
F0.013157894736842105
sI17
F0.013157894736842105
sI19
F0.013157894736842105
sI21
F0.013157894736842105
sI22
F0.013157894736842105
sI23
F0.013157894736842105
sI24
F0.039473684210526314
sI25
F0.02631578947368421
sI26
F0.013157894736842105
sI28
F0.013157894736842105
sI29
F0.013157894736842105
sI31
F0.013157894736842105
sI32
F0.013157894736842105
sI33
F0.013157894736842105
sI34
F0.013157894736842105
sI35
F0.013157894736842105
sI36
F0.013157894736842105
sI37
F0.013157894736842105
sI38
F0.013157894736842105
sI39
F0.02631578947368421
sI41
F0.02631578947368421
sI42
F0.013157894736842105
sI43
F0.02631578947368421
sI44
F0.013157894736842105
sI46
F0.013157894736842105
sI47
F0.039473684210526314
sI48
F0.013157894736842105
sI49
F0.013157894736842105
sI50
F0.02631578947368421
sI51
F0.013157894736842105
sI52
F0.02631578947368421
sI54
F0.02631578947368421
sI55
F0.039473684210526314
sI56
F0.013157894736842105
sI57
F0.013157894736842105
sI59
F0.02631578947368421
sI60
F0.039473684210526314
sI63
F0.02631578947368421
sI64
F0.02631578947368421
sI65
F0.013157894736842105
sI66
F0.013157894736842105
ssI69
g0
(g4
tp141
Rp142
I0
F0.024096385542168676
sI1
F0.012048192771084338
sI2
F0.03614457831325301
sI4
F0.03614457831325301
sI5
F0.024096385542168676
sI6
F0.012048192771084338
sI7
F0.024096385542168676
sI8
F0.012048192771084338
sI9
F0.024096385542168676
sI10
F0.024096385542168676
sI13
F0.012048192771084338
sI14
F0.012048192771084338
sI17
F0.012048192771084338
sI18
F0.012048192771084338
sI19
F0.024096385542168676
sI20
F0.012048192771084338
sI21
F0.03614457831325301
sI22
F0.012048192771084338
sI23
F0.024096385542168676
sI24
F0.012048192771084338
sI25
F0.012048192771084338
sI26
F0.024096385542168676
sI27
F0.024096385542168676
sI28
F0.024096385542168676
sI29
F0.012048192771084338
sI30
F0.024096385542168676
sI31
F0.012048192771084338
sI34
F0.024096385542168676
sI36
F0.012048192771084338
sI37
F0.024096385542168676
sI38
F0.024096385542168676
sI41
F0.012048192771084338
sI42
F0.012048192771084338
sI43
F0.024096385542168676
sI45
F0.024096385542168676
sI48
F0.024096385542168676
sI50
F0.024096385542168676
sI51
F0.012048192771084338
sI52
F0.012048192771084338
sI53
F0.012048192771084338
sI54
F0.012048192771084338
sI55
F0.024096385542168676
sI58
F0.024096385542168676
sI59
F0.024096385542168676
sI61
F0.012048192771084338
sI62
F0.03614457831325301
sI63
F0.012048192771084338
sI64
F0.012048192771084338
sI65
F0.012048192771084338
sI66
F0.012048192771084338
sI67
F0.04819277108433735
ssI70
g0
(g4
tp143
Rp144
I0
F0.02247191011235955
sI1
F0.033707865168539325
sI2
F0.02247191011235955
sI3
F0.02247191011235955
sI4
F0.02247191011235955
sI6
F0.011235955056179775
sI7
F0.011235955056179775
sI8
F0.011235955056179775
sI9
F0.011235955056179775
sI10
F0.011235955056179775
sI11
F0.011235955056179775
sI12
F0.02247191011235955
sI14
F0.02247191011235955
sI17
F0.02247191011235955
sI19
F0.02247191011235955
sI21
F0.011235955056179775
sI22
F0.011235955056179775
sI23
F0.033707865168539325
sI24
F0.02247191011235955
sI25
F0.011235955056179775
sI26
F0.011235955056179775
sI27
F0.011235955056179775
sI28
F0.033707865168539325
sI30
F0.011235955056179775
sI31
F0.02247191011235955
sI32
F0.011235955056179775
sI33
F0.011235955056179775
sI34
F0.011235955056179775
sI35
F0.011235955056179775
sI37
F0.011235955056179775
sI38
F0.011235955056179775
sI42
F0.011235955056179775
sI43
F0.02247191011235955
sI44
F0.033707865168539325
sI45
F0.011235955056179775
sI47
F0.011235955056179775
sI48
F0.011235955056179775
sI49
F0.02247191011235955
sI50
F0.02247191011235955
sI52
F0.02247191011235955
sI53
F0.011235955056179775
sI54
F0.033707865168539325
sI55
F0.011235955056179775
sI57
F0.033707865168539325
sI58
F0.033707865168539325
sI59
F0.011235955056179775
sI60
F0.033707865168539325
sI61
F0.011235955056179775
sI62
F0.02247191011235955
sI64
F0.02247191011235955
sI66
F0.033707865168539325
sI67
F0.011235955056179775
sI68
F0.02247191011235955
sI69
F0.011235955056179775
ssI71
g0
(g4
tp145
Rp146
I0
F0.014814814814814815
sI1
F0.007407407407407408
sI2
F0.022222222222222223
sI5
F0.007407407407407408
sI6
F0.014814814814814815
sI7
F0.007407407407407408
sI9
F0.037037037037037035
sI10
F0.007407407407407408
sI11
F0.014814814814814815
sI12
F0.022222222222222223
sI14
F0.02962962962962963
sI16
F0.02962962962962963
sI17
F0.007407407407407408
sI18
F0.037037037037037035
sI19
F0.007407407407407408
sI20
F0.014814814814814815
sI21
F0.014814814814814815
sI22
F0.007407407407407408
sI23
F0.014814814814814815
sI24
F0.007407407407407408
sI25
F0.02962962962962963
sI26
F0.007407407407407408
sI27
F0.007407407407407408
sI28
F0.014814814814814815
sI29
F0.022222222222222223
sI30
F0.014814814814814815
sI32
F0.02962962962962963
sI33
F0.014814814814814815
sI34
F0.022222222222222223
sI35
F0.022222222222222223
sI36
F0.014814814814814815
sI37
F0.014814814814814815
sI38
F0.007407407407407408
sI39
F0.014814814814814815
sI40
F0.007407407407407408
sI41
F0.007407407407407408
sI43
F0.014814814814814815
sI44
F0.02962962962962963
sI46
F0.014814814814814815
sI47
F0.014814814814814815
sI48
F0.022222222222222223
sI49
F0.007407407407407408
sI50
F0.022222222222222223
sI51
F0.014814814814814815
sI52
F0.007407407407407408
sI53
F0.022222222222222223
sI54
F0.007407407407407408
sI55
F0.022222222222222223
sI56
F0.014814814814814815
sI57
F0.022222222222222223
sI58
F0.007407407407407408
sI60
F0.014814814814814815
sI61
F0.022222222222222223
sI62
F0.014814814814814815
sI63
F0.014814814814814815
sI64
F0.022222222222222223
sI65
F0.022222222222222223
sI66
F0.022222222222222223
sI67
F0.022222222222222223
sI69
F0.007407407407407408
sI70
F0.014814814814814815
ssI72
g0
(g4
tp147
Rp148
I0
F0.009345794392523364
sI1
F0.009345794392523364
sI2
F0.018691588785046728
sI4
F0.009345794392523364
sI5
F0.018691588785046728
sI6
F0.009345794392523364
sI7
F0.037383177570093455
sI9
F0.037383177570093455
sI10
F0.028037383177570093
sI11
F0.009345794392523364
sI13
F0.009345794392523364
sI14
F0.009345794392523364
sI16
F0.009345794392523364
sI17
F0.009345794392523364
sI18
F0.009345794392523364
sI19
F0.018691588785046728
sI21
F0.018691588785046728
sI22
F0.009345794392523364
sI23
F0.028037383177570093
sI25
F0.018691588785046728
sI26
F0.028037383177570093
sI27
F0.018691588785046728
sI28
F0.018691588785046728
sI29
F0.009345794392523364
sI30
F0.018691588785046728
sI31
F0.018691588785046728
sI32
F0.018691588785046728
sI33
F0.018691588785046728
sI34
F0.018691588785046728
sI35
F0.009345794392523364
sI36
F0.009345794392523364
sI38
F0.028037383177570093
sI39
F0.018691588785046728
sI41
F0.009345794392523364
sI42
F0.018691588785046728
sI43
F0.018691588785046728
sI45
F0.028037383177570093
sI47
F0.018691588785046728
sI48
F0.009345794392523364
sI49
F0.018691588785046728
sI50
F0.028037383177570093
sI52
F0.018691588785046728
sI53
F0.009345794392523364
sI54
F0.028037383177570093
sI56
F0.037383177570093455
sI58
F0.009345794392523364
sI59
F0.009345794392523364
sI60
F0.009345794392523364
sI61
F0.028037383177570093
sI62
F0.018691588785046728
sI63
F0.009345794392523364
sI64
F0.018691588785046728
sI65
F0.028037383177570093
sI66
F0.009345794392523364
sI67
F0.018691588785046728
sI68
F0.009345794392523364
sI69
F0.009345794392523364
sI71
F0.018691588785046728
ssI73
g0
(g4
tp149
Rp150
I0
F0.022727272727272728
sI2
F0.022727272727272728
sI3
F0.011363636363636364
sI4
F0.022727272727272728
sI5
F0.011363636363636364
sI6
F0.022727272727272728
sI7
F0.022727272727272728
sI8
F0.022727272727272728
sI9
F0.022727272727272728
sI11
F0.022727272727272728
sI13
F0.011363636363636364
sI14
F0.011363636363636364
sI15
F0.022727272727272728
sI17
F0.03409090909090909
sI18
F0.011363636363636364
sI21
F0.011363636363636364
sI22
F0.022727272727272728
sI23
F0.03409090909090909
sI24
F0.022727272727272728
sI25
F0.011363636363636364
sI27
F0.011363636363636364
sI28
F0.03409090909090909
sI29
F0.022727272727272728
sI30
F0.011363636363636364
sI31
F0.011363636363636364
sI33
F0.022727272727272728
sI34
F0.011363636363636364
sI36
F0.011363636363636364
sI38
F0.022727272727272728
sI41
F0.011363636363636364
sI43
F0.011363636363636364
sI44
F0.011363636363636364
sI45
F0.022727272727272728
sI46
F0.011363636363636364
sI48
F0.045454545454545456
sI49
F0.011363636363636364
sI50
F0.03409090909090909
sI52
F0.022727272727272728
sI53
F0.022727272727272728
sI54
F0.011363636363636364
sI55
F0.022727272727272728
sI56
F0.011363636363636364
sI59
F0.022727272727272728
sI60
F0.011363636363636364
sI61
F0.022727272727272728
sI64
F0.03409090909090909
sI66
F0.011363636363636364
sI67
F0.011363636363636364
sI68
F0.03409090909090909
sI69
F0.011363636363636364
sI70
F0.011363636363636364
sI71
F0.011363636363636364
sI72
F0.011363636363636364
ssI74
g0
(g4
tp151
Rp152
I0
F0.03896103896103896
sI2
F0.012987012987012988
sI4
F0.012987012987012988
sI5
F0.025974025974025976
sI7
F0.012987012987012988
sI8
F0.025974025974025976
sI9
F0.025974025974025976
sI10
F0.012987012987012988
sI12
F0.012987012987012988
sI13
F0.012987012987012988
sI14
F0.012987012987012988
sI16
F0.012987012987012988
sI17
F0.012987012987012988
sI18
F0.012987012987012988
sI19
F0.025974025974025976
sI21
F0.025974025974025976
sI23
F0.03896103896103896
sI25
F0.03896103896103896
sI26
F0.012987012987012988
sI27
F0.025974025974025976
sI28
F0.012987012987012988
sI30
F0.012987012987012988
sI31
F0.012987012987012988
sI32
F0.012987012987012988
sI34
F0.025974025974025976
sI35
F0.012987012987012988
sI38
F0.025974025974025976
sI39
F0.012987012987012988
sI42
F0.012987012987012988
sI43
F0.012987012987012988
sI45
F0.03896103896103896
sI46
F0.012987012987012988
sI47
F0.012987012987012988
sI48
F0.012987012987012988
sI50
F0.03896103896103896
sI51
F0.012987012987012988
sI52
F0.025974025974025976
sI53
F0.012987012987012988
sI54
F0.012987012987012988
sI55
F0.012987012987012988
sI56
F0.025974025974025976
sI60
F0.025974025974025976
sI63
F0.012987012987012988
sI64
F0.012987012987012988
sI65
F0.012987012987012988
sI67
F0.025974025974025976
sI68
F0.025974025974025976
sI69
F0.025974025974025976
sI70
F0.025974025974025976
sI71
F0.012987012987012988
sI72
F0.012987012987012988
sI73
F0.012987012987012988
ssI75
g0
(g4
tp153
Rp154
I2
F0.04
sI6
F0.04
sI7
F0.02
sI9
F0.02
sI10
F0.02
sI11
F0.04
sI12
F0.02
sI21
F0.02
sI23
F0.02
sI28
F0.02
sI30
F0.02
sI32
F0.06
sI33
F0.02
sI35
F0.04
sI38
F0.04
sI39
F0.02
sI41
F0.02
sI42
F0.02
sI43
F0.02
sI48
F0.04
sI49
F0.02
sI50
F0.02
sI52
F0.02
sI54
F0.02
sI55
F0.04
sI56
F0.02
sI59
F0.02
sI61
F0.04
sI62
F0.04
sI63
F0.02
sI64
F0.02
sI66
F0.02
sI67
F0.02
sI68
F0.02
sI69
F0.02
sI71
F0.02
sI72
F0.04
sI73
F0.02
ssI76
g0
(g4
tp155
Rp156
I0
F0.02702702702702703
sI2
F0.036036036036036036
sI3
F0.009009009009009009
sI4
F0.009009009009009009
sI6
F0.02702702702702703
sI7
F0.009009009009009009
sI8
F0.009009009009009009
sI9
F0.02702702702702703
sI10
F0.018018018018018018
sI11
F0.018018018018018018
sI12
F0.009009009009009009
sI13
F0.009009009009009009
sI14
F0.018018018018018018
sI17
F0.018018018018018018
sI18
F0.009009009009009009
sI19
F0.018018018018018018
sI21
F0.009009009009009009
sI22
F0.009009009009009009
sI23
F0.02702702702702703
sI25
F0.018018018018018018
sI27
F0.009009009009009009
sI28
F0.02702702702702703
sI29
F0.009009009009009009
sI30
F0.018018018018018018
sI31
F0.036036036036036036
sI33
F0.018018018018018018
sI34
F0.02702702702702703
sI35
F0.009009009009009009
sI38
F0.018018018018018018
sI39
F0.009009009009009009
sI40
F0.009009009009009009
sI41
F0.018018018018018018
sI42
F0.018018018018018018
sI43
F0.018018018018018018
sI44
F0.009009009009009009
sI45
F0.009009009009009009
sI48
F0.009009009009009009
sI49
F0.009009009009009009
sI50
F0.018018018018018018
sI52
F0.036036036036036036
sI53
F0.018018018018018018
sI54
F0.036036036036036036
sI55
F0.009009009009009009
sI56
F0.018018018018018018
sI57
F0.009009009009009009
sI58
F0.018018018018018018
sI59
F0.009009009009009009
sI60
F0.018018018018018018
sI61
F0.018018018018018018
sI62
F0.02702702702702703
sI63
F0.009009009009009009
sI64
F0.018018018018018018
sI66
F0.009009009009009009
sI67
F0.018018018018018018
sI69
F0.018018018018018018
sI70
F0.018018018018018018
sI71
F0.009009009009009009
sI72
F0.009009009009009009
sI73
F0.018018018018018018
sI74
F0.009009009009009009
sI75
F0.018018018018018018
ssI77
g0
(g4
tp157
Rp158
I2
F0.015625
sI5
F0.015625
sI6
F0.015625
sI9
F0.015625
sI11
F0.03125
sI12
F0.03125
sI14
F0.015625
sI15
F0.015625
sI16
F0.03125
sI17
F0.03125
sI19
F0.015625
sI20
F0.015625
sI21
F0.015625
sI22
F0.015625
sI23
F0.03125
sI25
F0.015625
sI26
F0.015625
sI28
F0.03125
sI29
F0.015625
sI32
F0.03125
sI34
F0.015625
sI35
F0.015625
sI38
F0.015625
sI39
F0.015625
sI41
F0.015625
sI43
F0.015625
sI45
F0.03125
sI46
F0.015625
sI47
F0.015625
sI48
F0.015625
sI50
F0.03125
sI51
F0.015625
sI55
F0.03125
sI56
F0.015625
sI57
F0.015625
sI59
F0.015625
sI60
F0.015625
sI61
F0.015625
sI62
F0.03125
sI63
F0.015625
sI64
F0.015625
sI65
F0.015625
sI66
F0.03125
sI67
F0.015625
sI70
F0.015625
sI71
F0.046875
sI73
F0.015625
sI74
F0.015625
sI75
F0.015625
sI76
F0.015625
ssI78
g0
(g4
tp159
Rp160
I0
F0.014925373134328358
sI2
F0.04477611940298507
sI4
F0.014925373134328358
sI8
F0.014925373134328358
sI9
F0.014925373134328358
sI11
F0.014925373134328358
sI12
F0.029850746268656716
sI14
F0.014925373134328358
sI16
F0.014925373134328358
sI17
F0.029850746268656716
sI19
F0.014925373134328358
sI22
F0.014925373134328358
sI23
F0.014925373134328358
sI24
F0.014925373134328358
sI25
F0.014925373134328358
sI26
F0.014925373134328358
sI27
F0.014925373134328358
sI28
F0.029850746268656716
sI31
F0.014925373134328358
sI32
F0.029850746268656716
sI34
F0.014925373134328358
sI35
F0.029850746268656716
sI38
F0.014925373134328358
sI39
F0.014925373134328358
sI41
F0.014925373134328358
sI43
F0.014925373134328358
sI45
F0.014925373134328358
sI48
F0.029850746268656716
sI50
F0.029850746268656716
sI52
F0.014925373134328358
sI53
F0.014925373134328358
sI55
F0.014925373134328358
sI57
F0.029850746268656716
sI58
F0.014925373134328358
sI59
F0.014925373134328358
sI61
F0.014925373134328358
sI62
F0.04477611940298507
sI64
F0.029850746268656716
sI66
F0.014925373134328358
sI67
F0.04477611940298507
sI69
F0.014925373134328358
sI70
F0.014925373134328358
sI71
F0.029850746268656716
sI73
F0.014925373134328358
sI74
F0.014925373134328358
sI75
F0.029850746268656716
sI76
F0.029850746268656716
sI77
F0.029850746268656716
ssI79
g0
(g4
tp161
Rp162
I2
F0.023809523809523808
sI11
F0.023809523809523808
sI12
F0.023809523809523808
sI14
F0.047619047619047616
sI16
F0.047619047619047616
sI17
F0.023809523809523808
sI19
F0.047619047619047616
sI22
F0.047619047619047616
sI23
F0.023809523809523808
sI24
F0.023809523809523808
sI26
F0.023809523809523808
sI27
F0.023809523809523808
sI29
F0.023809523809523808
sI32
F0.023809523809523808
sI34
F0.047619047619047616
sI35
F0.023809523809523808
sI37
F0.023809523809523808
sI38
F0.023809523809523808
sI44
F0.023809523809523808
sI48
F0.023809523809523808
sI51
F0.023809523809523808
sI53
F0.023809523809523808
sI55
F0.023809523809523808
sI56
F0.023809523809523808
sI57
F0.047619047619047616
sI59
F0.023809523809523808
sI60
F0.023809523809523808
sI61
F0.023809523809523808
sI62
F0.023809523809523808
sI67
F0.023809523809523808
sI70
F0.023809523809523808
sI71
F0.023809523809523808
sI76
F0.023809523809523808
sI77
F0.023809523809523808
sI78
F0.047619047619047616
ssI80
g0
(g4
tp163
Rp164
I0
F0.030303030303030304
sI1
F0.030303030303030304
sI2
F0.030303030303030304
sI4
F0.030303030303030304
sI5
F0.030303030303030304
sI6
F0.030303030303030304
sI11
F0.030303030303030304
sI13
F0.030303030303030304
sI15
F0.030303030303030304
sI17
F0.030303030303030304
sI21
F0.030303030303030304
sI23
F0.030303030303030304
sI25
F0.030303030303030304
sI28
F0.030303030303030304
sI33
F0.030303030303030304
sI35
F0.030303030303030304
sI39
F0.030303030303030304
sI43
F0.030303030303030304
sI45
F0.030303030303030304
sI47
F0.030303030303030304
sI48
F0.030303030303030304
sI51
F0.030303030303030304
sI53
F0.06060606060606061
sI59
F0.030303030303030304
sI64
F0.030303030303030304
sI65
F0.06060606060606061
sI67
F0.09090909090909091
sI73
F0.030303030303030304
sI77
F0.030303030303030304
ssI81
g0
(g4
tp165
Rp166
I0
F0.018518518518518517
sI2
F0.05555555555555555
sI4
F0.018518518518518517
sI8
F0.018518518518518517
sI9
F0.018518518518518517
sI10
F0.018518518518518517
sI12
F0.018518518518518517
sI17
F0.018518518518518517
sI23
F0.018518518518518517
sI25
F0.018518518518518517
sI27
F0.018518518518518517
sI28
F0.037037037037037035
sI31
F0.018518518518518517
sI32
F0.037037037037037035
sI33
F0.018518518518518517
sI34
F0.018518518518518517
sI35
F0.037037037037037035
sI39
F0.018518518518518517
sI41
F0.037037037037037035
sI43
F0.018518518518518517
sI45
F0.018518518518518517
sI48
F0.037037037037037035
sI50
F0.037037037037037035
sI52
F0.018518518518518517
sI53
F0.018518518518518517
sI55
F0.037037037037037035
sI62
F0.018518518518518517
sI64
F0.018518518518518517
sI65
F0.018518518518518517
sI66
F0.018518518518518517
sI67
F0.05555555555555555
sI69
F0.018518518518518517
sI70
F0.018518518518518517
sI71
F0.018518518518518517
sI72
F0.018518518518518517
sI73
F0.018518518518518517
sI74
F0.018518518518518517
sI75
F0.018518518518518517
sI76
F0.018518518518518517
sI77
F0.018518518518518517
sI78
F0.037037037037037035
sI80
F0.018518518518518517
ssI82
g0
(g4
tp167
Rp168
I2
F0.03125
sI6
F0.03125
sI9
F0.03125
sI12
F0.03125
sI16
F0.09375
sI17
F0.0625
sI24
F0.0625
sI25
F0.03125
sI26
F0.0625
sI29
F0.03125
sI32
F0.03125
sI35
F0.03125
sI36
F0.03125
sI38
F0.0625
sI43
F0.03125
sI47
F0.03125
sI53
F0.03125
sI54
F0.03125
sI57
F0.03125
sI59
F0.03125
sI64
F0.03125
sI67
F0.03125
sI71
F0.03125
sI72
F0.03125
sI78
F0.03125
sI79
F0.03125
ssI83
g0
(g4
tp169
Rp170
I65
F0.06666666666666667
sI38
F0.06666666666666667
sI9
F0.06666666666666667
sI43
F0.06666666666666667
sI45
F0.06666666666666667
sI77
F0.06666666666666667
sI47
F0.06666666666666667
sI16
F0.06666666666666667
sI17
F0.06666666666666667
sI20
F0.06666666666666667
sI55
F0.06666666666666667
sI25
F0.06666666666666667
sI26
F0.06666666666666667
sI29
F0.06666666666666667
sI63
F0.06666666666666667
ssI84
g0
(g4
tp171
Rp172
I0
F0.017241379310344827
sI2
F0.017241379310344827
sI9
F0.034482758620689655
sI10
F0.017241379310344827
sI11
F0.017241379310344827
sI12
F0.017241379310344827
sI13
F0.017241379310344827
sI14
F0.017241379310344827
sI16
F0.017241379310344827
sI17
F0.017241379310344827
sI18
F0.017241379310344827
sI19
F0.017241379310344827
sI22
F0.017241379310344827
sI23
F0.017241379310344827
sI25
F0.017241379310344827
sI26
F0.034482758620689655
sI28
F0.017241379310344827
sI29
F0.017241379310344827
sI31
F0.017241379310344827
sI34
F0.017241379310344827
sI35
F0.017241379310344827
sI38
F0.017241379310344827
sI41
F0.017241379310344827
sI42
F0.017241379310344827
sI43
F0.034482758620689655
sI44
F0.017241379310344827
sI47
F0.017241379310344827
sI50
F0.017241379310344827
sI52
F0.017241379310344827
sI53
F0.017241379310344827
sI54
F0.034482758620689655
sI56
F0.017241379310344827
sI57
F0.017241379310344827
sI59
F0.017241379310344827
sI60
F0.034482758620689655
sI61
F0.017241379310344827
sI62
F0.017241379310344827
sI63
F0.017241379310344827
sI64
F0.017241379310344827
sI67
F0.017241379310344827
sI70
F0.017241379310344827
sI71
F0.034482758620689655
sI72
F0.017241379310344827
sI76
F0.034482758620689655
sI77
F0.017241379310344827
sI78
F0.034482758620689655
sI79
F0.034482758620689655
sI82
F0.034482758620689655
ssI85
g0
(g4
tp173
Rp174
I2
F0.03571428571428571
sI5
F0.03571428571428571
sI12
F0.03571428571428571
sI16
F0.03571428571428571
sI28
F0.03571428571428571
sI32
F0.07142857142857142
sI35
F0.03571428571428571
sI39
F0.03571428571428571
sI41
F0.03571428571428571
sI44
F0.03571428571428571
sI48
F0.03571428571428571
sI50
F0.03571428571428571
sI51
F0.03571428571428571
sI55
F0.07142857142857142
sI56
F0.03571428571428571
sI62
F0.03571428571428571
sI66
F0.03571428571428571
sI67
F0.03571428571428571
sI71
F0.07142857142857142
sI74
F0.03571428571428571
sI75
F0.03571428571428571
sI77
F0.07142857142857142
sI78
F0.03571428571428571
sI81
F0.03571428571428571
ssI86
g0
(g4
tp175
Rp176
I1
F0.043478260869565216
sI2
F0.043478260869565216
sI11
F0.043478260869565216
sI14
F0.043478260869565216
sI19
F0.043478260869565216
sI20
F0.043478260869565216
sI22
F0.043478260869565216
sI23
F0.043478260869565216
sI33
F0.043478260869565216
sI34
F0.043478260869565216
sI36
F0.043478260869565216
sI42
F0.043478260869565216
sI57
F0.043478260869565216
sI62
F0.08695652173913043
sI70
F0.043478260869565216
sI71
F0.043478260869565216
sI72
F0.043478260869565216
sI76
F0.043478260869565216
sI77
F0.043478260869565216
sI78
F0.043478260869565216
sI79
F0.043478260869565216
sI84
F0.043478260869565216
ssI87
g0
(g4
tp177
Rp178
I19
F0.07142857142857142
sI1
F0.07142857142857142
sI67
F0.07142857142857142
sI5
F0.07142857142857142
sI65
F0.07142857142857142
sI43
F0.07142857142857142
sI47
F0.07142857142857142
sI80
F0.07142857142857142
sI51
F0.14285714285714285
sI53
F0.07142857142857142
sI55
F0.07142857142857142
sI25
F0.07142857142857142
sI79
F0.07142857142857142
ssI88
g0
(g4
tp179
Rp180
I0
F0.023809523809523808
sI1
F0.023809523809523808
sI2
F0.023809523809523808
sI4
F0.023809523809523808
sI5
F0.023809523809523808
sI6
F0.023809523809523808
sI8
F0.023809523809523808
sI9
F0.023809523809523808
sI17
F0.023809523809523808
sI21
F0.023809523809523808
sI23
F0.023809523809523808
sI25
F0.023809523809523808
sI27
F0.023809523809523808
sI28
F0.023809523809523808
sI31
F0.047619047619047616
sI34
F0.047619047619047616
sI40
F0.023809523809523808
sI43
F0.023809523809523808
sI45
F0.023809523809523808
sI47
F0.023809523809523808
sI48
F0.023809523809523808
sI50
F0.023809523809523808
sI51
F0.023809523809523808
sI52
F0.047619047619047616
sI53
F0.023809523809523808
sI54
F0.023809523809523808
sI64
F0.023809523809523808
sI65
F0.023809523809523808
sI67
F0.023809523809523808
sI69
F0.023809523809523808
sI70
F0.023809523809523808
sI73
F0.023809523809523808
sI74
F0.023809523809523808
sI76
F0.047619047619047616
sI78
F0.023809523809523808
sI80
F0.023809523809523808
sI81
F0.023809523809523808
sI87
F0.023809523809523808
ssI89
g0
(g4
tp181
Rp182
I32
F0.07692307692307693
sI35
F0.07692307692307693
sI68
F0.15384615384615385
sI7
F0.07692307692307693
sI72
F0.07692307692307693
sI73
F0.07692307692307693
sI10
F0.07692307692307693
sI75
F0.07692307692307693
sI3
F0.07692307692307693
sI53
F0.07692307692307693
sI22
F0.07692307692307693
sI42
F0.07692307692307693
ssI90
g0
(g4
tp183
Rp184
I0
F0.03125
sI2
F0.03125
sI4
F0.03125
sI8
F0.0625
sI9
F0.03125
sI17
F0.03125
sI23
F0.0625
sI25
F0.03125
sI27
F0.03125
sI28
F0.03125
sI31
F0.03125
sI34
F0.03125
sI43
F0.03125
sI45
F0.03125
sI46
F0.03125
sI48
F0.03125
sI50
F0.03125
sI52
F0.03125
sI56
F0.03125
sI64
F0.03125
sI67
F0.03125
sI69
F0.03125
sI70
F0.03125
sI73
F0.03125
sI74
F0.0625
sI76
F0.03125
sI78
F0.03125
sI81
F0.03125
sI88
F0.03125
ssI91
g0
(g4
tp185
Rp186
I0
F0.03571428571428571
sI2
F0.03571428571428571
sI4
F0.03571428571428571
sI8
F0.03571428571428571
sI9
F0.03571428571428571
sI17
F0.03571428571428571
sI23
F0.03571428571428571
sI25
F0.03571428571428571
sI27
F0.03571428571428571
sI28
F0.03571428571428571
sI31
F0.03571428571428571
sI34
F0.03571428571428571
sI43
F0.03571428571428571
sI45
F0.03571428571428571
sI48
F0.03571428571428571
sI50
F0.03571428571428571
sI52
F0.03571428571428571
sI64
F0.03571428571428571
sI67
F0.03571428571428571
sI69
F0.03571428571428571
sI70
F0.03571428571428571
sI73
F0.03571428571428571
sI74
F0.03571428571428571
sI76
F0.03571428571428571
sI78
F0.03571428571428571
sI81
F0.03571428571428571
sI88
F0.03571428571428571
sI90
F0.03571428571428571
ssI92
g0
(g4
tp187
Rp188
I0
F0.024390243902439025
sI2
F0.024390243902439025
sI4
F0.024390243902439025
sI8
F0.024390243902439025
sI9
F0.024390243902439025
sI11
F0.024390243902439025
sI14
F0.024390243902439025
sI17
F0.024390243902439025
sI19
F0.024390243902439025
sI22
F0.024390243902439025
sI23
F0.024390243902439025
sI25
F0.024390243902439025
sI27
F0.024390243902439025
sI28
F0.024390243902439025
sI31
F0.024390243902439025
sI34
F0.024390243902439025
sI43
F0.024390243902439025
sI45
F0.024390243902439025
sI48
F0.024390243902439025
sI50
F0.024390243902439025
sI52
F0.024390243902439025
sI57
F0.024390243902439025
sI58
F0.024390243902439025
sI62
F0.024390243902439025
sI64
F0.024390243902439025
sI67
F0.024390243902439025
sI69
F0.024390243902439025
sI70
F0.024390243902439025
sI71
F0.024390243902439025
sI73
F0.024390243902439025
sI74
F0.024390243902439025
sI76
F0.024390243902439025
sI77
F0.024390243902439025
sI78
F0.024390243902439025
sI79
F0.024390243902439025
sI81
F0.024390243902439025
sI84
F0.024390243902439025
sI86
F0.024390243902439025
sI88
F0.024390243902439025
sI90
F0.024390243902439025
sI91
F0.024390243902439025
ssI93
g0
(g4
tp189
Rp190
I34
F0.05263157894736842
sI86
F0.05263157894736842
sI70
F0.05263157894736842
sI71
F0.05263157894736842
sI92
F0.05263157894736842
sI11
F0.05263157894736842
sI76
F0.05263157894736842
sI77
F0.05263157894736842
sI14
F0.05263157894736842
sI79
F0.05263157894736842
sI19
F0.05263157894736842
sI84
F0.05263157894736842
sI78
F0.05263157894736842
sI22
F0.05263157894736842
sI23
F0.05263157894736842
sI57
F0.05263157894736842
sI60
F0.05263157894736842
sI61
F0.05263157894736842
sI62
F0.05263157894736842
ssI94
g0
(g4
tp191
Rp192
I1
F0.08333333333333333
sI67
F0.08333333333333333
sI5
F0.08333333333333333
sI65
F0.08333333333333333
sI43
F0.08333333333333333
sI47
F0.08333333333333333
sI80
F0.08333333333333333
sI51
F0.08333333333333333
sI53
F0.08333333333333333
sI87
F0.08333333333333333
sI88
F0.08333333333333333
sI25
F0.08333333333333333
ss.