ccollections
defaultdict
p0
(c__main__
dd
p1
tp2
Rp3
I1
g0
(c__builtin__
float
p4
tp5
Rp6
I0
F1.0
ssI2
g0
(g4
tp7
Rp8
I0
F0.559322033898305
sI1
F0.4406779661016949
ssI3
g0
(g4
tp9
Rp10
I0
F0.34408602150537637
sI1
F0.3279569892473118
sI2
F0.3279569892473118
ssI4
g0
(g4
tp11
Rp12
I0
F0.2178988326848249
sI1
F0.22178988326848248
sI2
F0.31906614785992216
sI3
F0.24124513618677043
ssI5
g0
(g4
tp13
Rp14
I0
F0.17883211678832117
sI1
F0.23357664233576642
sI2
F0.22262773722627738
sI3
F0.19343065693430658
sI4
F0.17153284671532848
ssI6
g0
(g4
tp15
Rp16
I0
F0.17027027027027028
sI1
F0.11621621621621622
sI2
F0.22162162162162163
sI3
F0.15405405405405406
sI4
F0.21351351351351353
sI5
F0.12432432432432433
ssI7
g0
(g4
tp17
Rp18
I0
F0.12418300653594772
sI1
F0.16339869281045752
sI2
F0.1394335511982571
sI3
F0.1830065359477124
sI4
F0.15904139433551198
sI5
F0.12636165577342048
sI6
F0.10457516339869281
ssI8
g0
(g4
tp19
Rp20
I0
F0.11727078891257996
sI1
F0.1044776119402985
sI2
F0.16204690831556504
sI3
F0.10660980810234541
sI4
F0.16204690831556504
sI5
F0.14498933901918976
sI6
F0.11513859275053305
sI7
F0.08742004264392324
ssI9
g0
(g4
tp21
Rp22
I0
F0.09961685823754789
sI1
F0.09961685823754789
sI2
F0.1206896551724138
sI3
F0.11302681992337164
sI4
F0.11685823754789272
sI5
F0.1111111111111111
sI6
F0.1111111111111111
sI7
F0.13409961685823754
sI8
F0.09386973180076628
ssI10
g0
(g4
tp23
Rp24
I0
F0.0905982905982906
sI1
F0.08888888888888889
sI2
F0.1111111111111111
sI3
F0.10427350427350428
sI4
F0.09401709401709402
sI5
F0.1076923076923077
sI6
F0.09230769230769231
sI7
F0.10256410256410256
sI8
F0.11623931623931624
sI9
F0.09230769230769231
ssI11
g0
(g4
tp25
Rp26
I0
F0.06532663316582915
sI1
F0.08375209380234507
sI2
F0.08877721943048576
sI3
F0.10552763819095477
sI4
F0.10552763819095477
sI5
F0.10385259631490787
sI6
F0.08542713567839195
sI7
F0.10385259631490787
sI8
F0.09212730318257957
sI9
F0.09212730318257957
sI10
F0.07370184254606366
ssI12
g0
(g4
tp27
Rp28
I0
F0.07792207792207792
sI1
F0.07954545454545454
sI2
F0.10876623376623376
sI3
F0.07305194805194805
sI4
F0.10064935064935066
sI5
F0.07954545454545454
sI6
F0.10227272727272728
sI7
F0.07954545454545454
sI8
F0.07954545454545454
sI9
F0.09740259740259741
sI10
F0.07305194805194805
sI11
F0.048701298701298704
ssI13
g0
(g4
tp29
Rp30
I0
F0.07192254495159059
sI1
F0.06224066390041494
sI2
F0.08575380359612725
sI3
F0.08298755186721991
sI4
F0.07192254495159059
sI5
F0.07607192254495158
sI6
F0.08437067773167359
sI7
F0.07468879668049792
sI8
F0.08990318118948824
sI9
F0.07330567081604426
sI10
F0.08160442600276625
sI11
F0.08298755186721991
sI12
F0.06224066390041494
ssI14
g0
(g4
tp31
Rp32
I0
F0.04748603351955307
sI1
F0.07402234636871509
sI2
F0.0782122905027933
sI3
F0.06424581005586592
sI4
F0.07262569832402235
sI5
F0.0670391061452514
sI6
F0.0782122905027933
sI7
F0.09217877094972067
sI8
F0.06843575418994413
sI9
F0.07681564245810056
sI10
F0.07681564245810056
sI11
F0.08519553072625698
sI12
F0.06983240223463687
sI13
F0.04888268156424581
ssI15
g0
(g4
tp33
Rp34
I0
F0.06801736613603473
sI1
F0.05788712011577424
sI2
F0.07380607814761216
sI3
F0.06512301013024602
sI4
F0.0694645441389291
sI5
F0.07670043415340087
sI6
F0.07380607814761216
sI7
F0.06801736613603473
sI8
F0.07814761215629522
sI9
F0.0694645441389291
sI10
F0.05788712011577424
sI11
F0.06367583212735166
sI12
F0.05499276410998553
sI13
F0.0824891461649783
sI14
F0.04052098408104197
ssI16
g0
(g4
tp35
Rp36
I0
F0.059722222222222225
sI1
F0.06527777777777778
sI2
F0.07083333333333333
sI3
F0.05277777777777778
sI4
F0.06805555555555555
sI5
F0.0625
sI6
F0.06666666666666667
sI7
F0.05
sI8
F0.07083333333333333
sI9
F0.0625
sI10
F0.07777777777777778
sI11
F0.04861111111111111
sI12
F0.0763888888888889
sI13
F0.058333333333333334
sI14
F0.06388888888888888
sI15
F0.04583333333333333
ssI17
g0
(g4
tp37
Rp38
I0
F0.049429657794676805
sI1
F0.053231939163498096
sI2
F0.06844106463878327
sI3
F0.06337135614702155
sI4
F0.06463878326996197
sI5
F0.057034220532319393
sI6
F0.06844106463878327
sI7
F0.0697084917617237
sI8
F0.07097591888466413
sI9
F0.058301647655259824
sI10
F0.057034220532319393
sI11
F0.062103929024081114
sI12
F0.053231939163498096
sI13
F0.05449936628643853
sI14
F0.053231939163498096
sI15
F0.057034220532319393
sI16
F0.03929024081115336
ssI18
g0
(g4
tp39
Rp40
I0
F0.04479578392621871
sI1
F0.05401844532279315
sI2
F0.043478260869565216
sI3
F0.048748353096179184
sI4
F0.05928853754940711
sI5
F0.04479578392621871
sI6
F0.05928853754940711
sI7
F0.06455862977602109
sI8
F0.057971014492753624
sI9
F0.06060606060606061
sI10
F0.052700922266139656
sI11
F0.048748353096179184
sI12
F0.06324110671936758
sI13
F0.05533596837944664
sI14
F0.07246376811594203
sI15
F0.06455862977602109
sI16
F0.05928853754940711
sI17
F0.0461133069828722
ssI19
g0
(g4
tp41
Rp42
I0
F0.039647577092511016
sI1
F0.027900146842878122
sI2
F0.06461086637298091
sI3
F0.0381791483113069
sI4
F0.06020558002936858
sI5
F0.08223201174743025
sI6
F0.0631424375917768
sI7
F0.05873715124816446
sI8
F0.06901615271659324
sI9
F0.04552129221732746
sI10
F0.049926578560939794
sI11
F0.06020558002936858
sI12
F0.04698972099853157
sI13
F0.05726872246696035
sI14
F0.04552129221732746
sI15
F0.05433186490455213
sI16
F0.048458149779735685
sI17
F0.0631424375917768
sI18
F0.024963289280469897
ssI20
g0
(g4
tp43
Rp44
I0
F0.05359877488514548
sI1
F0.036753445635528334
sI2
F0.04134762633996937
sI3
F0.0444104134762634
sI4
F0.04900459418070444
sI5
F0.045941807044410414
sI6
F0.06278713629402756
sI7
F0.05666156202143951
sI8
F0.055130168453292494
sI9
F0.04900459418070444
sI10
F0.05972434915773354
sI11
F0.042879019908116385
sI12
F0.06125574272588055
sI13
F0.05053598774885146
sI14
F0.05819295558958652
sI15
F0.04900459418070444
sI16
F0.03828483920367534
sI17
F0.04747320061255743
sI18
F0.05819295558958652
sI19
F0.039816232771822356
ssI21
g0
(g4
tp45
Rp46
I0
F0.041811846689895474
sI1
F0.04878048780487805
sI2
F0.05226480836236934
sI3
F0.04355400696864112
sI4
F0.041811846689895474
sI5
F0.036585365853658534
sI6
F0.05226480836236934
sI7
F0.05400696864111498
sI8
F0.05749128919860627
sI9
F0.05574912891986063
sI10
F0.06097560975609756
sI11
F0.036585365853658534
sI12
F0.04529616724738676
sI13
F0.04355400696864112
sI14
F0.05400696864111498
sI15
F0.05400696864111498
sI16
F0.04006968641114982
sI17
F0.050522648083623695
sI18
F0.041811846689895474
sI19
F0.05226480836236934
sI20
F0.036585365853658534
ssI22
g0
(g4
tp47
Rp48
I0
F0.043726235741444866
sI1
F0.03802281368821293
sI2
F0.03612167300380228
sI3
F0.043726235741444866
sI4
F0.060836501901140684
sI5
F0.030418250950570342
sI6
F0.04182509505703422
sI7
F0.058935361216730035
sI8
F0.043726235741444866
sI9
F0.049429657794676805
sI10
F0.04752851711026616
sI11
F0.04752851711026616
sI12
F0.058935361216730035
sI13
F0.043726235741444866
sI14
F0.058935361216730035
sI15
F0.043726235741444866
sI16
F0.04182509505703422
sI17
F0.051330798479087454
sI18
F0.039923954372623575
sI19
F0.039923954372623575
sI20
F0.03802281368821293
sI21
F0.04182509505703422
ssI23
g0
(g4
tp49
Rp50
I0
F0.03621730382293763
sI1
F0.04225352112676056
sI2
F0.05432595573440644
sI3
F0.03621730382293763
sI4
F0.04426559356136821
sI5
F0.03219315895372234
sI6
F0.05030181086519115
sI7
F0.04024144869215292
sI8
F0.0482897384305835
sI9
F0.0482897384305835
sI10
F0.04426559356136821
sI11
F0.03621730382293763
sI12
F0.04627766599597585
sI13
F0.04627766599597585
sI14
F0.04627766599597585
sI15
F0.052313883299798795
sI16
F0.03621730382293763
sI17
F0.04627766599597585
sI18
F0.04426559356136821
sI19
F0.0482897384305835
sI20
F0.04024144869215292
sI21
F0.052313883299798795
sI22
F0.028169014084507043
ssI24
g0
(g4
tp51
Rp52
I0
F0.03505154639175258
sI1
F0.030927835051546393
sI2
F0.041237113402061855
sI3
F0.03711340206185567
sI4
F0.05360824742268041
sI5
F0.041237113402061855
sI6
F0.041237113402061855
sI7
F0.04329896907216495
sI8
F0.05567010309278351
sI9
F0.04742268041237113
sI10
F0.049484536082474224
sI11
F0.04536082474226804
sI12
F0.030927835051546393
sI13
F0.03505154639175258
sI14
F0.05154639175257732
sI15
F0.026804123711340205
sI16
F0.032989690721649485
sI17
F0.05360824742268041
sI18
F0.03505154639175258
sI19
F0.032989690721649485
sI20
F0.04329896907216495
sI21
F0.041237113402061855
sI22
F0.05979381443298969
sI23
F0.03505154639175258
ssI25
g0
(g4
tp53
Rp54
I0
F0.0345821325648415
sI1
F0.0345821325648415
sI2
F0.043227665706051875
sI3
F0.037463976945244955
sI4
F0.04610951008645533
sI5
F0.04610951008645533
sI6
F0.040345821325648415
sI7
F0.040345821325648415
sI8
F0.03170028818443804
sI9
F0.04610951008645533
sI10
F0.043227665706051875
sI11
F0.04899135446685879
sI12
F0.037463976945244955
sI13
F0.04610951008645533
sI14
F0.037463976945244955
sI15
F0.05187319884726225
sI16
F0.01729106628242075
sI17
F0.05187319884726225
sI18
F0.037463976945244955
sI19
F0.04899135446685879
sI20
F0.03170028818443804
sI21
F0.03170028818443804
sI22
F0.037463976945244955
sI23
F0.04899135446685879
sI24
F0.02881844380403458
ssI26
g0
(g4
tp55
Rp56
I0
F0.020172910662824207
sI1
F0.037463976945244955
sI2
F0.04610951008645533
sI3
F0.0345821325648415
sI4
F0.040345821325648415
sI5
F0.025936599423631124
sI6
F0.05475504322766571
sI7
F0.03170028818443804
sI8
F0.04610951008645533
sI9
F0.03170028818443804
sI10
F0.04610951008645533
sI11
F0.05187319884726225
sI12
F0.043227665706051875
sI13
F0.05187319884726225
sI14
F0.043227665706051875
sI15
F0.05187319884726225
sI16
F0.03170028818443804
sI17
F0.037463976945244955
sI18
F0.05475504322766571
sI19
F0.03170028818443804
sI20
F0.02881844380403458
sI21
F0.025936599423631124
sI22
F0.0345821325648415
sI23
F0.025936599423631124
sI24
F0.04610951008645533
sI25
F0.025936599423631124
ssI27
g0
(g4
tp57
Rp58
I0
F0.03278688524590164
sI1
F0.013114754098360656
sI2
F0.05901639344262295
sI3
F0.02622950819672131
sI4
F0.05245901639344262
sI5
F0.04590163934426229
sI6
F0.04590163934426229
sI7
F0.03278688524590164
sI8
F0.03278688524590164
sI9
F0.036065573770491806
sI10
F0.029508196721311476
sI11
F0.04590163934426229
sI12
F0.05245901639344262
sI13
F0.036065573770491806
sI14
F0.04262295081967213
sI15
F0.036065573770491806
sI16
F0.02622950819672131
sI17
F0.03934426229508197
sI18
F0.04918032786885246
sI19
F0.03934426229508197
sI20
F0.03934426229508197
sI21
F0.029508196721311476
sI22
F0.029508196721311476
sI23
F0.029508196721311476
sI24
F0.02622950819672131
sI25
F0.04262295081967213
sI26
F0.029508196721311476
ssI28
g0
(g4
tp59
Rp60
I0
F0.023178807947019868
sI1
F0.039735099337748346
sI2
F0.04304635761589404
sI3
F0.03642384105960265
sI4
F0.04966887417218543
sI5
F0.033112582781456956
sI6
F0.039735099337748346
sI7
F0.03642384105960265
sI8
F0.039735099337748346
sI9
F0.029801324503311258
sI10
F0.016556291390728478
sI11
F0.04304635761589404
sI12
F0.026490066225165563
sI13
F0.03642384105960265
sI14
F0.046357615894039736
sI15
F0.033112582781456956
sI16
F0.04304635761589404
sI17
F0.04966887417218543
sI18
F0.04304635761589404
sI19
F0.026490066225165563
sI20
F0.03642384105960265
sI21
F0.04304635761589404
sI22
F0.04304635761589404
sI23
F0.016556291390728478
sI24
F0.03642384105960265
sI25
F0.026490066225165563
sI26
F0.03642384105960265
sI27
F0.026490066225165563
ssI29
g0
(g4
tp61
Rp62
I0
F0.02040816326530612
sI1
F0.015306122448979591
sI2
F0.025510204081632654
sI3
F0.025510204081632654
sI4
F0.03571428571428571
sI5
F0.04591836734693878
sI6
F0.05612244897959184
sI7
F0.04081632653061224
sI8
F0.03571428571428571
sI9
F0.01020408163265306
sI10
F0.04081632653061224
sI11
F0.04591836734693878
sI12
F0.04081632653061224
sI13
F0.05612244897959184
sI14
F0.03571428571428571
sI15
F0.04081632653061224
sI16
F0.03571428571428571
sI17
F0.04081632653061224
sI18
F0.05102040816326531
sI19
F0.03571428571428571
sI20
F0.04081632653061224
sI21
F0.025510204081632654
sI22
F0.025510204081632654
sI23
F0.015306122448979591
sI24
F0.01020408163265306
sI25
F0.04591836734693878
sI26
F0.015306122448979591
sI27
F0.04081632653061224
sI28
F0.04591836734693878
ssI30
g0
(g4
tp63
Rp64
I0
F0.018404907975460124
sI1
F0.03680981595092025
sI2
F0.024539877300613498
sI3
F0.03067484662576687
sI4
F0.03680981595092025
sI5
F0.049079754601226995
sI6
F0.05521472392638037
sI7
F0.024539877300613498
sI8
F0.03067484662576687
sI9
F0.03680981595092025
sI10
F0.05521472392638037
sI11
F0.03680981595092025
sI12
F0.03680981595092025
sI13
F0.024539877300613498
sI14
F0.03067484662576687
sI15
F0.024539877300613498
sI16
F0.04294478527607362
sI17
F0.03067484662576687
sI18
F0.04294478527607362
sI19
F0.03067484662576687
sI20
F0.03067484662576687
sI21
F0.018404907975460124
sI22
F0.03680981595092025
sI23
F0.006134969325153374
sI24
F0.03680981595092025
sI25
F0.03680981595092025
sI26
F0.03067484662576687
sI27
F0.03680981595092025
sI28
F0.03680981595092025
sI29
F0.03067484662576687
ssI31
g0
(g4
tp65
Rp66
I0
F0.030864197530864196
sI1
F0.006172839506172839
sI2
F0.06172839506172839
sI3
F0.04938271604938271
sI4
F0.030864197530864196
sI5
F0.030864197530864196
sI6
F0.037037037037037035
sI7
F0.024691358024691357
sI8
F0.043209876543209874
sI9
F0.024691358024691357
sI10
F0.04938271604938271
sI11
F0.037037037037037035
sI12
F0.018518518518518517
sI13
F0.037037037037037035
sI14
F0.037037037037037035
sI15
F0.024691358024691357
sI16
F0.006172839506172839
sI17
F0.043209876543209874
sI18
F0.018518518518518517
sI19
F0.037037037037037035
sI20
F0.037037037037037035
sI21
F0.037037037037037035
sI22
F0.024691358024691357
sI23
F0.030864197530864196
sI24
F0.030864197530864196
sI25
F0.043209876543209874
sI26
F0.037037037037037035
sI27
F0.04938271604938271
sI28
F0.024691358024691357
sI29
F0.030864197530864196
sI30
F0.006172839506172839
ssI32
g0
(g4
tp67
Rp68
I0
F0.028037383177570093
sI1
F0.018691588785046728
sI2
F0.018691588785046728
sI3
F0.028037383177570093
sI4
F0.028037383177570093
sI5
F0.028037383177570093
sI6
F0.028037383177570093
sI7
F0.037383177570093455
sI8
F0.018691588785046728
sI9
F0.009345794392523364
sI10
F0.04672897196261682
sI11
F0.028037383177570093
sI12
F0.06542056074766354
sI13
F0.028037383177570093
sI14
F0.04672897196261682
sI15
F0.037383177570093455
sI16
F0.04672897196261682
sI17
F0.037383177570093455
sI18
F0.037383177570093455
sI19
F0.04672897196261682
sI20
F0.028037383177570093
sI21
F0.018691588785046728
sI22
F0.028037383177570093
sI23
F0.028037383177570093
sI24
F0.018691588785046728
sI25
F0.018691588785046728
sI26
F0.028037383177570093
sI27
F0.018691588785046728
sI28
F0.04672897196261682
sI29
F0.056074766355140186
sI30
F0.028037383177570093
sI31
F0.018691588785046728
ssI33
g0
(g4
tp69
Rp70
I0
F0.04938271604938271
sI1
F0.024691358024691357
sI2
F0.037037037037037035
sI3
F0.024691358024691357
sI4
F0.024691358024691357
sI6
F0.024691358024691357
sI8
F0.06172839506172839
sI9
F0.037037037037037035
sI10
F0.037037037037037035
sI11
F0.04938271604938271
sI12
F0.037037037037037035
sI13
F0.024691358024691357
sI15
F0.04938271604938271
sI16
F0.04938271604938271
sI17
F0.012345679012345678
sI18
F0.037037037037037035
sI19
F0.037037037037037035
sI20
F0.04938271604938271
sI21
F0.037037037037037035
sI23
F0.012345679012345678
sI25
F0.024691358024691357
sI26
F0.024691358024691357
sI27
F0.06172839506172839
sI28
F0.012345679012345678
sI29
F0.037037037037037035
sI30
F0.04938271604938271
sI31
F0.024691358024691357
sI32
F0.04938271604938271
ssI34
g0
(g4
tp71
Rp72
I0
F0.03896103896103896
sI1
F0.03896103896103896
sI2
F0.05194805194805195
sI3
F0.012987012987012988
sI5
F0.012987012987012988
sI6
F0.025974025974025976
sI7
F0.025974025974025976
sI8
F0.025974025974025976
sI9
F0.05194805194805195
sI10
F0.025974025974025976
sI11
F0.025974025974025976
sI12
F0.012987012987012988
sI13
F0.03896103896103896
sI14
F0.012987012987012988
sI15
F0.03896103896103896
sI16
F0.025974025974025976
sI17
F0.03896103896103896
sI18
F0.012987012987012988
sI19
F0.012987012987012988
sI20
F0.03896103896103896
sI21
F0.05194805194805195
sI22
F0.025974025974025976
sI23
F0.03896103896103896
sI24
F0.03896103896103896
sI25
F0.03896103896103896
sI26
F0.03896103896103896
sI27
F0.025974025974025976
sI28
F0.05194805194805195
sI29
F0.012987012987012988
sI30
F0.03896103896103896
sI31
F0.025974025974025976
sI32
F0.012987012987012988
sI33
F0.025974025974025976
ssI35
g0
(g4
tp73
Rp74
I0
F0.08333333333333333
sI3
F0.027777777777777776
sI4
F0.05555555555555555
sI6
F0.027777777777777776
sI7
F0.027777777777777776
sI9
F0.027777777777777776
sI11
F0.027777777777777776
sI14
F0.027777777777777776
sI16
F0.05555555555555555
sI17
F0.027777777777777776
sI18
F0.027777777777777776
sI19
F0.027777777777777776
sI20
F0.05555555555555555
sI21
F0.027777777777777776
sI22
F0.1111111111111111
sI23
F0.027777777777777776
sI26
F0.05555555555555555
sI28
F0.08333333333333333
sI29
F0.027777777777777776
sI30
F0.08333333333333333
sI31
F0.027777777777777776
sI32
F0.027777777777777776
sI33
F0.027777777777777776
ssI36
g0
(g4
tp75
Rp76
I0
F0.04054054054054054
sI1
F0.02702702702702703
sI2
F0.04054054054054054
sI3
F0.05405405405405406
sI4
F0.02702702702702703
sI5
F0.04054054054054054
sI6
F0.02702702702702703
sI7
F0.013513513513513514
sI8
F0.013513513513513514
sI10
F0.04054054054054054
sI11
F0.05405405405405406
sI12
F0.013513513513513514
sI13
F0.013513513513513514
sI14
F0.013513513513513514
sI15
F0.04054054054054054
sI16
F0.02702702702702703
sI17
F0.02702702702702703
sI18
F0.013513513513513514
sI19
F0.02702702702702703
sI20
F0.013513513513513514
sI21
F0.013513513513513514
sI22
F0.05405405405405406
sI23
F0.05405405405405406
sI24
F0.02702702702702703
sI25
F0.02702702702702703
sI26
F0.013513513513513514
sI27
F0.013513513513513514
sI28
F0.04054054054054054
sI29
F0.04054054054054054
sI30
F0.013513513513513514
sI31
F0.04054054054054054
sI32
F0.02702702702702703
sI34
F0.04054054054054054
sI35
F0.02702702702702703
ssI37
g0
(g4
tp77
Rp78
I2
F0.022222222222222223
sI3
F0.022222222222222223
sI4
F0.044444444444444446
sI5
F0.022222222222222223
sI9
F0.06666666666666667
sI10
F0.022222222222222223
sI11
F0.044444444444444446
sI12
F0.022222222222222223
sI14
F0.022222222222222223
sI15
F0.08888888888888889
sI16
F0.044444444444444446
sI17
F0.022222222222222223
sI18
F0.06666666666666667
sI19
F0.022222222222222223
sI20
F0.022222222222222223
sI21
F0.044444444444444446
sI22
F0.022222222222222223
sI23
F0.08888888888888889
sI24
F0.022222222222222223
sI25
F0.022222222222222223
sI26
F0.06666666666666667
sI27
F0.044444444444444446
sI28
F0.022222222222222223
sI30
F0.022222222222222223
sI31
F0.022222222222222223
sI32
F0.022222222222222223
sI33
F0.022222222222222223
sI34
F0.022222222222222223
ssI38
g0
(g4
tp79
Rp80
I0
F0.06060606060606061
sI1
F0.030303030303030304
sI2
F0.030303030303030304
sI3
F0.06060606060606061
sI4
F0.030303030303030304
sI5
F0.030303030303030304
sI6
F0.030303030303030304
sI8
F0.030303030303030304
sI10
F0.030303030303030304
sI12
F0.030303030303030304
sI13
F0.030303030303030304
sI18
F0.06060606060606061
sI19
F0.030303030303030304
sI20
F0.09090909090909091
sI22
F0.030303030303030304
sI24
F0.06060606060606061
sI25
F0.030303030303030304
sI27
F0.06060606060606061
sI28
F0.06060606060606061
sI31
F0.06060606060606061
sI32
F0.030303030303030304
sI33
F0.030303030303030304
sI35
F0.030303030303030304
sI36
F0.030303030303030304
ssI39
g0
(g4
tp81
Rp82
I34
F0.0625
sI5
F0.125
sI38
F0.0625
sI9
F0.0625
sI10
F0.0625
sI12
F0.0625
sI16
F0.0625
sI20
F0.0625
sI21
F0.0625
sI23
F0.0625
sI25
F0.0625
sI27
F0.0625
sI28
F0.0625
sI29
F0.0625
sI31
F0.0625
ssI40
g0
(g4
tp83
Rp84
I5
F0.16666666666666666
sI39
F0.16666666666666666
sI10
F0.16666666666666666
sI16
F0.16666666666666666
sI21
F0.16666666666666666
sI29
F0.16666666666666666
ssI41
g0
(g4
tp85
Rp86
I33
F0.09090909090909091
sI3
F0.09090909090909091
sI36
F0.09090909090909091
sI37
F0.09090909090909091
sI6
F0.09090909090909091
sI8
F0.09090909090909091
sI11
F0.09090909090909091
sI18
F0.09090909090909091
sI25
F0.09090909090909091
sI27
F0.09090909090909091
sI30
F0.09090909090909091
ssI42
g0
(g4
tp87
Rp88
I0
F0.09090909090909091
sI1
F0.09090909090909091
sI3
F0.09090909090909091
sI4
F0.09090909090909091
sI38
F0.09090909090909091
sI6
F0.09090909090909091
sI18
F0.09090909090909091
sI35
F0.09090909090909091
sI20
F0.09090909090909091
sI22
F0.09090909090909091
sI28
F0.09090909090909091
ssI43
g0
(g4
tp89
Rp90
I1
F0.25
sI42
F0.25
sI3
F0.25
sI12
F0.25
ssI44
g0
(g4
tp91
Rp92
I16
F0.25
sI9
F0.25
sI35
F0.25
sI30
F0.25
ssI45
g0
(g4
tp93
Rp94
I34
F0.1111111111111111
sI4
F0.1111111111111111
sI37
F0.1111111111111111
sI39
F0.1111111111111111
sI9
F0.1111111111111111
sI11
F0.1111111111111111
sI23
F0.1111111111111111
sI25
F0.1111111111111111
sI31
F0.1111111111111111
ssI46
g0
(g4
tp95
Rp96
I32
F0.08333333333333333
sI33
F0.16666666666666666
sI35
F0.08333333333333333
sI6
F0.08333333333333333
sI8
F0.08333333333333333
sI41
F0.08333333333333333
sI11
F0.08333333333333333
sI18
F0.08333333333333333
sI25
F0.08333333333333333
sI27
F0.08333333333333333
sI30
F0.08333333333333333
ssI47
g0
(g4
tp97
Rp98
I32
F0.06666666666666667
sI33
F0.06666666666666667
sI38
F0.06666666666666667
sI6
F0.06666666666666667
sI8
F0.06666666666666667
sI41
F0.06666666666666667
sI11
F0.06666666666666667
sI46
F0.06666666666666667
sI18
F0.06666666666666667
sI19
F0.06666666666666667
sI20
F0.06666666666666667
sI25
F0.06666666666666667
sI27
F0.06666666666666667
sI30
F0.06666666666666667
sI31
F0.06666666666666667
ssI48
g0
(g4
tp99
Rp100
I33
F0.0625
sI6
F0.0625
sI39
F0.0625
sI8
F0.0625
sI41
F0.0625
sI10
F0.0625
sI11
F0.0625
sI46
F0.0625
sI47
F0.0625
sI16
F0.0625
sI40
F0.0625
sI18
F0.0625
sI25
F0.0625
sI27
F0.0625
sI29
F0.0625
sI30
F0.0625
ssI49
g0
(g4
tp101
Rp102
I11
F0.25
sI4
F0.25
sI37
F0.25
sI45
F0.25
ssI50
g0
(g4
tp103
Rp104
I33
F0.08333333333333333
sI6
F0.08333333333333333
sI8
F0.08333333333333333
sI41
F0.08333333333333333
sI11
F0.08333333333333333
sI46
F0.08333333333333333
sI47
F0.08333333333333333
sI48
F0.08333333333333333
sI18
F0.08333333333333333
sI25
F0.08333333333333333
sI27
F0.08333333333333333
sI30
F0.08333333333333333
ssI52
g0
(g4
tp105
Rp106
I33
F0.1111111111111111
sI38
F0.1111111111111111
sI8
F0.1111111111111111
sI47
F0.1111111111111111
sI18
F0.1111111111111111
sI19
F0.1111111111111111
sI25
F0.1111111111111111
sI27
F0.1111111111111111
sI31
F0.1111111111111111
ssI53
g0
(g4
tp107
Rp108
I32
F0.05263157894736842
sI33
F0.05263157894736842
sI38
F0.05263157894736842
sI6
F0.05263157894736842
sI8
F0.05263157894736842
sI41
F0.05263157894736842
sI11
F0.05263157894736842
sI50
F0.05263157894736842
sI46
F0.05263157894736842
sI47
F0.05263157894736842
sI48
F0.05263157894736842
sI18
F0.05263157894736842
sI19
F0.05263157894736842
sI20
F0.05263157894736842
sI25
F0.05263157894736842
sI27
F0.05263157894736842
sI52
F0.05263157894736842
sI30
F0.05263157894736842
sI31
F0.05263157894736842
ss.