ccollections
defaultdict
p0
(c__main__
dd
p1
tp2
Rp3
I1
g0
(c__builtin__
float
p4
tp5
Rp6
I0
F0.027600849256900213
ssI2
g0
(g4
tp7
Rp8
I0
F0.04246284501061571
sI1
F0.03184713375796178
ssI3
g0
(g4
tp9
Rp10
I0
F0.04883227176220807
sI1
F0.029723991507430998
sI2
F0.036093418259023353
ssI4
g0
(g4
tp11
Rp12
I0
F0.03397027600849257
sI1
F0.03184713375796178
sI2
F0.04670912951167728
sI3
F0.021231422505307854
ssI5
g0
(g4
tp13
Rp14
I0
F0.02335456475583864
sI1
F0.03397027600849257
sI2
F0.03821656050955414
sI3
F0.03821656050955414
sI4
F0.021231422505307854
ssI6
g0
(g4
tp15
Rp16
I0
F0.036093418259023353
sI1
F0.027600849256900213
sI2
F0.06157112526539278
sI3
F0.036093418259023353
sI4
F0.040339702760084924
sI5
F0.016985138004246284
ssI7
g0
(g4
tp17
Rp18
I0
F0.029723991507430998
sI1
F0.029723991507430998
sI2
F0.04883227176220807
sI3
F0.055201698513800426
sI4
F0.04883227176220807
sI5
F0.040339702760084924
sI6
F0.014861995753715499
ssI8
g0
(g4
tp19
Rp20
I0
F0.03397027600849257
sI1
F0.036093418259023353
sI2
F0.04246284501061571
sI3
F0.040339702760084924
sI4
F0.036093418259023353
sI5
F0.03184713375796178
sI6
F0.021231422505307854
sI7
F0.025477707006369428
ssI9
g0
(g4
tp21
Rp22
I0
F0.021231422505307854
sI1
F0.027600849256900213
sI2
F0.044585987261146494
sI3
F0.040339702760084924
sI4
F0.02335456475583864
sI5
F0.029723991507430998
sI6
F0.03184713375796178
sI7
F0.03821656050955414
sI8
F0.02335456475583864
ssI10
g0
(g4
tp23
Rp24
I0
F0.01910828025477707
sI1
F0.04246284501061571
sI2
F0.03821656050955414
sI3
F0.044585987261146494
sI4
F0.029723991507430998
sI5
F0.036093418259023353
sI6
F0.03821656050955414
sI7
F0.021231422505307854
sI8
F0.027600849256900213
sI9
F0.016985138004246284
ssI11
g0
(g4
tp25
Rp26
I0
F0.016985138004246284
sI1
F0.01910828025477707
sI2
F0.036093418259023353
sI3
F0.029723991507430998
sI4
F0.021231422505307854
sI5
F0.03184713375796178
sI6
F0.025477707006369428
sI7
F0.036093418259023353
sI8
F0.016985138004246284
sI9
F0.027600849256900213
sI10
F0.029723991507430998
ssI12
g0
(g4
tp27
Rp28
I0
F0.036093418259023353
sI1
F0.027600849256900213
sI2
F0.04246284501061571
sI3
F0.025477707006369428
sI4
F0.036093418259023353
sI5
F0.029723991507430998
sI6
F0.03821656050955414
sI7
F0.03397027600849257
sI8
F0.029723991507430998
sI9
F0.029723991507430998
sI10
F0.025477707006369428
sI11
F0.012738853503184714
ssI13
g0
(g4
tp29
Rp30
I0
F0.016985138004246284
sI1
F0.03397027600849257
sI2
F0.03184713375796178
sI3
F0.02335456475583864
sI4
F0.014861995753715499
sI5
F0.03184713375796178
sI6
F0.02335456475583864
sI7
F0.027600849256900213
sI8
F0.01910828025477707
sI9
F0.036093418259023353
sI10
F0.027600849256900213
sI11
F0.01910828025477707
sI12
F0.02335456475583864
ssI14
g0
(g4
tp31
Rp32
I0
F0.02335456475583864
sI1
F0.025477707006369428
sI2
F0.03821656050955414
sI3
F0.01910828025477707
sI4
F0.02335456475583864
sI5
F0.027600849256900213
sI6
F0.03821656050955414
sI7
F0.03821656050955414
sI8
F0.03184713375796178
sI9
F0.029723991507430998
sI10
F0.02335456475583864
sI11
F0.021231422505307854
sI12
F0.025477707006369428
sI13
F0.012738853503184714
ssI15
g0
(g4
tp33
Rp34
I0
F0.027600849256900213
sI1
F0.025477707006369428
sI2
F0.016985138004246284
sI3
F0.014861995753715499
sI4
F0.012738853503184714
sI5
F0.029723991507430998
sI6
F0.025477707006369428
sI7
F0.01910828025477707
sI8
F0.027600849256900213
sI9
F0.02335456475583864
sI10
F0.008492569002123142
sI11
F0.027600849256900213
sI12
F0.027600849256900213
sI13
F0.03397027600849257
sI14
F0.014861995753715499
ssI16
g0
(g4
tp35
Rp36
I0
F0.027600849256900213
sI1
F0.016985138004246284
sI2
F0.03184713375796178
sI3
F0.02335456475583864
sI4
F0.03821656050955414
sI5
F0.036093418259023353
sI6
F0.025477707006369428
sI7
F0.03397027600849257
sI8
F0.025477707006369428
sI9
F0.012738853503184714
sI10
F0.02335456475583864
sI11
F0.016985138004246284
sI12
F0.03821656050955414
sI13
F0.010615711252653927
sI14
F0.03397027600849257
sI15
F0.014861995753715499
ssI17
g0
(g4
tp37
Rp38
I0
F0.016985138004246284
sI1
F0.036093418259023353
sI2
F0.040339702760084924
sI3
F0.021231422505307854
sI4
F0.021231422505307854
sI5
F0.040339702760084924
sI6
F0.01910828025477707
sI7
F0.03184713375796178
sI8
F0.040339702760084924
sI9
F0.021231422505307854
sI10
F0.027600849256900213
sI11
F0.021231422505307854
sI12
F0.025477707006369428
sI13
F0.02335456475583864
sI14
F0.012738853503184714
sI15
F0.01910828025477707
sI16
F0.021231422505307854
ssI18
g0
(g4
tp39
Rp40
I0
F0.025477707006369428
sI1
F0.016985138004246284
sI2
F0.01910828025477707
sI3
F0.02335456475583864
sI4
F0.01910828025477707
sI5
F0.01910828025477707
sI6
F0.03184713375796178
sI7
F0.02335456475583864
sI8
F0.01910828025477707
sI9
F0.01910828025477707
sI10
F0.016985138004246284
sI11
F0.021231422505307854
sI12
F0.027600849256900213
sI13
F0.02335456475583864
sI14
F0.016985138004246284
sI15
F0.029723991507430998
sI16
F0.01910828025477707
sI17
F0.016985138004246284
ssI19
g0
(g4
tp41
Rp42
I0
F0.021231422505307854
sI1
F0.014861995753715499
sI2
F0.040339702760084924
sI3
F0.021231422505307854
sI4
F0.02335456475583864
sI5
F0.03821656050955414
sI6
F0.021231422505307854
sI7
F0.025477707006369428
sI8
F0.025477707006369428
sI9
F0.01910828025477707
sI10
F0.012738853503184714
sI11
F0.025477707006369428
sI12
F0.01910828025477707
sI13
F0.01910828025477707
sI14
F0.012738853503184714
sI15
F0.014861995753715499
sI16
F0.010615711252653927
sI17
F0.03397027600849257
sI18
F0.016985138004246284
ssI20
g0
(g4
tp43
Rp44
I0
F0.008492569002123142
sI1
F0.010615711252653927
sI2
F0.016985138004246284
sI3
F0.02335456475583864
sI4
F0.021231422505307854
sI5
F0.014861995753715499
sI6
F0.025477707006369428
sI7
F0.03397027600849257
sI8
F0.025477707006369428
sI9
F0.01910828025477707
sI10
F0.025477707006369428
sI11
F0.010615711252653927
sI12
F0.01910828025477707
sI13
F0.014861995753715499
sI14
F0.012738853503184714
sI15
F0.016985138004246284
sI16
F0.012738853503184714
sI17
F0.016985138004246284
sI18
F0.02335456475583864
sI19
F0.025477707006369428
ssI21
g0
(g4
tp45
Rp46
I0
F0.014861995753715499
sI1
F0.008492569002123142
sI2
F0.02335456475583864
sI3
F0.012738853503184714
sI4
F0.010615711252653927
sI5
F0.010615711252653927
sI6
F0.012738853503184714
sI7
F0.01910828025477707
sI8
F0.010615711252653927
sI9
F0.014861995753715499
sI10
F0.016985138004246284
sI11
F0.008492569002123142
sI12
F0.010615711252653927
sI13
F0.014861995753715499
sI14
F0.014861995753715499
sI15
F0.012738853503184714
sI16
F0.01910828025477707
sI17
F0.016985138004246284
sI18
F0.014861995753715499
sI19
F0.010615711252653927
sI20
F0.012738853503184714
ssI22
g0
(g4
tp47
Rp48
I0
F0.012738853503184714
sI1
F0.008492569002123142
sI2
F0.0021231422505307855
sI3
F0.006369426751592357
sI4
F0.012738853503184714
sI5
F0.0021231422505307855
sI6
F0.008492569002123142
sI7
F0.016985138004246284
sI8
F0.014861995753715499
sI9
F0.016985138004246284
sI10
F0.012738853503184714
sI11
F0.004246284501061571
sI12
F0.014861995753715499
sI13
F0.006369426751592357
sI14
F0.016985138004246284
sI15
F0.010615711252653927
sI16
F0.016985138004246284
sI17
F0.010615711252653927
sI18
F0.008492569002123142
sI19
F0.010615711252653927
sI20
F0.008492569002123142
sI21
F0.010615711252653927
ssI23
g0
(g4
tp49
Rp50
I0
F0.010615711252653927
sI1
F0.008492569002123142
sI2
F0.014861995753715499
sI3
F0.004246284501061571
sI4
F0.008492569002123142
sI5
F0.0021231422505307855
sI6
F0.008492569002123142
sI7
F0.0021231422505307855
sI8
F0.014861995753715499
sI9
F0.008492569002123142
sI10
F0.010615711252653927
sI11
F0.008492569002123142
sI12
F0.016985138004246284
sI13
F0.010615711252653927
sI14
F0.010615711252653927
sI15
F0.006369426751592357
sI16
F0.012738853503184714
sI17
F0.010615711252653927
sI18
F0.014861995753715499
sI19
F0.010615711252653927
sI20
F0.008492569002123142
sI21
F0.010615711252653927
sI22
F0.006369426751592357
ssI24
g0
(g4
tp51
Rp52
I0
F0.008492569002123142
sI1
F0.004246284501061571
sI2
F0.016985138004246284
sI3
F0.006369426751592357
sI4
F0.014861995753715499
sI5
F0.012738853503184714
sI6
F0.010615711252653927
sI7
F0.006369426751592357
sI8
F0.01910828025477707
sI9
F0.016985138004246284
sI10
F0.014861995753715499
sI11
F0.014861995753715499
sI12
F0.008492569002123142
sI13
F0.008492569002123142
sI14
F0.012738853503184714
sI15
F0.008492569002123142
sI16
F0.006369426751592357
sI17
F0.010615711252653927
sI18
F0.014861995753715499
sI19
F0.010615711252653927
sI20
F0.012738853503184714
sI21
F0.01910828025477707
sI22
F0.006369426751592357
sI23
F0.006369426751592357
ssI25
g0
(g4
tp53
Rp54
I0
F0.008492569002123142
sI1
F0.008492569002123142
sI2
F0.010615711252653927
sI3
F0.008492569002123142
sI4
F0.014861995753715499
sI5
F0.004246284501061571
sI6
F0.004246284501061571
sI7
F0.014861995753715499
sI8
F0.006369426751592357
sI9
F0.004246284501061571
sI10
F0.008492569002123142
sI11
F0.012738853503184714
sI12
F0.004246284501061571
sI13
F0.006369426751592357
sI14
F0.008492569002123142
sI15
F0.010615711252653927
sI16
F0.006369426751592357
sI17
F0.010615711252653927
sI18
F0.008492569002123142
sI19
F0.006369426751592357
sI20
F0.008492569002123142
sI21
F0.004246284501061571
sI22
F0.0021231422505307855
sI23
F0.012738853503184714
sI24
F0.010615711252653927
ssI26
g0
(g4
tp55
Rp56
I0
F0.006369426751592357
sI1
F0.008492569002123142
sI2
F0.006369426751592357
sI3
F0.004246284501061571
sI4
F0.006369426751592357
sI5
F0.004246284501061571
sI6
F0.006369426751592357
sI7
F0.006369426751592357
sI8
F0.0021231422505307855
sI9
F0.004246284501061571
sI10
F0.006369426751592357
sI11
F0.006369426751592357
sI12
F0.010615711252653927
sI13
F0.014861995753715499
sI14
F0.006369426751592357
sI15
F0.004246284501061571
sI16
F0.006369426751592357
sI17
F0.0021231422505307855
sI18
F0.010615711252653927
sI19
F0.004246284501061571
sI20
F0.0021231422505307855
sI21
F0.0021231422505307855
sI22
F0.004246284501061571
sI23
F0.004246284501061571
sI24
F0.006369426751592357
sI25
F0.0021231422505307855
ssI27
g0
(g4
tp57
Rp58
I0
F0.010615711252653927
sI2
F0.010615711252653927
sI3
F0.0021231422505307855
sI4
F0.008492569002123142
sI5
F0.006369426751592357
sI6
F0.010615711252653927
sI7
F0.014861995753715499
sI8
F0.004246284501061571
sI9
F0.006369426751592357
sI10
F0.004246284501061571
sI11
F0.0021231422505307855
sI12
F0.008492569002123142
sI13
F0.010615711252653927
sI14
F0.006369426751592357
sI15
F0.006369426751592357
sI16
F0.008492569002123142
sI17
F0.006369426751592357
sI18
F0.012738853503184714
sI19
F0.006369426751592357
sI20
F0.006369426751592357
sI21
F0.008492569002123142
sI22
F0.004246284501061571
sI23
F0.0021231422505307855
sI25
F0.006369426751592357
sI26
F0.006369426751592357
ssI28
g0
(g4
tp59
Rp60
I1
F0.004246284501061571
sI2
F0.010615711252653927
sI3
F0.004246284501061571
sI4
F0.004246284501061571
sI5
F0.006369426751592357
sI6
F0.004246284501061571
sI7
F0.010615711252653927
sI8
F0.008492569002123142
sI9
F0.004246284501061571
sI10
F0.008492569002123142
sI13
F0.010615711252653927
sI14
F0.008492569002123142
sI15
F0.004246284501061571
sI16
F0.006369426751592357
sI17
F0.004246284501061571
sI18
F0.008492569002123142
sI19
F0.008492569002123142
sI20
F0.008492569002123142
sI21
F0.010615711252653927
sI22
F0.004246284501061571
sI24
F0.006369426751592357
sI25
F0.0021231422505307855
sI26
F0.004246284501061571
sI27
F0.008492569002123142
ssI29
g0
(g4
tp61
Rp62
I0
F0.004246284501061571
sI1
F0.0021231422505307855
sI3
F0.0021231422505307855
sI4
F0.004246284501061571
sI5
F0.008492569002123142
sI8
F0.006369426751592357
sI12
F0.006369426751592357
sI13
F0.010615711252653927
sI14
F0.004246284501061571
sI15
F0.004246284501061571
sI16
F0.0021231422505307855
sI17
F0.004246284501061571
sI19
F0.008492569002123142
sI20
F0.0021231422505307855
sI21
F0.004246284501061571
sI22
F0.004246284501061571
sI24
F0.0021231422505307855
sI25
F0.004246284501061571
sI26
F0.0021231422505307855
sI27
F0.004246284501061571
sI28
F0.006369426751592357
ssI30
g0
(g4
tp63
Rp64
I0
F0.004246284501061571
sI3
F0.006369426751592357
sI4
F0.0021231422505307855
sI5
F0.0021231422505307855
sI6
F0.0021231422505307855
sI8
F0.0021231422505307855
sI9
F0.004246284501061571
sI10
F0.008492569002123142
sI11
F0.0021231422505307855
sI12
F0.004246284501061571
sI14
F0.0021231422505307855
sI15
F0.0021231422505307855
sI16
F0.0021231422505307855
sI17
F0.006369426751592357
sI18
F0.004246284501061571
sI19
F0.0021231422505307855
sI20
F0.004246284501061571
sI22
F0.004246284501061571
sI24
F0.0021231422505307855
sI25
F0.0021231422505307855
sI26
F0.004246284501061571
ssI31
g0
(g4
tp65
Rp66
I0
F0.004246284501061571
sI2
F0.004246284501061571
sI3
F0.0021231422505307855
sI5
F0.0021231422505307855
sI6
F0.0021231422505307855
sI7
F0.0021231422505307855
sI8
F0.004246284501061571
sI9
F0.004246284501061571
sI10
F0.0021231422505307855
sI11
F0.010615711252653927
sI12
F0.0021231422505307855
sI13
F0.008492569002123142
sI14
F0.004246284501061571
sI15
F0.004246284501061571
sI16
F0.004246284501061571
sI17
F0.006369426751592357
sI18
F0.0021231422505307855
sI19
F0.0021231422505307855
sI20
F0.0021231422505307855
sI21
F0.0021231422505307855
sI22
F0.0021231422505307855
sI23
F0.0021231422505307855
sI24
F0.0021231422505307855
sI27
F0.004246284501061571
ssI32
g0
(g4
tp67
Rp68
I0
F0.0021231422505307855
sI4
F0.0021231422505307855
sI5
F0.004246284501061571
sI7
F0.0021231422505307855
sI8
F0.0021231422505307855
sI12
F0.0021231422505307855
sI13
F0.0021231422505307855
sI14
F0.004246284501061571
sI16
F0.0021231422505307855
sI17
F0.0021231422505307855
sI18
F0.0021231422505307855
sI19
F0.004246284501061571
sI20
F0.0021231422505307855
sI21
F0.0021231422505307855
sI23
F0.0021231422505307855
sI25
F0.0021231422505307855
sI26
F0.0021231422505307855
sI28
F0.004246284501061571
sI29
F0.004246284501061571
ssI33
g0
(g4
tp69
Rp70
I0
F0.0021231422505307855
sI1
F0.004246284501061571
sI2
F0.0021231422505307855
sI3
F0.004246284501061571
sI32
F0.0021231422505307855
sI7
F0.0021231422505307855
sI8
F0.0021231422505307855
sI12
F0.0021231422505307855
sI13
F0.0021231422505307855
sI15
F0.0021231422505307855
sI20
F0.006369426751592357
sI21
F0.004246284501061571
sI25
F0.0021231422505307855
sI26
F0.0021231422505307855
sI27
F0.0021231422505307855
sI28
F0.004246284501061571
sI30
F0.0021231422505307855
ssI34
g0
(g4
tp71
Rp72
I0
F0.0021231422505307855
sI9
F0.0021231422505307855
sI13
F0.0021231422505307855
sI19
F0.0021231422505307855
sI21
F0.0021231422505307855
sI22
F0.0021231422505307855
sI27
F0.0021231422505307855
sI28
F0.0021231422505307855
sI29
F0.0021231422505307855
sI31
F0.0021231422505307855
ssI35
g0
(g4
tp73
Rp74
I32
F0.0021231422505307855
sI33
F0.0021231422505307855
sI4
F0.0021231422505307855
sI6
F0.0021231422505307855
sI20
F0.0021231422505307855
sI23
F0.004246284501061571
sI28
F0.0021231422505307855
sI30
F0.006369426751592357
ssI36
g0
(g4
tp75
Rp76
I0
F0.0021231422505307855
sI1
F0.0021231422505307855
sI34
F0.0021231422505307855
sI5
F0.0021231422505307855
sI6
F0.0021231422505307855
sI13
F0.0021231422505307855
sI15
F0.0021231422505307855
sI16
F0.004246284501061571
sI17
F0.0021231422505307855
sI18
F0.0021231422505307855
sI22
F0.004246284501061571
sI23
F0.004246284501061571
sI25
F0.0021231422505307855
sI29
F0.0021231422505307855
sI30
F0.0021231422505307855
sI31
F0.004246284501061571
ssI37
g0
(g4
tp77
Rp78
I2
F0.0021231422505307855
sI5
F0.0021231422505307855
ssI38
g0
(g4
tp79
Rp80
I1
F0.0021231422505307855
sI2
F0.0021231422505307855
sI35
F0.0021231422505307855
sI5
F0.0021231422505307855
sI6
F0.0021231422505307855
sI10
F0.0021231422505307855
sI20
F0.0021231422505307855
sI24
F0.0021231422505307855
sI27
F0.0021231422505307855
sI28
F0.0021231422505307855
ssI39
g0
(g4
tp81
Rp82
I25
F0.0021231422505307855
sI12
F0.0021231422505307855
sI23
F0.0021231422505307855
ssI41
g0
(g4
tp83
Rp84
I36
F0.0021231422505307855
ssI43
g0
(g4
tp85
Rp86
I42
F0.0021231422505307855
ssI44
g0
(g4
tp87
Rp88
I9
F0.0021231422505307855
sI35
F0.0021231422505307855
sI30
F0.0021231422505307855
ssI45
g0
(g4
tp89
Rp90
I31
F0.0021231422505307855
ssI46
g0
(g4
tp91
Rp92
I35
F0.0021231422505307855
ssI47
g0
(g4
tp93
Rp94
I32
F0.0021231422505307855
sI41
F0.0021231422505307855
sI19
F0.0021231422505307855
sI20
F0.0021231422505307855
sI30
F0.0021231422505307855
sI31
F0.0021231422505307855
ssI48
g0
(g4
tp95
Rp96
I41
F0.0021231422505307855
sI30
F0.0021231422505307855
sI47
F0.0021231422505307855
ssI49
g0
(g4
tp97
Rp98
I45
F0.0021231422505307855
ssI50
g0
(g4
tp99
Rp100
I46
F0.0021231422505307855
ssI53
g0
(g4
tp101
Rp102
I32
F0.0021231422505307855
sI41
F0.0021231422505307855
sI48
F0.0021231422505307855
sI19
F0.0021231422505307855
sI20
F0.0021231422505307855
sI30
F0.0021231422505307855
sI31
F0.0021231422505307855
ss.