ccollections
defaultdict
p0
(c__builtin__
set
p1
tp2
Rp3
VIH0Z
p4
g1
((lp5
S'is'
p6
aS'his'
p7
atp8
Rp9
sVIH0T
p10
g1
((lp11
S'it'
p12
atp13
Rp14
sVIH0S
p15
g1
((lp16
S'this'
p17
atp18
Rp19
sVAO1KT
p20
g1
((lp21
S'talked'
p22
aS'walked'
p23
atp24
Rp25
sVAH2
p26
g1
((lp27
S'unfamiliar'
p28
aS'whatever'
p29
atp30
Rp31
sVIH0N
p32
g1
((lp33
S'been'
p34
aS'in'
p35
atp36
Rp37
sVAH0
p38
g1
((lp39
S'salon'
p40
aS'casino'
p41
aS'patrol'
p42
aS'suspended'
p43
aS'supply'
p44
aS'confuse'
p45
aS'tonight'
p46
aS'recruitment'
p47
aS'esteem'
p48
aS'another'
p49
aS'again'
p50
aS'afraid'
p51
aS'possessions'
p52
aS'chicago'
p53
aS'addicted'
p54
aS'away'
p55
aS'accent'
p56
aS'aside'
p57
aS'specifically'
p58
aS'to'
p59
aS'cassette'
p60
aS'above'
p61
aS'supplier'
p62
aS'themselves'
p63
aS'officially'
p64
aS'banana'
p65
aS'today'
p66
aS'prophetic'
p67
aS'umbrella'
p68
aS'de'
p69
aS'upon'
p70
aS'account'
p71
aS'galore'
p72
aS'cannot'
p73
aS'addict'
p74
aS'safari'
p75
aS'along'
p76
aS'america'
p77
aS'complain'
p78
aS'apart'
p79
aS'a'
p80
aS'about'
p81
aS'submission'
p82
aS'collapsing'
p83
aS'sometimes'
p84
aS'together'
p85
aS'concrete'
p86
aS'appealing'
p87
aS'militia'
p88
aS'subpoena'
p89
aS'abandon'
p90
aS'position'
p91
aS'the'
p92
aS'confucius'
p93
aS'alike'
p94
atp95
Rp96
sVAH1
p97
g1
((lp98
S'buzzer'
p99
aS'summer'
p100
aS'humble'
p101
aS'color'
p102
aS'money'
p103
aS'wonder'
p104
aS'number'
p105
aS'budget'
p106
aS'honey'
p107
aS'culture'
p108
aS'colors'
p109
aS'sometime'
p110
aS'something'
p111
aS'umbrella'
p112
aS'trumpet'
p113
aS'custody'
p114
aS'dozen'
p115
aS"doesn't"
p116
aS'monkey'
p117
aS'hunting'
p118
aS'rumbles'
p119
aS'somewhere'
p120
aS'cousins'
p121
aS'buckle'
p122
aS'hungry'
p123
aS'hurricane'
p124
aS'fucking'
p125
aS'other'
p126
aS'lullabies'
p127
aS'wondrous'
p128
aS'under'
p129
aS'covered'
p130
aS'hundred'
p131
aS'bunny'
p132
aS'somebody'
p133
aS'mustard'
p134
aS'huggy'
p135
aS'stutter'
p136
aS'lucky'
p137
aS'butlers'
p138
aS'hundreds'
p139
aS'chuckie'
p140
aS'running'
p141
aS'putting'
p142
aS'nothing'
p143
aS'cousin'
p144
aS'justin'
p145
aS"wasn't"
p146
aS'sometimes'
p147
aS'bucket'
p148
aS'brother'
p149
aS'public'
p150
aS'dusted'
p151
aS'mumble'
p152
aS'mother'
p153
aS'husky'
p154
aS'the'
p155
aS'russian'
p156
aS'numbers'
p157
atp158
Rp159
sVIH0F
p160
g1
((lp161
S'if'
p162
atp163
Rp164
sVIH0D
p165
g1
((lp166
S'did'
p167
aS'good'
p168
atp169
Rp170
sVUW1TH
p171
g1
((lp172
S'youth'
p173
aS'booth'
p174
aS'truth'
p175
atp176
Rp177
sVEH2
p178
g1
((lp179
S'generation'
p180
aS'lsd'
p181
atp182
Rp183
sVER1JH
p184
g1
((lp185
S'merge'
p186
atp187
Rp188
sVEH0
p189
g1
((lp190
S'employee'
p191
aS'genitalia'
p192
aS'themselves'
p193
aS'entrusted'
p194
atp195
Rp196
sVEH1
p197
g1
((lp198
S'refugees'
p199
aS'seven'
p200
aS'jericho'
p201
aS'letterman'
p202
aS'edify'
p203
aS'headed'
p204
aS'hedwig'
p205
aS'menzies'
p206
aS'lending'
p207
aS'bennett'
p208
aS'flexing'
p209
aS'carry'
p210
aS'second'
p211
aS'ready'
p212
aS'levis'
p213
aS'helpless'
p214
aS'any'
p215
aS'kevin'
p216
aS'everybody'
p217
aS'anyone'
p218
aS"heaven's"
p219
aS'baritone'
p220
aS'sentiments'
p221
aS'sentence'
p222
aS'leno'
p223
aS'desktop'
p224
aS'better'
p225
aS'everything'
p226
aS'benford'
p227
aS'derek'
p228
aS'marathon'
p229
aS'wendy'
p230
aS'debit'
p231
aS'medicine'
p232
aS'parents'
p233
aS'fetty'
p234
aS'ever'
p235
aS'texas'
p236
aS'belly'
p237
aS'lessons'
p238
aS'never'
p239
aS'petrified'
p240
aS"leno's"
p241
aS'petty'
p242
aS'reconciled'
p243
aS'blessing'
p244
aS'seventh'
p245
aS'empty'
p246
aS'redeye'
p247
aS'helping'
p248
aS'devil'
p249
aS'every'
p250
aS'aires'
p251
aS'members'
p252
aS'exes'
p253
aS'jealous'
p254
aS'pedal'
p255
aS'barely'
p256
aS'endless'
p257
aS'enemy'
p258
aS'sending'
p259
aS'heaven'
p260
aS'yelling'
p261
aS'pregnant'
p262
aS'whether'
p263
aS'many'
p264
aS'trending'
p265
aS'getting'
p266
aS'steady'
p267
aS'pencils'
p268
aS'blessings'
p269
aS'marriage'
p270
aS'dresses'
p271
aS'necklace'
p272
aS'mentions'
p273
aS"harold's"
p274
aS'friendship'
p275
aS"everything's"
p276
aS'pesticide'
p277
aS'wednesdays'
p278
atp279
Rp280
sVEY1TH
p281
g1
((lp282
S'faith'
p283
atp284
Rp285
sVEY1TS
p286
g1
((lp287
S'gates'
p288
aS'hates'
p289
atp290
Rp291
sVAE1MZ
p292
g1
((lp293
S'dams'
p294
aS'jams'
p295
atp296
Rp297
sVAE1MP
p298
g1
((lp299
S'camp'
p300
aS'champ'
p301
atp302
Rp303
sVUW1TS
p304
g1
((lp305
S'fruits'
p306
atp307
Rp308
sVIY1TS
p309
g1
((lp310
S'streets'
p311
aS'seats'
p312
atp313
Rp314
sVAO1RMTH
p315
g1
((lp316
S'warmth'
p317
atp318
Rp319
sVAH1CH
p320
g1
((lp321
S'touch'
p322
aS'much'
p323
aS'hutch'
p324
atp325
Rp326
sVOW1DHZ
p327
g1
((lp328
S'clothes'
p329
atp330
Rp331
sVIY1TH
p332
g1
((lp333
S'teeth'
p334
atp335
Rp336
sVEY1MZ
p337
g1
((lp338
S'james'
p339
atp340
Rp341
sS'AH1 S'
p342
g1
((lp343
S'us'
p344
atp345
Rp346
sVIH1KST
p347
g1
((lp348
S'mixed'
p349
atp350
Rp351
sVIH0M
p352
g1
((lp353
S'him'
p354
atp355
Rp356
sVOY1
p357
g1
((lp358
S'boy'
p359
aS'troy'
p360
aS'joy'
p361
atp362
Rp363
sVUW1ZD
p364
g1
((lp365
S'used'
p366
atp367
Rp368
sVUH2
p369
g1
((lp370
S'goodbyes'
p371
atp372
Rp373
sVUH0
p374
g1
((lp375
S"could've"
p376
aS'yourself'
p377
atp378
Rp379
sVUH1
p380
g1
((lp381
S"cookin'"
p382
aS'pussy'
p383
aS"wouldn't"
p384
aS'cooking'
p385
aS'purest'
p386
aS'goodnight'
p387
aS'putting'
p388
aS"couldn't"
p389
aS'bullshit'
p390
atp391
Rp392
sVAE1TS
p393
g1
((lp394
S"that's"
p395
atp396
Rp397
sVAH1NZ
p398
g1
((lp399
S'ones'
p400
aS'guns'
p401
atp402
Rp403
sVAH1NT
p404
g1
((lp405
S'front'
p406
aS'blunt'
p407
atp408
Rp409
sVAH1NS
p410
g1
((lp411
S'once'
p412
atp413
Rp414
sVAH1NG
p415
g1
((lp416
S'tongue'
p417
aS'young'
p418
atp419
Rp420
sVAA1ND
p421
g1
((lp422
S'blonde'
p423
atp424
Rp425
sVAO1RD
p426
g1
((lp427
S'lord'
p428
aS'board'
p429
aS'sword'
p430
atp431
Rp432
sVAO2L
p433
g1
((lp434
S"y'all"
p435
atp436
Rp437
sVAO1RN
p438
g1
((lp439
S'warn'
p440
aS'morn'
p441
aS'horn'
p442
atp443
Rp444
sVAO1RM
p445
g1
((lp446
S'warm'
p447
atp448
Rp449
sVAA1NT
p450
g1
((lp451
S'want'
p452
atp453
Rp454
sVAO1RS
p455
g1
((lp456
S'fourths'
p457
aS'force'
p458
atp459
Rp460
sVAO1RZ
p461
g1
((lp462
S'drawers'
p463
aS'yours'
p464
aS'doors'
p465
atp466
Rp467
sVER1CH
p468
g1
((lp469
S'search'
p470
aS'church'
p471
atp472
Rp473
sVUH1KS
p474
g1
((lp475
S'hooks'
p476
aS'books'
p477
atp478
Rp479
sVUH1KT
p480
g1
((lp481
S'looked'
p482
aS'booked'
p483
atp484
Rp485
sVEH1D
p486
g1
((lp487
S'head'
p488
aS'said'
p489
aS'read'
p490
aS'dead'
p491
aS'bed'
p492
aS'red'
p493
atp494
Rp495
sVIH1RZ
p496
g1
((lp497
S'years'
p498
atp499
Rp500
sVEY1Z
p501
g1
((lp502
S'ways'
p503
aS'days'
p504
aS'praise'
p505
atp506
Rp507
sVEY1T
p508
g1
((lp509
S'straight'
p510
aS'late'
p511
aS'gate'
p512
aS'hate'
p513
aS'nate'
p514
aS'wait'
p515
atp516
Rp517
sVEY1V
p518
g1
((lp519
S'save'
p520
aS"they've"
p521
aS'gave'
p522
atp523
Rp524
sVEY1P
p525
g1
((lp526
S'cape'
p527
atp528
Rp529
sVEY1S
p530
g1
((lp531
S'case'
p532
aS'space'
p533
aS'face'
p534
aS'race'
p535
aS'place'
p536
aS'chase'
p537
atp538
Rp539
sVEY1M
p540
g1
((lp541
S'name'
p542
aS'lame'
p543
aS'same'
p544
aS'shame'
p545
aS'flame'
p546
aS'came'
p547
atp548
Rp549
sVEY1L
p550
g1
((lp551
S"they'll"
p552
atp553
Rp554
sVEY1N
p555
g1
((lp556
S'lane'
p557
aS'plane'
p558
aS'cane'
p559
aS'rain'
p560
atp561
Rp562
sVOW1TH
p563
g1
((lp564
S'both'
p565
aS'growth'
p566
atp567
Rp568
sVEY1D
p569
g1
((lp570
S'grade'
p571
aS'made'
p572
aS'stayed'
p573
aS'paid'
p574
aS'played'
p575
atp576
Rp577
sVEY1G
p578
g1
((lp579
S'craig'
p580
aS'plague'
p581
atp582
Rp583
sVIY1KS
p584
g1
((lp585
S'leaks'
p586
aS'weeks'
p587
atp588
Rp589
sVEH1K
p590
g1
((lp591
S'neck'
p592
atp593
Rp594
sVEH1L
p595
g1
((lp596
S'shell'
p597
aS'well'
p598
aS'fell'
p599
aS'hell'
p600
aS'smell'
p601
aS'tell'
p602
atp603
Rp604
sVEH1M
p605
g1
((lp606
S'em'
p607
aS'them'
p608
atp609
Rp610
sVEH1N
p611
g1
((lp612
S'then'
p613
aS'when'
p614
aS'ten'
p615
aS'zen'
p616
atp617
Rp618
sVEH1ST
p619
g1
((lp620
S'dressed'
p621
aS'crest'
p622
aS'best'
p623
aS'rest'
p624
atp625
Rp626
sVAY1K
p627
g1
((lp628
S'mike'
p629
aS'like'
p630
atp631
Rp632
sVAA1SH
p633
g1
((lp634
S'wash'
p635
atp636
Rp637
sVEH1Z
p638
g1
((lp639
S'as'
p640
atp641
Rp642
sVAA1ST
p643
g1
((lp644
S'cost'
p645
atp646
Rp647
sVER1ND
p648
g1
((lp649
S'turned'
p650
atp651
Rp652
sVEH1R
p653
g1
((lp654
S'square'
p655
aS'share'
p656
aS'air'
p657
aS'hair'
p658
aS'swear'
p659
aS'prayer'
p660
aS'chair'
p661
aS'where'
p662
atp663
Rp664
sVEH1S
p665
g1
((lp666
S'mess'
p667
aS'guess'
p668
aS'yes'
p669
atp670
Rp671
sVEH1T
p672
g1
((lp673
S'met'
p674
aS'let'
p675
aS'bet'
p676
aS'get'
p677
atp678
Rp679
sVAO1RDZ
p680
g1
((lp681
S'swords'
p682
atp683
Rp684
sVAH1GD
p685
g1
((lp686
S'drugged'
p687
atp688
Rp689
sVOW1MZ
p690
g1
((lp691
S'foams'
p692
atp693
Rp694
sVAH1GZ
p695
g1
((lp696
S'drugs'
p697
aS'bugs'
p698
atp699
Rp700
sVEY1ZD
p701
g1
((lp702
S'raised'
p703
atp704
Rp705
sVAH1NTHS
p706
g1
((lp707
S'months'
p708
atp709
Rp710
sVIH0TH
p711
g1
((lp712
S'with'
p713
atp714
Rp715
sVEH1FT
p716
g1
((lp717
S'left'
p718
atp719
Rp720
sVIH0TS
p721
g1
((lp722
S"it's"
p723
aS'its'
p724
atp725
Rp726
sVAA1DZ
p727
g1
((lp728
S"god's"
p729
atp730
Rp731
sVIH1NGK
p732
g1
((lp733
S'link'
p734
aS'think'
p735
aS'rink'
p736
atp737
Rp738
sVAH1NTH
p739
g1
((lp740
S'month'
p741
atp742
Rp743
sVAO1NZ
p744
g1
((lp745
S'lawns'
p746
atp747
Rp748
sVAO1RJHD
p749
g1
((lp750
S'forged'
p751
atp752
Rp753
sVEY1ST
p754
g1
((lp755
S'faced'
p756
aS'taste'
p757
aS'based'
p758
aS'waist'
p759
atp760
Rp761
sVAO1NG
p762
g1
((lp763
S'wrong'
p764
aS'long'
p765
aS'song'
p766
atp767
Rp768
sVIH1NGZ
p769
g1
((lp770
S'kings'
p771
aS'rings'
p772
aS'wings'
p773
aS'things'
p774
atp775
Rp776
sVIH1DNT
p777
g1
((lp778
S"didn't"
p779
atp780
Rp781
sVER0
p782
g1
((lp783
S'perfect'
p784
aS'guerillas'
p785
aS'around'
p786
aS'her'
p787
aS'perform'
p788
aS'performing'
p789
aS'forgetful'
p790
aS'for'
p791
aS'forgetting'
p792
aS'performed'
p793
aS'were'
p794
aS'arenas'
p795
aS'yourself'
p796
aS'herself'
p797
aS'or'
p798
aS'forget'
p799
atp800
Rp801
sVEH1TH
p802
g1
((lp803
S'breath'
p804
atp805
Rp806
sVAA1MZ
p807
g1
((lp808
S'proms'
p809
atp810
Rp811
sVIH1LD
p812
g1
((lp813
S'grilled'
p814
aS'build'
p815
atp816
Rp817
sVEH1TS
p818
g1
((lp819
S"let's"
p820
atp821
Rp822
sVAO1NGZ
p823
g1
((lp824
S'wrongs'
p825
aS'songs'
p826
atp827
Rp828
sVAH1NCH
p829
g1
((lp830
S'bunch'
p831
atp832
Rp833
sVIH1VD
p834
g1
((lp835
S'lived'
p836
atp837
Rp838
sVEY1
p839
g1
((lp840
S'skating'
p841
aS'saying'
p842
aS'crazy'
p843
aS'saving'
p844
aS'savior'
p845
aS'angel'
p846
aS'danger'
p847
aS'labels'
p848
aS'lazy'
p849
aS'praying'
p850
aS'mater'
p851
aS'paper'
p852
aS'radio'
p853
aS'prayer'
p854
aS'ay'
p855
aS'neighborhood'
p856
aS'aged'
p857
aS'mayor'
p858
aS'katie'
p859
aS'aiming'
p860
aS'ha'
p861
aS'pray'
p862
aS'caveman'
p863
aS'hey'
p864
aS'satan'
p865
aS'way'
p866
aS'napalm'
p867
aS'dating'
p868
aS'angels'
p869
aS"playin'"
p870
aS'apron'
p871
aS'play'
p872
aS'paperwork'
p873
aS'buenos'
p874
aS'maker'
p875
aS'may'
p876
aS'mayo'
p877
aS'de'
p878
aS'stay'
p879
aS'famous'
p880
aS'vegas'
p881
aS'lay'
p882
aS'they'
p883
aS'baby'
p884
aS'safer'
p885
aS'nation'
p886
aS'day'
p887
aS'a'
p888
aS'stranger'
p889
aS'racing'
p890
aS'taking'
p891
aS'haters'
p892
aS'favorite'
p893
aS'gator'
p894
aS'lakers'
p895
aS'bay'
p896
aS'trey'
p897
aS'vega'
p898
aS'maybe'
p899
aS'faking'
p900
aS'making'
p901
aS'aka'
p902
aS'tasted'
p903
aS'playing'
p904
atp905
Rp906
sVAW1LZ
p907
g1
((lp908
S'owls'
p909
atp910
Rp911
sVAO1CH
p912
g1
((lp913
S'watch'
p914
atp915
Rp916
sVAY1
p917
g1
((lp918
S'signing'
p919
aS'liar'
p920
aS'fired'
p921
aS'tired'
p922
aS"michael's"
p923
aS'high'
p924
aS'dialing'
p925
aS'ay'
p926
aS'lie'
p927
aS'dying'
p928
aS'spineless'
p929
aS'sky'
p930
aS'mikey'
p931
aS'writing'
p932
aS'brighter'
p933
aS"i'mma"
p934
aS'wilding'
p935
aS'righteous'
p936
aS'higher'
p937
aS'dry'
p938
aS'buy'
p939
aS'minus'
p940
aS'wiley'
p941
aS'nightly'
p942
aS'flyer'
p943
aS'lighter'
p944
aS'buyer'
p945
aS'coyote'
p946
aS'sinus'
p947
aS'why'
p948
aS'fly'
p949
aS'timeshare'
p950
aS'die'
p951
aS'cry'
p952
aS'michael'
p953
aS'lightning'
p954
aS'nicest'
p955
aS'science'
p956
aS'guy'
p957
aS'my'
p958
aS'childhood'
p959
aS'lying'
p960
atp961
Rp962
sVAY0
p963
g1
((lp964
S'coyote'
p965
aS'violations'
p966
aS'ideas'
p967
aS'minute'
p968
aS'diagonal'
p969
atp970
Rp971
sVAY2
p972
g1
((lp973
S'bio'
p974
aS'myself'
p975
aS'iraqi'
p976
atp977
Rp978
sVIH0ST
p979
g1
((lp980
S'just'
p981
atp982
Rp983
sVIH1DZ
p984
g1
((lp985
S'kids'
p986
atp987
Rp988
sVAW1TS
p989
g1
((lp990
S'shouts'
p991
atp992
Rp993
sVAW1TH
p994
g1
((lp995
S'mouth'
p996
atp997
Rp998
sVAO2
p999
g1
((lp1000
S'montano'
p1001
atp1002
Rp1003
sVAO1
p1004
g1
((lp1005
S'ordered'
p1006
aS'often'
p1007
aS'auntie'
p1008
aS'dollar'
p1009
aS'yourself'
p1010
aS'talking'
p1011
aS'fortify'
p1012
aS'broadway'
p1013
aS'saw'
p1014
aS'solstice'
p1015
aS'hallways'
p1016
aS'costly'
p1017
aS'shorter'
p1018
aS'color'
p1019
aS'orange'
p1020
aS'bosses'
p1021
aS'borders'
p1022
aS'hallway'
p1023
aS'glorify'
p1024
aS'oscar'
p1025
aS'raunchy'
p1026
aS'shorty'
p1027
aS'water'
p1028
aS'couric'
p1029
aS'jordan'
p1030
aS'correlating'
p1031
aS'salsa'
p1032
aS'shortness'
p1033
aS'rollie'
p1034
aS'faucet'
p1035
aS'daughter'
p1036
aS'alma'
p1037
aS"talkin'"
p1038
aS'launcher'
p1039
aS'always'
p1040
aS'dollars'
p1041
aS'forfeited'
p1042
aS'stories'
p1043
aS'saudi'
p1044
aS'mortar'
p1045
aS'crossing'
p1046
aS'swallow'
p1047
aS'quarter'
p1048
aS'order'
p1049
atp1050
Rp1051
sVAO0
p1052
g1
((lp1053
S'forgetting'
p1054
aS'forgetful'
p1055
aS'forget'
p1056
atp1057
Rp1058
sVIH1DH
p1059
g1
((lp1060
S'with'
p1061
atp1062
Rp1063
sVAH1KT
p1064
g1
((lp1065
S'fucked'
p1066
aS'ducked'
p1067
atp1068
Rp1069
sVAE1SH
p1070
g1
((lp1071
S'smash'
p1072
aS'ash'
p1073
aS'hash'
p1074
aS'cash'
p1075
atp1076
Rp1077
sVAW1D
p1078
g1
((lp1079
S'proud'
p1080
atp1081
Rp1082
sVAW1N
p1083
g1
((lp1084
S'down'
p1085
aS'brown'
p1086
aS'drown'
p1087
aS'crown'
p1088
atp1089
Rp1090
sVAW1S
p1091
g1
((lp1092
S'house'
p1093
atp1094
Rp1095
sVAW1R
p1096
g1
((lp1097
S'our'
p1098
aS'sour'
p1099
aS'hour'
p1100
atp1101
Rp1102
sVAW1T
p1103
g1
((lp1104
S"'bout"
p1105
aS'drought'
p1106
aS'shout'
p1107
aS'bout'
p1108
aS'out'
p1109
atp1110
Rp1111
sVAE1ST
p1112
g1
((lp1113
S'past'
p1114
aS'last'
p1115
aS'asked'
p1116
aS'passed'
p1117
atp1118
Rp1119
sVAO1NT
p1120
g1
((lp1121
S'want'
p1122
atp1123
Rp1124
sVAY1LD
p1125
g1
((lp1126
S'child'
p1127
atp1128
Rp1129
sS'F AH1'
p1130
g1
((lp1131
S'fucker'
p1132
atp1133
Rp1134
sVAA1KT
p1135
g1
((lp1136
S'blocked'
p1137
atp1138
Rp1139
sVEY1NJHD
p1140
g1
((lp1141
S'changed'
p1142
atp1143
Rp1144
sVIY1ND
p1145
g1
((lp1146
S'fiend'
p1147
atp1148
Rp1149
sVUW1LZ
p1150
g1
((lp1151
S'rules'
p1152
aS'schools'
p1153
atp1154
Rp1155
sVIY1NZ
p1156
g1
((lp1157
S'screens'
p1158
aS'beans'
p1159
atp1160
Rp1161
sVEH1PS
p1162
g1
((lp1163
S'steps'
p1164
atp1165
Rp1166
sVER1KS
p1167
g1
((lp1168
S'percs'
p1169
atp1170
Rp1171
sVEH1LD
p1172
g1
((lp1173
S'held'
p1174
atp1175
Rp1176
sVAH1NGZ
p1177
g1
((lp1178
S'lungs'
p1179
atp1180
Rp1181
sVOW1LZ
p1182
g1
((lp1183
S'souls'
p1184
atp1185
Rp1186
sVEH1LT
p1187
g1
((lp1188
S'felt'
p1189
atp1190
Rp1191
sVOW1LD
p1192
g1
((lp1193
S'old'
p1194
aS'rolled'
p1195
aS'sold'
p1196
aS'fold'
p1197
aS'cold'
p1198
aS'hold'
p1199
aS'told'
p1200
atp1201
Rp1202
sVIY1ST
p1203
g1
((lp1204
S'least'
p1205
atp1206
Rp1207
sVEH1LP
p1208
g1
((lp1209
S'help'
p1210
atp1211
Rp1212
sVAW1ND
p1213
g1
((lp1214
S'sound'
p1215
aS'found'
p1216
atp1217
Rp1218
sVOW1T
p1219
g1
((lp1220
S'wrote'
p1221
atp1222
Rp1223
sVEH1NDZ
p1224
g1
((lp1225
S'friends'
p1226
atp1227
Rp1228
sVER1
p1229
g1
((lp1230
S'serpent'
p1231
aS'thursdays'
p1232
aS'burner'
p1233
aS'verses'
p1234
aS'sermon'
p1235
aS'worldly'
p1236
aS'worship'
p1237
aS'worry'
p1238
aS'perfect'
p1239
aS'sir'
p1240
aS'worthless'
p1241
aS'thirsty'
p1242
aS'working'
p1243
aS'purple'
p1244
aS'birthdays'
p1245
aS'hurricane'
p1246
aS'purses'
p1247
aS"we're"
p1248
aS'churches'
p1249
aS'bourbon'
p1250
aS'murder'
p1251
aS'early'
p1252
aS'persons'
p1253
aS'murdered'
p1254
aS'hurry'
p1255
aS'herpes'
p1256
aS'searches'
p1257
aS'purchase'
p1258
aS'service'
p1259
aS'worried'
p1260
aS'her'
p1261
aS'were'
p1262
aS'murdering'
p1263
aS'jersey'
p1264
atp1265
Rp1266
sVER1V
p1267
g1
((lp1268
S'swerve'
p1269
atp1270
Rp1271
sVER1T
p1272
g1
((lp1273
S'flirt'
p1274
aS'spurt'
p1275
aS'dirt'
p1276
aS'hurt'
p1277
atp1278
Rp1279
sVEH1KS
p1280
g1
((lp1281
S'x'
p1282
aS'sex'
p1283
aS'ex'
p1284
aS'flex'
p1285
aS'next'
p1286
atp1287
Rp1288
sVER1S
p1289
g1
((lp1290
S'verse'
p1291
aS'curse'
p1292
aS'worse'
p1293
atp1294
Rp1295
sVER1P
p1296
g1
((lp1297
S'burp'
p1298
atp1299
Rp1300
sVER1D
p1301
g1
((lp1302
S'heard'
p1303
aS'word'
p1304
aS'bird'
p1305
aS'third'
p1306
aS'herd'
p1307
atp1308
Rp1309
sVER1N
p1310
g1
((lp1311
S'turn'
p1312
aS'burn'
p1313
atp1314
Rp1315
sVER1L
p1316
g1
((lp1317
S'earl'
p1318
aS'girl'
p1319
atp1320
Rp1321
sVER1K
p1322
g1
((lp1323
S'perc'
p1324
aS'work'
p1325
atp1326
Rp1327
sS'G AA1 N'
p1328
g1
((lp1329
S"gon'"
p1330
atp1331
Rp1332
sVIH1KS
p1333
g1
((lp1334
S'fix'
p1335
aS"vic's"
p1336
atp1337
Rp1338
sVAH1SK
p1339
g1
((lp1340
S'dusk'
p1341
atp1342
Rp1343
sVIY1DH
p1344
g1
((lp1345
S'breathe'
p1346
atp1347
Rp1348
sVAE1KS
p1349
g1
((lp1350
S'packs'
p1351
aS'snacks'
p1352
aS'racks'
p1353
aS'wax'
p1354
atp1355
Rp1356
sVAH0ND
p1357
g1
((lp1358
S'and'
p1359
atp1360
Rp1361
sVAE1KT
p1362
g1
((lp1363
S'cracked'
p1364
aS'packed'
p1365
aS'fact'
p1366
aS'act'
p1367
atp1368
Rp1369
sVAH1ST
p1370
g1
((lp1371
S'trust'
p1372
aS'just'
p1373
aS'must'
p1374
atp1375
Rp1376
sVER1DZ
p1377
g1
((lp1378
S'words'
p1379
atp1380
Rp1381
sVIY1T
p1382
g1
((lp1383
S'skeet'
p1384
aS'beat'
p1385
aS'sweet'
p1386
aS'seat'
p1387
aS'feet'
p1388
aS'cheat'
p1389
aS'street'
p1390
aS'treat'
p1391
aS'meet'
p1392
aS'eat'
p1393
atp1394
Rp1395
sVIY2
p1396
g1
((lp1397
S'iraqi'
p1398
aS'greedier'
p1399
aS'before'
p1400
atp1401
Rp1402
sS'R AY1 M'
p1403
g1
((lp1404
S'rhyme'
p1405
atp1406
Rp1407
sVAA1RD
p1408
g1
((lp1409
S'hard'
p1410
aS'card'
p1411
atp1412
Rp1413
sVEY1KT
p1414
g1
((lp1415
S'faked'
p1416
atp1417
Rp1418
sVAA1RK
p1419
g1
((lp1420
S'dark'
p1421
aS'park'
p1422
atp1423
Rp1424
sVIH1SH
p1425
g1
((lp1426
S'wish'
p1427
atp1428
Rp1429
sVIH1ST
p1430
g1
((lp1431
S'kissed'
p1432
aS'missed'
p1433
atp1434
Rp1435
sVAA1
p1436
g1
((lp1437
S'follow'
p1438
aS'modesty'
p1439
aS'followers'
p1440
aS'costly'
p1441
aS'carter'
p1442
aS'rocket'
p1443
aS'ya'
p1444
aS'armchair'
p1445
aS'papa'
p1446
aS'donnie'
p1447
aS'dollar'
p1448
aS'cocky'
p1449
aS'momma'
p1450
aS'harness'
p1451
aS'college'
p1452
aS'promised'
p1453
aS'khaki'
p1454
aS'parking'
p1455
aS'politics'
p1456
aS"rockin'"
p1457
aS'blockbuster'
p1458
aS'popping'
p1459
aS'partners'
p1460
aS'bottles'
p1461
aS'pardon'
p1462
aS'la'
p1463
aS'father'
p1464
aS'jolly'
p1465
aS'harmless'
p1466
aS'models'
p1467
aS'arguments'
p1468
aS'mama'
p1469
aS'party'
p1470
aS'falling'
p1471
aS'soccer'
p1472
aS'body'
p1473
aS'entree'
p1474
aS'marbles'
p1475
aS'cha'
p1476
aS'started'
p1477
aS'molly'
p1478
aS'follies'
p1479
aS'modify'
p1480
aS'gonna'
p1481
aS'qualify'
p1482
aS'odyssey'
p1483
aS'probably'
p1484
aS'aka'
p1485
aS'ha'
p1486
aS'collar'
p1487
aS'popeye'
p1488
aS'darkness'
p1489
aS'tommy'
p1490
aS'casa'
p1491
aS'frolicking'
p1492
aS'hopping'
p1493
aS'darling'
p1494
aS"wasn't"
p1495
aS'bodied'
p1496
aS'gotta'
p1497
aS'bottom'
p1498
aS'barak'
p1499
aS'controversy'
p1500
aS'concrete'
p1501
aS'barbershop'
p1502
aS'swallow'
p1503
aS'costner'
p1504
aS'poppy'
p1505
aS'prodigy'
p1506
aS'wanna'
p1507
aS'dollars'
p1508
aS'mater'
p1509
atp1510
Rp1511
sVAA0
p1512
g1
((lp1513
S'amin'
p1514
atp1515
Rp1516
sVAA2
p1517
g1
((lp1518
S'opposition'
p1519
atp1520
Rp1521
sVAO1FT
p1522
g1
((lp1523
S'soft'
p1524
atp1525
Rp1526
sVAA1RT
p1527
g1
((lp1528
S'heart'
p1529
aS'start'
p1530
aS'art'
p1531
aS'fart'
p1532
atp1533
Rp1534
sVIH2
p1535
g1
((lp1536
S'disbelief'
p1537
aS'cigarettes'
p1538
aS'introduce'
p1539
aS'introspective'
p1540
aS'cigarette'
p1541
aS'introduced'
p1542
aS'misdemeanors'
p1543
atp1544
Rp1545
sVIH0
p1546
g1
((lp1547
S'crescendo'
p1548
aS'iraqi'
p1549
aS'into'
p1550
aS'recruitment'
p1551
aS'discussions'
p1552
aS'events'
p1553
aS'before'
p1554
aS'rely'
p1555
aS'invoked'
p1556
aS'exalt'
p1557
aS'electrify'
p1558
aS'enough'
p1559
aS'to'
p1560
aS'behind'
p1561
aS'believing'
p1562
aS'descend'
p1563
aS'employee'
p1564
aS'illusion'
p1565
aS'chinchilla'
p1566
aS'designer'
p1567
aS'rehearsing'
p1568
aS'becoming'
p1569
aS'inhaled'
p1570
aS'nintendo'
p1571
aS'reclining'
p1572
aS'believe'
p1573
aS'declining'
p1574
aS'finesse'
p1575
aS'remember'
p1576
aS'goodbyes'
p1577
aS'involved'
p1578
aS'inside'
p1579
aS'discernment'
p1580
aS'deserted'
p1581
aS'determined'
p1582
aS'militia'
p1583
aS'invented'
p1584
aS'believed'
p1585
aS"isn't"
p1586
atp1587
Rp1588
sVIH1
p1589
g1
((lp1590
S'nickels'
p1591
aS'listening'
p1592
aS'singer'
p1593
aS"sittin'"
p1594
aS'mishaps'
p1595
aS'into'
p1596
aS'tippy'
p1597
aS'dripping'
p1598
aS'blisters'
p1599
aS'middle'
p1600
aS'intro'
p1601
aS'sniffing'
p1602
aS'village'
p1603
aS'kicking'
p1604
aS'singing'
p1605
aS'really'
p1606
aS'city'
p1607
aS'different'
p1608
aS'inside'
p1609
aS'thriller'
p1610
aS'glitters'
p1611
aS'milly'
p1612
aS'giving'
p1613
aS'mister'
p1614
aS'mistletoe'
p1615
aS'pigeon'
p1616
aS'twisted'
p1617
aS'cinnabon'
p1618
aS'literary'
p1619
aS'hitting'
p1620
aS'window'
p1621
aS'kiddies'
p1622
aS'digging'
p1623
aS'hillman'
p1624
aS'lingo'
p1625
aS'lipstick'
p1626
aS'millions'
p1627
aS'whistle'
p1628
aS'filter'
p1629
aS'cinnamon'
p1630
aS'kingdom'
p1631
aS'mixture'
p1632
aS'pretty'
p1633
aS'missing'
p1634
aS'minto'
p1635
aS'literally'
p1636
aS'bitches'
p1637
aS'minimum'
p1638
aS'little'
p1639
aS'timmy'
p1640
aS'richest'
p1641
aS'cinco'
p1642
aS'shitty'
p1643
aS'nitty'
p1644
aS'kinda'
p1645
aS'mistic'
p1646
aS'difference'
p1647
aS'tripping'
p1648
aS'minute'
p1649
aS'women'
p1650
aS'building'
p1651
aS'sister'
p1652
aS'hitter'
p1653
aS'getting'
p1654
aS"thinkin'"
p1655
aS'hinges'
p1656
aS'chisel'
p1657
aS'winter'
p1658
aS'windows'
p1659
aS'gimme'
p1660
aS'lindsey'
p1661
aS'piggy'
p1662
aS'mr'
p1663
aS'kissing'
p1664
aS"killer's"
p1665
aS'industry'
p1666
aS"isn't"
p1667
atp1668
Rp1669
sVUH1RZ
p1670
g1
((lp1671
S'yours'
p1672
atp1673
Rp1674
sVEH1GZ
p1675
g1
((lp1676
S'legs'
p1677
atp1678
Rp1679
sVAY1Z
p1680
g1
((lp1681
S'lies'
p1682
aS'eyes'
p1683
aS'fries'
p1684
aS'pies'
p1685
aS'whys'
p1686
atp1687
Rp1688
sVAY1P
p1689
g1
((lp1690
S'type'
p1691
atp1692
Rp1693
sVAY1S
p1694
g1
((lp1695
S'rice'
p1696
aS'ice'
p1697
aS'nice'
p1698
atp1699
Rp1700
sVAY1R
p1701
g1
((lp1702
S'fire'
p1703
atp1704
Rp1705
sVAY1T
p1706
g1
((lp1707
S'right'
p1708
aS'kite'
p1709
aS'light'
p1710
aS'bite'
p1711
aS'fight'
p1712
aS'write'
p1713
aS'night'
p1714
aS'white'
p1715
aS'might'
p1716
atp1717
Rp1718
sVAY1V
p1719
g1
((lp1720
S'live'
p1721
aS'five'
p1722
aS'drive'
p1723
aS"i've"
p1724
atp1725
Rp1726
sVER1ST
p1727
g1
((lp1728
S'worst'
p1729
aS'thirst'
p1730
aS'first'
p1731
atp1732
Rp1733
sVAY1M
p1734
g1
((lp1735
S"i'm"
p1736
aS'crime'
p1737
aS'time'
p1738
atp1739
Rp1740
sVAY1L
p1741
g1
((lp1742
S"i'll"
p1743
aS'smile'
p1744
aS'while'
p1745
aS'dial'
p1746
atp1747
Rp1748
sVAY1N
p1749
g1
((lp1750
S'shine'
p1751
aS'line'
p1752
aS'mine'
p1753
aS'sign'
p1754
atp1755
Rp1756
sVAY1D
p1757
g1
((lp1758
S'wide'
p1759
aS'hide'
p1760
aS'tried'
p1761
aS'ride'
p1762
aS'tied'
p1763
aS"i'd"
p1764
aS'eyed'
p1765
aS'fried'
p1766
aS'side'
p1767
aS'died'
p1768
atp1769
Rp1770
sVAY1F
p1771
g1
((lp1772
S'life'
p1773
atp1774
Rp1775
sVAW1
p1776
g1
((lp1777
S'power'
p1778
aS'housewife'
p1779
aS'downtown'
p1780
aS'how'
p1781
aS'outside'
p1782
aS'saudi'
p1783
aS'lauer'
p1784
aS'southside'
p1785
aS'now'
p1786
atp1787
Rp1788
sVAW0
p1789
g1
((lp1790
S'southampton'
p1791
atp1792
Rp1793
sS'AE1 M'
p1794
g1
((lp1795
S'am'
p1796
atp1797
Rp1798
sVAO1TS
p1799
g1
((lp1800
S'thoughts'
p1801
atp1802
Rp1803
sVAH1T
p1804
g1
((lp1805
S'what'
p1806
aS'shut'
p1807
aS'but'
p1808
atp1809
Rp1810
sVAH1V
p1811
g1
((lp1812
S'love'
p1813
atp1814
Rp1815
sVAH1P
p1816
g1
((lp1817
S'up'
p1818
atp1819
Rp1820
sVAH1S
p1821
g1
((lp1822
S'plus'
p1823
atp1824
Rp1825
sVAH1Z
p1826
g1
((lp1827
S'was'
p1828
atp1829
Rp1830
sVAH1D
p1831
g1
((lp1832
S'mud'
p1833
aS'blood'
p1834
atp1835
Rp1836
sVAH1F
p1837
g1
((lp1838
S'stuff'
p1839
atp1840
Rp1841
sVAH1G
p1842
g1
((lp1843
S'shrug'
p1844
aS'hug'
p1845
aS'ugh'
p1846
atp1847
Rp1848
sVAH1B
p1849
g1
((lp1850
S'club'
p1851
atp1852
Rp1853
sVOY1NTS
p1854
g1
((lp1855
S'joints'
p1856
aS'points'
p1857
atp1858
Rp1859
sVAH1M
p1860
g1
((lp1861
S'come'
p1862
aS'dumb'
p1863
aS'some'
p1864
aS'yum'
p1865
aS'from'
p1866
atp1867
Rp1868
sVAH1N
p1869
g1
((lp1870
S'none'
p1871
aS'gun'
p1872
aS'son'
p1873
aS'ton'
p1874
aS'done'
p1875
aS'one'
p1876
atp1877
Rp1878
sVAH1K
p1879
g1
((lp1880
S'stuck'
p1881
aS'buck'
p1882
aS'truck'
p1883
aS'fuck'
p1884
aS'chuck'
p1885
atp1886
Rp1887
sVIH1PT
p1888
g1
((lp1889
S'slipped'
p1890
aS'tripped'
p1891
atp1892
Rp1893
sVIH1PS
p1894
g1
((lp1895
S'ships'
p1896
aS'flips'
p1897
aS'hips'
p1898
atp1899
Rp1900
sVOW1ZD
p1901
g1
((lp1902
S'closed'
p1903
atp1904
Rp1905
sVEY1VD
p1906
g1
((lp1907
S'saved'
p1908
atp1909
Rp1910
sVEY1VZ
p1911
g1
((lp1912
S'slaves'
p1913
atp1914
Rp1915
sVOY1NT
p1916
g1
((lp1917
S'joint'
p1918
aS'point'
p1919
atp1920
Rp1921
sVIH1NG
p1922
g1
((lp1923
S'king'
p1924
aS'thing'
p1925
aS'bring'
p1926
aS'cling'
p1927
aS'sing'
p1928
aS'ring'
p1929
atp1930
Rp1931
sVEY1LZ
p1932
g1
((lp1933
S'bales'
p1934
atp1935
Rp1936
sVAE1NDZ
p1937
g1
((lp1938
S'bands'
p1939
aS'lands'
p1940
aS'hands'
p1941
atp1942
Rp1943
sVIH1NT
p1944
g1
((lp1945
S"didn't"
p1946
atp1947
Rp1948
sVIH1NS
p1949
g1
((lp1950
S'since'
p1951
atp1952
Rp1953
sVAY1MZ
p1954
g1
((lp1955
S'dimes'
p1956
aS'rhymes'
p1957
aS'times'
p1958
atp1959
Rp1960
sVAE1
p1961
g1
((lp1962
S'ratify'
p1963
aS'ad-lib'
p1964
aS'manager'
p1965
aS'captain'
p1966
aS'afro'
p1967
aS'shadow'
p1968
aS'avid'
p1969
aS'backpack'
p1970
aS'actually'
p1971
aS'gangsta'
p1972
aS'magnify'
p1973
aS'dandelion'
p1974
aS'matches'
p1975
aS'practice'
p1976
aS'caterpillar'
p1977
aS'cannot'
p1978
aS'balancing'
p1979
aS'nasty'
p1980
aS'alma'
p1981
aS'rapper'
p1982
aS'candy'
p1983
aS'anxious'
p1984
aS'ashes'
p1985
aS'laughing'
p1986
aS'fallon'
p1987
aS'taffy'
p1988
aS'habit'
p1989
aS'yeah'
p1990
aS'carry'
p1991
aS'catching'
p1992
aS'taxes'
p1993
aS'happen'
p1994
aS'acid'
p1995
aS'hammer'
p1996
aS'album'
p1997
aS'palette'
p1998
aS"daddy's"
p1999
aS'jackson'
p2000
aS'rascal'
p2001
aS'acting'
p2002
aS'asking'
p2003
aS"grandma's"
p2004
aS'khaki'
p2005
aS'packing'
p2006
aS'santa'
p2007
aS'grandma'
p2008
aS'standpoint'
p2009
aS'chatham'
p2010
aS'acrobat'
p2011
aS'backless'
p2012
aS'talent'
p2013
aS'ashy'
p2014
aS'apple'
p2015
aS'family'
p2016
aS'auntie'
p2017
aS'vagabond'
p2018
aS'standing'
p2019
aS'pastures'
p2020
aS'accent'
p2021
aS'plastic'
p2022
aS'master'
p2023
aS'rancher'
p2024
aS'happy'
p2025
aS'vagabonds'
p2026
aS'maxim'
p2027
aS'baptized'
p2028
aS'atom'
p2029
aS'actual'
p2030
aS'packers'
p2031
aS'raspy'
p2032
aS'matter'
p2033
aS'daffodils'
p2034
aS'apples'
p2035
aS'faggot'
p2036
aS'daddy'
p2037
aS'alley'
p2038
aS'mater'
p2039
aS'gallon'
p2040
aS'bangers'
p2041
aS'lacking'
p2042
aS'dancing'
p2043
aS'campers'
p2044
aS'gravity'
p2045
aS'actor'
p2046
aS'gallo'
p2047
aS'classmates'
p2048
aS'manor'
p2049
aS'after'
p2050
aS'addict'
p2051
aS'cracking'
p2052
aS'faculty'
p2053
aS'backyard'
p2054
aS'alibis'
p2055
aS'tallied'
p2056
aS'tassel'
p2057
aS'ashley'
p2058
aS'snapping'
p2059
aS'magical'
p2060
aS'jacket'
p2061
aS'classy'
p2062
aS'flapping'
p2063
atp2064
Rp2065
sVAE0
p2066
g1
((lp2067
S'tattoo'
p2068
aS'ballet'
p2069
aS'baptized'
p2070
aS'valet'
p2071
atp2072
Rp2073
sVAY1MD
p2074
g1
((lp2075
S'rhymed'
p2076
atp2077
Rp2078
sVOW1B
p2079
g1
((lp2080
S'job'
p2081
atp2082
Rp2083
sVOW1ST
p2084
g1
((lp2085
S'most'
p2086
atp2087
Rp2088
sVAY1VD
p2089
g1
((lp2090
S'lived'
p2091
atp2092
Rp2093
sVAE1M
p2094
g1
((lp2095
S'jam'
p2096
aS'damn'
p2097
atp2098
Rp2099
sVAE1N
p2100
g1
((lp2101
S'zan'
p2102
aS'jan'
p2103
aS'fan'
p2104
aS'plan'
p2105
aS'man'
p2106
aS'than'
p2107
aS'can'
p2108
atp2109
Rp2110
sVAE1K
p2111
g1
((lp2112
S'back'
p2113
aS'mac'
p2114
aS'pac'
p2115
aS'black'
p2116
aS'jack'
p2117
aS'crack'
p2118
aS'knack'
p2119
aS'pack'
p2120
atp2121
Rp2122
sVAE1D
p2123
g1
((lp2124
S'dad'
p2125
aS'had'
p2126
aS'bad'
p2127
aS'pad'
p2128
aS'mad'
p2129
aS'glad'
p2130
atp2131
Rp2132
sVAE1G
p2133
g1
((lp2134
S'rag'
p2135
aS'tag'
p2136
atp2137
Rp2138
sVAE1F
p2139
g1
((lp2140
S'laugh'
p2141
aS'half'
p2142
atp2143
Rp2144
sVAE1B
p2145
g1
((lp2146
S'cab'
p2147
aS'grab'
p2148
aS'tab'
p2149
aS'lab'
p2150
atp2151
Rp2152
sVAE1Z
p2153
g1
((lp2154
S'as'
p2155
aS'has'
p2156
atp2157
Rp2158
sVAE1T
p2159
g1
((lp2160
S'matt'
p2161
aS'pat'
p2162
aS'that'
p2163
aS'fat'
p2164
aS'nat'
p2165
aS'hat'
p2166
atp2167
Rp2168
sVER0M
p2169
g1
((lp2170
S'from'
p2171
atp2172
Rp2173
sVAE1P
p2174
g1
((lp2175
S'map'
p2176
aS'scrap'
p2177
aS'nap'
p2178
aS'rap'
p2179
aS'wrap'
p2180
aS'lap'
p2181
aS'clap'
p2182
atp2183
Rp2184
sVAE1S
p2185
g1
((lp2186
S'ass'
p2187
aS'last'
p2188
aS'gas'
p2189
aS'class'
p2190
aS'pass'
p2191
atp2192
Rp2193
sVAE1SHT
p2194
g1
((lp2195
S'smashed'
p2196
atp2197
Rp2198
sVAE1NGKS
p2199
g1
((lp2200
S'thanks'
p2201
atp2202
Rp2203
sVAO1RTS
p2204
g1
((lp2205
S'forts'
p2206
atp2207
Rp2208
sVAE1SKT
p2209
g1
((lp2210
S'asked'
p2211
atp2212
Rp2213
sVAO1RTH
p2214
g1
((lp2215
S'forth'
p2216
atp2217
Rp2218
sVAA1CH
p2219
g1
((lp2220
S'watch'
p2221
atp2222
Rp2223
sVAH1BZ
p2224
g1
((lp2225
S'dubs'
p2226
atp2227
Rp2228
sVAH1NGK
p2229
g1
((lp2230
S'punk'
p2231
atp2232
Rp2233
sS'D IY1'
p2234
g1
((lp2235
S'dj'
p2236
atp2237
Rp2238
sVIY1LZ
p2239
g1
((lp2240
S'heels'
p2241
atp2242
Rp2243
sVER1LZ
p2244
g1
((lp2245
S"girl's"
p2246
aS'girls'
p2247
atp2248
Rp2249
sVIH1TH
p2250
g1
((lp2251
S'with'
p2252
atp2253
Rp2254
sVIH1TS
p2255
g1
((lp2256
S"it's"
p2257
aS'its'
p2258
aS'splits'
p2259
atp2260
Rp2261
sVAE1CH
p2262
g1
((lp2263
S'catch'
p2264
aS'batch'
p2265
aS'match'
p2266
atp2267
Rp2268
sVEY1JH
p2269
g1
((lp2270
S'rage'
p2271
atp2272
Rp2273
sVAW1DZ
p2274
g1
((lp2275
S'clouds'
p2276
atp2277
Rp2278
sVER1LD
p2279
g1
((lp2280
S'world'
p2281
atp2282
Rp2283
sVIH1SP
p2284
g1
((lp2285
S'crisp'
p2286
atp2287
Rp2288
sVAA1RDZ
p2289
g1
((lp2290
S'cards'
p2291
atp2292
Rp2293
sVOW1
p2294
g1
((lp2295
S'hoping'
p2296
aS'show'
p2297
aS'throwing'
p2298
aS'over'
p2299
aS'bro'
p2300
aS'tony'
p2301
aS'sosa'
p2302
aS'go'
p2303
aS'kobe'
p2304
aS'open'
p2305
aS'blow'
p2306
aS'slow'
p2307
aS'opened'
p2308
aS'no'
p2309
aS'throw'
p2310
aS'okie'
p2311
aS'only'
p2312
aS'joseph'
p2313
aS'low'
p2314
aS'holding'
p2315
aS'bogus'
p2316
aS'noble'
p2317
aS'chauffeurs'
p2318
aS'yo'
p2319
aS'though'
p2320
aS'showing'
p2321
aS'bo'
p2322
aS'mow'
p2323
aS'broker'
p2324
aS'tokens'
p2325
aS'broken'
p2326
aS'know'
p2327
aS'rolling'
p2328
aS'smoking'
p2329
aS'grow'
p2330
aS'joe'
p2331
aS'rollie'
p2332
aS'oh'
p2333
aS'older'
p2334
aS'holiest'
p2335
aS'kosher'
p2336
aS'rodeo'
p2337
aS"goin'"
p2338
aS'so'
p2339
aS'overseas'
p2340
aS'ho'
p2341
atp2342
Rp2343
sVOW0
p2344
g1
((lp2345
S'chauffeurs'
p2346
aS'holistic'
p2347
aS'hotels'
p2348
atp2349
Rp2350
sVOW2
p2351
g1
((lp2352
S'okay'
p2353
atp2354
Rp2355
sVIH0DH
p2356
g1
((lp2357
S'with'
p2358
atp2359
Rp2360
sVAA1RMZ
p2361
g1
((lp2362
S'arms'
p2363
atp2364
Rp2365
sVIY1D
p2366
g1
((lp2367
S'read'
p2368
aS'weed'
p2369
aS'seed'
p2370
aS'need'
p2371
aS'fried'
p2372
aS'speed'
p2373
aS'bleed'
p2374
atp2375
Rp2376
sVIY1F
p2377
g1
((lp2378
S'keef'
p2379
aS'leaf'
p2380
aS'beef'
p2381
atp2382
Rp2383
sVIH1KT
p2384
g1
((lp2385
S'kicked'
p2386
aS'picked'
p2387
atp2388
Rp2389
sVIY1K
p2390
g1
((lp2391
S'week'
p2392
aS'tweak'
p2393
aS'weak'
p2394
aS'speak'
p2395
atp2396
Rp2397
sVIY1M
p2398
g1
((lp2399
S'beam'
p2400
aS'seem'
p2401
aS'team'
p2402
aS'dream'
p2403
aS'cream'
p2404
atp2405
Rp2406
sVIY1L
p2407
g1
((lp2408
S'real'
p2409
aS"she'll"
p2410
aS'deal'
p2411
aS'feel'
p2412
aS'steal'
p2413
aS"he'll"
p2414
atp2415
Rp2416
sVIY1N
p2417
g1
((lp2418
S'spleen'
p2419
aS'queen'
p2420
aS'lean'
p2421
aS'bean'
p2422
aS'green'
p2423
aS'clean'
p2424
aS'seen'
p2425
aS'mean'
p2426
atp2427
Rp2428
sVIY1P
p2429
g1
((lp2430
S'sheep'
p2431
aS'sleep'
p2432
aS'deep'
p2433
aS'keep'
p2434
atp2435
Rp2436
sVIY1S
p2437
g1
((lp2438
S'peace'
p2439
aS'nice'
p2440
atp2441
Rp2442
sVIY1R
p2443
g1
((lp2444
S'hear'
p2445
aS"we're"
p2446
aS'here'
p2447
atp2448
Rp2449
sVIY1
p2450
g1
((lp2451
S'seeing'
p2452
aS've'
p2453
aS'people'
p2454
aS'being'
p2455
aS'tea'
p2456
aS'meetings'
p2457
aS'leaning'
p2458
aS'reader'
p2459
aS'jesus'
p2460
aS'reborn'
p2461
aS'see'
p2462
aS'pieces'
p2463
aS'dreaming'
p2464
aS'sneaking'
p2465
aS'eating'
p2466
aS'peter'
p2467
aS'really'
p2468
aS'even'
p2469
aS'cheeses'
p2470
aS'pizzas'
p2471
aS'genius'
p2472
aS'evenings'
p2473
aS'weekends'
p2474
aS'leafless'
p2475
aS'three'
p2476
aS'demons'
p2477
aS't'
p2478
aS'dino'
p2479
aS'nico'
p2480
aS'beater'
p2481
aS'teaching'
p2482
aS'dreamer'
p2483
aS'easier'
p2484
aS"jesus'"
p2485
aS'kiwi'
p2486
aS'we'
p2487
aS'breathing'
p2488
aS'cremate'
p2489
aS'deeper'
p2490
aS"leno's"
p2491
aS'de'
p2492
aS'leno'
p2493
aS'equals'
p2494
aS'free'
p2495
aS'feeding'
p2496
aS'evil'
p2497
aS"people's"
p2498
aS'feelings'
p2499
aS'screaming'
p2500
aS'realize'
p2501
aS'he'
p2502
aS'me'
p2503
aS'realized'
p2504
aS'e'
p2505
aS'd'
p2506
aS'freedom'
p2507
aS'needing'
p2508
aS'mi'
p2509
aS'leaving'
p2510
aS'pico'
p2511
aS'levis'
p2512
aS'she'
p2513
aS'sleeveless'
p2514
aS'threesome'
p2515
aS'senior'
p2516
aS'feeling'
p2517
aS'creeping'
p2518
aS'teammates'
p2519
atp2520
Rp2521
sVIY0
p2522
g1
((lp2523
S'rely'
p2524
aS'reclining'
p2525
aS'remember'
p2526
aS'replays'
p2527
aS'recruitment'
p2528
aS'enough'
p2529
aS'replay'
p2530
aS'the'
p2531
aS'events'
p2532
atp2533
Rp2534
sVIY1V
p2535
g1
((lp2536
S'steve'
p2537
aS'leave'
p2538
atp2539
Rp2540
sVIY1Z
p2541
g1
((lp2542
S'knees'
p2543
aS'cheese'
p2544
aS'these'
p2545
aS'please'
p2546
aS'trees'
p2547
aS"she's"
p2548
atp2549
Rp2550
sVAO1SH
p2551
g1
((lp2552
S'wash'
p2553
atp2554
Rp2555
sS'K AA1 N'
p2556
g1
((lp2557
S'kanye'
p2558
atp2559
Rp2560
sVAO1LD
p2561
g1
((lp2562
S'called'
p2563
atp2564
Rp2565
sS'N IH1'
p2566
g1
((lp2567
S'nigga'
p2568
atp2569
Rp2570
sVAO1ST
p2571
g1
((lp2572
S'cost'
p2573
aS'last'
p2574
aS'lost'
p2575
atp2576
Rp2577
sVIH1NGKS
p2578
g1
((lp2579
S'thinks'
p2580
atp2581
Rp2582
sVAH0T
p2583
g1
((lp2584
S'that'
p2585
atp2586
Rp2587
sVAH0Z
p2588
g1
((lp2589
S'has'
p2590
aS'was'
p2591
aS"'cause"
p2592
atp2593
Rp2594
sVAA1FT
p2595
g1
((lp2596
S'soft'
p2597
atp2598
Rp2599
sVAH0N
p2600
g1
((lp2601
S'can'
p2602
aS'been'
p2603
aS'than'
p2604
atp2605
Rp2606
sVAH0M
p2607
g1
((lp2608
S"i'm"
p2609
aS'them'
p2610
aS"'em"
p2611
atp2612
Rp2613
sVAE1SK
p2614
g1
((lp2615
S'ask'
p2616
atp2617
Rp2618
sVAA1TS
p2619
g1
((lp2620
S'hots'
p2621
aS'shots'
p2622
atp2623
Rp2624
sVIH1Z
p2625
g1
((lp2626
S'is'
p2627
aS'his'
p2628
atp2629
Rp2630
sVIH1T
p2631
g1
((lp2632
S'hit'
p2633
aS'fit'
p2634
aS'spit'
p2635
aS'get'
p2636
aS'sit'
p2637
aS'it'
p2638
aS'lit'
p2639
aS'split'
p2640
aS'bit'
p2641
aS'shit'
p2642
atp2643
Rp2644
sVIH1V
p2645
g1
((lp2646
S'live'
p2647
aS'give'
p2648
atp2649
Rp2650
sVIH1P
p2651
g1
((lp2652
S'hip'
p2653
aS'grip'
p2654
aS'sip'
p2655
aS'flip'
p2656
aS'ship'
p2657
aS'dip'
p2658
aS'trip'
p2659
aS'whip'
p2660
atp2661
Rp2662
sVIH1R
p2663
g1
((lp2664
S'dear'
p2665
aS"we're"
p2666
aS'year'
p2667
atp2668
Rp2669
sVIH1S
p2670
g1
((lp2671
S'this'
p2672
aS'chris'
p2673
aS'miss'
p2674
atp2675
Rp2676
sVIH1L
p2677
g1
((lp2678
S'spill'
p2679
aS'lil'
p2680
aS'bill'
p2681
aS'til'
p2682
aS'till'
p2683
aS'kill'
p2684
aS"'til"
p2685
aS'still'
p2686
aS'pill'
p2687
aS'chill'
p2688
atp2689
Rp2690
sVIH1M
p2691
g1
((lp2692
S'him'
p2693
atp2694
Rp2695
sVIH1N
p2696
g1
((lp2697
S'win'
p2698
aS'when'
p2699
aS'been'
p2700
aS'chin'
p2701
aS'in'
p2702
aS'gin'
p2703
aS'sin'
p2704
atp2705
Rp2706
sVIH1K
p2707
g1
((lp2708
S'flick'
p2709
aS'vic'
p2710
aS'pic'
p2711
aS'mic'
p2712
aS'dick'
p2713
aS'bic'
p2714
aS'lick'
p2715
aS'sick'
p2716
aS'pick'
p2717
aS'brick'
p2718
aS'kick'
p2719
atp2720
Rp2721
sVIH1D
p2722
g1
((lp2723
S'did'
p2724
aS'rid'
p2725
aS'hid'
p2726
aS'kid'
p2727
atp2728
Rp2729
sVIH1F
p2730
g1
((lp2731
S'if'
p2732
atp2733
Rp2734
sVIH1G
p2735
g1
((lp2736
S'big'
p2737
atp2738
Rp2739
sVIH1B
p2740
g1
((lp2741
S'bib'
p2742
aS'crib'
p2743
atp2744
Rp2745
sVAO1Z
p2746
g1
((lp2747
S'cause'
p2748
aS'was'
p2749
atp2750
Rp2751
sVAO1S
p2752
g1
((lp2753
S'toss'
p2754
aS'sauce'
p2755
aS'boss'
p2756
atp2757
Rp2758
sVAO1R
p2759
g1
((lp2760
S'or'
p2761
aS'door'
p2762
aS'wore'
p2763
aS'for'
p2764
aS'floor'
p2765
aS'pour'
p2766
aS'war'
p2767
aS'four'
p2768
aS'score'
p2769
aS'thor'
p2770
aS'your'
p2771
aS'whore'
p2772
aS'more'
p2773
atp2774
Rp2775
sVAO1P
p2776
g1
((lp2777
S'top'
p2778
aS'drop'
p2779
atp2780
Rp2781
sVAO1T
p2782
g1
((lp2783
S'thought'
p2784
aS'caught'
p2785
aS'taught'
p2786
aS'lot'
p2787
atp2788
Rp2789
sVAO1K
p2790
g1
((lp2791
S'talk'
p2792
atp2793
Rp2794
sVAO1N
p2795
g1
((lp2796
S'lawn'
p2797
aS'dawn'
p2798
atp2799
Rp2800
sVAO1M
p2801
g1
((lp2802
S'bomb'
p2803
atp2804
Rp2805
sVAO1L
p2806
g1
((lp2807
S'all'
p2808
aS'ball'
p2809
aS'wall'
p2810
aS'call'
p2811
aS'fall'
p2812
aS'small'
p2813
aS'tall'
p2814
atp2815
Rp2816
sVAH1TS
p2817
g1
((lp2818
S"what's"
p2819
atp2820
Rp2821
sVAO1G
p2822
g1
((lp2823
S'dog'
p2824
atp2825
Rp2826
sVAO1F
p2827
g1
((lp2828
S'off'
p2829
atp2830
Rp2831
sS'M AH2'
p2832
g1
((lp2833
S'motherfucking'
p2834
aS'motherfucker'
p2835
atp2836
Rp2837
sVEY1K
p2838
g1
((lp2839
S'make'
p2840
aS'lake'
p2841
aS'drake'
p2842
aS'break'
p2843
aS'wake'
p2844
aS'take'
p2845
aS'shake'
p2846
atp2847
Rp2848
sVUW1
p2849
g1
((lp2850
S'uber'
p2851
aS'houston'
p2852
aS'doing'
p2853
aS'funerals'
p2854
aS'beautiful'
p2855
aS'hoover'
p2856
aS'through'
p2857
aS'choosing'
p2858
aS'cruising'
p2859
aS'glue'
p2860
aS'shooting'
p2861
aS'cubicle'
p2862
aS'looser'
p2863
aS'chewing'
p2864
aS'blue'
p2865
aS'mutual'
p2866
aS'suicide'
p2867
aS'ruthless'
p2868
aS'super'
p2869
aS'hugh'
p2870
aS'two'
p2871
aS'cupid'
p2872
aS'to'
p2873
aS'studious'
p2874
aS'lucifer'
p2875
aS'music'
p2876
aS'too'
p2877
aS'booties'
p2878
aS'new'
p2879
aS'you'
p2880
aS'tuesdays'
p2881
aS'shooters'
p2882
aS'blueprint'
p2883
aS'who'
p2884
aS'stupid'
p2885
aS'beauty'
p2886
aS'students'
p2887
aS'lucid'
p2888
aS'knew'
p2889
aS'ooh'
p2890
aS'dougie'
p2891
aS'losing'
p2892
aS'future'
p2893
aS'true'
p2894
aS'mucus'
p2895
aS'grew'
p2896
aS'cooler'
p2897
aS'loosely'
p2898
aS'lucy'
p2899
aS'coupon'
p2900
aS'movies'
p2901
aS'goofy'
p2902
aS'crucifix'
p2903
aS'oooh'
p2904
aS'threw'
p2905
aS'lupus'
p2906
aS'view'
p2907
atp2908
Rp2909
sVUW0
p2910
g1
((lp2911
S'tonight'
p2912
aS'today'
p2913
atp2914
Rp2915
sVOW1KS
p2916
g1
((lp2917
S'folks'
p2918
aS'jokes'
p2919
atp2920
Rp2921
sVAE1NGK
p2922
g1
((lp2923
S'drank'
p2924
aS'tank'
p2925
aS'thank'
p2926
aS'bank'
p2927
atp2928
Rp2929
sVIY1LDZ
p2930
g1
((lp2931
S'fields'
p2932
atp2933
Rp2934
sVUH1SH
p2935
g1
((lp2936
S'push'
p2937
atp2938
Rp2939
sVAO1RTHS
p2940
g1
((lp2941
S'fourths'
p2942
atp2943
Rp2944
sVEH1LTS
p2945
g1
((lp2946
S'melts'
p2947
atp2948
Rp2949
sVIH1FT
p2950
g1
((lp2951
S'lift'
p2952
aS'gift'
p2953
atp2954
Rp2955
sVIH1FS
p2956
g1
((lp2957
S'fifths'
p2958
atp2959
Rp2960
sVOY1L
p2961
g1
((lp2962
S'soil'
p2963
atp2964
Rp2965
sVOY1S
p2966
g1
((lp2967
S'voice'
p2968
aS'choice'
p2969
atp2970
Rp2971
sVOY1Z
p2972
g1
((lp2973
S'boys'
p2974
atp2975
Rp2976
sVAH1MP
p2977
g1
((lp2978
S'jump'
p2979
atp2980
Rp2981
sVAH1MZ
p2982
g1
((lp2983
S'gums'
p2984
aS'slums'
p2985
atp2986
Rp2987
sVUH1R
p2988
g1
((lp2989
S"you're"
p2990
aS'tour'
p2991
aS'sure'
p2992
aS'your'
p2993
aS'pure'
p2994
atp2995
Rp2996
sVUH1T
p2997
g1
((lp2998
S'put'
p2999
aS'foot'
p3000
atp3001
Rp3002
sVUH1K
p3003
g1
((lp3004
S'book'
p3005
aS'took'
p3006
aS'look'
p3007
atp3008
Rp3009
sVUH1L
p3010
g1
((lp3011
S'pull'
p3012
aS'full'
p3013
aS'bull'
p3014
atp3015
Rp3016
sVUH1D
p3017
g1
((lp3018
S'good'
p3019
aS"you'd"
p3020
aS'would'
p3021
aS'could'
p3022
aS'should'
p3023
aS'hood'
p3024
atp3025
Rp3026
sVUH1F
p3027
g1
((lp3028
S'roof'
p3029
atp3030
Rp3031
sVOW1Z
p3032
g1
((lp3033
S'toes'
p3034
aS'nose'
p3035
aS'goes'
p3036
aS'hoes'
p3037
aS'close'
p3038
aS'shows'
p3039
aS'those'
p3040
aS'clothes'
p3041
atp3042
Rp3043
sVAY1NZ
p3044
g1
((lp3045
S'signs'
p3046
atp3047
Rp3048
sVOW1P
p3049
g1
((lp3050
S'hope'
p3051
atp3052
Rp3053
sVOW1S
p3054
g1
((lp3055
S'close'
p3056
aS'most'
p3057
atp3058
Rp3059
sVEY1PS
p3060
g1
((lp3061
S'tapes'
p3062
atp3063
Rp3064
sVEY1JHD
p3065
g1
((lp3066
S'aged'
p3067
atp3068
Rp3069
sVOW1K
p3070
g1
((lp3071
S'joke'
p3072
aS'poke'
p3073
aS'smoke'
p3074
aS'woke'
p3075
aS'choke'
p3076
atp3077
Rp3078
sVOW1M
p3079
g1
((lp3080
S'home'
p3081
atp3082
Rp3083
sVOW1L
p3084
g1
((lp3085
S'bowl'
p3086
aS'sole'
p3087
aS'whole'
p3088
aS'soul'
p3089
aS'roll'
p3090
atp3091
Rp3092
sVOW1N
p3093
g1
((lp3094
S'grown'
p3095
aS'phone'
p3096
aS'stone'
p3097
aS'own'
p3098
aS"don't"
p3099
atp3100
Rp3101
sVAY1ND
p3102
g1
((lp3103
S'kind'
p3104
aS'lined'
p3105
aS'find'
p3106
aS'signed'
p3107
atp3108
Rp3109
sVAY1NG
p3110
g1
((lp3111
S'trying'
p3112
atp3113
Rp3114
sVAA1KS
p3115
g1
((lp3116
S'fox'
p3117
aS'socks'
p3118
aS'rocks'
p3119
atp3120
Rp3121
sVOW1D
p3122
g1
((lp3123
S'toed'
p3124
aS'road'
p3125
atp3126
Rp3127
sVIH1FTHS
p3128
g1
((lp3129
S'fifths'
p3130
atp3131
Rp3132
sVER0Z
p3133
g1
((lp3134
S'yours'
p3135
aS'years'
p3136
atp3137
Rp3138
sVEY1ND
p3139
g1
((lp3140
S'stained'
p3141
atp3142
Rp3143
sVAA1PS
p3144
g1
((lp3145
S'pops'
p3146
aS'cops'
p3147
atp3148
Rp3149
sVAA1PT
p3150
g1
((lp3151
S'popped'
p3152
atp3153
Rp3154
sVEY1NJH
p3155
g1
((lp3156
S'change'
p3157
atp3158
Rp3159
sVEY1NT
p3160
g1
((lp3161
S"ain't"
p3162
atp3163
Rp3164
sVAE1GZ
p3165
g1
((lp3166
S'bags'
p3167
atp3168
Rp3169
sVEY1NZ
p3170
g1
((lp3171
S'chains'
p3172
atp3173
Rp3174
sVAE1NS
p3175
g1
((lp3176
S'dance'
p3177
aS'chance'
p3178
atp3179
Rp3180
sVAE1NT
p3181
g1
((lp3182
S"can't"
p3183
atp3184
Rp3185
sVEH1RZ
p3186
g1
((lp3187
S"there's"
p3188
aS'stairs'
p3189
aS'squares'
p3190
atp3191
Rp3192
sVAE1NZ
p3193
g1
((lp3194
S'fans'
p3195
aS'hands'
p3196
atp3197
Rp3198
sVIY1MZ
p3199
g1
((lp3200
S'dreams'
p3201
atp3202
Rp3203
sVAE1ND
p3204
g1
((lp3205
S'and'
p3206
aS'land'
p3207
aS'brand'
p3208
aS'hand'
p3209
aS'sand'
p3210
aS'stand'
p3211
aS'grand'
p3212
atp3213
Rp3214
sVAE1NG
p3215
g1
((lp3216
S'dang'
p3217
aS'sang'
p3218
aS'bang'
p3219
aS'hang'
p3220
aS'gang'
p3221
atp3222
Rp3223
sVEH1RD
p3224
g1
((lp3225
S'scared'
p3226
atp3227
Rp3228
sVUW1Z
p3229
g1
((lp3230
S'use'
p3231
aS'shoes'
p3232
aS'views'
p3233
aS"who's"
p3234
aS'lose'
p3235
aS'chews'
p3236
aS'blues'
p3237
aS'news'
p3238
atp3239
Rp3240
sVUW1V
p3241
g1
((lp3242
S'move'
p3243
aS"you've"
p3244
atp3245
Rp3246
sVUW1T
p3247
g1
((lp3248
S'shoot'
p3249
aS'cute'
p3250
aS'fruit'
p3251
aS'boot'
p3252
aS'suit'
p3253
atp3254
Rp3255
sVUW1S
p3256
g1
((lp3257
S'juice'
p3258
aS'use'
p3259
aS'deuce'
p3260
atp3261
Rp3262
sVUW1R
p3263
g1
((lp3264
S"you're"
p3265
atp3266
Rp3267
sVUW1M
p3268
g1
((lp3269
S'room'
p3270
atp3271
Rp3272
sVUW1L
p3273
g1
((lp3274
S'fool'
p3275
aS'school'
p3276
aS'cool'
p3277
atp3278
Rp3279
sVUW1K
p3280
g1
((lp3281
S'juke'
p3282
atp3283
Rp3284
sVUW1F
p3285
g1
((lp3286
S'poof'
p3287
aS'roof'
p3288
aS'proof'
p3289
atp3290
Rp3291
sVUW1D
p3292
g1
((lp3293
S'food'
p3294
aS'dude'
p3295
aS"you'd"
p3296
atp3297
Rp3298
sVIH1CH
p3299
g1
((lp3300
S'bitch'
p3301
aS'rich'
p3302
atp3303
Rp3304
sVIH1LZ
p3305
g1
((lp3306
S'kills'
p3307
atp3308
Rp3309
sVOW1NZ
p3310
g1
((lp3311
S'stones'
p3312
atp3313
Rp3314
sVEH1ND
p3315
g1
((lp3316
S'end'
p3317
aS'spend'
p3318
aS'friend'
p3319
atp3320
Rp3321
sVOW1NT
p3322
g1
((lp3323
S"won't"
p3324
aS"don't"
p3325
atp3326
Rp3327
sVIH1LT
p3328
g1
((lp3329
S'spilt'
p3330
atp3331
Rp3332
sVEH1NS
p3333
g1
((lp3334
S'tense'
p3335
aS'sense'
p3336
atp3337
Rp3338
sVIH1LK
p3339
g1
((lp3340
S'milk'
p3341
atp3342
Rp3343
sVEH1NT
p3344
g1
((lp3345
S'went'
p3346
atp3347
Rp3348
sVEH1NZ
p3349
g1
((lp3350
S'friends'
p3351
atp3352
Rp3353
sVAE1PT
p3354
g1
((lp3355
S'trapped'
p3356
atp3357
Rp3358
sVAE1PS
p3359
g1
((lp3360
S'raps'
p3361
atp3362
Rp3363
sVAA1RZ
p3364
g1
((lp3365
S'cars'
p3366
aS'scars'
p3367
aS'gars'
p3368
atp3369
Rp3370
sVEH1KST
p3371
g1
((lp3372
S'next'
p3373
atp3374
Rp3375
sVAA1B
p3376
g1
((lp3377
S'job'
p3378
atp3379
Rp3380
sVER1TS
p3381
g1
((lp3382
S'shirts'
p3383
atp3384
Rp3385
sVAA1D
p3386
g1
((lp3387
S'god'
p3388
aS'squad'
p3389
aS'rod'
p3390
atp3391
Rp3392
sVAA1G
p3393
g1
((lp3394
S'hog'
p3395
aS'jog'
p3396
atp3397
Rp3398
sVAA1K
p3399
g1
((lp3400
S'kok'
p3401
aS'clock'
p3402
aS'stock'
p3403
aS'rock'
p3404
atp3405
Rp3406
sVAA1M
p3407
g1
((lp3408
S'bomb'
p3409
aS'mom'
p3410
atp3411
Rp3412
sVAA1L
p3413
g1
((lp3414
S'fall'
p3415
atp3416
Rp3417
sVAA1N
p3418
g1
((lp3419
S'xan'
p3420
atp3421
Rp3422
sVAA1P
p3423
g1
((lp3424
S'shop'
p3425
aS'cop'
p3426
aS'bop'
p3427
aS'top'
p3428
aS'drop'
p3429
aS'stop'
p3430
aS'pop'
p3431
atp3432
Rp3433
sVAA1S
p3434
g1
((lp3435
S'boss'
p3436
atp3437
Rp3438
sVAA1R
p3439
g1
((lp3440
S'our'
p3441
aS'car'
p3442
atp3443
Rp3444
sVAA1T
p3445
g1
((lp3446
S'shot'
p3447
aS'caught'
p3448
aS'spot'
p3449
aS'lot'
p3450
aS'not'
p3451
aS'got'
p3452
atp3453
Rp3454
sVAA1Z
p3455
g1
((lp3456
S'cause'
p3457
aS'was'
p3458
aS'cars'
p3459
atp3460
Rp3461
sVER1TH
p3462
g1
((lp3463
S'earth'
p3464
aS'worth'
p3465
atp3466
Rp3467
s.