ccollections
defaultdict
p0
(c__main__
dd
p1
tp2
Rp3
I1
g0
(c__builtin__
float
p4
tp5
Rp6
I0
F1.0
ssI2
g0
(g4
tp7
Rp8
I0
F0.5625
sI1
F0.4375
ssI3
g0
(g4
tp9
Rp10
I0
F0.34328358208955223
sI1
F0.3522388059701492
sI2
F0.3044776119402985
ssI4
g0
(g4
tp11
Rp12
I0
F0.23799582463465555
sI1
F0.23799582463465555
sI2
F0.3277661795407098
sI3
F0.19624217118997914
ssI5
g0
(g4
tp13
Rp14
I0
F0.17836812144212524
sI1
F0.23908918406072105
sI2
F0.21062618595825428
sI3
F0.2239089184060721
sI4
F0.14800759013282733
ssI6
g0
(g4
tp15
Rp16
I0
F0.17488789237668162
sI1
F0.11958146487294469
sI2
F0.19880418535127056
sI3
F0.18086696562032886
sI4
F0.20179372197309417
sI5
F0.12406576980568013
ssI7
g0
(g4
tp17
Rp18
I0
F0.12824010914051842
sI1
F0.16371077762619374
sI2
F0.1432469304229195
sI3
F0.165075034106412
sI4
F0.1432469304229195
sI5
F0.13233287858117326
sI6
F0.12414733969986358
ssI8
g0
(g4
tp19
Rp20
I0
F0.1134020618556701
sI1
F0.10898379970544919
sI2
F0.15905743740795286
sI3
F0.09425625920471281
sI4
F0.15758468335787923
sI5
F0.13843888070692195
sI6
F0.13107511045655376
sI7
F0.09720176730486009
ssI9
g0
(g4
tp21
Rp22
I0
F0.10142630744849446
sI1
F0.09350237717908082
sI2
F0.13787638668779714
sI3
F0.11568938193343899
sI4
F0.11885895404120443
sI5
F0.10935023771790808
sI6
F0.10935023771790808
sI7
F0.13629160063391443
sI8
F0.07765451664025357
ssI10
g0
(g4
tp23
Rp24
I0
F0.08744038155802862
sI1
F0.07631160572337042
sI2
F0.1383147853736089
sI3
F0.10492845786963434
sI4
F0.10015898251192369
sI5
F0.0985691573926868
sI6
F0.09379968203497616
sI7
F0.11128775834658187
sI8
F0.10651828298887123
sI9
F0.08267090620031796
ssI11
g0
(g4
tp25
Rp26
I0
F0.0888030888030888
sI1
F0.09073359073359073
sI2
F0.08301158301158301
sI3
F0.1138996138996139
sI4
F0.09652509652509653
sI5
F0.09073359073359073
sI6
F0.09073359073359073
sI7
F0.0888030888030888
sI8
F0.08687258687258688
sI9
F0.09652509652509653
sI10
F0.07335907335907337
ssI12
g0
(g4
tp27
Rp28
I0
F0.07916666666666666
sI1
F0.06458333333333334
sI2
F0.1125
sI3
F0.07708333333333334
sI4
F0.12083333333333333
sI5
F0.06666666666666667
sI6
F0.10208333333333333
sI7
F0.08125
sI8
F0.075
sI9
F0.07083333333333333
sI10
F0.08958333333333333
sI11
F0.06041666666666667
ssI13
g0
(g4
tp29
Rp30
I0
F0.06389776357827476
sI1
F0.054313099041533544
sI2
F0.10223642172523961
sI3
F0.0926517571884984
sI4
F0.0670926517571885
sI5
F0.08306709265175719
sI6
F0.07028753993610223
sI7
F0.08626198083067092
sI8
F0.06389776357827476
sI9
F0.07987220447284345
sI10
F0.07987220447284345
sI11
F0.09584664536741214
sI12
F0.06070287539936102
ssI14
g0
(g4
tp31
Rp32
I0
F0.05232558139534884
sI1
F0.06395348837209303
sI2
F0.06976744186046512
sI3
F0.046511627906976744
sI4
F0.12209302325581395
sI5
F0.08139534883720931
sI6
F0.11046511627906977
sI7
F0.06395348837209303
sI8
F0.06976744186046512
sI9
F0.046511627906976744
sI10
F0.06976744186046512
sI11
F0.0872093023255814
sI12
F0.0755813953488372
sI13
F0.040697674418604654
ssI15
g0
(g4
tp33
Rp34
I0
F0.0963855421686747
sI1
F0.07228915662650602
sI2
F0.0963855421686747
sI3
F0.03614457831325301
sI4
F0.024096385542168676
sI5
F0.12048192771084337
sI6
F0.0963855421686747
sI7
F0.04819277108433735
sI8
F0.060240963855421686
sI9
F0.060240963855421686
sI10
F0.0963855421686747
sI11
F0.03614457831325301
sI12
F0.060240963855421686
sI13
F0.060240963855421686
sI14
F0.03614457831325301
ssI16
g0
(g4
tp35
Rp36
I0
F0.07317073170731707
sI1
F0.04878048780487805
sI2
F0.04878048780487805
sI3
F0.07317073170731707
sI4
F0.04878048780487805
sI5
F0.04878048780487805
sI6
F0.04878048780487805
sI7
F0.07317073170731707
sI8
F0.0975609756097561
sI9
F0.024390243902439025
sI10
F0.07317073170731707
sI11
F0.0975609756097561
sI12
F0.07317073170731707
sI13
F0.04878048780487805
sI14
F0.07317073170731707
sI15
F0.04878048780487805
ssI17
g0
(g4
tp37
Rp38
I0
F0.02857142857142857
sI1
F0.11428571428571428
sI2
F0.05714285714285714
sI3
F0.08571428571428572
sI4
F0.02857142857142857
sI5
F0.05714285714285714
sI6
F0.02857142857142857
sI7
F0.08571428571428572
sI8
F0.05714285714285714
sI9
F0.08571428571428572
sI10
F0.11428571428571428
sI11
F0.02857142857142857
sI12
F0.05714285714285714
sI13
F0.02857142857142857
sI14
F0.02857142857142857
sI15
F0.05714285714285714
sI16
F0.05714285714285714
ssI18
g0
(g4
tp39
Rp40
I0
F0.03773584905660377
sI1
F0.03773584905660377
sI2
F0.05660377358490566
sI3
F0.03773584905660377
sI4
F0.03773584905660377
sI5
F0.03773584905660377
sI6
F0.11320754716981132
sI7
F0.05660377358490566
sI8
F0.09433962264150944
sI9
F0.07547169811320754
sI10
F0.05660377358490566
sI11
F0.11320754716981132
sI12
F0.05660377358490566
sI13
F0.018867924528301886
sI14
F0.05660377358490566
sI15
F0.05660377358490566
sI16
F0.018867924528301886
sI17
F0.03773584905660377
ssI19
g0
(g4
tp41
Rp42
I1
F0.05128205128205128
sI2
F0.05128205128205128
sI3
F0.07692307692307693
sI5
F0.05128205128205128
sI6
F0.05128205128205128
sI7
F0.05128205128205128
sI8
F0.10256410256410256
sI9
F0.05128205128205128
sI10
F0.07692307692307693
sI11
F0.02564102564102564
sI12
F0.02564102564102564
sI13
F0.02564102564102564
sI14
F0.05128205128205128
sI15
F0.07692307692307693
sI16
F0.07692307692307693
sI17
F0.07692307692307693
sI18
F0.07692307692307693
ssI20
g0
(g4
tp43
Rp44
I0
F0.058823529411764705
sI2
F0.058823529411764705
sI3
F0.11764705882352941
sI6
F0.058823529411764705
sI7
F0.058823529411764705
sI8
F0.11764705882352941
sI10
F0.058823529411764705
sI13
F0.058823529411764705
sI14
F0.11764705882352941
sI16
F0.11764705882352941
sI18
F0.058823529411764705
sI19
F0.11764705882352941
ssI21
g0
(g4
tp45
Rp46
I2
F0.07692307692307693
sI3
F0.15384615384615385
sI5
F0.23076923076923078
sI6
F0.07692307692307693
sI8
F0.07692307692307693
sI10
F0.07692307692307693
sI13
F0.15384615384615385
sI17
F0.07692307692307693
sI18
F0.07692307692307693
ssI22
g0
(g4
tp47
Rp48
I0
F0.1
sI1
F0.05
sI2
F0.05
sI6
F0.05
sI7
F0.1
sI8
F0.1
sI9
F0.05
sI10
F0.05
sI11
F0.05
sI13
F0.05
sI14
F0.1
sI18
F0.1
sI19
F0.1
sI20
F0.05
ssI23
g0
(g4
tp49
Rp50
I2
F0.08333333333333333
sI3
F0.08333333333333333
sI6
F0.08333333333333333
sI8
F0.25
sI14
F0.08333333333333333
sI18
F0.08333333333333333
sI19
F0.08333333333333333
sI20
F0.16666666666666666
sI22
F0.08333333333333333
ssI24
g0
(g4
tp51
Rp52
I0
F0.15384615384615385
sI2
F0.07692307692307693
sI7
F0.07692307692307693
sI8
F0.07692307692307693
sI9
F0.07692307692307693
sI10
F0.07692307692307693
sI11
F0.07692307692307693
sI13
F0.07692307692307693
sI14
F0.07692307692307693
sI17
F0.07692307692307693
sI18
F0.07692307692307693
sI22
F0.07692307692307693
ssI25
g0
(g4
tp53
Rp54
I0
F0.1111111111111111
sI6
F0.1111111111111111
sI8
F0.1111111111111111
sI11
F0.1111111111111111
sI12
F0.1111111111111111
sI18
F0.2222222222222222
sI19
F0.1111111111111111
sI24
F0.1111111111111111
ssI26
g0
(g4
tp55
Rp56
I1
F0.08333333333333333
sI2
F0.08333333333333333
sI3
F0.08333333333333333
sI5
F0.16666666666666666
sI9
F0.08333333333333333
sI10
F0.08333333333333333
sI13
F0.08333333333333333
sI15
F0.08333333333333333
sI17
F0.08333333333333333
sI19
F0.08333333333333333
sI21
F0.08333333333333333
ssI27
g0
(g4
tp57
Rp58
I2
F0.05
sI3
F0.05
sI4
F0.05
sI6
F0.15
sI8
F0.1
sI11
F0.05
sI12
F0.05
sI14
F0.05
sI18
F0.15
sI19
F0.1
sI20
F0.05
sI22
F0.05
sI23
F0.05
sI25
F0.05
ssI28
g0
(g4
tp59
Rp60
I2
F0.14285714285714285
sI3
F0.07142857142857142
sI7
F0.07142857142857142
sI8
F0.07142857142857142
sI9
F0.07142857142857142
sI10
F0.07142857142857142
sI11
F0.07142857142857142
sI15
F0.07142857142857142
sI17
F0.14285714285714285
sI19
F0.07142857142857142
sI24
F0.07142857142857142
sI26
F0.07142857142857142
ssI29
g0
(g4
tp61
Rp62
I0
F0.0625
sI2
F0.0625
sI3
F0.0625
sI5
F0.0625
sI9
F0.0625
sI10
F0.125
sI15
F0.0625
sI16
F0.0625
sI17
F0.0625
sI19
F0.0625
sI21
F0.0625
sI24
F0.0625
sI25
F0.0625
sI26
F0.0625
sI28
F0.0625
ssI30
g0
(g4
tp63
Rp64
I1
F0.1111111111111111
sI3
F0.1111111111111111
sI6
F0.1111111111111111
sI8
F0.1111111111111111
sI11
F0.1111111111111111
sI18
F0.1111111111111111
sI25
F0.1111111111111111
sI26
F0.1111111111111111
sI27
F0.1111111111111111
ssI31
g0
(g4
tp65
Rp66
I3
F0.09090909090909091
sI4
F0.09090909090909091
sI6
F0.09090909090909091
sI8
F0.09090909090909091
sI12
F0.09090909090909091
sI18
F0.18181818181818182
sI19
F0.09090909090909091
sI25
F0.09090909090909091
sI27
F0.18181818181818182
ssI32
g0
(g4
tp67
Rp68
I2
F0.07692307692307693
sI3
F0.07692307692307693
sI7
F0.07692307692307693
sI9
F0.07692307692307693
sI10
F0.07692307692307693
sI11
F0.07692307692307693
sI15
F0.07692307692307693
sI17
F0.07692307692307693
sI19
F0.07692307692307693
sI20
F0.07692307692307693
sI26
F0.07692307692307693
sI28
F0.07692307692307693
sI29
F0.07692307692307693
ssI33
g0
(g4
tp69
Rp70
I6
F0.1111111111111111
sI8
F0.1111111111111111
sI11
F0.1111111111111111
sI18
F0.1111111111111111
sI19
F0.1111111111111111
sI25
F0.1111111111111111
sI27
F0.1111111111111111
sI30
F0.1111111111111111
sI31
F0.1111111111111111
ssI34
g0
(g4
tp71
Rp72
I2
F0.16666666666666666
sI8
F0.16666666666666666
sI14
F0.16666666666666666
sI17
F0.16666666666666666
sI24
F0.16666666666666666
sI28
F0.16666666666666666
ssI35
g0
(g4
tp73
Rp74
I0
F0.3333333333333333
sI22
F0.3333333333333333
sI7
F0.3333333333333333
ssI36
g0
(g4
tp75
Rp76
I3
F0.5
sI30
F0.5
ssI37
g0
(g4
tp77
Rp78
I11
F0.5
sI4
F0.5
ssI38
g0
(g4
tp79
Rp80
I33
F0.14285714285714285
sI8
F0.14285714285714285
sI18
F0.14285714285714285
sI19
F0.14285714285714285
sI25
F0.14285714285714285
sI27
F0.14285714285714285
sI31
F0.14285714285714285
ssI39
g0
(g4
tp81
Rp82
I16
F0.2
sI10
F0.2
sI29
F0.2
sI5
F0.2
sI21
F0.2
ssI40
g0
(g4
tp83
Rp84
I5
F0.16666666666666666
sI39
F0.16666666666666666
sI10
F0.16666666666666666
sI16
F0.16666666666666666
sI21
F0.16666666666666666
sI29
F0.16666666666666666
ssI41
g0
(g4
tp85
Rp86
I33
F0.1
sI3
F0.1
sI36
F0.1
sI6
F0.1
sI8
F0.1
sI11
F0.1
sI18
F0.1
sI25
F0.1
sI27
F0.1
sI30
F0.1
ssI42
g0
(g4
tp87
Rp88
I1
F1.0
ssI43
g0
(g4
tp89
Rp90
I1
F0.5
sI42
F0.5
ssI44
g0
(g4
tp91
Rp92
I9
F1.0
ssI45
g0
(g4
tp93
Rp94
I11
F0.3333333333333333
sI4
F0.3333333333333333
sI37
F0.3333333333333333
ssI46
g0
(g4
tp95
Rp96
I33
F0.1111111111111111
sI6
F0.1111111111111111
sI8
F0.1111111111111111
sI41
F0.1111111111111111
sI11
F0.1111111111111111
sI18
F0.1111111111111111
sI25
F0.1111111111111111
sI27
F0.1111111111111111
sI30
F0.1111111111111111
ssI47
g0
(g4
tp97
Rp98
I32
F0.06666666666666667
sI33
F0.06666666666666667
sI38
F0.06666666666666667
sI6
F0.06666666666666667
sI8
F0.06666666666666667
sI41
F0.06666666666666667
sI11
F0.06666666666666667
sI46
F0.06666666666666667
sI18
F0.06666666666666667
sI19
F0.06666666666666667
sI20
F0.06666666666666667
sI25
F0.06666666666666667
sI27
F0.06666666666666667
sI30
F0.06666666666666667
sI31
F0.06666666666666667
ssI48
g0
(g4
tp99
Rp100
I33
F0.0625
sI6
F0.0625
sI39
F0.0625
sI8
F0.0625
sI41
F0.0625
sI10
F0.0625
sI11
F0.0625
sI46
F0.0625
sI47
F0.0625
sI16
F0.0625
sI40
F0.0625
sI18
F0.0625
sI25
F0.0625
sI27
F0.0625
sI29
F0.0625
sI30
F0.0625
ssI49
g0
(g4
tp101
Rp102
I11
F0.25
sI4
F0.25
sI37
F0.25
sI45
F0.25
ssI50
g0
(g4
tp103
Rp104
I33
F0.08333333333333333
sI6
F0.08333333333333333
sI8
F0.08333333333333333
sI41
F0.08333333333333333
sI11
F0.08333333333333333
sI46
F0.08333333333333333
sI47
F0.08333333333333333
sI48
F0.08333333333333333
sI18
F0.08333333333333333
sI25
F0.08333333333333333
sI27
F0.08333333333333333
sI30
F0.08333333333333333
ss.