ccollections
defaultdict
p0
(c__builtin__
set
p1
tp2
Rp3
VIH0Z
p4
g1
((lp5
S'is'
p6
aS'his'
p7
atp8
Rp9
sVIH0T
p10
g1
((lp11
S'it'
p12
atp13
Rp14
sVIH0S
p15
g1
((lp16
S'this'
p17
atp18
Rp19
sVAO1KT
p20
g1
((lp21
S'talked'
p22
aS'walked'
p23
atp24
Rp25
sVAH2
p26
g1
((lp27
S'understands'
p28
aS'understand'
p29
aS'unfamiliar'
p30
aS'whatever'
p31
atp32
Rp33
sVIH0N
p34
g1
((lp35
S'been'
p36
aS'in'
p37
atp38
Rp39
sVAH0
p40
g1
((lp41
S'salon'
p42
aS'proposed'
p43
aS'possessions'
p44
aS'complain'
p45
aS'to'
p46
aS'cassette'
p47
aS'material'
p48
aS'records'
p49
aS'cannot'
p50
aS'safari'
p51
aS'competing'
p52
aS'kahuna'
p53
aS'chanel'
p54
aS'apart'
p55
aS'submission'
p56
aS'approach'
p57
aS'lewinsky'
p58
aS'addicted'
p59
aS'maclaren'
p60
aS'another'
p61
aS'recruitment'
p62
aS'connect'
p63
aS'spaghetti'
p64
aS'chicago'
p65
aS'away'
p66
aS'debated'
p67
aS'connection'
p68
aS'above'
p69
aS'supplier'
p70
aS'appeal'
p71
aS'officially'
p72
aS'salute'
p73
aS'umbrella'
p74
aS'civilians'
p75
aS'alone'
p76
aS'along'
p77
aS'protect'
p78
aS'canadian'
p79
aS'collapsing'
p80
aS'casino'
p81
aS'mcqueen'
p82
aS'galore'
p83
aS'american'
p84
aS'militia'
p85
aS'supply'
p86
aS'confide'
p87
aS'abusive'
p88
aS'confuse'
p89
aS'esteem'
p90
aS'suspended'
p91
aS'apologize'
p92
aS'america'
p93
aS'support'
p94
aS'accent'
p95
aS'specifically'
p96
aS'themselves'
p97
aS'banana'
p98
aS'today'
p99
aS'a'
p100
aS'prophetic'
p101
aS'apparent'
p102
aS'about'
p103
aS'ungrateful'
p104
aS'account'
p105
aS'confucius'
p106
aS'until'
p107
aS'record'
p108
aS'appealing'
p109
aS'suppose'
p110
aS'supposed'
p111
aS'abandon'
p112
aS'control'
p113
aS'patrol'
p114
aS'neglected'
p115
aS'tonight'
p116
aS'alike'
p117
aS'allege'
p118
aS'again'
p119
aS'afraid'
p120
aS'agendas'
p121
aS'aside'
p122
aS'deposit'
p123
aS'de'
p124
aS'unless'
p125
aS'promoters'
p126
aS'upon'
p127
aS'update'
p128
aS'reflect'
p129
aS'addict'
p130
aS'machete'
p131
aS'magician'
p132
aS'ago'
p133
aS'reflection'
p134
aS'assume'
p135
aS'sometimes'
p136
aS'together'
p137
aS'concrete'
p138
aS'compete'
p139
aS'subpoena'
p140
aS'position'
p141
aS'the'
p142
atp143
Rp144
sVAH1
p145
g1
((lp146
S'buzzer'
p147
aS'summer'
p148
aS'humble'
p149
aS'color'
p150
aS'money'
p151
aS'wonderland'
p152
aS'wonder'
p153
aS'number'
p154
aS"runnin'"
p155
aS'budget'
p156
aS'honey'
p157
aS'culture'
p158
aS'colors'
p159
aS'sometime'
p160
aS'london'
p161
aS'something'
p162
aS'suckers'
p163
aS'touchdown'
p164
aS'umbrella'
p165
aS'trumpet'
p166
aS'custody'
p167
aS'dozen'
p168
aS'rundown'
p169
aS"doesn't"
p170
aS'monkey'
p171
aS'hunting'
p172
aS'rumbles'
p173
aS'somewhere'
p174
aS'cousins'
p175
aS'buckle'
p176
aS'hungry'
p177
aS'hurricane'
p178
aS'bruckner'
p179
aS'fucking'
p180
aS'other'
p181
aS'lullabies'
p182
aS'wondrous'
p183
aS'under'
p184
aS'covered'
p185
aS'hundred'
p186
aS'bunny'
p187
aS'somehow'
p188
aS'someone'
p189
aS'somebody'
p190
aS'mustard'
p191
aS'funny'
p192
aS'huggy'
p193
aS'update'
p194
aS'stutter'
p195
aS'lucky'
p196
aS'butlers'
p197
aS'hundreds'
p198
aS'chuckie'
p199
aS'running'
p200
aS'cutting'
p201
aS'putting'
p202
aS'uhh'
p203
aS'sunny'
p204
aS'coming'
p205
aS'nothing'
p206
aS'cousin'
p207
aS'rucker'
p208
aS'cupcake'
p209
aS'butter'
p210
aS'couple'
p211
aS'justin'
p212
aS"wasn't"
p213
aS'study'
p214
aS'sometimes'
p215
aS'bucket'
p216
aS'brother'
p217
aS'public'
p218
aS'dusted'
p219
aS"nothin'"
p220
aS'jumping'
p221
aS'motherfuckers'
p222
aS'mumble'
p223
aS'mother'
p224
aS'husky'
p225
aS'the'
p226
aS'punchline'
p227
aS'sundown'
p228
aS'russian'
p229
aS'numbers'
p230
atp231
Rp232
sVIH0F
p233
g1
((lp234
S'if'
p235
atp236
Rp237
sVIH0D
p238
g1
((lp239
S'did'
p240
aS'good'
p241
atp242
Rp243
sVUW1TH
p244
g1
((lp245
S'youth'
p246
aS'booth'
p247
aS'truth'
p248
atp249
Rp250
sVEH2
p251
g1
((lp252
S'generation'
p253
aS'lsd'
p254
aS'beneficial'
p255
atp256
Rp257
sVER1JH
p258
g1
((lp259
S'merge'
p260
atp261
Rp262
sVEH0
p263
g1
((lp264
S'employee'
p265
aS'genitalia'
p266
aS'themselves'
p267
aS'entrusted'
p268
aS'entitled'
p269
atp270
Rp271
sVEH1
p272
g1
((lp273
S'letterman'
p274
aS'empire'
p275
aS'sentence'
p276
aS"tellin'"
p277
aS'lessons'
p278
aS'friendship'
p279
aS'envy'
p280
aS'paris'
p281
aS'regulars'
p282
aS'senseless'
p283
aS'desktop'
p284
aS'better'
p285
aS'aaron'
p286
aS'parents'
p287
aS'lemme'
p288
aS'derek'
p289
aS'ghetto'
p290
aS'texas'
p291
aS'belly'
p292
aS"leno's"
p293
aS'records'
p294
aS'every'
p295
aS'wednesdays'
p296
aS'legendary'
p297
aS'wedding'
p298
aS'telling'
p299
aS'endless'
p300
aS'enemy'
p301
aS'heaven'
p302
aS'pregnant'
p303
aS'everytime'
p304
aS'benford'
p305
aS'reckless'
p306
aS'refugees'
p307
aS"everything's"
p308
aS'heavy'
p309
aS'bellamy'
p310
aS'married'
p311
aS'edify'
p312
aS'second'
p313
aS'helpless'
p314
aS'perry'
p315
aS"heaven's"
p316
aS'baritone'
p317
aS"there'll"
p318
aS'everything'
p319
aS'peasant'
p320
aS'wendy'
p321
aS'debit'
p322
aS'medicine'
p323
aS'marriage'
p324
aS'ever'
p325
aS'parent'
p326
aS'fetty'
p327
aS'never'
p328
aS'seventh'
p329
aS'devil'
p330
aS'members'
p331
aS'sexy'
p332
aS'legend'
p333
aS'regular'
p334
aS'staring'
p335
aS'sending'
p336
aS'yelling'
p337
aS'getting'
p338
aS'many'
p339
aS'jericho'
p340
aS'jelly'
p341
aS'karan'
p342
aS'blessings'
p343
aS'cherish'
p344
aS'mentions'
p345
aS'headed'
p346
aS'lending'
p347
aS'carry'
p348
aS'everybody'
p349
aS'petty'
p350
aS'bentley'
p351
aS'anyone'
p352
aS'empty'
p353
aS'website'
p354
aS'scary'
p355
aS'pesticide'
p356
aS'blessing'
p357
aS'redeye'
p358
aS'dentist'
p359
aS'frenzy'
p360
aS'present'
p361
aS'benches'
p362
aS'petrified'
p363
aS'whether'
p364
aS'setup'
p365
aS'menzies'
p366
aS'record'
p367
aS'levis'
p368
aS"harold's"
p369
aS'seven'
p370
aS'barely'
p371
aS'hedwig'
p372
aS'bennett'
p373
aS'ready'
p374
aS'breakfast'
p375
aS'any'
p376
aS'kevin'
p377
aS'everyday'
p378
aS'deli'
p379
aS'sentiments'
p380
aS'marathon'
p381
aS'felony'
p382
aS'dresses'
p383
aS'reconciled'
p384
aS'welcome'
p385
aS'leno'
p386
aS'yesterday'
p387
aS'helping'
p388
aS'trending'
p389
aS'aires'
p390
aS'exes'
p391
aS'jealous'
p392
aS'pedal'
p393
aS'pencils'
p394
aS'steady'
p395
aS'anybody'
p396
aS'flexing'
p397
aS'necklace'
p398
atp399
Rp400
sVEY1TH
p401
g1
((lp402
S'faith'
p403
atp404
Rp405
sVEY1TS
p406
g1
((lp407
S'gates'
p408
aS'hates'
p409
atp410
Rp411
sVAE1MZ
p412
g1
((lp413
S'dams'
p414
aS'jams'
p415
atp416
Rp417
sVAE1MP
p418
g1
((lp419
S'camp'
p420
aS'champ'
p421
atp422
Rp423
sVUW1TS
p424
g1
((lp425
S'boots'
p426
aS'fruits'
p427
atp428
Rp429
sVIY1TS
p430
g1
((lp431
S'streets'
p432
aS'sheets'
p433
aS'seats'
p434
atp435
Rp436
sVAO1RMTH
p437
g1
((lp438
S'warmth'
p439
atp440
Rp441
sVAH1CH
p442
g1
((lp443
S'touch'
p444
aS'clutch'
p445
aS'much'
p446
aS'hutch'
p447
atp448
Rp449
sVOW1DHZ
p450
g1
((lp451
S'clothes'
p452
atp453
Rp454
sVIY1TH
p455
g1
((lp456
S'teeth'
p457
atp458
Rp459
sVEY1MZ
p460
g1
((lp461
S'james'
p462
atp463
Rp464
sS'AH1 S'
p465
g1
((lp466
S'us'
p467
atp468
Rp469
sVIH1KST
p470
g1
((lp471
S'mixed'
p472
atp473
Rp474
sVIH0M
p475
g1
((lp476
S'him'
p477
atp478
Rp479
sVOY1
p480
g1
((lp481
S'boy'
p482
aS'troy'
p483
aS'toy'
p484
aS'joy'
p485
atp486
Rp487
sVEY1MD
p488
g1
((lp489
S'named'
p490
atp491
Rp492
sVUW1ZD
p493
g1
((lp494
S'used'
p495
atp496
Rp497
sVUH1LD
p498
g1
((lp499
S'pulled'
p500
atp501
Rp502
sVUH2
p503
g1
((lp504
S'goodbyes'
p505
aS'european'
p506
atp507
Rp508
sVUH0
p509
g1
((lp510
S'muhammad'
p511
aS"could've"
p512
aS'yourself'
p513
atp514
Rp515
sVUH1
p516
g1
((lp517
S"lookin'"
p518
aS"should've"
p519
aS"cookin'"
p520
aS'gooder'
p521
aS'pussy'
p522
aS"wouldn't"
p523
aS'cooking'
p524
aS'pulling'
p525
aS'football'
p526
aS'purest'
p527
aS'looking'
p528
aS'goodnight'
p529
aS'pushing'
p530
aS'putting'
p531
aS"couldn't"
p532
aS"would've"
p533
aS'bullshit'
p534
atp535
Rp536
sS'B AE1'
p537
g1
((lp538
S'baddest'
p539
atp540
Rp541
sVAE1TS
p542
g1
((lp543
S'hats'
p544
aS"that's"
p545
atp546
Rp547
sVAH1NZ
p548
g1
((lp549
S'sons'
p550
aS'ones'
p551
aS'guns'
p552
atp553
Rp554
sVAH1NT
p555
g1
((lp556
S'front'
p557
aS'blunt'
p558
atp559
Rp560
sVAH1NS
p561
g1
((lp562
S'once'
p563
atp564
Rp565
sVAH1NG
p566
g1
((lp567
S'tongue'
p568
aS'young'
p569
atp570
Rp571
sVEH1JH
p572
g1
((lp573
S'sledge'
p574
aS'wedge'
p575
aS'pledge'
p576
aS'ledge'
p577
atp578
Rp579
sVAA1ND
p580
g1
((lp581
S'blonde'
p582
atp583
Rp584
sVOY1NZ
p585
g1
((lp586
S'coins'
p587
atp588
Rp589
sVAO1RD
p590
g1
((lp591
S'lord'
p592
aS'board'
p593
aS'sword'
p594
atp595
Rp596
sVAO1RK
p597
g1
((lp598
S'york'
p599
atp600
Rp601
sVAO2L
p602
g1
((lp603
S"y'all"
p604
atp605
Rp606
sVAO1RN
p607
g1
((lp608
S'warn'
p609
aS'morn'
p610
aS'horn'
p611
atp612
Rp613
sVAO1RM
p614
g1
((lp615
S'warm'
p616
atp617
Rp618
sVAA1NT
p619
g1
((lp620
S'want'
p621
atp622
Rp623
sVAO1RS
p624
g1
((lp625
S'fourths'
p626
aS'force'
p627
atp628
Rp629
sVAO1RZ
p630
g1
((lp631
S'drawers'
p632
aS'whores'
p633
aS'yours'
p634
aS'doors'
p635
atp636
Rp637
sVER1CH
p638
g1
((lp639
S'search'
p640
aS'church'
p641
atp642
Rp643
sS'IH1 L'
p644
g1
((lp645
S'illest'
p646
atp647
Rp648
sVAY1TS
p649
g1
((lp650
S'nights'
p651
atp652
Rp653
sVUH1KS
p654
g1
((lp655
S'hooks'
p656
aS'books'
p657
atp658
Rp659
sVUH1KT
p660
g1
((lp661
S'looked'
p662
aS'booked'
p663
atp664
Rp665
sVEH1D
p666
g1
((lp667
S'head'
p668
aS'said'
p669
aS'read'
p670
aS'dead'
p671
aS'bed'
p672
aS'sped'
p673
aS'red'
p674
atp675
Rp676
sVIH1RZ
p677
g1
((lp678
S'tears'
p679
aS'years'
p680
atp681
Rp682
sVEY1Z
p683
g1
((lp684
S'ways'
p685
aS'days'
p686
aS'praise'
p687
atp688
Rp689
sVEY1T
p690
g1
((lp691
S'ate'
p692
aS'straight'
p693
aS'late'
p694
aS'skate'
p695
aS'eight'
p696
aS'gate'
p697
aS'hate'
p698
aS'kate'
p699
aS'nate'
p700
aS'wait'
p701
atp702
Rp703
sVEY1V
p704
g1
((lp705
S'save'
p706
aS"they've"
p707
aS'gave'
p708
atp709
Rp710
sVEY1P
p711
g1
((lp712
S'cape'
p713
aS'tape'
p714
atp715
Rp716
sVEY1S
p717
g1
((lp718
S'case'
p719
aS'ace'
p720
aS'space'
p721
aS'face'
p722
aS'race'
p723
aS'place'
p724
aS'chase'
p725
atp726
Rp727
sVEY1M
p728
g1
((lp729
S'name'
p730
aS'lame'
p731
aS'same'
p732
aS'aim'
p733
aS'shame'
p734
aS'game'
p735
aS'flame'
p736
aS'fame'
p737
aS'came'
p738
atp739
Rp740
sVEY1L
p741
g1
((lp742
S"they'll"
p743
atp744
Rp745
sVEY1N
p746
g1
((lp747
S'wayne'
p748
aS'lane'
p749
aS'cane'
p750
aS'rain'
p751
aS'brain'
p752
aS'plane'
p753
aS'stain'
p754
atp755
Rp756
sVOW1TH
p757
g1
((lp758
S'both'
p759
aS'growth'
p760
atp761
Rp762
sVEY1D
p763
g1
((lp764
S'made'
p765
aS'played'
p766
aS'grade'
p767
aS'stayed'
p768
aS'paid'
p769
aS'shade'
p770
aS'spade'
p771
atp772
Rp773
sVEY1G
p774
g1
((lp775
S'craig'
p776
aS'plague'
p777
atp778
Rp779
sVEY1F
p780
g1
((lp781
S'safe'
p782
atp783
Rp784
sVIY1KS
p785
g1
((lp786
S'leaks'
p787
aS'weeks'
p788
atp789
Rp790
sVEH1K
p791
g1
((lp792
S'neck'
p793
aS'check'
p794
atp795
Rp796
sVEH1L
p797
g1
((lp798
S'sell'
p799
aS'shell'
p800
aS'well'
p801
aS'fell'
p802
aS'hell'
p803
aS'yell'
p804
aS'smell'
p805
aS'tell'
p806
atp807
Rp808
sVEH1M
p809
g1
((lp810
S'em'
p811
aS'them'
p812
aS'm'
p813
atp814
Rp815
sVEH1N
p816
g1
((lp817
S'then'
p818
aS'when'
p819
aS'ten'
p820
aS'zen'
p821
atp822
Rp823
sVEH1ST
p824
g1
((lp825
S'vest'
p826
aS'dressed'
p827
aS'rest'
p828
aS'test'
p829
aS'crest'
p830
aS'best'
p831
atp832
Rp833
sVAY1K
p834
g1
((lp835
S'mike'
p836
aS'like'
p837
atp838
Rp839
sVAA1SH
p840
g1
((lp841
S'wash'
p842
atp843
Rp844
sVEH1SH
p845
g1
((lp846
S'fresh'
p847
atp848
Rp849
sVEH1Z
p850
g1
((lp851
S'as'
p852
atp853
Rp854
sVAA1ST
p855
g1
((lp856
S'cost'
p857
atp858
Rp859
sVER1ND
p860
g1
((lp861
S'learned'
p862
aS'turned'
p863
aS'earned'
p864
atp865
Rp866
sVEH1P
p867
g1
((lp868
S'step'
p869
atp870
Rp871
sVEH1R
p872
g1
((lp873
S'stare'
p874
aS"they're"
p875
aS'square'
p876
aS'share'
p877
aS'air'
p878
aS'hair'
p879
aS'swear'
p880
aS'prayer'
p881
aS'chair'
p882
aS'where'
p883
aS'dare'
p884
aS'care'
p885
atp886
Rp887
sVEH1S
p888
g1
((lp889
S'mess'
p890
aS's'
p891
aS'guess'
p892
aS'yes'
p893
atp894
Rp895
sVEH1T
p896
g1
((lp897
S'jet'
p898
aS'get'
p899
aS'met'
p900
aS'let'
p901
aS'sweat'
p902
aS'wet'
p903
aS'yet'
p904
aS'bet'
p905
atp906
Rp907
sVEH1G
p908
g1
((lp909
S'leg'
p910
atp911
Rp912
sVAO1RDZ
p913
g1
((lp914
S'swords'
p915
atp916
Rp917
sVAH1GD
p918
g1
((lp919
S'drugged'
p920
aS'shrugged'
p921
atp922
Rp923
sVOW1MZ
p924
g1
((lp925
S'foams'
p926
atp927
Rp928
sVAH1GZ
p929
g1
((lp930
S'drugs'
p931
aS'slugs'
p932
aS'bugs'
p933
aS'rugs'
p934
atp935
Rp936
sVEY1ZD
p937
g1
((lp938
S'raised'
p939
atp940
Rp941
sVAH1NTHS
p942
g1
((lp943
S'months'
p944
atp945
Rp946
sVIH0TH
p947
g1
((lp948
S'with'
p949
atp950
Rp951
sVEH1FT
p952
g1
((lp953
S'left'
p954
atp955
Rp956
sVIH0TS
p957
g1
((lp958
S"it's"
p959
aS'its'
p960
atp961
Rp962
sVAA1DZ
p963
g1
((lp964
S"god's"
p965
atp966
Rp967
sVIH1NGK
p968
g1
((lp969
S'link'
p970
aS'think'
p971
aS'rink'
p972
atp973
Rp974
sVAH1NTH
p975
g1
((lp976
S'month'
p977
atp978
Rp979
sVAO1NZ
p980
g1
((lp981
S'lawns'
p982
atp983
Rp984
sVAO1RJHD
p985
g1
((lp986
S'forged'
p987
atp988
Rp989
sVEY1ST
p990
g1
((lp991
S'faced'
p992
aS'taste'
p993
aS'laced'
p994
aS'based'
p995
aS'waist'
p996
atp997
Rp998
sVAO1NG
p999
g1
((lp1000
S'wrong'
p1001
aS'thong'
p1002
aS'long'
p1003
aS'song'
p1004
atp1005
Rp1006
sVIH1NGZ
p1007
g1
((lp1008
S'kings'
p1009
aS'rings'
p1010
aS'wings'
p1011
aS'things'
p1012
atp1013
Rp1014
sVIH1DNT
p1015
g1
((lp1016
S"didn't"
p1017
atp1018
Rp1019
sVER0
p1020
g1
((lp1021
S'forget'
p1022
aS'spring'
p1023
aS'yourself'
p1024
aS'are'
p1025
aS'arenas'
p1026
aS'perfect'
p1027
aS'her'
p1028
aS'perform'
p1029
aS'forgiveness'
p1030
aS'around'
p1031
aS'forgive'
p1032
aS'forgetful'
p1033
aS'replace'
p1034
aS'herself'
p1035
aS'present'
p1036
aS'protect'
p1037
aS'for'
p1038
aS'syringes'
p1039
aS'performing'
p1040
aS'forgetting'
p1041
aS'were'
p1042
aS'guerillas'
p1043
aS'or'
p1044
aS'performed'
p1045
atp1046
Rp1047
sVEH1TH
p1048
g1
((lp1049
S'breath'
p1050
aS'death'
p1051
atp1052
Rp1053
sVAA1MZ
p1054
g1
((lp1055
S'proms'
p1056
atp1057
Rp1058
sVIH1LD
p1059
g1
((lp1060
S'grilled'
p1061
aS'build'
p1062
atp1063
Rp1064
sVAA1NTS
p1065
g1
((lp1066
S'wants'
p1067
atp1068
Rp1069
sVEH1TS
p1070
g1
((lp1071
S"let's"
p1072
atp1073
Rp1074
sVAO1NGZ
p1075
g1
((lp1076
S'wrongs'
p1077
aS'songs'
p1078
atp1079
Rp1080
sVAH1NCH
p1081
g1
((lp1082
S'bunch'
p1083
atp1084
Rp1085
sVIH1VD
p1086
g1
((lp1087
S'lived'
p1088
atp1089
Rp1090
sVEY1
p1091
g1
((lp1092
S'saying'
p1093
aS'labels'
p1094
aS'paper'
p1095
aS'radio'
p1096
aS'asian'
p1097
aS'praying'
p1098
aS'mayor'
p1099
aS'haters'
p1100
aS'jay'
p1101
aS'pray'
p1102
aS'satan'
p1103
aS'apron'
p1104
aS'mayo'
p1105
aS'de'
p1106
aS'nation'
p1107
aS'famous'
p1108
aS'vegas'
p1109
aS'they'
p1110
aS'aiming'
p1111
aS'day'
p1112
aS'stranger'
p1113
aS'bay'
p1114
aS'neighborhood'
p1115
aS'gator'
p1116
aS'caveman'
p1117
aS're'
p1118
aS'vega'
p1119
aS'dating'
p1120
aS'racing'
p1121
aS'lazy'
p1122
aS'nature'
p1123
aS'safer'
p1124
aS'taking'
p1125
aS'favorite'
p1126
aS'lakers'
p1127
aS'faces'
p1128
aS'aka'
p1129
aS'maker'
p1130
aS'waited'
p1131
aS'saving'
p1132
aS'danger'
p1133
aS'wasting'
p1134
aS'katie'
p1135
aS'ayo'
p1136
aS'hey'
p1137
aS'way'
p1138
aS'angels'
p1139
aS'spaceship'
p1140
aS'paperwork'
p1141
aS'savior'
p1142
aS'baby'
p1143
aS'ha'
p1144
aS'laser'
p1145
aS'say'
p1146
aS'trey'
p1147
aS'bey'
p1148
aS'faking'
p1149
aS'making'
p1150
aS'skating'
p1151
aS'crazy'
p1152
aS'napalm'
p1153
aS'angel'
p1154
aS"sayin'"
p1155
aS'player'
p1156
aS'mater'
p1157
aS'prayer'
p1158
aS'ay'
p1159
aS'graceful'
p1160
aS'aged'
p1161
aS'skated'
p1162
aS'glacier'
p1163
aS'pay'
p1164
aS'buenos'
p1165
aS"playin'"
p1166
aS'status'
p1167
aS'play'
p1168
aS'tasteful'
p1169
aS'may'
p1170
aS'eighty'
p1171
aS'stay'
p1172
aS'regular'
p1173
aS'lay'
p1174
aS'a'
p1175
aS'mayweather'
p1176
aS'maybe'
p1177
aS'playing'
p1178
aS'stadiums'
p1179
aS'greatest'
p1180
aS'tasted'
p1181
aS'breaker'
p1182
aS"takin'"
p1183
atp1184
Rp1185
sVAW1LZ
p1186
g1
((lp1187
S'owls'
p1188
atp1189
Rp1190
sVAO1CH
p1191
g1
((lp1192
S'watch'
p1193
atp1194
Rp1195
sVAY1
p1196
g1
((lp1197
S'signing'
p1198
aS'violence'
p1199
aS'liar'
p1200
aS'fired'
p1201
aS'tired'
p1202
aS"michael's"
p1203
aS'hybrid'
p1204
aS'fireworks'
p1205
aS'high'
p1206
aS'island'
p1207
aS'dialing'
p1208
aS'ay'
p1209
aS'eyelid'
p1210
aS'liking'
p1211
aS'smiling'
p1212
aS'lie'
p1213
aS'highest'
p1214
aS'eye'
p1215
aS'dying'
p1216
aS'spineless'
p1217
aS'aye'
p1218
aS'flying'
p1219
aS'sky'
p1220
aS'mikey'
p1221
aS'writing'
p1222
aS'brighter'
p1223
aS'icy'
p1224
aS'miles'
p1225
aS"i'mma"
p1226
aS'wilding'
p1227
aS'righteous'
p1228
aS'linebacker'
p1229
aS'rider'
p1230
aS'higher'
p1231
aS'dry'
p1232
aS'buy'
p1233
aS'crying'
p1234
aS'minus'
p1235
aS'python'
p1236
aS'wiley'
p1237
aS'diet'
p1238
aS'nightly'
p1239
aS'flyer'
p1240
aS'lighter'
p1241
aS'rifle'
p1242
aS'buyer'
p1243
aS'coyote'
p1244
aS'sinus'
p1245
aS'why'
p1246
aS'fly'
p1247
aS'tri-state'
p1248
aS'bible'
p1249
aS'fighter'
p1250
aS'timeshare'
p1251
aS'die'
p1252
aS'cry'
p1253
aS'michael'
p1254
aS'rivals'
p1255
aS'lightning'
p1256
aS'try'
p1257
aS'bae'
p1258
aS'nicest'
p1259
aS'science'
p1260
aS'stylish'
p1261
aS'guy'
p1262
aS'highland'
p1263
aS'my'
p1264
aS'childhood'
p1265
aS'lying'
p1266
atp1267
Rp1268
sVAY0
p1269
g1
((lp1270
S'diagonal'
p1271
aS'idea'
p1272
aS'ideas'
p1273
aS'coyote'
p1274
aS'violations'
p1275
aS'minute'
p1276
atp1277
Rp1278
sVAY2
p1279
g1
((lp1280
S'bio'
p1281
aS'myself'
p1282
aS'diabetes'
p1283
aS'gynecologist'
p1284
aS'iraqi'
p1285
atp1286
Rp1287
sVIH0ST
p1288
g1
((lp1289
S'just'
p1290
atp1291
Rp1292
sVIH1DZ
p1293
g1
((lp1294
S'kids'
p1295
atp1296
Rp1297
sVAW1TS
p1298
g1
((lp1299
S'shouts'
p1300
atp1301
Rp1302
sVAW1TH
p1303
g1
((lp1304
S'mouth'
p1305
aS'south'
p1306
atp1307
Rp1308
sVAO2
p1309
g1
((lp1310
S'automobile'
p1311
aS'automatic'
p1312
aS'montano'
p1313
atp1314
Rp1315
sVAO1
p1316
g1
((lp1317
S'ballpoint'
p1318
aS'ordered'
p1319
aS'often'
p1320
aS'auntie'
p1321
aS'dollar'
p1322
aS'yourself'
p1323
aS'talking'
p1324
aS'fortify'
p1325
aS'broadway'
p1326
aS'saw'
p1327
aS'solstice'
p1328
aS'law'
p1329
aS'also'
p1330
aS'hallways'
p1331
aS'costly'
p1332
aS'shorter'
p1333
aS'color'
p1334
aS'causing'
p1335
aS'orange'
p1336
aS'bosses'
p1337
aS'borders'
p1338
aS'hallway'
p1339
aS'glorify'
p1340
aS'oscar'
p1341
aS'raunchy'
p1342
aS'shorty'
p1343
aS'slaughter'
p1344
aS'water'
p1345
aS'couric'
p1346
aS'jordan'
p1347
aS'correlating'
p1348
aS'salsa'
p1349
aS'shortness'
p1350
aS'wanted'
p1351
aS'rollie'
p1352
aS'faucet'
p1353
aS'daughter'
p1354
aS'alma'
p1355
aS"talkin'"
p1356
aS'launcher'
p1357
aS'always'
p1358
aS'dollars'
p1359
aS'forfeited'
p1360
aS'automobile'
p1361
aS'calling'
p1362
aS'flawless'
p1363
aS'stories'
p1364
aS'saudi'
p1365
aS'mortar'
p1366
aS'crossing'
p1367
aS'swallow'
p1368
aS'quarter'
p1369
aS'order'
p1370
atp1371
Rp1372
sVAO0
p1373
g1
((lp1374
S'already'
p1375
aS'forget'
p1376
aS'forgetful'
p1377
aS'forgive'
p1378
aS'forgetting'
p1379
aS'australia'
p1380
aS'australian'
p1381
aS'forgiveness'
p1382
aS'caucasian'
p1383
atp1384
Rp1385
sVIH1DH
p1386
g1
((lp1387
S'with'
p1388
atp1389
Rp1390
sVAH1KT
p1391
g1
((lp1392
S'fucked'
p1393
aS'duct'
p1394
aS'ducked'
p1395
aS'sucked'
p1396
atp1397
Rp1398
sVAE1SH
p1399
g1
((lp1400
S'smash'
p1401
aS'ash'
p1402
aS'hash'
p1403
aS'cash'
p1404
atp1405
Rp1406
sVAW1D
p1407
g1
((lp1408
S'proud'
p1409
aS'loud'
p1410
atp1411
Rp1412
sVAW1N
p1413
g1
((lp1414
S'down'
p1415
aS'brown'
p1416
aS'drown'
p1417
aS'crown'
p1418
atp1419
Rp1420
sVAW1S
p1421
g1
((lp1422
S'house'
p1423
atp1424
Rp1425
sVAW1R
p1426
g1
((lp1427
S'our'
p1428
aS'sour'
p1429
aS'hour'
p1430
atp1431
Rp1432
sVAW1T
p1433
g1
((lp1434
S'route'
p1435
aS"'bout"
p1436
aS'shout'
p1437
aS'drought'
p1438
aS'bout'
p1439
aS'out'
p1440
atp1441
Rp1442
sVAE1ST
p1443
g1
((lp1444
S'past'
p1445
aS'last'
p1446
aS'asked'
p1447
aS'passed'
p1448
aS'gassed'
p1449
atp1450
Rp1451
sVAY1LZ
p1452
g1
((lp1453
S'miles'
p1454
atp1455
Rp1456
sVAO1NT
p1457
g1
((lp1458
S'want'
p1459
atp1460
Rp1461
sVAY1LD
p1462
g1
((lp1463
S'child'
p1464
atp1465
Rp1466
sS'F AH1'
p1467
g1
((lp1468
S'fucker'
p1469
atp1470
Rp1471
sVAA1KT
p1472
g1
((lp1473
S'locked'
p1474
aS'blocked'
p1475
atp1476
Rp1477
sVEY1NJHD
p1478
g1
((lp1479
S'changed'
p1480
atp1481
Rp1482
sVAA1CHT
p1483
g1
((lp1484
S'watched'
p1485
atp1486
Rp1487
sVIY1ND
p1488
g1
((lp1489
S'fiend'
p1490
atp1491
Rp1492
sVUW1LZ
p1493
g1
((lp1494
S'rules'
p1495
aS'schools'
p1496
aS'tools'
p1497
atp1498
Rp1499
sVIY1NZ
p1500
g1
((lp1501
S'screens'
p1502
aS'beans'
p1503
aS'queens'
p1504
atp1505
Rp1506
sVEH1PS
p1507
g1
((lp1508
S'steps'
p1509
atp1510
Rp1511
sVAH1VZ
p1512
g1
((lp1513
S'doves'
p1514
atp1515
Rp1516
sVAH1VD
p1517
g1
((lp1518
S'loved'
p1519
atp1520
Rp1521
sVER1KS
p1522
g1
((lp1523
S'percs'
p1524
atp1525
Rp1526
sVIH1GZ
p1527
g1
((lp1528
S'pigs'
p1529
atp1530
Rp1531
sVEH1LD
p1532
g1
((lp1533
S'held'
p1534
atp1535
Rp1536
sVAH1NGZ
p1537
g1
((lp1538
S'lungs'
p1539
atp1540
Rp1541
sVOW1LZ
p1542
g1
((lp1543
S'souls'
p1544
aS'rolls'
p1545
atp1546
Rp1547
sVEH1LT
p1548
g1
((lp1549
S'felt'
p1550
atp1551
Rp1552
sVOW1LD
p1553
g1
((lp1554
S'old'
p1555
aS'rolled'
p1556
aS'sold'
p1557
aS'fold'
p1558
aS'cold'
p1559
aS'hold'
p1560
aS'told'
p1561
atp1562
Rp1563
sVIY1ST
p1564
g1
((lp1565
S'beast'
p1566
aS'feast'
p1567
aS'least'
p1568
atp1569
Rp1570
sVEH1LP
p1571
g1
((lp1572
S'help'
p1573
atp1574
Rp1575
sVEH1LS
p1576
g1
((lp1577
S'else'
p1578
atp1579
Rp1580
sVAW1ND
p1581
g1
((lp1582
S'sound'
p1583
aS'found'
p1584
aS'pound'
p1585
atp1586
Rp1587
sVOW1T
p1588
g1
((lp1589
S'wrote'
p1590
atp1591
Rp1592
sVEH1NDZ
p1593
g1
((lp1594
S'friends'
p1595
atp1596
Rp1597
sVER1
p1598
g1
((lp1599
S'serpent'
p1600
aS'thursdays'
p1601
aS'burner'
p1602
aS'verses'
p1603
aS'sermon'
p1604
aS'worldly'
p1605
aS'worship'
p1606
aS'worry'
p1607
aS'perfect'
p1608
aS'sir'
p1609
aS'worthless'
p1610
aS'thirsty'
p1611
aS'working'
p1612
aS'purple'
p1613
aS'birthdays'
p1614
aS'hurricane'
p1615
aS'purses'
p1616
aS"we're"
p1617
aS'churches'
p1618
aS'bourbon'
p1619
aS'urban'
p1620
aS'murder'
p1621
aS'early'
p1622
aS'persons'
p1623
aS'murdered'
p1624
aS'learned'
p1625
aS'hurry'
p1626
aS'spur'
p1627
aS'herpes'
p1628
aS'searches'
p1629
aS'purchase'
p1630
aS'service'
p1631
aS"workin'"
p1632
aS'worried'
p1633
aS'her'
p1634
aS'were'
p1635
aS'murdering'
p1636
aS'jersey'
p1637
atp1638
Rp1639
sVER1V
p1640
g1
((lp1641
S'swerve'
p1642
aS'curve'
p1643
atp1644
Rp1645
sVER1T
p1646
g1
((lp1647
S'flirt'
p1648
aS'spurt'
p1649
aS'dirt'
p1650
aS'skirt'
p1651
aS'hurt'
p1652
atp1653
Rp1654
sVEH1KS
p1655
g1
((lp1656
S'x'
p1657
aS'sex'
p1658
aS'ex'
p1659
aS'flex'
p1660
aS'next'
p1661
atp1662
Rp1663
sVER1S
p1664
g1
((lp1665
S'verse'
p1666
aS'curse'
p1667
aS'purse'
p1668
aS'worse'
p1669
atp1670
Rp1671
sVER1P
p1672
g1
((lp1673
S'burp'
p1674
atp1675
Rp1676
sVER1D
p1677
g1
((lp1678
S'heard'
p1679
aS'word'
p1680
aS'bird'
p1681
aS'third'
p1682
aS'herd'
p1683
atp1684
Rp1685
sVER1N
p1686
g1
((lp1687
S'turn'
p1688
aS'burn'
p1689
atp1690
Rp1691
sVER1L
p1692
g1
((lp1693
S'earl'
p1694
aS'girl'
p1695
atp1696
Rp1697
sVER1K
p1698
g1
((lp1699
S'perc'
p1700
aS'work'
p1701
atp1702
Rp1703
sS'G AA1 N'
p1704
g1
((lp1705
S"gon'"
p1706
atp1707
Rp1708
sVIH1KS
p1709
g1
((lp1710
S'knicks'
p1711
aS'bricks'
p1712
aS'fix'
p1713
aS'six'
p1714
aS'picks'
p1715
aS'mix'
p1716
aS"vic's"
p1717
atp1718
Rp1719
sVAH1SH
p1720
g1
((lp1721
S'rush'
p1722
atp1723
Rp1724
sVAH1SK
p1725
g1
((lp1726
S'dusk'
p1727
atp1728
Rp1729
sVIY1DH
p1730
g1
((lp1731
S'breathe'
p1732
atp1733
Rp1734
sVAE1KS
p1735
g1
((lp1736
S'packs'
p1737
aS'snacks'
p1738
aS'tax'
p1739
aS'whacks'
p1740
aS'wax'
p1741
aS'plaques'
p1742
aS'racks'
p1743
aS'saks'
p1744
atp1745
Rp1746
sVAH0ND
p1747
g1
((lp1748
S'and'
p1749
atp1750
Rp1751
sVAE1KT
p1752
g1
((lp1753
S'cracked'
p1754
aS'packed'
p1755
aS'fact'
p1756
aS'act'
p1757
atp1758
Rp1759
sVAH1ST
p1760
g1
((lp1761
S'trust'
p1762
aS'bust'
p1763
aS'just'
p1764
aS'must'
p1765
atp1766
Rp1767
sVER1DZ
p1768
g1
((lp1769
S'words'
p1770
atp1771
Rp1772
sVIY1T
p1773
g1
((lp1774
S'skeet'
p1775
aS'beat'
p1776
aS'sweet'
p1777
aS'seat'
p1778
aS'feet'
p1779
aS'cheat'
p1780
aS'heat'
p1781
aS'street'
p1782
aS'treat'
p1783
aS'meet'
p1784
aS'eat'
p1785
atp1786
Rp1787
sVIY2
p1788
g1
((lp1789
S'retire'
p1790
aS'replace'
p1791
aS'iraqi'
p1792
aS'beyond'
p1793
aS'greedier'
p1794
aS'before'
p1795
atp1796
Rp1797
sS'R AY1 M'
p1798
g1
((lp1799
S'rhyme'
p1800
atp1801
Rp1802
sVAA1RD
p1803
g1
((lp1804
S'hard'
p1805
aS'card'
p1806
atp1807
Rp1808
sVEY1KT
p1809
g1
((lp1810
S'faked'
p1811
atp1812
Rp1813
sVAA1RK
p1814
g1
((lp1815
S'dark'
p1816
aS'park'
p1817
atp1818
Rp1819
sVIH1SH
p1820
g1
((lp1821
S'wish'
p1822
atp1823
Rp1824
sVAA1RM
p1825
g1
((lp1826
S'arm'
p1827
atp1828
Rp1829
sVIH1ST
p1830
g1
((lp1831
S'missed'
p1832
aS'list'
p1833
aS'twist'
p1834
aS'wrist'
p1835
aS'kissed'
p1836
aS'pissed'
p1837
atp1838
Rp1839
sVAA1
p1840
g1
((lp1841
S'modesty'
p1842
aS'rocket'
p1843
aS'ali'
p1844
aS'dollar'
p1845
aS'colleges'
p1846
aS'cocky'
p1847
aS'follow'
p1848
aS'darkest'
p1849
aS'partners'
p1850
aS'pardon'
p1851
aS'la'
p1852
aS'father'
p1853
aS'contemplating'
p1854
aS'prodigy'
p1855
aS'harmless'
p1856
aS'swallow'
p1857
aS'soccer'
p1858
aS'watching'
p1859
aS'ya'
p1860
aS'smarter'
p1861
aS'contacts'
p1862
aS'gonna'
p1863
aS'pocket'
p1864
aS'party'
p1865
aS'bartender'
p1866
aS'darling'
p1867
aS'frolicking'
p1868
aS'donna'
p1869
aS'poppy'
p1870
aS'carter'
p1871
aS'college'
p1872
aS'parking'
p1873
aS'popping'
p1874
aS'darkness'
p1875
aS'closet'
p1876
aS'barbie'
p1877
aS'jolly'
p1878
aS'probably'
p1879
aS'falling'
p1880
aS'body'
p1881
aS'khaki'
p1882
aS'monster'
p1883
aS'modify'
p1884
aS'molly'
p1885
aS'qualify'
p1886
aS'motto'
p1887
aS'wanted'
p1888
aS'popeye'
p1889
aS'column'
p1890
aS'follies'
p1891
aS'dollars'
p1892
aS'gossip'
p1893
aS'barak'
p1894
aS'controversy'
p1895
aS'pockets'
p1896
aS'aka'
p1897
aS'wanna'
p1898
aS'armchair'
p1899
aS'donnie'
p1900
aS'momma'
p1901
aS'harness'
p1902
aS'parties'
p1903
aS'hotter'
p1904
aS"rockin'"
p1905
aS'cha'
p1906
aS'cali'
p1907
aS'mama'
p1908
aS'hollywood'
p1909
aS'marbles'
p1910
aS'started'
p1911
aS'ha'
p1912
aS'odyssey'
p1913
aS'casa'
p1914
aS"wasn't"
p1915
aS'gotta'
p1916
aS'tommy'
p1917
aS'barbershop'
p1918
aS'problem'
p1919
aS'vodka'
p1920
aS'costly'
p1921
aS'topic'
p1922
aS'raw'
p1923
aS'mater'
p1924
aS'promised'
p1925
aS'politics'
p1926
aS'blockbuster'
p1927
aS'bottles'
p1928
aS'nah'
p1929
aS'causing'
p1930
aS'followers'
p1931
aS'arguments'
p1932
aS'wanting'
p1933
aS'entree'
p1934
aS'models'
p1935
aS'papa'
p1936
aS'octagon'
p1937
aS'costner'
p1938
aS'law'
p1939
aS'collar'
p1940
aS'hopping'
p1941
aS'bodied'
p1942
aS'bottom'
p1943
aS'concrete'
p1944
aS'contact'
p1945
aS'bottle'
p1946
atp1947
Rp1948
sVAA0
p1949
g1
((lp1950
S'amin'
p1951
atp1952
Rp1953
sVAA2
p1954
g1
((lp1955
S'competition'
p1956
aS'opposition'
p1957
atp1958
Rp1959
sVAO1FT
p1960
g1
((lp1961
S'soft'
p1962
atp1963
Rp1964
sVAA1RT
p1965
g1
((lp1966
S'heart'
p1967
aS'start'
p1968
aS'hart'
p1969
aS'art'
p1970
aS'fart'
p1971
atp1972
Rp1973
sVIH2
p1974
g1
((lp1975
S'disbelief'
p1976
aS'cigarettes'
p1977
aS'insecurities'
p1978
aS'introduce'
p1979
aS'introspective'
p1980
aS'cigarette'
p1981
aS'introduced'
p1982
aS'misdemeanors'
p1983
atp1984
Rp1985
sVIH0
p1986
g1
((lp1987
S'crescendo'
p1988
aS'because'
p1989
aS'iraqi'
p1990
aS'relate'
p1991
aS'into'
p1992
aS'retire'
p1993
aS'neglected'
p1994
aS'eleven'
p1995
aS'imprint'
p1996
aS'recruitment'
p1997
aS'itself'
p1998
aS'respect'
p1999
aS'discussions'
p2000
aS'events'
p2001
aS'beyond'
p2002
aS'integrity'
p2003
aS'before'
p2004
aS'intimidate'
p2005
aS'rely'
p2006
aS'invoked'
p2007
aS'dividing'
p2008
aS'exalt'
p2009
aS'electrify'
p2010
aS'defend'
p2011
aS'enough'
p2012
aS'mistakes'
p2013
aS'to'
p2014
aS'behind'
p2015
aS'fictitious'
p2016
aS'believing'
p2017
aS'descend'
p2018
aS'employee'
p2019
aS'expose'
p2020
aS'illusion'
p2021
aS'chinchilla'
p2022
aS'recess'
p2023
aS'eventually'
p2024
aS'sixteen'
p2025
aS'designer'
p2026
aS'rehearsing'
p2027
aS'invite'
p2028
aS'without'
p2029
aS'becoming'
p2030
aS'inhaled'
p2031
aS'delayed'
p2032
aS'indict'
p2033
aS'records'
p2034
aS'intent'
p2035
aS'nintendo'
p2036
aS'decipher'
p2037
aS'reclining'
p2038
aS'believe'
p2039
aS'declining'
p2040
aS'reflection'
p2041
aS'reflect'
p2042
aS'finesse'
p2043
aS'remember'
p2044
aS'excuse'
p2045
aS'goodbyes'
p2046
aS'involved'
p2047
aS'inside'
p2048
aS'detroit'
p2049
aS'discernment'
p2050
aS'deserted'
p2051
aS'record'
p2052
aS'remain'
p2053
aS'determined'
p2054
aS'militia'
p2055
aS'deposit'
p2056
aS'invented'
p2057
aS'believed'
p2058
aS'become'
p2059
aS'giuseppe'
p2060
aS"isn't"
p2061
aS'mistake'
p2062
atp2063
Rp2064
sVIH1
p2065
g1
((lp2066
S"sittin'"
p2067
aS'brisbane'
p2068
aS'mission'
p2069
aS'blisters'
p2070
aS'fifty'
p2071
aS'imprint'
p2072
aS'diddy'
p2073
aS'mister'
p2074
aS'children'
p2075
aS'bridges'
p2076
aS'difference'
p2077
aS'thinking'
p2078
aS'mistletoe'
p2079
aS'literary'
p2080
aS'nickels'
p2081
aS'nicki'
p2082
aS'bigger'
p2083
aS'pretty'
p2084
aS'hidden'
p2085
aS'kingdom'
p2086
aS'mixture'
p2087
aS'milli'
p2088
aS'sitting'
p2089
aS'kitty'
p2090
aS'whistle'
p2091
aS'listening'
p2092
aS'kitten'
p2093
aS'ninja'
p2094
aS'sixteen'
p2095
aS'minute'
p2096
aS'vision'
p2097
aS"thinkin'"
p2098
aS'glitters'
p2099
aS'gifted'
p2100
aS'tissue'
p2101
aS'sniffing'
p2102
aS'gimme'
p2103
aS'piggy'
p2104
aS"killer's"
p2105
aS'hinges'
p2106
aS"isn't"
p2107
aS'lifted'
p2108
aS'cinnabon'
p2109
aS'imitate'
p2110
aS'really'
p2111
aS'minto'
p2112
aS'lipstick'
p2113
aS"gettin'"
p2114
aS'giving'
p2115
aS'literally'
p2116
aS'pigeon'
p2117
aS'finger'
p2118
aS'ticking'
p2119
aS'issue'
p2120
aS'vixen'
p2121
aS'business'
p2122
aS'missing'
p2123
aS'dividends'
p2124
aS'million'
p2125
aS'timmy'
p2126
aS'richest'
p2127
aS'kicking'
p2128
aS'busy'
p2129
aS'nitty'
p2130
aS'dividend'
p2131
aS'tripping'
p2132
aS"livin'"
p2133
aS'sister'
p2134
aS'figured'
p2135
aS'getting'
p2136
aS'industry'
p2137
aS'filter'
p2138
aS'dinner'
p2139
aS'lindsey'
p2140
aS'cinnamon'
p2141
aS'pillow'
p2142
aS'into'
p2143
aS'tippy'
p2144
aS'village'
p2145
aS'singing'
p2146
aS'millions'
p2147
aS'city'
p2148
aS'little'
p2149
aS'figure'
p2150
aS'twisted'
p2151
aS'hitting'
p2152
aS'window'
p2153
aS'kiddies'
p2154
aS'biggest'
p2155
aS'mistic'
p2156
aS'listen'
p2157
aS'inches'
p2158
aS'bitches'
p2159
aS'cinco'
p2160
aS'finished'
p2161
aS'women'
p2162
aS'sixes'
p2163
aS'hitter'
p2164
aS'inside'
p2165
aS'chisel'
p2166
aS'minimum'
p2167
aS'mr'
p2168
aS'criticizing'
p2169
aS'kissing'
p2170
aS'lingo'
p2171
aS'videos'
p2172
aS'chickens'
p2173
aS'dripping'
p2174
aS'middle'
p2175
aS'single'
p2176
aS'intro'
p2177
aS'different'
p2178
aS'winter'
p2179
aS'milly'
p2180
aS'digging'
p2181
aS'hillman'
p2182
aS'difficult'
p2183
aS'finish'
p2184
aS'kinda'
p2185
aS'nickname'
p2186
aS'thriller'
p2187
aS'building'
p2188
aS'singer'
p2189
aS'dishes'
p2190
aS'shitty'
p2191
aS'windows'
p2192
aS'mishaps'
p2193
aS"widow's"
p2194
atp2195
Rp2196
sVUH1RZ
p2197
g1
((lp2198
S'yours'
p2199
atp2200
Rp2201
sVEH1GZ
p2202
g1
((lp2203
S'legs'
p2204
atp2205
Rp2206
sVAY1Z
p2207
g1
((lp2208
S'eyes'
p2209
aS'fries'
p2210
aS'whys'
p2211
aS'lies'
p2212
aS'ties'
p2213
aS'pies'
p2214
aS'size'
p2215
atp2216
Rp2217
sVAY1P
p2218
g1
((lp2219
S'pipe'
p2220
aS'hype'
p2221
aS'type'
p2222
atp2223
Rp2224
sVAY1S
p2225
g1
((lp2226
S'rice'
p2227
aS'ice'
p2228
aS'nice'
p2229
atp2230
Rp2231
sVAY1R
p2232
g1
((lp2233
S'fire'
p2234
aS'wire'
p2235
atp2236
Rp2237
sVAY1T
p2238
g1
((lp2239
S'right'
p2240
aS'kite'
p2241
aS'light'
p2242
aS'bite'
p2243
aS'fight'
p2244
aS'write'
p2245
aS'tight'
p2246
aS'night'
p2247
aS'white'
p2248
aS'might'
p2249
atp2250
Rp2251
sVAY1V
p2252
g1
((lp2253
S'live'
p2254
aS'five'
p2255
aS'drive'
p2256
aS"i've"
p2257
atp2258
Rp2259
sVER1ST
p2260
g1
((lp2261
S'worst'
p2262
aS'thirst'
p2263
aS'first'
p2264
atp2265
Rp2266
sVAY1M
p2267
g1
((lp2268
S"i'm"
p2269
aS'crime'
p2270
aS'time'
p2271
atp2272
Rp2273
sVAY1L
p2274
g1
((lp2275
S"i'll"
p2276
aS'smile'
p2277
aS'while'
p2278
aS'style'
p2279
aS'dial'
p2280
atp2281
Rp2282
sVAY1N
p2283
g1
((lp2284
S'shine'
p2285
aS'vine'
p2286
aS'mine'
p2287
aS'sign'
p2288
aS'shyne'
p2289
aS'line'
p2290
atp2291
Rp2292
sVAY1D
p2293
g1
((lp2294
S'wide'
p2295
aS'hide'
p2296
aS'tried'
p2297
aS'ride'
p2298
aS'tied'
p2299
aS'slide'
p2300
aS"i'd"
p2301
aS'eyed'
p2302
aS'fried'
p2303
aS'side'
p2304
aS'died'
p2305
atp2306
Rp2307
sVAY1F
p2308
g1
((lp2309
S'life'
p2310
aS'knife'
p2311
aS'wife'
p2312
atp2313
Rp2314
sVAW1
p2315
g1
((lp2316
S'counting'
p2317
aS'power'
p2318
aS'thousand'
p2319
aS'housewife'
p2320
aS'bow'
p2321
aS'downtown'
p2322
aS'how'
p2323
aS'outside'
p2324
aS'saudi'
p2325
aS'lauer'
p2326
aS'southside'
p2327
aS'tower'
p2328
aS'now'
p2329
aS'hourglass'
p2330
atp2331
Rp2332
sVAW0
p2333
g1
((lp2334
S'southampton'
p2335
atp2336
Rp2337
sS'AE1 M'
p2338
g1
((lp2339
S'am'
p2340
atp2341
Rp2342
sVAO1TS
p2343
g1
((lp2344
S'thoughts'
p2345
atp2346
Rp2347
sVAH1T
p2348
g1
((lp2349
S'what'
p2350
aS'cut'
p2351
aS'shut'
p2352
aS'but'
p2353
aS'butt'
p2354
atp2355
Rp2356
sVAH1V
p2357
g1
((lp2358
S'love'
p2359
atp2360
Rp2361
sVAH1P
p2362
g1
((lp2363
S'up'
p2364
atp2365
Rp2366
sVAH1S
p2367
g1
((lp2368
S'plus'
p2369
atp2370
Rp2371
sVAO1LZ
p2372
g1
((lp2373
S'balls'
p2374
atp2375
Rp2376
sVAH1Z
p2377
g1
((lp2378
S'was'
p2379
aS'buzz'
p2380
atp2381
Rp2382
sVAH1D
p2383
g1
((lp2384
S'mud'
p2385
aS'blood'
p2386
atp2387
Rp2388
sVAH1F
p2389
g1
((lp2390
S'puff'
p2391
aS'rough'
p2392
aS'stuff'
p2393
aS'tough'
p2394
atp2395
Rp2396
sVAH1G
p2397
g1
((lp2398
S'shrug'
p2399
aS'hug'
p2400
aS'ugh'
p2401
aS'drug'
p2402
atp2403
Rp2404
sVAH1B
p2405
g1
((lp2406
S'club'
p2407
atp2408
Rp2409
sVOY1NTS
p2410
g1
((lp2411
S'joints'
p2412
aS'points'
p2413
atp2414
Rp2415
sVAH1M
p2416
g1
((lp2417
S'come'
p2418
aS'dumb'
p2419
aS'some'
p2420
aS'yum'
p2421
aS'from'
p2422
atp2423
Rp2424
sVAH1N
p2425
g1
((lp2426
S'none'
p2427
aS'run'
p2428
aS'gun'
p2429
aS'son'
p2430
aS'won'
p2431
aS'ton'
p2432
aS'fun'
p2433
aS'done'
p2434
aS'one'
p2435
atp2436
Rp2437
sVAH1K
p2438
g1
((lp2439
S'buck'
p2440
aS'fuck'
p2441
aS'chuck'
p2442
aS'stuck'
p2443
aS'truck'
p2444
aS'duck'
p2445
aS'suck'
p2446
atp2447
Rp2448
sVIH1PT
p2449
g1
((lp2450
S'slipped'
p2451
aS'tripped'
p2452
atp2453
Rp2454
sVIH1PS
p2455
g1
((lp2456
S'ships'
p2457
aS'flips'
p2458
aS'lips'
p2459
aS'whips'
p2460
aS'trips'
p2461
aS'hips'
p2462
atp2463
Rp2464
sVOW1ZD
p2465
g1
((lp2466
S'closed'
p2467
atp2468
Rp2469
sVEY1VD
p2470
g1
((lp2471
S'saved'
p2472
atp2473
Rp2474
sVEY1VZ
p2475
g1
((lp2476
S'slaves'
p2477
atp2478
Rp2479
sVOY1NT
p2480
g1
((lp2481
S'joint'
p2482
aS'point'
p2483
atp2484
Rp2485
sVIH1NG
p2486
g1
((lp2487
S'king'
p2488
aS'string'
p2489
aS'thing'
p2490
aS'spring'
p2491
aS'bring'
p2492
aS'cling'
p2493
aS'sing'
p2494
aS'ring'
p2495
atp2496
Rp2497
sVEY1LZ
p2498
g1
((lp2499
S'bales'
p2500
atp2501
Rp2502
sVUW1DZ
p2503
g1
((lp2504
S'dudes'
p2505
atp2506
Rp2507
sVAE1NDZ
p2508
g1
((lp2509
S'bands'
p2510
aS'lands'
p2511
aS'hands'
p2512
atp2513
Rp2514
sVIH1NT
p2515
g1
((lp2516
S"didn't"
p2517
atp2518
Rp2519
sVIH1NS
p2520
g1
((lp2521
S'since'
p2522
atp2523
Rp2524
sVAY1MZ
p2525
g1
((lp2526
S'dimes'
p2527
aS'rhymes'
p2528
aS'times'
p2529
atp2530
Rp2531
sVAE1
p2532
g1
((lp2533
S'ratify'
p2534
aS'ad-lib'
p2535
aS'banging'
p2536
aS'lavish'
p2537
aS'manager'
p2538
aS'planning'
p2539
aS'hangover'
p2540
aS"that'll"
p2541
aS'captain'
p2542
aS'afro'
p2543
aS'shadow'
p2544
aS'avid'
p2545
aS'paris'
p2546
aS'backpack'
p2547
aS'actually'
p2548
aS'gangsta'
p2549
aS'magnify'
p2550
aS'dandelion'
p2551
aS'matches'
p2552
aS'practice'
p2553
aS'matters'
p2554
aS'caterpillar'
p2555
aS'cannot'
p2556
aS'balancing'
p2557
aS'flammable'
p2558
aS'nasty'
p2559
aS'fantasizing'
p2560
aS'magic'
p2561
aS'alma'
p2562
aS'rapper'
p2563
aS'alice'
p2564
aS'candy'
p2565
aS'anxious'
p2566
aS'ashes'
p2567
aS'laughing'
p2568
aS'fallon'
p2569
aS'taffy'
p2570
aS'habit'
p2571
aS'national'
p2572
aS'yeah'
p2573
aS'carry'
p2574
aS'catching'
p2575
aS'taxes'
p2576
aS'happen'
p2577
aS'acid'
p2578
aS'hammer'
p2579
aS'album'
p2580
aS'palette'
p2581
aS"daddy's"
p2582
aS'jackson'
p2583
aS'anthem'
p2584
aS'rascal'
p2585
aS'acting'
p2586
aS'asking'
p2587
aS"grandma's"
p2588
aS'khaki'
p2589
aS'packing'
p2590
aS'santa'
p2591
aS'grandma'
p2592
aS'standpoint'
p2593
aS'chatham'
p2594
aS'acrobat'
p2595
aS'panel'
p2596
aS'fatter'
p2597
aS'backless'
p2598
aS'balance'
p2599
aS'talent'
p2600
aS'talented'
p2601
aS'ashy'
p2602
aS'aggy'
p2603
aS'apple'
p2604
aS'family'
p2605
aS'auntie'
p2606
aS'smashing'
p2607
aS'analyzing'
p2608
aS'vagabond'
p2609
aS'standing'
p2610
aS'pastures'
p2611
aS'accent'
p2612
aS'plastic'
p2613
aS'cali'
p2614
aS'master'
p2615
aS'rancher'
p2616
aS'happy'
p2617
aS'african'
p2618
aS'vagabonds'
p2619
aS'maxim'
p2620
aS'baptized'
p2621
aS'rabbit'
p2622
aS'atom'
p2623
aS'actual'
p2624
aS'albums'
p2625
aS'packers'
p2626
aS'mavericks'
p2627
aS'raspy'
p2628
aS'planet'
p2629
aS'matter'
p2630
aS'daffodils'
p2631
aS'apples'
p2632
aS'faggot'
p2633
aS'daddy'
p2634
aS'palace'
p2635
aS'classic'
p2636
aS'planking'
p2637
aS'alley'
p2638
aS'lasted'
p2639
aS'mater'
p2640
aS'gallon'
p2641
aS'balcony'
p2642
aS'bangers'
p2643
aS'lacking'
p2644
aS'dancing'
p2645
aS'campers'
p2646
aS'gravity'
p2647
aS'actor'
p2648
aS'panties'
p2649
aS'gallo'
p2650
aS'status'
p2651
aS'happens'
p2652
aS'classmates'
p2653
aS'salad'
p2654
aS'manor'
p2655
aS'rappers'
p2656
aS'after'
p2657
aS'addict'
p2658
aS'cracking'
p2659
aS'faculty'
p2660
aS'tackle'
p2661
aS'backyard'
p2662
aS'alibis'
p2663
aS'tallied'
p2664
aS'tassel'
p2665
aS'ashley'
p2666
aS'snapping'
p2667
aS'magical'
p2668
aS'jacket'
p2669
aS'baggage'
p2670
aS'bracket'
p2671
aS'classy'
p2672
aS'flapping'
p2673
atp2674
Rp2675
sVAE0
p2676
g1
((lp2677
S'tattoo'
p2678
aS'ballet'
p2679
aS'ambition'
p2680
aS'baptized'
p2681
aS'valet'
p2682
atp2683
Rp2684
sVAE2
p2685
g1
((lp2686
S'alexander'
p2687
atp2688
Rp2689
sVAY1MD
p2690
g1
((lp2691
S'rhymed'
p2692
atp2693
Rp2694
sVOW1B
p2695
g1
((lp2696
S'job'
p2697
atp2698
Rp2699
sVOW1ST
p2700
g1
((lp2701
S'most'
p2702
atp2703
Rp2704
sVAY1VD
p2705
g1
((lp2706
S'lived'
p2707
atp2708
Rp2709
sVAE1M
p2710
g1
((lp2711
S'jam'
p2712
aS'damn'
p2713
atp2714
Rp2715
sVAE1L
p2716
g1
((lp2717
S'dal'
p2718
atp2719
Rp2720
sVAE1N
p2721
g1
((lp2722
S'zan'
p2723
aS'ran'
p2724
aS'jan'
p2725
aS'fan'
p2726
aS'plan'
p2727
aS'man'
p2728
aS'than'
p2729
aS'can'
p2730
atp2731
Rp2732
sVAE1K
p2733
g1
((lp2734
S'wack'
p2735
aS'back'
p2736
aS'mac'
p2737
aS'pac'
p2738
aS'black'
p2739
aS'jack'
p2740
aS'crack'
p2741
aS'knack'
p2742
aS'pack'
p2743
atp2744
Rp2745
sVAE1D
p2746
g1
((lp2747
S'dad'
p2748
aS'had'
p2749
aS'add'
p2750
aS'bad'
p2751
aS'pad'
p2752
aS'mad'
p2753
aS'glad'
p2754
atp2755
Rp2756
sVAE1G
p2757
g1
((lp2758
S'rag'
p2759
aS'tag'
p2760
aS'bag'
p2761
atp2762
Rp2763
sVAE1F
p2764
g1
((lp2765
S'laugh'
p2766
aS'half'
p2767
atp2768
Rp2769
sVAE1B
p2770
g1
((lp2771
S'cab'
p2772
aS'grab'
p2773
aS'jab'
p2774
aS'tab'
p2775
aS'lab'
p2776
atp2777
Rp2778
sVAE1Z
p2779
g1
((lp2780
S'as'
p2781
aS'has'
p2782
atp2783
Rp2784
sVAE1T
p2785
g1
((lp2786
S'matt'
p2787
aS'pat'
p2788
aS'that'
p2789
aS'fat'
p2790
aS'cat'
p2791
aS'nat'
p2792
aS'hat'
p2793
aS'sat'
p2794
atp2795
Rp2796
sVER0M
p2797
g1
((lp2798
S'from'
p2799
atp2800
Rp2801
sVAE1P
p2802
g1
((lp2803
S'map'
p2804
aS'scrap'
p2805
aS'slap'
p2806
aS'strap'
p2807
aS'nap'
p2808
aS'trap'
p2809
aS'rap'
p2810
aS'wrap'
p2811
aS'lap'
p2812
aS'clap'
p2813
atp2814
Rp2815
sVAE1S
p2816
g1
((lp2817
S'ass'
p2818
aS'last'
p2819
aS'gas'
p2820
aS'class'
p2821
aS'pass'
p2822
atp2823
Rp2824
sVAO1NTS
p2825
g1
((lp2826
S'wants'
p2827
atp2828
Rp2829
sVAE1SHT
p2830
g1
((lp2831
S'smashed'
p2832
atp2833
Rp2834
sVAE1NGKS
p2835
g1
((lp2836
S'thanks'
p2837
aS'tanks'
p2838
atp2839
Rp2840
sVAO1RTS
p2841
g1
((lp2842
S'forts'
p2843
atp2844
Rp2845
sVAE1SKT
p2846
g1
((lp2847
S'asked'
p2848
atp2849
Rp2850
sVAH1PS
p2851
g1
((lp2852
S'ups'
p2853
atp2854
Rp2855
sVAO1RTH
p2856
g1
((lp2857
S'north'
p2858
aS'forth'
p2859
aS'fourth'
p2860
atp2861
Rp2862
sVAA1CH
p2863
g1
((lp2864
S'watch'
p2865
atp2866
Rp2867
sVAH1BZ
p2868
g1
((lp2869
S'clubs'
p2870
aS'dubs'
p2871
atp2872
Rp2873
sVAH1NGK
p2874
g1
((lp2875
S'punk'
p2876
atp2877
Rp2878
sS'D IY1'
p2879
g1
((lp2880
S'dj'
p2881
atp2882
Rp2883
sVIY1LZ
p2884
g1
((lp2885
S'heels'
p2886
aS'meals'
p2887
atp2888
Rp2889
sVER1LZ
p2890
g1
((lp2891
S"girl's"
p2892
aS'girls'
p2893
atp2894
Rp2895
sVIH1TH
p2896
g1
((lp2897
S'with'
p2898
atp2899
Rp2900
sVUW1NDZ
p2901
g1
((lp2902
S'wounds'
p2903
atp2904
Rp2905
sVAO1LT
p2906
g1
((lp2907
S'fault'
p2908
atp2909
Rp2910
sVIH1TS
p2911
g1
((lp2912
S"it's"
p2913
aS'hits'
p2914
aS'its'
p2915
aS'splits'
p2916
atp2917
Rp2918
sVAE1CH
p2919
g1
((lp2920
S'catch'
p2921
aS'batch'
p2922
aS'match'
p2923
atp2924
Rp2925
sVEY1JH
p2926
g1
((lp2927
S'rage'
p2928
atp2929
Rp2930
sVAW1DZ
p2931
g1
((lp2932
S'clouds'
p2933
atp2934
Rp2935
sVER1LD
p2936
g1
((lp2937
S'world'
p2938
atp2939
Rp2940
sVIH1SP
p2941
g1
((lp2942
S'crisp'
p2943
atp2944
Rp2945
sVAA1RDZ
p2946
g1
((lp2947
S'cards'
p2948
atp2949
Rp2950
sVIH1BZ
p2951
g1
((lp2952
S'cribs'
p2953
atp2954
Rp2955
sVAH1JH
p2956
g1
((lp2957
S'budge'
p2958
atp2959
Rp2960
sVOW1
p2961
g1
((lp2962
S'hoping'
p2963
aS'show'
p2964
aS'throwing'
p2965
aS'over'
p2966
aS'boeing'
p2967
aS'bro'
p2968
aS'tony'
p2969
aS'boney'
p2970
aS'sosa'
p2971
aS'go'
p2972
aS'kobe'
p2973
aS'open'
p2974
aS'blow'
p2975
aS'slow'
p2976
aS'opened'
p2977
aS'no'
p2978
aS'snowing'
p2979
aS'snow'
p2980
aS'throw'
p2981
aS'okie'
p2982
aS'showtime'
p2983
aS'only'
p2984
aS'joseph'
p2985
aS'notice'
p2986
aS'low'
p2987
aS'holding'
p2988
aS'poet'
p2989
aS'bogus'
p2990
aS'noble'
p2991
aS'chauffeurs'
p2992
aS'nobody'
p2993
aS'yo'
p2994
aS'though'
p2995
aS'poster'
p2996
aS'showing'
p2997
aS'bo'
p2998
aS'mow'
p2999
aS'broker'
p3000
aS'tokens'
p3001
aS'broken'
p3002
aS'oceans'
p3003
aS'know'
p3004
aS'rolling'
p3005
aS'smoking'
p3006
aS'grow'
p3007
aS'motorcycles'
p3008
aS'nowhere'
p3009
aS'going'
p3010
aS'joe'
p3011
aS'tokyo'
p3012
aS'ok'
p3013
aS'rollie'
p3014
aS'oh'
p3015
aS'older'
p3016
aS'flow'
p3017
aS'holiest'
p3018
aS'bow'
p3019
aS'kosher'
p3020
aS'moment'
p3021
aS'rodeo'
p3022
aS"goin'"
p3023
aS'so'
p3024
aS'coco'
p3025
aS'overseas'
p3026
aS'ho'
p3027
atp3028
Rp3029
sVOW0
p3030
g1
((lp3031
S'chauffeurs'
p3032
aS'holistic'
p3033
aS'moscato'
p3034
aS'romaine'
p3035
aS'cocaine'
p3036
aS'hotels'
p3037
atp3038
Rp3039
sVOW2
p3040
g1
((lp3041
S'overprotective'
p3042
aS'okay'
p3043
atp3044
Rp3045
sVIH0DH
p3046
g1
((lp3047
S'with'
p3048
atp3049
Rp3050
sVAA1RMZ
p3051
g1
((lp3052
S'arms'
p3053
atp3054
Rp3055
sVIY1D
p3056
g1
((lp3057
S'feed'
p3058
aS'read'
p3059
aS'weed'
p3060
aS'seed'
p3061
aS'need'
p3062
aS'fried'
p3063
aS'speed'
p3064
aS'bleed'
p3065
aS'freed'
p3066
atp3067
Rp3068
sVAO1CHT
p3069
g1
((lp3070
S'watched'
p3071
atp3072
Rp3073
sVIY1F
p3074
g1
((lp3075
S'keef'
p3076
aS'leaf'
p3077
aS'beef'
p3078
atp3079
Rp3080
sVIH1KT
p3081
g1
((lp3082
S'kicked'
p3083
aS'picked'
p3084
atp3085
Rp3086
sVIY1K
p3087
g1
((lp3088
S'week'
p3089
aS'fleek'
p3090
aS'tweak'
p3091
aS'weak'
p3092
aS'geek'
p3093
aS'peak'
p3094
aS'speak'
p3095
atp3096
Rp3097
sVIY1M
p3098
g1
((lp3099
S'beam'
p3100
aS'seem'
p3101
aS'team'
p3102
aS'dream'
p3103
aS'cream'
p3104
atp3105
Rp3106
sVIY1L
p3107
g1
((lp3108
S'real'
p3109
aS"she'll"
p3110
aS'deal'
p3111
aS'feel'
p3112
aS'steal'
p3113
aS"he'll"
p3114
atp3115
Rp3116
sVIY1N
p3117
g1
((lp3118
S'spleen'
p3119
aS'queen'
p3120
aS'lean'
p3121
aS'bean'
p3122
aS'green'
p3123
aS'clean'
p3124
aS'seen'
p3125
aS'jean'
p3126
aS'mean'
p3127
atp3128
Rp3129
sVIY1P
p3130
g1
((lp3131
S'sheep'
p3132
aS'sleep'
p3133
aS'deep'
p3134
aS'keep'
p3135
atp3136
Rp3137
sVIY1S
p3138
g1
((lp3139
S'peace'
p3140
aS'piece'
p3141
aS'nice'
p3142
atp3143
Rp3144
sVIY1R
p3145
g1
((lp3146
S'hear'
p3147
aS"we're"
p3148
aS'here'
p3149
atp3150
Rp3151
sVIY1
p3152
g1
((lp3153
S'recess'
p3154
aS'being'
p3155
aS'meetings'
p3156
aS'leeway'
p3157
aS'sneaking'
p3158
aS'dreamer'
p3159
aS'feeding'
p3160
aS're'
p3161
aS'peanut'
p3162
aS'weekends'
p3163
aS'teaching'
p3164
aS'easier'
p3165
aS'breathing'
p3166
aS"leno's"
p3167
aS'beater'
p3168
aS'gee'
p3169
aS'feelings'
p3170
aS'screaming'
p3171
aS'realize'
p3172
aS'preschool'
p3173
aS'd'
p3174
aS'detroit'
p3175
aS't'
p3176
aS'people'
p3177
aS'seasoning'
p3178
aS'tea'
p3179
aS'see'
p3180
aS'peter'
p3181
aS'really'
p3182
aS'even'
p3183
aS'cheeses'
p3184
aS'demons'
p3185
aS'genius'
p3186
aS'sneakers'
p3187
aS'reader'
p3188
aS'she'
p3189
aS'be'
p3190
aS'we'
p3191
aS'eating'
p3192
aS'leaning'
p3193
aS'equals'
p3194
aS'free'
p3195
aS"people's"
p3196
aS'teacher'
p3197
aS'freedom'
p3198
aS'stephenson'
p3199
aS'leaving'
p3200
aS'pico'
p3201
aS'threesome'
p3202
aS'teammates'
p3203
aS'seeing'
p3204
aS'dino'
p3205
aS'jesus'
p3206
aS'reborn'
p3207
aS'female'
p3208
aS'dreaming'
p3209
aS'three'
p3210
aS'eleven'
p3211
aS'peaceful'
p3212
aS"feelin'"
p3213
aS'speaking'
p3214
aS'kiwi'
p3215
aS'cremate'
p3216
aS'deeper'
p3217
aS'sequel'
p3218
aS'he'
p3219
aS'me'
p3220
aS'keeping'
p3221
aS'b'
p3222
aS'sleeveless'
p3223
aS'mi'
p3224
aS'seesaw'
p3225
aS'levis'
p3226
aS'v'
p3227
aS'feeling'
p3228
aS'creeping'
p3229
aS'needing'
p3230
aS've'
p3231
aS'shia'
p3232
aS'pieces'
p3233
aS'dealer'
p3234
aS'leafless'
p3235
aS'feature'
p3236
aS'nico'
p3237
aS'evenings'
p3238
aS"jesus'"
p3239
aS'de'
p3240
aS'leno'
p3241
aS'evil'
p3242
aS'pizzas'
p3243
aS'realized'
p3244
aS'e'
p3245
aS'ego'
p3246
aS'senior'
p3247
atp3248
Rp3249
sVIY0
p3250
g1
((lp3251
S'eventually'
p3252
aS'rely'
p3253
aS'retire'
p3254
aS'reclining'
p3255
aS'remember'
p3256
aS'be'
p3257
aS'relate'
p3258
aS'pretend'
p3259
aS'replays'
p3260
aS'remain'
p3261
aS'recruitment'
p3262
aS'enough'
p3263
aS'replay'
p3264
aS'present'
p3265
aS'respect'
p3266
aS'the'
p3267
aS'reinvent'
p3268
aS'rekindle'
p3269
aS'events'
p3270
aS'preschool'
p3271
atp3272
Rp3273
sVIY1V
p3274
g1
((lp3275
S'steve'
p3276
aS'leave'
p3277
atp3278
Rp3279
sVIY1Z
p3280
g1
((lp3281
S'knees'
p3282
aS'cheese'
p3283
aS'these'
p3284
aS"he's"
p3285
aS'please'
p3286
aS'trees'
p3287
aS'keys'
p3288
aS"b's"
p3289
aS"she's"
p3290
atp3291
Rp3292
sVAO1SH
p3293
g1
((lp3294
S'wash'
p3295
atp3296
Rp3297
sS'K AA1 N'
p3298
g1
((lp3299
S'kanye'
p3300
atp3301
Rp3302
sVAO1LD
p3303
g1
((lp3304
S'called'
p3305
atp3306
Rp3307
sS'N IH1'
p3308
g1
((lp3309
S'nigga'
p3310
atp3311
Rp3312
sVAO1ST
p3313
g1
((lp3314
S'cost'
p3315
aS'last'
p3316
aS'lost'
p3317
atp3318
Rp3319
sVIH1NGKS
p3320
g1
((lp3321
S'thinks'
p3322
aS'drinks'
p3323
atp3324
Rp3325
sVAH0T
p3326
g1
((lp3327
S'that'
p3328
atp3329
Rp3330
sVAH0Z
p3331
g1
((lp3332
S'has'
p3333
aS'was'
p3334
aS"'cause"
p3335
atp3336
Rp3337
sVAA1FT
p3338
g1
((lp3339
S'soft'
p3340
atp3341
Rp3342
sVAH0N
p3343
g1
((lp3344
S'can'
p3345
aS'been'
p3346
aS'than'
p3347
atp3348
Rp3349
sVAH0M
p3350
g1
((lp3351
S"i'm"
p3352
aS'them'
p3353
aS"'em"
p3354
atp3355
Rp3356
sVAE1SK
p3357
g1
((lp3358
S'ask'
p3359
aS'mask'
p3360
atp3361
Rp3362
sVAA1TS
p3363
g1
((lp3364
S'hots'
p3365
aS'shots'
p3366
atp3367
Rp3368
sVIH1Z
p3369
g1
((lp3370
S'is'
p3371
aS'his'
p3372
aS'quiz'
p3373
atp3374
Rp3375
sVIH1T
p3376
g1
((lp3377
S'hit'
p3378
aS'fit'
p3379
aS'spit'
p3380
aS'get'
p3381
aS'sit'
p3382
aS'it'
p3383
aS'lit'
p3384
aS'split'
p3385
aS'bit'
p3386
aS'shit'
p3387
atp3388
Rp3389
sVIH1V
p3390
g1
((lp3391
S'live'
p3392
aS'give'
p3393
atp3394
Rp3395
sVIH1P
p3396
g1
((lp3397
S'hip'
p3398
aS'grip'
p3399
aS'sip'
p3400
aS'flip'
p3401
aS'ship'
p3402
aS'dip'
p3403
aS'trip'
p3404
aS'whip'
p3405
atp3406
Rp3407
sVIH1R
p3408
g1
((lp3409
S'dear'
p3410
aS'clear'
p3411
aS'near'
p3412
aS"we're"
p3413
aS'year'
p3414
atp3415
Rp3416
sVIH1S
p3417
g1
((lp3418
S'this'
p3419
aS'chris'
p3420
aS'diss'
p3421
aS'miss'
p3422
aS'kiss'
p3423
atp3424
Rp3425
sVIH1L
p3426
g1
((lp3427
S'thrill'
p3428
aS'spill'
p3429
aS'lil'
p3430
aS'bill'
p3431
aS'til'
p3432
aS'till'
p3433
aS'kill'
p3434
aS"'til"
p3435
aS'mil'
p3436
aS'still'
p3437
aS'pill'
p3438
aS'chill'
p3439
atp3440
Rp3441
sVIH1M
p3442
g1
((lp3443
S'him'
p3444
atp3445
Rp3446
sVIH1N
p3447
g1
((lp3448
S'win'
p3449
aS'when'
p3450
aS'been'
p3451
aS'chin'
p3452
aS'in'
p3453
aS'gin'
p3454
aS'sin'
p3455
atp3456
Rp3457
sVIH1K
p3458
g1
((lp3459
S'flick'
p3460
aS'vic'
p3461
aS'pic'
p3462
aS'mic'
p3463
aS'dick'
p3464
aS'bic'
p3465
aS'slick'
p3466
aS'lick'
p3467
aS'stick'
p3468
aS'sick'
p3469
aS'pick'
p3470
aS'quick'
p3471
aS'brick'
p3472
aS'kick'
p3473
atp3474
Rp3475
sVIH1D
p3476
g1
((lp3477
S'did'
p3478
aS'rid'
p3479
aS'hid'
p3480
aS'kid'
p3481
atp3482
Rp3483
sVIH1F
p3484
g1
((lp3485
S'if'
p3486
atp3487
Rp3488
sVIH1G
p3489
g1
((lp3490
S'big'
p3491
atp3492
Rp3493
sVIH1B
p3494
g1
((lp3495
S'bib'
p3496
aS'crib'
p3497
atp3498
Rp3499
sVAO1Z
p3500
g1
((lp3501
S'cause'
p3502
aS'claus'
p3503
aS'was'
p3504
atp3505
Rp3506
sVAE1JH
p3507
g1
((lp3508
S'badge'
p3509
atp3510
Rp3511
sVAO1S
p3512
g1
((lp3513
S'toss'
p3514
aS'loss'
p3515
aS'sauce'
p3516
aS'boss'
p3517
atp3518
Rp3519
sVAO1R
p3520
g1
((lp3521
S'or'
p3522
aS'door'
p3523
aS'wore'
p3524
aS'for'
p3525
aS'floor'
p3526
aS'pour'
p3527
aS'war'
p3528
aS'four'
p3529
aS'score'
p3530
aS'thor'
p3531
aS'your'
p3532
aS'whore'
p3533
aS'more'
p3534
atp3535
Rp3536
sVAO1P
p3537
g1
((lp3538
S'top'
p3539
aS'drop'
p3540
atp3541
Rp3542
sVAO1T
p3543
g1
((lp3544
S'thought'
p3545
aS'brought'
p3546
aS'caught'
p3547
aS'taught'
p3548
aS'lot'
p3549
atp3550
Rp3551
sVAO1K
p3552
g1
((lp3553
S'talk'
p3554
aS'walk'
p3555
atp3556
Rp3557
sVAO1N
p3558
g1
((lp3559
S'on'
p3560
aS'lawn'
p3561
aS'dawn'
p3562
aS'gone'
p3563
atp3564
Rp3565
sVAO1M
p3566
g1
((lp3567
S'bomb'
p3568
atp3569
Rp3570
sVAO1L
p3571
g1
((lp3572
S'all'
p3573
aS'ball'
p3574
aS'wall'
p3575
aS'stall'
p3576
aS'call'
p3577
aS'fall'
p3578
aS'small'
p3579
aS'tall'
p3580
atp3581
Rp3582
sVAH1TS
p3583
g1
((lp3584
S"what's"
p3585
atp3586
Rp3587
sVIH1FTS
p3588
g1
((lp3589
S'gifts'
p3590
atp3591
Rp3592
sVAO1G
p3593
g1
((lp3594
S'dog'
p3595
atp3596
Rp3597
sVAO1F
p3598
g1
((lp3599
S'off'
p3600
atp3601
Rp3602
sVAO1D
p3603
g1
((lp3604
S'fraud'
p3605
atp3606
Rp3607
sS'M AH2'
p3608
g1
((lp3609
S'motherfucking'
p3610
aS'motherfucker'
p3611
atp3612
Rp3613
sVEY1K
p3614
g1
((lp3615
S'sake'
p3616
aS'make'
p3617
aS'fake'
p3618
aS'lake'
p3619
aS'drake'
p3620
aS'break'
p3621
aS'wake'
p3622
aS'take'
p3623
aS'shake'
p3624
aS'brake'
p3625
atp3626
Rp3627
sVUW1
p3628
g1
((lp3629
S'uber'
p3630
aS'houston'
p3631
aS'doing'
p3632
aS'funerals'
p3633
aS'beautiful'
p3634
aS'hoover'
p3635
aS'through'
p3636
aS'shoe'
p3637
aS'choosing'
p3638
aS'cruising'
p3639
aS'glue'
p3640
aS'shooting'
p3641
aS'cubicle'
p3642
aS'looser'
p3643
aS'chewing'
p3644
aS'blue'
p3645
aS'mutual'
p3646
aS'suicide'
p3647
aS'rumors'
p3648
aS'ruthless'
p3649
aS'super'
p3650
aS'hugh'
p3651
aS'two'
p3652
aS'cupid'
p3653
aS'to'
p3654
aS'studious'
p3655
aS'lucifer'
p3656
aS'music'
p3657
aS'too'
p3658
aS'booties'
p3659
aS'shootouts'
p3660
aS'new'
p3661
aS'you'
p3662
aS'tuesdays'
p3663
aS'shooters'
p3664
aS'blueprint'
p3665
aS'who'
p3666
aS'stupid'
p3667
aS'beauty'
p3668
aS'cuba'
p3669
aS'students'
p3670
aS'lucid'
p3671
aS'knew'
p3672
aS"doin'"
p3673
aS'ooh'
p3674
aS'dougie'
p3675
aS'beautician'
p3676
aS'losing'
p3677
aS'future'
p3678
aS'true'
p3679
aS'union'
p3680
aS'mucus'
p3681
aS'grew'
p3682
aS'cooler'
p3683
aS'shooter'
p3684
aS'loosely'
p3685
aS'lucy'
p3686
aS'coupon'
p3687
aS'movies'
p3688
aS'goofy'
p3689
aS'crucifix'
p3690
aS'oooh'
p3691
aS'movie'
p3692
aS'threw'
p3693
aS'lupus'
p3694
aS'view'
p3695
atp3696
Rp3697
sVUW0
p3698
g1
((lp3699
S'tonight'
p3700
aS'nutrition'
p3701
aS'lewinsky'
p3702
aS'today'
p3703
aS'tuition'
p3704
atp3705
Rp3706
sVOW1KS
p3707
g1
((lp3708
S'folks'
p3709
aS'jokes'
p3710
atp3711
Rp3712
sVAE1NGK
p3713
g1
((lp3714
S'drank'
p3715
aS'tank'
p3716
aS'thank'
p3717
aS'bank'
p3718
aS'blank'
p3719
atp3720
Rp3721
sVIY1LDZ
p3722
g1
((lp3723
S'fields'
p3724
atp3725
Rp3726
sVUH1SH
p3727
g1
((lp3728
S'push'
p3729
atp3730
Rp3731
sVAO1RTHS
p3732
g1
((lp3733
S'fourths'
p3734
atp3735
Rp3736
sVEH1LTS
p3737
g1
((lp3738
S'melts'
p3739
atp3740
Rp3741
sVIH1FT
p3742
g1
((lp3743
S'lift'
p3744
aS'gift'
p3745
atp3746
Rp3747
sVIH1FS
p3748
g1
((lp3749
S'gifts'
p3750
aS'fifths'
p3751
atp3752
Rp3753
sVOY1L
p3754
g1
((lp3755
S'soil'
p3756
atp3757
Rp3758
sVOY1S
p3759
g1
((lp3760
S'voice'
p3761
aS'royce'
p3762
aS'choice'
p3763
atp3764
Rp3765
sVOY1Z
p3766
g1
((lp3767
S'boys'
p3768
aS'noise'
p3769
aS'toys'
p3770
atp3771
Rp3772
sVAH1MP
p3773
g1
((lp3774
S'jump'
p3775
atp3776
Rp3777
sVAH1MZ
p3778
g1
((lp3779
S'gums'
p3780
aS'slums'
p3781
atp3782
Rp3783
sVUH1R
p3784
g1
((lp3785
S"you're"
p3786
aS'tour'
p3787
aS'sure'
p3788
aS'your'
p3789
aS'pure'
p3790
atp3791
Rp3792
sVUH1T
p3793
g1
((lp3794
S'put'
p3795
aS'foot'
p3796
atp3797
Rp3798
sVUH1K
p3799
g1
((lp3800
S'book'
p3801
aS'took'
p3802
aS'look'
p3803
atp3804
Rp3805
sVUH1L
p3806
g1
((lp3807
S'pull'
p3808
aS'full'
p3809
aS'bull'
p3810
atp3811
Rp3812
sVUH1D
p3813
g1
((lp3814
S'good'
p3815
aS"you'd"
p3816
aS'would'
p3817
aS'could'
p3818
aS'should'
p3819
aS'hood'
p3820
atp3821
Rp3822
sVUH1F
p3823
g1
((lp3824
S'roof'
p3825
atp3826
Rp3827
sVOW1Z
p3828
g1
((lp3829
S'toes'
p3830
aS'nose'
p3831
aS'goes'
p3832
aS'hoes'
p3833
aS'close'
p3834
aS'shows'
p3835
aS'those'
p3836
aS'clothes'
p3837
atp3838
Rp3839
sVAY1NZ
p3840
g1
((lp3841
S'lines'
p3842
aS'signs'
p3843
atp3844
Rp3845
sVOW1P
p3846
g1
((lp3847
S'dope'
p3848
aS'hope'
p3849
atp3850
Rp3851
sVOW1S
p3852
g1
((lp3853
S'close'
p3854
aS'most'
p3855
atp3856
Rp3857
sVEY1PS
p3858
g1
((lp3859
S'tapes'
p3860
atp3861
Rp3862
sVEY1JHD
p3863
g1
((lp3864
S'aged'
p3865
atp3866
Rp3867
sVOW1K
p3868
g1
((lp3869
S'poke'
p3870
aS'soak'
p3871
aS'joke'
p3872
aS'choke'
p3873
aS'smoke'
p3874
aS'woke'
p3875
atp3876
Rp3877
sVOW1M
p3878
g1
((lp3879
S'home'
p3880
atp3881
Rp3882
sVOW1L
p3883
g1
((lp3884
S'sole'
p3885
aS'bowl'
p3886
aS'soul'
p3887
aS'pole'
p3888
aS'toll'
p3889
aS'whole'
p3890
aS'roll'
p3891
atp3892
Rp3893
sVOW1N
p3894
g1
((lp3895
S'grown'
p3896
aS'phone'
p3897
aS'stone'
p3898
aS'own'
p3899
aS"don't"
p3900
atp3901
Rp3902
sVAY1ND
p3903
g1
((lp3904
S'kind'
p3905
aS'lined'
p3906
aS'mind'
p3907
aS'find'
p3908
aS'signed'
p3909
atp3910
Rp3911
sVAY1NG
p3912
g1
((lp3913
S'trying'
p3914
atp3915
Rp3916
sVAA1KS
p3917
g1
((lp3918
S'box'
p3919
aS'fox'
p3920
aS'socks'
p3921
aS'rocks'
p3922
atp3923
Rp3924
sVOW1D
p3925
g1
((lp3926
S'toed'
p3927
aS'mode'
p3928
aS'road'
p3929
atp3930
Rp3931
sVIH1FTHS
p3932
g1
((lp3933
S'fifths'
p3934
atp3935
Rp3936
sVER0Z
p3937
g1
((lp3938
S'yours'
p3939
aS'years'
p3940
atp3941
Rp3942
sVEY1ND
p3943
g1
((lp3944
S'stained'
p3945
atp3946
Rp3947
sVAA1PS
p3948
g1
((lp3949
S'pops'
p3950
aS'cops'
p3951
atp3952
Rp3953
sVAE1GD
p3954
g1
((lp3955
S'bagged'
p3956
atp3957
Rp3958
sVAA1PT
p3959
g1
((lp3960
S'popped'
p3961
aS'hopped'
p3962
aS'copped'
p3963
atp3964
Rp3965
sVEY1NJH
p3966
g1
((lp3967
S'change'
p3968
atp3969
Rp3970
sVEY1NT
p3971
g1
((lp3972
S"ain't"
p3973
atp3974
Rp3975
sVAE1GZ
p3976
g1
((lp3977
S'bags'
p3978
aS'tags'
p3979
atp3980
Rp3981
sVEY1NZ
p3982
g1
((lp3983
S'chains'
p3984
atp3985
Rp3986
sVAE1NS
p3987
g1
((lp3988
S'dance'
p3989
aS'lance'
p3990
aS'chance'
p3991
atp3992
Rp3993
sVAE1NT
p3994
g1
((lp3995
S"can't"
p3996
atp3997
Rp3998
sVEH1RZ
p3999
g1
((lp4000
S'tears'
p4001
aS"there's"
p4002
aS'stairs'
p4003
aS'squares'
p4004
atp4005
Rp4006
sVAE1NZ
p4007
g1
((lp4008
S'fans'
p4009
aS'mans'
p4010
aS'benz'
p4011
aS'hands'
p4012
atp4013
Rp4014
sVIY1MZ
p4015
g1
((lp4016
S'dreams'
p4017
atp4018
Rp4019
sVAE1ND
p4020
g1
((lp4021
S'and'
p4022
aS'land'
p4023
aS'brand'
p4024
aS'hand'
p4025
aS'sand'
p4026
aS'stand'
p4027
aS'grand'
p4028
atp4029
Rp4030
sVAE1NG
p4031
g1
((lp4032
S'hang'
p4033
aS'sang'
p4034
aS'bang'
p4035
aS'gang'
p4036
aS'dang'
p4037
aS'slang'
p4038
atp4039
Rp4040
sVEH1RD
p4041
g1
((lp4042
S'shared'
p4043
aS'scared'
p4044
atp4045
Rp4046
sVIY1CH
p4047
g1
((lp4048
S'teach'
p4049
aS'each'
p4050
atp4051
Rp4052
sVUW1Z
p4053
g1
((lp4054
S'use'
p4055
aS'shoes'
p4056
aS'views'
p4057
aS'cruise'
p4058
aS"who's"
p4059
aS'lose'
p4060
aS'chews'
p4061
aS'blues'
p4062
aS'news'
p4063
aS'dues'
p4064
atp4065
Rp4066
sVUW1V
p4067
g1
((lp4068
S'move'
p4069
aS"you've"
p4070
atp4071
Rp4072
sVUW1T
p4073
g1
((lp4074
S'shoot'
p4075
aS'cute'
p4076
aS'route'
p4077
aS'boot'
p4078
aS'fruit'
p4079
aS'suit'
p4080
atp4081
Rp4082
sVUW1S
p4083
g1
((lp4084
S'juice'
p4085
aS'use'
p4086
aS'deuce'
p4087
aS'loose'
p4088
atp4089
Rp4090
sVUW1R
p4091
g1
((lp4092
S"you're"
p4093
atp4094
Rp4095
sVUW1P
p4096
g1
((lp4097
S'scoop'
p4098
atp4099
Rp4100
sVUW1N
p4101
g1
((lp4102
S'soon'
p4103
atp4104
Rp4105
sVUW1M
p4106
g1
((lp4107
S'room'
p4108
atp4109
Rp4110
sVUW1L
p4111
g1
((lp4112
S'fool'
p4113
aS'school'
p4114
aS"you'll"
p4115
aS'drool'
p4116
aS'pool'
p4117
aS'cool'
p4118
atp4119
Rp4120
sVUW1K
p4121
g1
((lp4122
S'juke'
p4123
atp4124
Rp4125
sVUW1F
p4126
g1
((lp4127
S'poof'
p4128
aS'roof'
p4129
aS'proof'
p4130
atp4131
Rp4132
sVUW1D
p4133
g1
((lp4134
S'food'
p4135
aS'chewed'
p4136
aS'dude'
p4137
aS"you'd"
p4138
atp4139
Rp4140
sVIH1CH
p4141
g1
((lp4142
S'ditch'
p4143
aS'bitch'
p4144
aS'rich'
p4145
atp4146
Rp4147
sVIH1LZ
p4148
g1
((lp4149
S'grills'
p4150
aS'pills'
p4151
aS'kills'
p4152
aS'hills'
p4153
atp4154
Rp4155
sVOW1NZ
p4156
g1
((lp4157
S'stones'
p4158
atp4159
Rp4160
sVEH1ND
p4161
g1
((lp4162
S'send'
p4163
aS'end'
p4164
aS'spend'
p4165
aS'friend'
p4166
atp4167
Rp4168
sVOW1NT
p4169
g1
((lp4170
S"won't"
p4171
aS"don't"
p4172
atp4173
Rp4174
sVIH1SHT
p4175
g1
((lp4176
S'wished'
p4177
atp4178
Rp4179
sVIH1LT
p4180
g1
((lp4181
S'spilt'
p4182
atp4183
Rp4184
sVEH1NS
p4185
g1
((lp4186
S'tense'
p4187
aS'sense'
p4188
atp4189
Rp4190
sVIH1LK
p4191
g1
((lp4192
S'milk'
p4193
atp4194
Rp4195
sVEH1NT
p4196
g1
((lp4197
S'meant'
p4198
aS'went'
p4199
aS'rent'
p4200
atp4201
Rp4202
sVEH1NZ
p4203
g1
((lp4204
S'benz'
p4205
aS'friends'
p4206
atp4207
Rp4208
sVAE1PT
p4209
g1
((lp4210
S'trapped'
p4211
atp4212
Rp4213
sVAE1PS
p4214
g1
((lp4215
S'raps'
p4216
atp4217
Rp4218
sVEH1NTS
p4219
g1
((lp4220
S'vents'
p4221
atp4222
Rp4223
sVAA1RZ
p4224
g1
((lp4225
S'cars'
p4226
aS'scars'
p4227
aS'gars'
p4228
aS'stars'
p4229
atp4230
Rp4231
sVEH1KST
p4232
g1
((lp4233
S'next'
p4234
atp4235
Rp4236
sVAA1B
p4237
g1
((lp4238
S'job'
p4239
atp4240
Rp4241
sVER1TS
p4242
g1
((lp4243
S'shirts'
p4244
atp4245
Rp4246
sVAA1D
p4247
g1
((lp4248
S'god'
p4249
aS'squad'
p4250
aS'rod'
p4251
atp4252
Rp4253
sVAA1G
p4254
g1
((lp4255
S'hog'
p4256
aS'jog'
p4257
atp4258
Rp4259
sVAA1K
p4260
g1
((lp4261
S'kok'
p4262
aS'clock'
p4263
aS'walk'
p4264
aS'rock'
p4265
aS'cock'
p4266
aS'stock'
p4267
atp4268
Rp4269
sVAA1M
p4270
g1
((lp4271
S'bomb'
p4272
aS'mom'
p4273
atp4274
Rp4275
sVAA1L
p4276
g1
((lp4277
S'fall'
p4278
atp4279
Rp4280
sVAA1N
p4281
g1
((lp4282
S'on'
p4283
aS'john'
p4284
aS'won'
p4285
aS'xan'
p4286
atp4287
Rp4288
sVAA1P
p4289
g1
((lp4290
S'shop'
p4291
aS'cop'
p4292
aS'bop'
p4293
aS'top'
p4294
aS'drop'
p4295
aS'stop'
p4296
aS'pop'
p4297
atp4298
Rp4299
sVAA1S
p4300
g1
((lp4301
S'floss'
p4302
aS'boss'
p4303
atp4304
Rp4305
sVAA1R
p4306
g1
((lp4307
S'our'
p4308
aS'are'
p4309
aS'car'
p4310
atp4311
Rp4312
sVAA1T
p4313
g1
((lp4314
S'shot'
p4315
aS'caught'
p4316
aS'spot'
p4317
aS'hot'
p4318
aS'lot'
p4319
aS'not'
p4320
aS'got'
p4321
atp4322
Rp4323
sVAA1Z
p4324
g1
((lp4325
S'cause'
p4326
aS'was'
p4327
aS'cars'
p4328
atp4329
Rp4330
sVER1TH
p4331
g1
((lp4332
S'earth'
p4333
aS'worth'
p4334
atp4335
Rp4336
s.