ccollections
defaultdict
p0
(c__main__
dd
p1
tp2
Rp3
I1
g0
(c__builtin__
float
p4
tp5
Rp6
I0
F1.0
ssI2
g0
(g4
tp7
Rp8
I0
F0.56
sI1
F0.44
ssI3
g0
(g4
tp9
Rp10
I0
F0.34513274336283184
sI1
F0.35103244837758113
sI2
F0.30383480825958703
ssI4
g0
(g4
tp11
Rp12
I0
F0.23651452282157676
sI1
F0.23651452282157676
sI2
F0.3278008298755187
sI3
F0.1991701244813278
ssI5
g0
(g4
tp13
Rp14
I0
F0.17757009345794392
sI1
F0.23738317757009345
sI2
F0.20747663551401868
sI3
F0.2261682242990654
sI4
F0.15140186915887852
ssI6
g0
(g4
tp15
Rp16
I0
F0.17307692307692307
sI1
F0.11982248520710059
sI2
F0.19674556213017752
sI3
F0.1819526627218935
sI4
F0.20414201183431951
sI5
F0.1242603550295858
ssI7
g0
(g4
tp17
Rp18
I0
F0.1241565452091768
sI1
F0.16464237516869096
sI2
F0.14304993252361672
sI3
F0.16869095816464239
sI4
F0.14304993252361672
sI5
F0.13225371120107962
sI6
F0.1241565452091768
ssI8
g0
(g4
tp19
Rp20
I0
F0.11566617862371889
sI1
F0.10834553440702782
sI2
F0.15666178623718888
sI3
F0.0951683748169839
sI4
F0.1581259150805271
sI5
F0.1376281112737921
sI6
F0.12884333821376281
sI7
F0.09956076134699854
ssI9
g0
(g4
tp21
Rp22
I0
F0.09907120743034056
sI1
F0.09287925696594428
sI2
F0.13622291021671826
sI3
F0.11609907120743033
sI4
F0.11919504643962849
sI5
F0.10990712074303406
sI6
F0.1130030959752322
sI7
F0.13622291021671826
sI8
F0.07739938080495357
ssI10
g0
(g4
tp23
Rp24
I0
F0.08675078864353312
sI1
F0.07728706624605679
sI2
F0.13564668769716087
sI3
F0.1056782334384858
sI4
F0.10252365930599369
sI5
F0.09936908517350158
sI6
F0.09779179810725552
sI7
F0.10883280757097792
sI8
F0.1056782334384858
sI9
F0.0804416403785489
ssI11
g0
(g4
tp25
Rp26
I0
F0.08560311284046693
sI1
F0.09533073929961089
sI2
F0.08171206225680934
sI3
F0.11284046692607004
sI4
F0.09922178988326848
sI5
F0.0914396887159533
sI6
F0.08949416342412451
sI7
F0.08949416342412451
sI8
F0.08560311284046693
sI9
F0.09727626459143969
sI10
F0.07198443579766536
ssI12
g0
(g4
tp27
Rp28
I0
F0.07818930041152264
sI1
F0.06378600823045268
sI2
F0.10905349794238683
sI3
F0.07613168724279835
sI4
F0.11934156378600823
sI5
F0.06790123456790123
sI6
F0.102880658436214
sI7
F0.08024691358024691
sI8
F0.07818930041152264
sI9
F0.07407407407407407
sI10
F0.08847736625514403
sI11
F0.06172839506172839
ssI13
g0
(g4
tp29
Rp30
I0
F0.061488673139158574
sI1
F0.05501618122977346
sI2
F0.10355987055016182
sI3
F0.0970873786407767
sI4
F0.06796116504854369
sI5
F0.08090614886731391
sI6
F0.07119741100323625
sI7
F0.09061488673139159
sI8
F0.06472491909385113
sI9
F0.0744336569579288
sI10
F0.07766990291262135
sI11
F0.09385113268608414
sI12
F0.061488673139158574
ssI14
g0
(g4
tp31
Rp32
I0
F0.04375
sI1
F0.06875
sI2
F0.06875
sI3
F0.05
sI4
F0.13125
sI5
F0.08125
sI6
F0.10625
sI7
F0.0625
sI8
F0.06875
sI9
F0.04375
sI10
F0.06875
sI11
F0.0875
sI12
F0.08125
sI13
F0.0375
ssI15
g0
(g4
tp33
Rp34
I0
F0.10810810810810811
sI1
F0.06756756756756757
sI2
F0.0945945945945946
sI3
F0.013513513513513514
sI4
F0.013513513513513514
sI5
F0.12162162162162163
sI6
F0.10810810810810811
sI7
F0.05405405405405406
sI8
F0.06756756756756757
sI9
F0.05405405405405406
sI10
F0.0945945945945946
sI11
F0.04054054054054054
sI12
F0.05405405405405406
sI13
F0.06756756756756757
sI14
F0.04054054054054054
ssI16
g0
(g4
tp35
Rp36
I0
F0.075
sI1
F0.05
sI2
F0.05
sI3
F0.075
sI4
F0.05
sI5
F0.05
sI6
F0.05
sI7
F0.075
sI8
F0.1
sI9
F0.025
sI10
F0.05
sI11
F0.1
sI12
F0.075
sI13
F0.05
sI14
F0.075
sI15
F0.05
ssI17
g0
(g4
tp37
Rp38
I1
F0.12
sI3
F0.08
sI5
F0.08
sI6
F0.04
sI7
F0.12
sI8
F0.04
sI9
F0.08
sI10
F0.12
sI11
F0.04
sI12
F0.08
sI13
F0.04
sI14
F0.04
sI15
F0.04
sI16
F0.08
ssI18
g0
(g4
tp39
Rp40
I0
F0.029411764705882353
sI1
F0.058823529411764705
sI2
F0.058823529411764705
sI3
F0.029411764705882353
sI4
F0.029411764705882353
sI5
F0.058823529411764705
sI6
F0.08823529411764706
sI7
F0.058823529411764705
sI8
F0.08823529411764706
sI9
F0.08823529411764706
sI10
F0.058823529411764705
sI11
F0.08823529411764706
sI12
F0.058823529411764705
sI14
F0.029411764705882353
sI15
F0.08823529411764706
sI16
F0.029411764705882353
sI17
F0.058823529411764705
ssI19
g0
(g4
tp41
Rp42
I1
F0.08695652173913043
sI3
F0.043478260869565216
sI5
F0.043478260869565216
sI6
F0.043478260869565216
sI7
F0.043478260869565216
sI8
F0.08695652173913043
sI9
F0.043478260869565216
sI10
F0.08695652173913043
sI11
F0.043478260869565216
sI12
F0.043478260869565216
sI13
F0.043478260869565216
sI14
F0.043478260869565216
sI15
F0.08695652173913043
sI16
F0.13043478260869565
sI17
F0.08695652173913043
sI18
F0.043478260869565216
ssI20
g0
(g4
tp43
Rp44
I0
F0.09090909090909091
sI3
F0.18181818181818182
sI7
F0.09090909090909091
sI8
F0.09090909090909091
sI10
F0.09090909090909091
sI13
F0.09090909090909091
sI14
F0.09090909090909091
sI16
F0.18181818181818182
sI19
F0.09090909090909091
ssI21
g0
(g4
tp45
Rp46
I3
F0.2857142857142857
sI5
F0.14285714285714285
sI8
F0.14285714285714285
sI10
F0.14285714285714285
sI17
F0.14285714285714285
sI18
F0.14285714285714285
ssI22
g0
(g4
tp47
Rp48
I1
F0.5
sI19
F0.5
ss.