ccollections
defaultdict
p0
(cmodel
dd
p1
tp2
Rp3
I1
g0
(c__builtin__
float
p4
tp5
Rp6
I0
F0.03076923076923077
ssI2
g0
(g4
tp7
Rp8
I0
F0.046153846153846156
sI1
F0.007692307692307693
ssI3
g0
(g4
tp9
Rp10
I0
F0.007692307692307693
sI1
F0.046153846153846156
sI2
F0.038461538461538464
ssI4
g0
(g4
tp11
Rp12
I0
F0.015384615384615385
sI1
F0.023076923076923078
sI2
F0.05384615384615385
sI3
F0.03076923076923077
ssI5
g0
(g4
tp13
Rp14
I0
F0.015384615384615385
sI1
F0.023076923076923078
sI2
F0.023076923076923078
sI3
F0.023076923076923078
sI4
F0.007692307692307693
ssI6
g0
(g4
tp15
Rp16
I0
F0.038461538461538464
sI1
F0.015384615384615385
sI2
F0.046153846153846156
sI3
F0.023076923076923078
sI4
F0.007692307692307693
sI5
F0.015384615384615385
ssI7
g0
(g4
tp17
Rp18
I0
F0.015384615384615385
sI1
F0.007692307692307693
sI2
F0.015384615384615385
sI3
F0.007692307692307693
sI4
F0.023076923076923078
sI5
F0.03076923076923077
ssI8
g0
(g4
tp19
Rp20
I0
F0.007692307692307693
sI1
F0.015384615384615385
sI2
F0.03076923076923077
sI3
F0.03076923076923077
sI4
F0.023076923076923078
sI5
F0.046153846153846156
sI6
F0.015384615384615385
sI7
F0.007692307692307693
ssI9
g0
(g4
tp21
Rp22
I0
F0.007692307692307693
sI3
F0.03076923076923077
sI4
F0.03076923076923077
sI6
F0.007692307692307693
sI7
F0.015384615384615385
sI8
F0.023076923076923078
ssI10
g0
(g4
tp23
Rp24
I0
F0.03076923076923077
sI1
F0.007692307692307693
sI2
F0.007692307692307693
sI3
F0.023076923076923078
sI4
F0.023076923076923078
sI5
F0.03076923076923077
sI6
F0.007692307692307693
sI7
F0.03076923076923077
sI8
F0.03076923076923077
sI9
F0.015384615384615385
ssI11
g0
(g4
tp25
Rp26
I1
F0.023076923076923078
sI2
F0.038461538461538464
sI3
F0.03076923076923077
sI4
F0.03076923076923077
sI5
F0.015384615384615385
sI6
F0.007692307692307693
sI7
F0.03076923076923077
sI8
F0.015384615384615385
sI9
F0.023076923076923078
sI10
F0.015384615384615385
ssI12
g0
(g4
tp27
Rp28
I0
F0.015384615384615385
sI1
F0.023076923076923078
sI2
F0.023076923076923078
sI3
F0.03076923076923077
sI4
F0.03076923076923077
sI5
F0.05384615384615385
sI6
F0.023076923076923078
sI7
F0.007692307692307693
sI8
F0.015384615384615385
sI9
F0.007692307692307693
sI10
F0.03076923076923077
sI11
F0.023076923076923078
ssI13
g0
(g4
tp29
Rp30
I0
F0.007692307692307693
sI1
F0.023076923076923078
sI2
F0.015384615384615385
sI3
F0.023076923076923078
sI4
F0.03076923076923077
sI5
F0.015384615384615385
sI6
F0.023076923076923078
sI8
F0.007692307692307693
sI9
F0.023076923076923078
sI10
F0.015384615384615385
sI11
F0.03076923076923077
sI12
F0.007692307692307693
ssI14
g0
(g4
tp31
Rp32
I1
F0.007692307692307693
sI2
F0.03076923076923077
sI3
F0.015384615384615385
sI4
F0.038461538461538464
sI5
F0.023076923076923078
sI6
F0.023076923076923078
sI7
F0.023076923076923078
sI8
F0.023076923076923078
sI9
F0.015384615384615385
sI10
F0.023076923076923078
sI11
F0.007692307692307693
sI12
F0.007692307692307693
sI13
F0.007692307692307693
ssI15
g0
(g4
tp33
Rp34
I0
F0.007692307692307693
sI1
F0.015384615384615385
sI2
F0.038461538461538464
sI3
F0.023076923076923078
sI4
F0.023076923076923078
sI5
F0.03076923076923077
sI6
F0.015384615384615385
sI7
F0.023076923076923078
sI8
F0.03076923076923077
sI9
F0.015384615384615385
sI10
F0.023076923076923078
sI11
F0.038461538461538464
sI12
F0.015384615384615385
sI13
F0.023076923076923078
sI14
F0.015384615384615385
ssI16
g0
(g4
tp35
Rp36
I0
F0.015384615384615385
sI2
F0.007692307692307693
sI3
F0.015384615384615385
sI4
F0.015384615384615385
sI5
F0.007692307692307693
sI6
F0.03076923076923077
sI7
F0.023076923076923078
sI8
F0.015384615384615385
sI9
F0.03076923076923077
sI10
F0.038461538461538464
sI11
F0.007692307692307693
sI13
F0.007692307692307693
sI15
F0.007692307692307693
ssI17
g0
(g4
tp37
Rp38
I0
F0.038461538461538464
sI1
F0.015384615384615385
sI2
F0.03076923076923077
sI3
F0.023076923076923078
sI4
F0.038461538461538464
sI5
F0.03076923076923077
sI6
F0.023076923076923078
sI7
F0.015384615384615385
sI8
F0.015384615384615385
sI9
F0.023076923076923078
sI10
F0.023076923076923078
sI11
F0.023076923076923078
sI12
F0.015384615384615385
sI13
F0.023076923076923078
sI14
F0.015384615384615385
sI15
F0.015384615384615385
sI16
F0.038461538461538464
ssI18
g0
(g4
tp39
Rp40
I0
F0.023076923076923078
sI1
F0.015384615384615385
sI2
F0.023076923076923078
sI3
F0.023076923076923078
sI4
F0.038461538461538464
sI5
F0.015384615384615385
sI6
F0.007692307692307693
sI7
F0.007692307692307693
sI8
F0.015384615384615385
sI9
F0.023076923076923078
sI10
F0.023076923076923078
sI11
F0.05384615384615385
sI12
F0.015384615384615385
sI13
F0.023076923076923078
sI14
F0.023076923076923078
sI15
F0.038461538461538464
sI16
F0.038461538461538464
sI17
F0.023076923076923078
ssI19
g0
(g4
tp41
Rp42
I0
F0.007692307692307693
sI1
F0.023076923076923078
sI2
F0.007692307692307693
sI3
F0.023076923076923078
sI4
F0.007692307692307693
sI5
F0.023076923076923078
sI6
F0.015384615384615385
sI7
F0.023076923076923078
sI8
F0.03076923076923077
sI9
F0.023076923076923078
sI10
F0.015384615384615385
sI11
F0.015384615384615385
sI12
F0.007692307692307693
sI13
F0.038461538461538464
sI14
F0.03076923076923077
sI15
F0.03076923076923077
sI16
F0.015384615384615385
sI17
F0.03076923076923077
sI18
F0.038461538461538464
ssI20
g0
(g4
tp43
Rp44
I0
F0.007692307692307693
sI2
F0.03076923076923077
sI3
F0.046153846153846156
sI5
F0.007692307692307693
sI6
F0.023076923076923078
sI7
F0.007692307692307693
sI8
F0.03076923076923077
sI9
F0.03076923076923077
sI10
F0.007692307692307693
sI11
F0.015384615384615385
sI12
F0.038461538461538464
sI13
F0.023076923076923078
sI14
F0.03076923076923077
sI15
F0.023076923076923078
sI16
F0.038461538461538464
sI17
F0.015384615384615385
sI18
F0.023076923076923078
sI19
F0.007692307692307693
ssI21
g0
(g4
tp45
Rp46
I0
F0.023076923076923078
sI1
F0.023076923076923078
sI2
F0.03076923076923077
sI3
F0.046153846153846156
sI4
F0.023076923076923078
sI5
F0.023076923076923078
sI6
F0.007692307692307693
sI7
F0.03076923076923077
sI8
F0.038461538461538464
sI9
F0.023076923076923078
sI10
F0.03076923076923077
sI11
F0.03076923076923077
sI12
F0.03076923076923077
sI13
F0.038461538461538464
sI14
F0.007692307692307693
sI15
F0.015384615384615385
sI16
F0.007692307692307693
sI17
F0.015384615384615385
sI18
F0.023076923076923078
sI19
F0.015384615384615385
sI20
F0.023076923076923078
ssI22
g0
(g4
tp47
Rp48
I0
F0.015384615384615385
sI1
F0.023076923076923078
sI3
F0.038461538461538464
sI4
F0.038461538461538464
sI5
F0.007692307692307693
sI7
F0.015384615384615385
sI8
F0.046153846153846156
sI9
F0.015384615384615385
sI10
F0.015384615384615385
sI11
F0.015384615384615385
sI12
F0.023076923076923078
sI14
F0.023076923076923078
sI15
F0.015384615384615385
sI16
F0.023076923076923078
sI17
F0.046153846153846156
sI18
F0.023076923076923078
sI19
F0.023076923076923078
sI20
F0.007692307692307693
sI21
F0.03076923076923077
ssI23
g0
(g4
tp49
Rp50
I0
F0.007692307692307693
sI3
F0.023076923076923078
sI4
F0.015384615384615385
sI5
F0.023076923076923078
sI6
F0.015384615384615385
sI7
F0.007692307692307693
sI8
F0.015384615384615385
sI9
F0.023076923076923078
sI10
F0.007692307692307693
sI11
F0.015384615384615385
sI12
F0.015384615384615385
sI13
F0.015384615384615385
sI14
F0.015384615384615385
sI15
F0.007692307692307693
sI16
F0.015384615384615385
sI17
F0.015384615384615385
sI18
F0.038461538461538464
sI19
F0.007692307692307693
sI20
F0.007692307692307693
sI21
F0.023076923076923078
sI22
F0.023076923076923078
ssI24
g0
(g4
tp51
Rp52
I0
F0.023076923076923078
sI1
F0.007692307692307693
sI2
F0.023076923076923078
sI3
F0.007692307692307693
sI4
F0.023076923076923078
sI5
F0.015384615384615385
sI8
F0.015384615384615385
sI9
F0.015384615384615385
sI10
F0.015384615384615385
sI11
F0.023076923076923078
sI12
F0.023076923076923078
sI13
F0.015384615384615385
sI14
F0.03076923076923077
sI15
F0.038461538461538464
sI16
F0.015384615384615385
sI17
F0.015384615384615385
sI18
F0.03076923076923077
sI19
F0.015384615384615385
sI20
F0.038461538461538464
sI22
F0.007692307692307693
sI23
F0.007692307692307693
ssI25
g0
(g4
tp53
Rp54
I0
F0.023076923076923078
sI1
F0.007692307692307693
sI2
F0.023076923076923078
sI3
F0.015384615384615385
sI4
F0.023076923076923078
sI5
F0.015384615384615385
sI6
F0.03076923076923077
sI7
F0.007692307692307693
sI8
F0.007692307692307693
sI9
F0.03076923076923077
sI10
F0.015384615384615385
sI11
F0.038461538461538464
sI12
F0.023076923076923078
sI13
F0.03076923076923077
sI14
F0.015384615384615385
sI15
F0.015384615384615385
sI16
F0.007692307692307693
sI17
F0.015384615384615385
sI18
F0.023076923076923078
sI19
F0.038461538461538464
sI20
F0.015384615384615385
sI21
F0.015384615384615385
sI22
F0.015384615384615385
sI23
F0.023076923076923078
sI24
F0.023076923076923078
ssI26
g0
(g4
tp55
Rp56
I0
F0.015384615384615385
sI1
F0.007692307692307693
sI2
F0.03076923076923077
sI3
F0.03076923076923077
sI4
F0.03076923076923077
sI5
F0.038461538461538464
sI6
F0.023076923076923078
sI7
F0.03076923076923077
sI8
F0.023076923076923078
sI9
F0.007692307692307693
sI10
F0.023076923076923078
sI11
F0.046153846153846156
sI12
F0.023076923076923078
sI13
F0.038461538461538464
sI14
F0.023076923076923078
sI16
F0.015384615384615385
sI18
F0.023076923076923078
sI19
F0.015384615384615385
sI20
F0.023076923076923078
sI21
F0.03076923076923077
sI22
F0.046153846153846156
sI23
F0.007692307692307693
sI24
F0.038461538461538464
ssI27
g0
(g4
tp57
Rp58
I0
F0.007692307692307693
sI1
F0.023076923076923078
sI2
F0.023076923076923078
sI3
F0.015384615384615385
sI4
F0.023076923076923078
sI5
F0.023076923076923078
sI6
F0.023076923076923078
sI7
F0.015384615384615385
sI8
F0.023076923076923078
sI9
F0.015384615384615385
sI10
F0.023076923076923078
sI11
F0.05384615384615385
sI12
F0.038461538461538464
sI13
F0.03076923076923077
sI14
F0.007692307692307693
sI15
F0.038461538461538464
sI16
F0.023076923076923078
sI17
F0.05384615384615385
sI18
F0.06153846153846154
sI19
F0.015384615384615385
sI20
F0.023076923076923078
sI21
F0.05384615384615385
sI22
F0.015384615384615385
sI23
F0.007692307692307693
sI24
F0.007692307692307693
sI25
F0.015384615384615385
sI26
F0.007692307692307693
ssI28
g0
(g4
tp59
Rp60
I1
F0.007692307692307693
sI2
F0.046153846153846156
sI3
F0.015384615384615385
sI4
F0.015384615384615385
sI5
F0.015384615384615385
sI6
F0.023076923076923078
sI7
F0.03076923076923077
sI8
F0.038461538461538464
sI9
F0.015384615384615385
sI10
F0.007692307692307693
sI11
F0.007692307692307693
sI12
F0.023076923076923078
sI13
F0.038461538461538464
sI14
F0.023076923076923078
sI15
F0.046153846153846156
sI16
F0.015384615384615385
sI17
F0.007692307692307693
sI18
F0.038461538461538464
sI19
F0.015384615384615385
sI20
F0.015384615384615385
sI21
F0.015384615384615385
sI22
F0.03076923076923077
sI23
F0.015384615384615385
sI24
F0.038461538461538464
sI25
F0.038461538461538464
sI26
F0.007692307692307693
sI27
F0.023076923076923078
ssI29
g0
(g4
tp61
Rp62
I0
F0.007692307692307693
sI1
F0.023076923076923078
sI2
F0.015384615384615385
sI3
F0.03076923076923077
sI4
F0.03076923076923077
sI5
F0.015384615384615385
sI6
F0.007692307692307693
sI7
F0.007692307692307693
sI8
F0.007692307692307693
sI9
F0.023076923076923078
sI10
F0.007692307692307693
sI11
F0.023076923076923078
sI12
F0.007692307692307693
sI13
F0.023076923076923078
sI14
F0.007692307692307693
sI15
F0.007692307692307693
sI16
F0.023076923076923078
sI17
F0.03076923076923077
sI18
F0.007692307692307693
sI19
F0.03076923076923077
sI20
F0.05384615384615385
sI21
F0.05384615384615385
sI22
F0.023076923076923078
sI23
F0.015384615384615385
sI24
F0.023076923076923078
sI26
F0.05384615384615385
sI27
F0.015384615384615385
sI28
F0.007692307692307693
ssI30
g0
(g4
tp63
Rp64
I0
F0.007692307692307693
sI1
F0.007692307692307693
sI2
F0.007692307692307693
sI3
F0.03076923076923077
sI4
F0.023076923076923078
sI6
F0.023076923076923078
sI7
F0.015384615384615385
sI8
F0.007692307692307693
sI10
F0.023076923076923078
sI11
F0.03076923076923077
sI12
F0.007692307692307693
sI13
F0.007692307692307693
sI14
F0.023076923076923078
sI15
F0.015384615384615385
sI16
F0.023076923076923078
sI17
F0.007692307692307693
sI18
F0.03076923076923077
sI19
F0.015384615384615385
sI20
F0.023076923076923078
sI21
F0.023076923076923078
sI23
F0.007692307692307693
sI25
F0.007692307692307693
sI26
F0.015384615384615385
sI28
F0.023076923076923078
sI29
F0.007692307692307693
ssI31
g0
(g4
tp65
Rp66
I0
F0.023076923076923078
sI1
F0.015384615384615385
sI2
F0.015384615384615385
sI3
F0.015384615384615385
sI4
F0.007692307692307693
sI5
F0.023076923076923078
sI6
F0.007692307692307693
sI7
F0.015384615384615385
sI8
F0.03076923076923077
sI9
F0.015384615384615385
sI10
F0.007692307692307693
sI11
F0.007692307692307693
sI12
F0.023076923076923078
sI13
F0.03076923076923077
sI14
F0.038461538461538464
sI16
F0.007692307692307693
sI17
F0.03076923076923077
sI18
F0.03076923076923077
sI19
F0.007692307692307693
sI20
F0.03076923076923077
sI21
F0.03076923076923077
sI22
F0.023076923076923078
sI23
F0.038461538461538464
sI24
F0.007692307692307693
sI26
F0.046153846153846156
sI27
F0.03076923076923077
sI28
F0.023076923076923078
sI29
F0.03076923076923077
sI30
F0.007692307692307693
ssI32
g0
(g4
tp67
Rp68
I0
F0.015384615384615385
sI1
F0.023076923076923078
sI2
F0.03076923076923077
sI4
F0.023076923076923078
sI5
F0.023076923076923078
sI6
F0.007692307692307693
sI7
F0.046153846153846156
sI8
F0.015384615384615385
sI9
F0.015384615384615385
sI10
F0.038461538461538464
sI11
F0.023076923076923078
sI12
F0.038461538461538464
sI13
F0.007692307692307693
sI14
F0.007692307692307693
sI16
F0.03076923076923077
sI17
F0.007692307692307693
sI18
F0.015384615384615385
sI19
F0.023076923076923078
sI20
F0.046153846153846156
sI21
F0.038461538461538464
sI22
F0.038461538461538464
sI23
F0.007692307692307693
sI24
F0.03076923076923077
sI25
F0.038461538461538464
sI27
F0.023076923076923078
sI28
F0.038461538461538464
sI29
F0.015384615384615385
sI30
F0.023076923076923078
ssI33
g0
(g4
tp69
Rp70
I0
F0.038461538461538464
sI1
F0.023076923076923078
sI2
F0.03076923076923077
sI3
F0.015384615384615385
sI4
F0.015384615384615385
sI5
F0.038461538461538464
sI6
F0.007692307692307693
sI7
F0.023076923076923078
sI8
F0.038461538461538464
sI9
F0.03076923076923077
sI10
F0.007692307692307693
sI11
F0.023076923076923078
sI12
F0.023076923076923078
sI13
F0.023076923076923078
sI14
F0.015384615384615385
sI15
F0.038461538461538464
sI16
F0.038461538461538464
sI17
F0.038461538461538464
sI18
F0.038461538461538464
sI19
F0.038461538461538464
sI21
F0.038461538461538464
sI22
F0.03076923076923077
sI23
F0.015384615384615385
sI24
F0.015384615384615385
sI25
F0.03076923076923077
sI26
F0.046153846153846156
sI27
F0.015384615384615385
sI28
F0.046153846153846156
sI29
F0.007692307692307693
sI30
F0.007692307692307693
sI31
F0.023076923076923078
ssI34
g0
(g4
tp71
Rp72
I0
F0.007692307692307693
sI1
F0.015384615384615385
sI2
F0.015384615384615385
sI3
F0.038461538461538464
sI4
F0.046153846153846156
sI5
F0.007692307692307693
sI6
F0.015384615384615385
sI7
F0.015384615384615385
sI8
F0.007692307692307693
sI9
F0.038461538461538464
sI10
F0.007692307692307693
sI11
F0.03076923076923077
sI12
F0.03076923076923077
sI13
F0.03076923076923077
sI14
F0.023076923076923078
sI15
F0.015384615384615385
sI16
F0.015384615384615385
sI18
F0.015384615384615385
sI19
F0.023076923076923078
sI20
F0.015384615384615385
sI21
F0.038461538461538464
sI22
F0.023076923076923078
sI24
F0.023076923076923078
sI25
F0.015384615384615385
sI27
F0.023076923076923078
sI28
F0.03076923076923077
sI29
F0.023076923076923078
sI30
F0.015384615384615385
sI31
F0.023076923076923078
sI32
F0.023076923076923078
sI33
F0.03076923076923077
ssI35
g0
(g4
tp73
Rp74
I1
F0.015384615384615385
sI2
F0.03076923076923077
sI3
F0.015384615384615385
sI4
F0.03076923076923077
sI5
F0.007692307692307693
sI6
F0.03076923076923077
sI8
F0.038461538461538464
sI9
F0.007692307692307693
sI10
F0.023076923076923078
sI11
F0.03076923076923077
sI12
F0.007692307692307693
sI13
F0.03076923076923077
sI14
F0.03076923076923077
sI15
F0.015384615384615385
sI17
F0.015384615384615385
sI18
F0.015384615384615385
sI19
F0.007692307692307693
sI20
F0.03076923076923077
sI21
F0.007692307692307693
sI22
F0.007692307692307693
sI23
F0.023076923076923078
sI24
F0.015384615384615385
sI25
F0.023076923076923078
sI26
F0.06153846153846154
sI27
F0.023076923076923078
sI28
F0.03076923076923077
sI29
F0.038461538461538464
sI30
F0.007692307692307693
sI31
F0.023076923076923078
sI32
F0.007692307692307693
sI33
F0.007692307692307693
sI34
F0.007692307692307693
ssI36
g0
(g4
tp75
Rp76
I0
F0.007692307692307693
sI1
F0.007692307692307693
sI2
F0.023076923076923078
sI3
F0.015384615384615385
sI4
F0.038461538461538464
sI5
F0.015384615384615385
sI6
F0.015384615384615385
sI7
F0.015384615384615385
sI8
F0.023076923076923078
sI9
F0.015384615384615385
sI10
F0.046153846153846156
sI11
F0.023076923076923078
sI12
F0.007692307692307693
sI13
F0.03076923076923077
sI15
F0.023076923076923078
sI16
F0.023076923076923078
sI17
F0.007692307692307693
sI18
F0.007692307692307693
sI19
F0.023076923076923078
sI20
F0.015384615384615385
sI21
F0.015384615384615385
sI22
F0.007692307692307693
sI23
F0.03076923076923077
sI24
F0.007692307692307693
sI25
F0.03076923076923077
sI26
F0.015384615384615385
sI27
F0.015384615384615385
sI28
F0.06153846153846154
sI29
F0.023076923076923078
sI30
F0.007692307692307693
sI31
F0.023076923076923078
sI32
F0.023076923076923078
sI33
F0.007692307692307693
sI34
F0.007692307692307693
sI35
F0.015384615384615385
ssI37
g0
(g4
tp77
Rp78
I0
F0.015384615384615385
sI1
F0.007692307692307693
sI2
F0.007692307692307693
sI3
F0.015384615384615385
sI4
F0.015384615384615385
sI5
F0.007692307692307693
sI6
F0.023076923076923078
sI7
F0.015384615384615385
sI8
F0.007692307692307693
sI9
F0.007692307692307693
sI10
F0.007692307692307693
sI11
F0.015384615384615385
sI12
F0.015384615384615385
sI13
F0.015384615384615385
sI14
F0.015384615384615385
sI15
F0.023076923076923078
sI16
F0.015384615384615385
sI17
F0.007692307692307693
sI18
F0.023076923076923078
sI19
F0.046153846153846156
sI20
F0.007692307692307693
sI22
F0.007692307692307693
sI23
F0.046153846153846156
sI25
F0.023076923076923078
sI26
F0.015384615384615385
sI28
F0.015384615384615385
sI29
F0.03076923076923077
sI32
F0.007692307692307693
sI33
F0.03076923076923077
sI34
F0.007692307692307693
sI35
F0.015384615384615385
ssI38
g0
(g4
tp79
Rp80
I0
F0.007692307692307693
sI2
F0.03076923076923077
sI3
F0.015384615384615385
sI4
F0.007692307692307693
sI5
F0.023076923076923078
sI6
F0.007692307692307693
sI7
F0.007692307692307693
sI8
F0.023076923076923078
sI9
F0.007692307692307693
sI10
F0.007692307692307693
sI11
F0.015384615384615385
sI12
F0.015384615384615385
sI13
F0.015384615384615385
sI16
F0.007692307692307693
sI17
F0.015384615384615385
sI18
F0.007692307692307693
sI19
F0.023076923076923078
sI20
F0.023076923076923078
sI21
F0.015384615384615385
sI22
F0.007692307692307693
sI24
F0.015384615384615385
sI25
F0.03076923076923077
sI26
F0.007692307692307693
sI27
F0.038461538461538464
sI28
F0.015384615384615385
sI29
F0.023076923076923078
sI30
F0.007692307692307693
sI31
F0.007692307692307693
sI32
F0.007692307692307693
sI33
F0.015384615384615385
sI34
F0.015384615384615385
sI35
F0.03076923076923077
sI36
F0.007692307692307693
sI37
F0.015384615384615385
ssI39
g0
(g4
tp81
Rp82
I0
F0.023076923076923078
sI2
F0.023076923076923078
sI3
F0.015384615384615385
sI4
F0.015384615384615385
sI5
F0.007692307692307693
sI7
F0.015384615384615385
sI8
F0.015384615384615385
sI9
F0.007692307692307693
sI10
F0.015384615384615385
sI11
F0.023076923076923078
sI12
F0.015384615384615385
sI13
F0.007692307692307693
sI14
F0.023076923076923078
sI15
F0.007692307692307693
sI16
F0.03076923076923077
sI17
F0.023076923076923078
sI18
F0.023076923076923078
sI19
F0.023076923076923078
sI20
F0.015384615384615385
sI21
F0.03076923076923077
sI22
F0.015384615384615385
sI23
F0.015384615384615385
sI24
F0.023076923076923078
sI25
F0.015384615384615385
sI26
F0.03076923076923077
sI27
F0.007692307692307693
sI28
F0.007692307692307693
sI29
F0.023076923076923078
sI32
F0.015384615384615385
sI33
F0.03076923076923077
sI34
F0.023076923076923078
sI35
F0.015384615384615385
sI36
F0.007692307692307693
sI37
F0.015384615384615385
sI38
F0.015384615384615385
ssI40
g0
(g4
tp83
Rp84
I0
F0.023076923076923078
sI2
F0.023076923076923078
sI3
F0.007692307692307693
sI4
F0.007692307692307693
sI5
F0.03076923076923077
sI7
F0.023076923076923078
sI8
F0.023076923076923078
sI9
F0.023076923076923078
sI10
F0.023076923076923078
sI11
F0.038461538461538464
sI12
F0.015384615384615385
sI13
F0.007692307692307693
sI14
F0.015384615384615385
sI15
F0.046153846153846156
sI16
F0.015384615384615385
sI17
F0.03076923076923077
sI18
F0.007692307692307693
sI19
F0.023076923076923078
sI20
F0.038461538461538464
sI21
F0.03076923076923077
sI22
F0.023076923076923078
sI24
F0.03076923076923077
sI25
F0.023076923076923078
sI26
F0.015384615384615385
sI27
F0.015384615384615385
sI28
F0.038461538461538464
sI30
F0.007692307692307693
sI31
F0.015384615384615385
sI32
F0.023076923076923078
sI33
F0.023076923076923078
sI34
F0.007692307692307693
sI36
F0.023076923076923078
sI38
F0.015384615384615385
sI39
F0.015384615384615385
ssI41
g0
(g4
tp85
Rp86
I2
F0.023076923076923078
sI5
F0.007692307692307693
sI7
F0.015384615384615385
sI8
F0.015384615384615385
sI9
F0.007692307692307693
sI10
F0.007692307692307693
sI11
F0.015384615384615385
sI12
F0.023076923076923078
sI13
F0.007692307692307693
sI15
F0.007692307692307693
sI16
F0.015384615384615385
sI17
F0.015384615384615385
sI18
F0.015384615384615385
sI19
F0.015384615384615385
sI20
F0.015384615384615385
sI21
F0.015384615384615385
sI22
F0.007692307692307693
sI23
F0.007692307692307693
sI25
F0.007692307692307693
sI26
F0.007692307692307693
sI27
F0.015384615384615385
sI28
F0.015384615384615385
sI29
F0.015384615384615385
sI30
F0.007692307692307693
sI31
F0.015384615384615385
sI32
F0.023076923076923078
sI33
F0.023076923076923078
sI35
F0.015384615384615385
sI36
F0.015384615384615385
sI37
F0.007692307692307693
sI38
F0.015384615384615385
sI39
F0.015384615384615385
sI40
F0.03076923076923077
ssI42
g0
(g4
tp87
Rp88
I0
F0.015384615384615385
sI1
F0.015384615384615385
sI2
F0.023076923076923078
sI3
F0.03076923076923077
sI4
F0.023076923076923078
sI5
F0.038461538461538464
sI6
F0.023076923076923078
sI8
F0.015384615384615385
sI9
F0.015384615384615385
sI10
F0.015384615384615385
sI11
F0.007692307692307693
sI12
F0.007692307692307693
sI13
F0.015384615384615385
sI15
F0.015384615384615385
sI16
F0.015384615384615385
sI17
F0.023076923076923078
sI18
F0.023076923076923078
sI19
F0.015384615384615385
sI20
F0.03076923076923077
sI21
F0.015384615384615385
sI22
F0.03076923076923077
sI23
F0.007692307692307693
sI24
F0.007692307692307693
sI25
F0.015384615384615385
sI26
F0.023076923076923078
sI27
F0.007692307692307693
sI28
F0.007692307692307693
sI29
F0.03076923076923077
sI30
F0.015384615384615385
sI31
F0.046153846153846156
sI32
F0.007692307692307693
sI33
F0.03076923076923077
sI34
F0.007692307692307693
sI35
F0.015384615384615385
sI36
F0.023076923076923078
sI37
F0.007692307692307693
sI38
F0.023076923076923078
sI39
F0.015384615384615385
sI40
F0.023076923076923078
sI41
F0.007692307692307693
ssI43
g0
(g4
tp89
Rp90
I1
F0.007692307692307693
sI2
F0.023076923076923078
sI4
F0.03076923076923077
sI6
F0.015384615384615385
sI7
F0.015384615384615385
sI8
F0.03076923076923077
sI9
F0.015384615384615385
sI10
F0.023076923076923078
sI11
F0.03076923076923077
sI12
F0.015384615384615385
sI13
F0.023076923076923078
sI14
F0.023076923076923078
sI15
F0.007692307692307693
sI16
F0.007692307692307693
sI17
F0.007692307692307693
sI18
F0.015384615384615385
sI19
F0.03076923076923077
sI20
F0.023076923076923078
sI21
F0.015384615384615385
sI22
F0.03076923076923077
sI23
F0.007692307692307693
sI24
F0.015384615384615385
sI25
F0.007692307692307693
sI26
F0.007692307692307693
sI27
F0.023076923076923078
sI28
F0.038461538461538464
sI29
F0.015384615384615385
sI30
F0.007692307692307693
sI31
F0.015384615384615385
sI32
F0.05384615384615385
sI33
F0.015384615384615385
sI34
F0.023076923076923078
sI35
F0.03076923076923077
sI36
F0.007692307692307693
sI37
F0.007692307692307693
sI38
F0.015384615384615385
sI39
F0.03076923076923077
sI40
F0.007692307692307693
sI41
F0.015384615384615385
ssI44
g0
(g4
tp91
Rp92
I0
F0.007692307692307693
sI1
F0.007692307692307693
sI2
F0.038461538461538464
sI3
F0.03076923076923077
sI4
F0.007692307692307693
sI5
F0.015384615384615385
sI7
F0.007692307692307693
sI8
F0.007692307692307693
sI10
F0.015384615384615385
sI11
F0.023076923076923078
sI12
F0.015384615384615385
sI15
F0.015384615384615385
sI16
F0.007692307692307693
sI18
F0.038461538461538464
sI19
F0.015384615384615385
sI21
F0.015384615384615385
sI22
F0.03076923076923077
sI23
F0.007692307692307693
sI24
F0.023076923076923078
sI25
F0.015384615384615385
sI26
F0.007692307692307693
sI27
F0.03076923076923077
sI28
F0.03076923076923077
sI29
F0.007692307692307693
sI31
F0.007692307692307693
sI32
F0.023076923076923078
sI33
F0.03076923076923077
sI34
F0.007692307692307693
sI36
F0.03076923076923077
sI38
F0.023076923076923078
sI39
F0.007692307692307693
sI40
F0.015384615384615385
sI41
F0.007692307692307693
sI42
F0.007692307692307693
sI43
F0.007692307692307693
ssI45
g0
(g4
tp93
Rp94
I0
F0.015384615384615385
sI1
F0.03076923076923077
sI2
F0.023076923076923078
sI3
F0.007692307692307693
sI4
F0.023076923076923078
sI5
F0.007692307692307693
sI6
F0.015384615384615385
sI7
F0.03076923076923077
sI11
F0.007692307692307693
sI12
F0.007692307692307693
sI13
F0.007692307692307693
sI14
F0.007692307692307693
sI16
F0.015384615384615385
sI18
F0.007692307692307693
sI19
F0.007692307692307693
sI20
F0.007692307692307693
sI22
F0.015384615384615385
sI23
F0.007692307692307693
sI24
F0.023076923076923078
sI25
F0.015384615384615385
sI26
F0.007692307692307693
sI27
F0.007692307692307693
sI28
F0.007692307692307693
sI29
F0.007692307692307693
sI30
F0.015384615384615385
sI31
F0.023076923076923078
sI33
F0.015384615384615385
sI34
F0.046153846153846156
sI35
F0.007692307692307693
sI37
F0.007692307692307693
sI38
F0.007692307692307693
sI39
F0.007692307692307693
sI40
F0.015384615384615385
sI42
F0.023076923076923078
sI43
F0.007692307692307693
ssI46
g0
(g4
tp95
Rp96
I0
F0.015384615384615385
sI1
F0.015384615384615385
sI2
F0.023076923076923078
sI3
F0.015384615384615385
sI4
F0.015384615384615385
sI9
F0.015384615384615385
sI10
F0.015384615384615385
sI11
F0.007692307692307693
sI12
F0.015384615384615385
sI14
F0.007692307692307693
sI15
F0.007692307692307693
sI17
F0.023076923076923078
sI18
F0.007692307692307693
sI21
F0.015384615384615385
sI23
F0.007692307692307693
sI25
F0.007692307692307693
sI26
F0.015384615384615385
sI27
F0.007692307692307693
sI29
F0.015384615384615385
sI32
F0.015384615384615385
sI33
F0.007692307692307693
sI34
F0.046153846153846156
sI36
F0.007692307692307693
sI38
F0.007692307692307693
sI39
F0.007692307692307693
sI40
F0.015384615384615385
sI41
F0.007692307692307693
sI42
F0.007692307692307693
sI43
F0.015384615384615385
sI44
F0.007692307692307693
sI45
F0.007692307692307693
ssI47
g0
(g4
tp97
Rp98
I0
F0.007692307692307693
sI1
F0.007692307692307693
sI3
F0.007692307692307693
sI5
F0.007692307692307693
sI8
F0.015384615384615385
sI10
F0.015384615384615385
sI11
F0.007692307692307693
sI13
F0.007692307692307693
sI15
F0.015384615384615385
sI16
F0.007692307692307693
sI17
F0.007692307692307693
sI18
F0.007692307692307693
sI19
F0.015384615384615385
sI22
F0.007692307692307693
sI24
F0.007692307692307693
sI25
F0.007692307692307693
sI26
F0.015384615384615385
sI27
F0.007692307692307693
sI28
F0.007692307692307693
sI30
F0.007692307692307693
sI31
F0.015384615384615385
sI32
F0.038461538461538464
sI33
F0.007692307692307693
sI35
F0.007692307692307693
sI36
F0.007692307692307693
sI37
F0.007692307692307693
sI38
F0.015384615384615385
sI39
F0.007692307692307693
sI40
F0.015384615384615385
sI41
F0.007692307692307693
sI42
F0.023076923076923078
sI43
F0.038461538461538464
sI44
F0.03076923076923077
sI45
F0.015384615384615385
sI46
F0.007692307692307693
ssI48
g0
(g4
tp99
Rp100
I1
F0.007692307692307693
sI2
F0.023076923076923078
sI3
F0.015384615384615385
sI4
F0.007692307692307693
sI5
F0.007692307692307693
sI6
F0.015384615384615385
sI8
F0.015384615384615385
sI10
F0.015384615384615385
sI11
F0.015384615384615385
sI12
F0.023076923076923078
sI13
F0.007692307692307693
sI14
F0.007692307692307693
sI15
F0.007692307692307693
sI16
F0.007692307692307693
sI17
F0.015384615384615385
sI18
F0.007692307692307693
sI19
F0.023076923076923078
sI20
F0.023076923076923078
sI22
F0.007692307692307693
sI24
F0.007692307692307693
sI25
F0.007692307692307693
sI28
F0.007692307692307693
sI30
F0.007692307692307693
sI31
F0.007692307692307693
sI34
F0.023076923076923078
sI35
F0.007692307692307693
sI36
F0.023076923076923078
sI38
F0.007692307692307693
sI39
F0.007692307692307693
sI40
F0.015384615384615385
sI41
F0.023076923076923078
sI43
F0.015384615384615385
sI46
F0.03076923076923077
sI47
F0.007692307692307693
ssI49
g0
(g4
tp101
Rp102
I0
F0.015384615384615385
sI1
F0.038461538461538464
sI2
F0.015384615384615385
sI4
F0.007692307692307693
sI5
F0.007692307692307693
sI7
F0.015384615384615385
sI10
F0.007692307692307693
sI12
F0.023076923076923078
sI13
F0.007692307692307693
sI14
F0.015384615384615385
sI15
F0.007692307692307693
sI16
F0.007692307692307693
sI17
F0.007692307692307693
sI18
F0.007692307692307693
sI19
F0.03076923076923077
sI21
F0.015384615384615385
sI22
F0.015384615384615385
sI23
F0.007692307692307693
sI24
F0.007692307692307693
sI25
F0.023076923076923078
sI26
F0.007692307692307693
sI27
F0.007692307692307693
sI28
F0.007692307692307693
sI29
F0.038461538461538464
sI32
F0.007692307692307693
sI33
F0.015384615384615385
sI34
F0.023076923076923078
sI35
F0.007692307692307693
sI37
F0.007692307692307693
sI38
F0.007692307692307693
sI39
F0.007692307692307693
sI40
F0.023076923076923078
sI41
F0.015384615384615385
sI43
F0.007692307692307693
sI44
F0.007692307692307693
sI45
F0.007692307692307693
sI46
F0.007692307692307693
sI47
F0.007692307692307693
ssI50
g0
(g4
tp103
Rp104
I1
F0.007692307692307693
sI2
F0.015384615384615385
sI3
F0.007692307692307693
sI4
F0.007692307692307693
sI5
F0.023076923076923078
sI7
F0.015384615384615385
sI9
F0.015384615384615385
sI10
F0.007692307692307693
sI11
F0.03076923076923077
sI13
F0.03076923076923077
sI15
F0.007692307692307693
sI17
F0.007692307692307693
sI18
F0.007692307692307693
sI19
F0.007692307692307693
sI21
F0.023076923076923078
sI23
F0.007692307692307693
sI25
F0.007692307692307693
sI28
F0.015384615384615385
sI29
F0.023076923076923078
sI30
F0.007692307692307693
sI33
F0.015384615384615385
sI34
F0.023076923076923078
sI35
F0.007692307692307693
sI36
F0.015384615384615385
sI37
F0.015384615384615385
sI38
F0.015384615384615385
sI39
F0.007692307692307693
sI40
F0.023076923076923078
sI41
F0.007692307692307693
sI42
F0.015384615384615385
sI43
F0.007692307692307693
sI44
F0.007692307692307693
sI45
F0.007692307692307693
sI46
F0.015384615384615385
sI47
F0.015384615384615385
sI48
F0.015384615384615385
sI49
F0.023076923076923078
ssI51
g0
(g4
tp105
Rp106
I1
F0.015384615384615385
sI2
F0.007692307692307693
sI3
F0.007692307692307693
sI5
F0.007692307692307693
sI6
F0.007692307692307693
sI8
F0.007692307692307693
sI9
F0.007692307692307693
sI11
F0.007692307692307693
sI13
F0.023076923076923078
sI15
F0.007692307692307693
sI18
F0.007692307692307693
sI22
F0.015384615384615385
sI24
F0.007692307692307693
sI26
F0.007692307692307693
sI29
F0.007692307692307693
sI30
F0.007692307692307693
sI31
F0.007692307692307693
sI32
F0.007692307692307693
sI33
F0.007692307692307693
sI35
F0.015384615384615385
sI37
F0.015384615384615385
sI38
F0.007692307692307693
sI39
F0.023076923076923078
sI40
F0.007692307692307693
sI41
F0.015384615384615385
sI42
F0.007692307692307693
sI43
F0.023076923076923078
sI45
F0.015384615384615385
sI46
F0.015384615384615385
sI47
F0.007692307692307693
sI48
F0.007692307692307693
sI49
F0.007692307692307693
sI50
F0.015384615384615385
ssI52
g0
(g4
tp107
Rp108
I0
F0.007692307692307693
sI1
F0.007692307692307693
sI2
F0.015384615384615385
sI4
F0.007692307692307693
sI6
F0.007692307692307693
sI7
F0.007692307692307693
sI8
F0.015384615384615385
sI11
F0.007692307692307693
sI12
F0.007692307692307693
sI14
F0.007692307692307693
sI16
F0.007692307692307693
sI17
F0.015384615384615385
sI20
F0.007692307692307693
sI22
F0.007692307692307693
sI24
F0.007692307692307693
sI25
F0.015384615384615385
sI27
F0.007692307692307693
sI28
F0.015384615384615385
sI29
F0.007692307692307693
sI31
F0.007692307692307693
sI33
F0.007692307692307693
sI35
F0.007692307692307693
sI36
F0.015384615384615385
sI37
F0.007692307692307693
sI38
F0.015384615384615385
sI40
F0.015384615384615385
sI41
F0.007692307692307693
sI42
F0.007692307692307693
sI44
F0.015384615384615385
sI46
F0.007692307692307693
sI47
F0.007692307692307693
ssI53
g0
(g4
tp109
Rp110
I1
F0.015384615384615385
sI4
F0.007692307692307693
sI8
F0.015384615384615385
sI9
F0.007692307692307693
sI12
F0.007692307692307693
sI14
F0.023076923076923078
sI17
F0.007692307692307693
sI18
F0.007692307692307693
sI19
F0.007692307692307693
sI20
F0.015384615384615385
sI27
F0.007692307692307693
sI28
F0.007692307692307693
sI29
F0.007692307692307693
sI30
F0.007692307692307693
sI33
F0.007692307692307693
sI34
F0.007692307692307693
sI35
F0.007692307692307693
sI36
F0.007692307692307693
sI38
F0.007692307692307693
sI40
F0.023076923076923078
sI41
F0.007692307692307693
sI42
F0.007692307692307693
sI44
F0.007692307692307693
sI48
F0.007692307692307693
sI52
F0.007692307692307693
ssI54
g0
(g4
tp111
Rp112
I2
F0.015384615384615385
sI3
F0.015384615384615385
sI4
F0.007692307692307693
sI5
F0.007692307692307693
sI7
F0.015384615384615385
sI10
F0.007692307692307693
sI11
F0.015384615384615385
sI12
F0.015384615384615385
sI14
F0.015384615384615385
sI17
F0.015384615384615385
sI18
F0.007692307692307693
sI20
F0.007692307692307693
sI21
F0.015384615384615385
sI22
F0.023076923076923078
sI27
F0.007692307692307693
sI28
F0.007692307692307693
sI29
F0.015384615384615385
sI31
F0.023076923076923078
sI33
F0.015384615384615385
sI34
F0.015384615384615385
sI35
F0.015384615384615385
sI36
F0.007692307692307693
sI37
F0.007692307692307693
sI38
F0.023076923076923078
sI40
F0.015384615384615385
sI42
F0.015384615384615385
sI45
F0.007692307692307693
sI46
F0.023076923076923078
sI47
F0.007692307692307693
sI50
F0.015384615384615385
sI51
F0.007692307692307693
ssI55
g0
(g4
tp113
Rp114
I1
F0.015384615384615385
sI2
F0.007692307692307693
sI4
F0.007692307692307693
sI5
F0.007692307692307693
sI7
F0.007692307692307693
sI8
F0.007692307692307693
sI10
F0.007692307692307693
sI11
F0.007692307692307693
sI17
F0.015384615384615385
sI20
F0.015384615384615385
sI21
F0.007692307692307693
sI22
F0.007692307692307693
sI23
F0.007692307692307693
sI24
F0.007692307692307693
sI28
F0.015384615384615385
sI30
F0.007692307692307693
sI34
F0.007692307692307693
sI35
F0.007692307692307693
sI36
F0.007692307692307693
sI37
F0.015384615384615385
sI38
F0.007692307692307693
sI39
F0.007692307692307693
sI40
F0.015384615384615385
sI42
F0.023076923076923078
sI43
F0.015384615384615385
sI44
F0.007692307692307693
sI46
F0.007692307692307693
sI48
F0.007692307692307693
sI49
F0.007692307692307693
sI50
F0.023076923076923078
sI51
F0.007692307692307693
sI53
F0.007692307692307693
sI54
F0.007692307692307693
ssI56
g0
(g4
tp115
Rp116
I0
F0.007692307692307693
sI2
F0.023076923076923078
sI3
F0.007692307692307693
sI4
F0.007692307692307693
sI9
F0.007692307692307693
sI13
F0.023076923076923078
sI18
F0.007692307692307693
sI24
F0.007692307692307693
sI25
F0.007692307692307693
sI27
F0.007692307692307693
sI30
F0.007692307692307693
sI32
F0.007692307692307693
sI33
F0.007692307692307693
sI34
F0.015384615384615385
sI35
F0.007692307692307693
sI38
F0.007692307692307693
sI40
F0.015384615384615385
sI41
F0.007692307692307693
sI42
F0.007692307692307693
sI45
F0.007692307692307693
sI46
F0.015384615384615385
sI48
F0.007692307692307693
sI49
F0.007692307692307693
sI51
F0.023076923076923078
ssI57
g0
(g4
tp117
Rp118
I1
F0.007692307692307693
sI2
F0.007692307692307693
sI3
F0.007692307692307693
sI5
F0.007692307692307693
sI8
F0.007692307692307693
sI10
F0.007692307692307693
sI11
F0.007692307692307693
sI12
F0.007692307692307693
sI14
F0.007692307692307693
sI16
F0.015384615384615385
sI17
F0.015384615384615385
sI18
F0.007692307692307693
sI19
F0.023076923076923078
sI21
F0.007692307692307693
sI27
F0.015384615384615385
sI28
F0.007692307692307693
sI30
F0.007692307692307693
sI33
F0.007692307692307693
sI37
F0.015384615384615385
sI38
F0.007692307692307693
sI40
F0.015384615384615385
sI44
F0.007692307692307693
sI45
F0.007692307692307693
sI46
F0.007692307692307693
sI49
F0.007692307692307693
sI50
F0.007692307692307693
sI55
F0.007692307692307693
ssI58
g0
(g4
tp119
Rp120
I32
F0.007692307692307693
sI48
F0.007692307692307693
sI2
F0.007692307692307693
sI3
F0.007692307692307693
sI37
F0.007692307692307693
sI35
F0.007692307692307693
sI8
F0.007692307692307693
sI10
F0.007692307692307693
sI45
F0.007692307692307693
sI34
F0.015384615384615385
sI46
F0.015384615384615385
sI15
F0.007692307692307693
sI16
F0.007692307692307693
sI50
F0.007692307692307693
sI19
F0.007692307692307693
sI52
F0.007692307692307693
sI14
F0.007692307692307693
sI54
F0.015384615384615385
sI56
F0.007692307692307693
sI57
F0.007692307692307693
ssI59
g0
(g4
tp121
Rp122
I1
F0.007692307692307693
sI2
F0.015384615384615385
sI6
F0.007692307692307693
sI8
F0.007692307692307693
sI14
F0.007692307692307693
sI15
F0.007692307692307693
sI21
F0.007692307692307693
sI26
F0.007692307692307693
sI27
F0.007692307692307693
sI28
F0.007692307692307693
sI30
F0.007692307692307693
sI31
F0.007692307692307693
sI34
F0.015384615384615385
sI36
F0.007692307692307693
sI37
F0.007692307692307693
sI38
F0.007692307692307693
sI39
F0.007692307692307693
sI40
F0.015384615384615385
sI42
F0.007692307692307693
sI43
F0.007692307692307693
sI45
F0.023076923076923078
sI46
F0.007692307692307693
sI47
F0.007692307692307693
sI48
F0.007692307692307693
sI49
F0.007692307692307693
sI52
F0.007692307692307693
sI53
F0.007692307692307693
sI57
F0.007692307692307693
sI58
F0.007692307692307693
ssI60
g0
(g4
tp123
Rp124
I32
F0.007692307692307693
sI1
F0.007692307692307693
sI34
F0.007692307692307693
sI3
F0.007692307692307693
sI43
F0.007692307692307693
sI12
F0.007692307692307693
sI13
F0.007692307692307693
sI48
F0.007692307692307693
sI49
F0.007692307692307693
sI50
F0.015384615384615385
sI51
F0.007692307692307693
sI21
F0.007692307692307693
sI11
F0.007692307692307693
sI56
F0.007692307692307693
sI27
F0.007692307692307693
sI30
F0.007692307692307693
sI31
F0.007692307692307693
ssI61
g0
(g4
tp125
Rp126
I33
F0.007692307692307693
sI2
F0.007692307692307693
sI35
F0.015384615384615385
sI4
F0.007692307692307693
sI37
F0.007692307692307693
sI47
F0.007692307692307693
sI42
F0.007692307692307693
sI34
F0.007692307692307693
sI46
F0.007692307692307693
sI45
F0.007692307692307693
sI50
F0.007692307692307693
sI54
F0.007692307692307693
sI56
F0.007692307692307693
sI36
F0.007692307692307693
sI58
F0.007692307692307693
sI59
F0.007692307692307693
sI28
F0.015384615384615385
ssI62
g0
(g4
tp127
Rp128
I0
F0.015384615384615385
sI33
F0.007692307692307693
sI4
F0.007692307692307693
sI5
F0.007692307692307693
sI6
F0.007692307692307693
sI39
F0.007692307692307693
sI42
F0.007692307692307693
sI17
F0.007692307692307693
sI19
F0.007692307692307693
sI20
F0.007692307692307693
sI55
F0.007692307692307693
sI25
F0.007692307692307693
ssI63
g0
(g4
tp129
Rp130
I1
F0.007692307692307693
sI38
F0.007692307692307693
sI7
F0.007692307692307693
sI40
F0.015384615384615385
sI12
F0.007692307692307693
sI47
F0.007692307692307693
sI49
F0.007692307692307693
sI22
F0.007692307692307693
ssI64
g0
(g4
tp131
Rp132
I0
F0.007692307692307693
sI8
F0.007692307692307693
sI14
F0.007692307692307693
sI18
F0.007692307692307693
sI22
F0.007692307692307693
sI55
F0.007692307692307693
ssI65
g0
(g4
tp133
Rp134
I2
F0.015384615384615385
sI35
F0.007692307692307693
sI44
F0.007692307692307693
sI45
F0.007692307692307693
sI46
F0.007692307692307693
sI48
F0.015384615384615385
sI56
F0.007692307692307693
sI55
F0.007692307692307693
sI24
F0.007692307692307693
sI58
F0.007692307692307693
sI59
F0.007692307692307693
sI61
F0.007692307692307693
ssI66
g0
(g4
tp135
Rp136
I65
F0.007692307692307693
sI6
F0.007692307692307693
sI33
F0.015384615384615385
sI42
F0.007692307692307693
sI16
F0.007692307692307693
sI49
F0.007692307692307693
sI19
F0.007692307692307693
sI53
F0.007692307692307693
sI25
F0.007692307692307693
sI57
F0.007692307692307693
sI61
F0.007692307692307693
ssI67
g0
(g4
tp137
Rp138
I33
F0.007692307692307693
sI4
F0.007692307692307693
sI37
F0.015384615384615385
sI40
F0.007692307692307693
sI60
F0.007692307692307693
sI44
F0.007692307692307693
sI14
F0.007692307692307693
sI8
F0.007692307692307693
sI28
F0.007692307692307693
sI5
F0.007692307692307693
ssI68
g0
(g4
tp139
Rp140
I35
F0.007692307692307693
sI4
F0.007692307692307693
sI8
F0.007692307692307693
sI41
F0.007692307692307693
sI42
F0.007692307692307693
sI43
F0.007692307692307693
sI61
F0.007692307692307693
sI51
F0.007692307692307693
sI54
F0.007692307692307693
sI36
F0.007692307692307693
sI29
F0.007692307692307693
sI31
F0.007692307692307693
ssI69
g0
(g4
tp141
Rp142
I33
F0.007692307692307693
sI66
F0.007692307692307693
sI35
F0.007692307692307693
sI20
F0.015384615384615385
sI55
F0.007692307692307693
ssI70
g0
(g4
tp143
Rp144
I0
F0.007692307692307693
sI2
F0.007692307692307693
sI4
F0.015384615384615385
sI40
F0.007692307692307693
sI42
F0.007692307692307693
sI46
F0.007692307692307693
sI34
F0.007692307692307693
sI14
F0.007692307692307693
sI13
F0.007692307692307693
sI51
F0.007692307692307693
sI20
F0.007692307692307693
sI53
F0.007692307692307693
sI25
F0.007692307692307693
sI47
F0.007692307692307693
sI28
F0.015384615384615385
sI36
F0.007692307692307693
ssI71
g0
(g4
tp145
Rp146
I48
F0.007692307692307693
sI10
F0.007692307692307693
ssI72
g0
(g4
tp147
Rp148
I1
F0.007692307692307693
sI36
F0.007692307692307693
sI69
F0.007692307692307693
sI7
F0.007692307692307693
sI40
F0.007692307692307693
sI11
F0.007692307692307693
sI4
F0.007692307692307693
ssI73
g0
(g4
tp149
Rp150
I33
F0.007692307692307693
sI40
F0.007692307692307693
sI41
F0.007692307692307693
sI46
F0.015384615384615385
sI53
F0.007692307692307693
sI21
F0.007692307692307693
ssI74
g0
(g4
tp151
Rp152
I60
F0.007692307692307693
sI50
F0.007692307692307693
sI31
F0.007692307692307693
sI68
F0.007692307692307693
sI7
F0.007692307692307693
ssI75
g0
(g4
tp153
Rp154
I73
F0.007692307692307693
sI61
F0.007692307692307693
ssI76
g0
(g4
tp155
Rp156
I68
F0.007692307692307693
sI74
F0.007692307692307693
sI20
F0.015384615384615385
sI31
F0.007692307692307693
ssI77
g0
(g4
tp157
Rp158
I1
F0.007692307692307693
sI43
F0.007692307692307693
sI59
F0.007692307692307693
sI51
F0.007692307692307693
sI55
F0.007692307692307693
ssI78
g0
(g4
tp159
Rp160
I0
F0.007692307692307693
sI67
F0.007692307692307693
sI5
F0.007692307692307693
sI40
F0.007692307692307693
sI73
F0.007692307692307693
sI10
F0.007692307692307693
sI44
F0.007692307692307693
sI15
F0.007692307692307693
sI16
F0.007692307692307693
sI17
F0.007692307692307693
sI50
F0.007692307692307693
sI21
F0.007692307692307693
sI54
F0.007692307692307693
sI25
F0.007692307692307693
sI28
F0.007692307692307693
sI37
F0.007692307692307693
ssI79
g0
(g4
tp161
Rp162
I35
F0.007692307692307693
sI68
F0.007692307692307693
sI42
F0.007692307692307693
sI47
F0.007692307692307693
sI54
F0.007692307692307693
sI61
F0.007692307692307693
ssI81
g0
(g4
tp163
Rp164
I65
F0.007692307692307693
sI33
F0.007692307692307693
ssI82
g0
(g4
tp165
Rp166
I35
F0.007692307692307693
sI68
F0.007692307692307693
sI71
F0.007692307692307693
sI42
F0.007692307692307693
sI79
F0.007692307692307693
sI18
F0.007692307692307693
sI53
F0.007692307692307693
sI54
F0.007692307692307693
sI47
F0.007692307692307693
sI61
F0.007692307692307693
ssI83
g0
(g4
tp167
Rp168
I0
F0.007692307692307693
sI6
F0.007692307692307693
sI8
F0.007692307692307693
sI43
F0.007692307692307693
sI77
F0.007692307692307693
sI51
F0.007692307692307693
sI20
F0.007692307692307693
sI55
F0.007692307692307693
sI59
F0.007692307692307693
ssI84
g0
(g4
tp169
Rp170
I61
F0.007692307692307693
ssI87
g0
(g4
tp171
Rp172
I76
F0.007692307692307693
sI74
F0.007692307692307693
sI68
F0.007692307692307693
sI31
F0.007692307692307693
ssI88
g0
(g4
tp173
Rp174
I69
F0.007692307692307693
ss.