ccollections
defaultdict
p0
(c__builtin__
set
p1
tp2
Rp3
VIH0Z
p4
g1
((lp5
S'is'
p6
aS'his'
p7
atp8
Rp9
sVIH0T
p10
g1
((lp11
S'it'
p12
atp13
Rp14
sVIH0S
p15
g1
((lp16
S'this'
p17
atp18
Rp19
sVAO1KT
p20
g1
((lp21
S'talked'
p22
aS'walked'
p23
atp24
Rp25
sVAH2
p26
g1
((lp27
S'unfamiliar'
p28
aS'whatever'
p29
atp30
Rp31
sVIH0N
p32
g1
((lp33
S'been'
p34
aS'in'
p35
atp36
Rp37
sVAH0
p38
g1
((lp39
S'control'
p40
aS'salon'
p41
aS'patrol'
p42
aS'supply'
p43
aS'recruitment'
p44
aS'messiahs'
p45
aS'another'
p46
aS'again'
p47
aS'possessions'
p48
aS'chicago'
p49
aS'addicted'
p50
aS'away'
p51
aS'deposits'
p52
aS'to'
p53
aS'above'
p54
aS'themselves'
p55
aS'officially'
p56
aS'today'
p57
aS'project'
p58
aS'prophetic'
p59
aS'successful'
p60
aS'de'
p61
aS'upon'
p62
aS'galore'
p63
aS'cannot'
p64
aS'america'
p65
aS'a'
p66
aS'about'
p67
aS'tobacco'
p68
aS'sometimes'
p69
aS'appearance'
p70
aS'together'
p71
aS'reviews'
p72
aS'concrete'
p73
aS'abandon'
p74
aS'the'
p75
aS'esteem'
p76
atp77
Rp78
sVAH1
p79
g1
((lp80
S'buzzer'
p81
aS'summer'
p82
aS'someday'
p83
aS'color'
p84
aS'money'
p85
aS'number'
p86
aS'budget'
p87
aS'culture'
p88
aS'sudden'
p89
aS'something'
p90
aS'trumpet'
p91
aS'custody'
p92
aS'dozen'
p93
aS"doesn't"
p94
aS'somewhere'
p95
aS'cousins'
p96
aS'hunters'
p97
aS'other'
p98
aS'lullabies'
p99
aS'wondrous'
p100
aS'under'
p101
aS'tumbling'
p102
aS'bunny'
p103
aS'jungle'
p104
aS'bumble'
p105
aS'stomach'
p106
aS'mustard'
p107
aS'crumbling'
p108
aS'huh'
p109
aS'lucky'
p110
aS'running'
p111
aS'uncle'
p112
aS"somethin'"
p113
aS'coming'
p114
aS'nothing'
p115
aS'cousin'
p116
aS"wasn't"
p117
aS'sometimes'
p118
aS'cover'
p119
aS'brother'
p120
aS'public'
p121
aS'uh'
p122
aS'mother'
p123
aS'putting'
p124
aS'the'
p125
atp126
Rp127
sVIH0F
p128
g1
((lp129
S'if'
p130
atp131
Rp132
sVIH0D
p133
g1
((lp134
S'did'
p135
aS'good'
p136
atp137
Rp138
sVUW1TH
p139
g1
((lp140
S'truth'
p141
atp142
Rp143
sVEH2
p144
g1
((lp145
S'revelations'
p146
atp147
Rp148
sVEH0
p149
g1
((lp150
S'employee'
p151
aS'themselves'
p152
aS'entrusted'
p153
atp154
Rp155
sVEH1
p156
g1
((lp157
S'ye'
p158
aS'seven'
p159
aS'everyone'
p160
aS'edify'
p161
aS'headed'
p162
aS'hedwig'
p163
aS'messages'
p164
aS'feathers'
p165
aS'gently'
p166
aS'carry'
p167
aS'second'
p168
aS'ready'
p169
aS'emptiness'
p170
aS'any'
p171
aS'special'
p172
aS'enemies'
p173
aS'everybody'
p174
aS'fella'
p175
aS"heaven's"
p176
aS'baritone'
p177
aS'steroids'
p178
aS'edges'
p179
aS'better'
p180
aS'everything'
p181
aS'derek'
p182
aS'kevin'
p183
aS'wendy'
p184
aS'debit'
p185
aS'helicopter'
p186
aS'fetty'
p187
aS'ever'
p188
aS"devil's"
p189
aS'lessons'
p190
aS'never'
p191
aS'rescue'
p192
aS'petrified'
p193
aS'very'
p194
aS'petty'
p195
aS'reconciled'
p196
aS'blessing'
p197
aS'seventh'
p198
aS'parents'
p199
aS'dentist'
p200
aS'devil'
p201
aS'every'
p202
aS'members'
p203
aS'pedal'
p204
aS'bury'
p205
aS'endless'
p206
aS'enemy'
p207
aS'heaven'
p208
aS'marathon'
p209
aS'getting'
p210
aS'many'
p211
aS'pregnant'
p212
aS'steady'
p213
aS'blessings'
p214
aS'marriage'
p215
aS'jericho'
p216
aS"harold's"
p217
aS'friendship'
p218
aS'pesticide'
p219
aS'anyone'
p220
atp221
Rp222
sVEY1TH
p223
g1
((lp224
S'faith'
p225
atp226
Rp227
sVEY1TS
p228
g1
((lp229
S'gates'
p230
atp231
Rp232
sVAE1MP
p233
g1
((lp234
S'camp'
p235
aS'champ'
p236
atp237
Rp238
sVIY1TS
p239
g1
((lp240
S'streets'
p241
aS'seats'
p242
atp243
Rp244
sVAO1RMTH
p245
g1
((lp246
S'warmth'
p247
atp248
Rp249
sVAH1CH
p250
g1
((lp251
S'touch'
p252
aS'much'
p253
atp254
Rp255
sVOW1DHZ
p256
g1
((lp257
S'clothes'
p258
atp259
Rp260
sVAW1LZ
p261
g1
((lp262
S'owls'
p263
atp264
Rp265
sVEY1MZ
p266
g1
((lp267
S'james'
p268
aS'names'
p269
atp270
Rp271
sS'AH1 S'
p272
g1
((lp273
S'us'
p274
atp275
Rp276
sVIH0M
p277
g1
((lp278
S'him'
p279
atp280
Rp281
sVOY1
p282
g1
((lp283
S'boy'
p284
aS'poisoned'
p285
aS'loyalty'
p286
atp287
Rp288
sVEY1MD
p289
g1
((lp290
S'tamed'
p291
atp292
Rp293
sVUW1ZD
p294
g1
((lp295
S'used'
p296
atp297
Rp298
sVUH1
p299
g1
((lp300
S'pussy'
p301
aS"wouldn't"
p302
aS'cooking'
p303
aS'looking'
p304
aS'putting'
p305
aS"couldn't"
p306
aS'curious'
p307
aS"would've"
p308
atp309
Rp310
sVAE1TS
p311
g1
((lp312
S'cats'
p313
aS"that's"
p314
atp315
Rp316
sVAH1NZ
p317
g1
((lp318
S'ones'
p319
atp320
Rp321
sVAH1NT
p322
g1
((lp323
S'front'
p324
aS'blunt'
p325
atp326
Rp327
sVAH1NS
p328
g1
((lp329
S'once'
p330
atp331
Rp332
sVAH1NG
p333
g1
((lp334
S'young'
p335
atp336
Rp337
sVAE1TH
p338
g1
((lp339
S'path'
p340
atp341
Rp342
sVAA1ND
p343
g1
((lp344
S'blonde'
p345
atp346
Rp347
sVAO1RD
p348
g1
((lp349
S'lord'
p350
aS'poured'
p351
aS'board'
p352
aS'sword'
p353
atp354
Rp355
sVAO2L
p356
g1
((lp357
S"y'all"
p358
atp359
Rp360
sVAO1RN
p361
g1
((lp362
S'warn'
p363
aS'morn'
p364
aS'horn'
p365
atp366
Rp367
sVAO1RM
p368
g1
((lp369
S'warm'
p370
atp371
Rp372
sVAA1NT
p373
g1
((lp374
S'want'
p375
atp376
Rp377
sVAO1RS
p378
g1
((lp379
S'force'
p380
atp381
Rp382
sVAO1RZ
p383
g1
((lp384
S'yours'
p385
aS'doors'
p386
atp387
Rp388
sVER1CH
p389
g1
((lp390
S'search'
p391
aS'church'
p392
atp393
Rp394
sVUH1KT
p395
g1
((lp396
S'booked'
p397
atp398
Rp399
sVIH1RZ
p400
g1
((lp401
S'tears'
p402
aS'years'
p403
atp404
Rp405
sVEY1Z
p406
g1
((lp407
S'ways'
p408
aS'days'
p409
aS'praise'
p410
atp411
Rp412
sVEY1T
p413
g1
((lp414
S'late'
p415
aS'gate'
p416
aS'straight'
p417
aS'great'
p418
aS'wait'
p419
atp420
Rp421
sVEY1V
p422
g1
((lp423
S'gave'
p424
aS'wave'
p425
atp426
Rp427
sVEY1P
p428
g1
((lp429
S'tape'
p430
atp431
Rp432
sVEY1S
p433
g1
((lp434
S'case'
p435
aS'race'
p436
aS'place'
p437
aS'space'
p438
aS'face'
p439
atp440
Rp441
sVEY1M
p442
g1
((lp443
S'name'
p444
aS'game'
p445
aS'same'
p446
aS'came'
p447
aS'lame'
p448
atp449
Rp450
sVEY1L
p451
g1
((lp452
S'mail'
p453
atp454
Rp455
sVEY1N
p456
g1
((lp457
S'pain'
p458
aS'rain'
p459
atp460
Rp461
sVOW1TH
p462
g1
((lp463
S'growth'
p464
atp465
Rp466
sVEY1D
p467
g1
((lp468
S'grade'
p469
aS'prayed'
p470
aS'made'
p471
aS'paid'
p472
aS'played'
p473
atp474
Rp475
sVEY1G
p476
g1
((lp477
S'craig'
p478
aS'plague'
p479
atp480
Rp481
sVEY1F
p482
g1
((lp483
S'safe'
p484
atp485
Rp486
sVEY1B
p487
g1
((lp488
S'babe'
p489
atp490
Rp491
sVEH1K
p492
g1
((lp493
S'neck'
p494
atp495
Rp496
sVEH1L
p497
g1
((lp498
S'hell'
p499
aS'smell'
p500
aS'well'
p501
aS'tell'
p502
atp503
Rp504
sVEH1N
p505
g1
((lp506
S'then'
p507
aS'when'
p508
aS'ten'
p509
atp510
Rp511
sVEH1ST
p512
g1
((lp513
S'crest'
p514
aS'best'
p515
aS'rest'
p516
atp517
Rp518
sVAY1K
p519
g1
((lp520
S'strike'
p521
aS'like'
p522
atp523
Rp524
sVEH1G
p525
g1
((lp526
S'leg'
p527
atp528
Rp529
sVEH1SH
p530
g1
((lp531
S'fresh'
p532
atp533
Rp534
sVEH1Z
p535
g1
((lp536
S'as'
p537
atp538
Rp539
sVAA1ST
p540
g1
((lp541
S'cost'
p542
atp543
Rp544
sVER1ND
p545
g1
((lp546
S'burned'
p547
atp548
Rp549
sVEH1P
p550
g1
((lp551
S'yep'
p552
atp553
Rp554
sVEH1R
p555
g1
((lp556
S'there'
p557
aS'share'
p558
aS'air'
p559
aS'hair'
p560
aS'swear'
p561
aS'wear'
p562
aS'prayer'
p563
aS'chair'
p564
aS'where'
p565
aS'care'
p566
atp567
Rp568
sVEH1S
p569
g1
((lp570
S'mess'
p571
aS'guess'
p572
aS'yes'
p573
atp574
Rp575
sVEH1T
p576
g1
((lp577
S'let'
p578
aS'get'
p579
atp580
Rp581
sVAO1RDZ
p582
g1
((lp583
S'swords'
p584
atp585
Rp586
sVAH1GZ
p587
g1
((lp588
S'drugs'
p589
aS'bugs'
p590
atp591
Rp592
sVEY1ZD
p593
g1
((lp594
S'raised'
p595
atp596
Rp597
sVAH1NTHS
p598
g1
((lp599
S'months'
p600
atp601
Rp602
sVIH0TH
p603
g1
((lp604
S'with'
p605
atp606
Rp607
sVEH1FT
p608
g1
((lp609
S'left'
p610
atp611
Rp612
sVIH0TS
p613
g1
((lp614
S"it's"
p615
aS'its'
p616
atp617
Rp618
sVIH1NGK
p619
g1
((lp620
S'link'
p621
aS'think'
p622
aS'rink'
p623
atp624
Rp625
sVAH1NTH
p626
g1
((lp627
S'month'
p628
atp629
Rp630
sVAO1NZ
p631
g1
((lp632
S'lawns'
p633
atp634
Rp635
sVAO1RJHD
p636
g1
((lp637
S'forged'
p638
atp639
Rp640
sVEY1ST
p641
g1
((lp642
S'taste'
p643
aS'chased'
p644
aS'waist'
p645
atp646
Rp647
sVAO1NG
p648
g1
((lp649
S'wrong'
p650
aS'long'
p651
aS'song'
p652
atp653
Rp654
sVIH1NGZ
p655
g1
((lp656
S'kings'
p657
aS'rings'
p658
aS'wings'
p659
aS'things'
p660
atp661
Rp662
sVIH1DNT
p663
g1
((lp664
S"didn't"
p665
atp666
Rp667
sVER0
p668
g1
((lp669
S'perfect'
p670
aS'perimeter'
p671
aS'perform'
p672
aS'around'
p673
aS'her'
p674
aS'pursue'
p675
aS'herself'
p676
aS'surrounded'
p677
aS'forgetful'
p678
aS'for'
p679
aS'forgetting'
p680
aS'performed'
p681
aS'were'
p682
aS'jerusalem'
p683
aS'forget'
p684
aS'are'
p685
atp686
Rp687
sVEH1TH
p688
g1
((lp689
S'breath'
p690
aS'death'
p691
atp692
Rp693
sVAW1D
p694
g1
((lp695
S'proud'
p696
atp697
Rp698
sVAO1NGZ
p699
g1
((lp700
S'wrongs'
p701
aS'songs'
p702
atp703
Rp704
sVAH1NCH
p705
g1
((lp706
S'bunch'
p707
atp708
Rp709
sVIH1VD
p710
g1
((lp711
S'lived'
p712
atp713
Rp714
sVEY1
p715
g1
((lp716
S'skating'
p717
aS'saying'
p718
aS'crazy'
p719
aS'saving'
p720
aS'angel'
p721
aS'danger'
p722
aS'racing'
p723
aS'gator'
p724
aS'paper'
p725
aS'radio'
p726
aS'prayer'
p727
aS'ay'
p728
aS'table'
p729
aS'aged'
p730
aS'mayor'
p731
aS'praises'
p732
aS'jay'
p733
aS'pray'
p734
aS'hey'
p735
aS'label'
p736
aS'favor'
p737
aS'satan'
p738
aS'way'
p739
aS'dating'
p740
aS'angels'
p741
aS"playin'"
p742
aS'hater'
p743
aS'play'
p744
aS'labels'
p745
aS'paperwork'
p746
aS'may'
p747
aS'mayo'
p748
aS'de'
p749
aS'stay'
p750
aS'famous'
p751
aS'lay'
p752
aS'they'
p753
aS'baby'
p754
aS'day'
p755
aS'halo'
p756
aS'a'
p757
aS'stranger'
p758
aS'maybe'
p759
aS'taking'
p760
aS'chamber'
p761
aS"waitin'"
p762
aS'caterer'
p763
aS'faking'
p764
aS'safely'
p765
aS'playing'
p766
aS'latest'
p767
atp768
Rp769
sVOW1P
p770
g1
((lp771
S'hope'
p772
atp773
Rp774
sVAO1CH
p775
g1
((lp776
S'watch'
p777
atp778
Rp779
sVAY1
p780
g1
((lp781
S'signing'
p782
aS'childhood'
p783
aS'tired'
p784
aS'high'
p785
aS'ay'
p786
aS'lie'
p787
aS'dying'
p788
aS'aye'
p789
aS'mikey'
p790
aS'writing'
p791
aS"i'mma"
p792
aS'choir'
p793
aS'righteous'
p794
aS'buy'
p795
aS'tidal'
p796
aS'why'
p797
aS'fly'
p798
aS'die'
p799
aS'cry'
p800
aS'michael'
p801
aS'fighting'
p802
aS'lightning'
p803
aS'try'
p804
aS'nicest'
p805
aS'science'
p806
aS'my'
p807
aS'timeshare'
p808
aS'lying'
p809
atp810
Rp811
sVAY0
p812
g1
((lp813
S'ideas'
p814
aS'minute'
p815
atp816
Rp817
sVAY2
p818
g1
((lp819
S'bio'
p820
aS'ikea'
p821
aS'diarrhea'
p822
aS'myself'
p823
atp824
Rp825
sVIH0ST
p826
g1
((lp827
S'just'
p828
atp829
Rp830
sVIH1DZ
p831
g1
((lp832
S'kids'
p833
atp834
Rp835
sVAO1
p836
g1
((lp837
S'ordered'
p838
aS'auntie'
p839
aS'dollar'
p840
aS'talking'
p841
aS'fortify'
p842
aS'broadway'
p843
aS'color'
p844
aS'bosses'
p845
aS'borders'
p846
aS'glorify'
p847
aS'offering'
p848
aS'offer'
p849
aS'altar'
p850
aS'sauna'
p851
aS'water'
p852
aS'salsa'
p853
aS'shortness'
p854
aS'wanted'
p855
aS'faucet'
p856
aS'daughter'
p857
aS'rollie'
p858
aS'always'
p859
aS'forfeited'
p860
aS'stories'
p861
aS'mortar'
p862
aS'crossing'
p863
aS'swallow'
p864
aS'quarter'
p865
aS'lofty'
p866
atp867
Rp868
sVAO0
p869
g1
((lp870
S'forgetting'
p871
aS'forgetful'
p872
aS'forget'
p873
atp874
Rp875
sVIH1DH
p876
g1
((lp877
S'with'
p878
atp879
Rp880
sVAH1KT
p881
g1
((lp882
S'fucked'
p883
aS'ducked'
p884
atp885
Rp886
sVAE1SH
p887
g1
((lp888
S'cash'
p889
atp890
Rp891
sVAH1KS
p892
g1
((lp893
S'bucks'
p894
aS'tucks'
p895
atp896
Rp897
sVAW1N
p898
g1
((lp899
S'down'
p900
aS'brown'
p901
aS'drown'
p902
aS'crown'
p903
atp904
Rp905
sVAW1S
p906
g1
((lp907
S'house'
p908
atp909
Rp910
sVAW1R
p911
g1
((lp912
S'our'
p913
aS'hour'
p914
atp915
Rp916
sVAW1T
p917
g1
((lp918
S"'bout"
p919
aS'drought'
p920
aS'out'
p921
atp922
Rp923
sVAE1ST
p924
g1
((lp925
S'past'
p926
aS'last'
p927
atp928
Rp929
sVAO1NT
p930
g1
((lp931
S'want'
p932
atp933
Rp934
sVAY1LD
p935
g1
((lp936
S'child'
p937
atp938
Rp939
sVAY1NG
p940
g1
((lp941
S'trying'
p942
atp943
Rp944
sVEY1NJHD
p945
g1
((lp946
S'changed'
p947
atp948
Rp949
sVUW1LZ
p950
g1
((lp951
S'rules'
p952
atp953
Rp954
sVIY1NZ
p955
g1
((lp956
S'screens'
p957
aS'beans'
p958
atp959
Rp960
sVEH1PS
p961
g1
((lp962
S'steps'
p963
atp964
Rp965
sVER1KS
p966
g1
((lp967
S'percs'
p968
aS'works'
p969
atp970
Rp971
sVOW1LZ
p972
g1
((lp973
S'goals'
p974
atp975
Rp976
sVEH1LT
p977
g1
((lp978
S'felt'
p979
atp980
Rp981
sVOW1LD
p982
g1
((lp983
S'old'
p984
aS'gold'
p985
aS'rolled'
p986
aS'sold'
p987
aS'fold'
p988
aS'cold'
p989
aS'hold'
p990
aS'told'
p991
atp992
Rp993
sVIY1ST
p994
g1
((lp995
S'beast'
p996
aS'least'
p997
atp998
Rp999
sVEH1LP
p1000
g1
((lp1001
S'help'
p1002
atp1003
Rp1004
sVEH1LS
p1005
g1
((lp1006
S'else'
p1007
atp1008
Rp1009
sVAH1NGK
p1010
g1
((lp1011
S'drunk'
p1012
atp1013
Rp1014
sVOW1BZ
p1015
g1
((lp1016
S'robes'
p1017
atp1018
Rp1019
sVAW1ND
p1020
g1
((lp1021
S'sound'
p1022
aS'found'
p1023
aS'ground'
p1024
aS"'round"
p1025
atp1026
Rp1027
sVER1
p1028
g1
((lp1029
S'perfect'
p1030
aS'mercy'
p1031
aS'working'
p1032
aS'serpent'
p1033
aS'service'
p1034
aS'purchase'
p1035
aS'journey'
p1036
aS'worthy'
p1037
aS'worried'
p1038
aS'early'
p1039
aS'her'
p1040
aS"we're"
p1041
aS'worldly'
p1042
aS'were'
p1043
aS'worry'
p1044
aS'hurry'
p1045
aS'worship'
p1046
aS'sermon'
p1047
atp1048
Rp1049
sVER1T
p1050
g1
((lp1051
S'flirt'
p1052
aS'spurt'
p1053
aS'shirt'
p1054
aS'hurt'
p1055
atp1056
Rp1057
sVEH1KS
p1058
g1
((lp1059
S'sex'
p1060
aS'ex'
p1061
aS'next'
p1062
atp1063
Rp1064
sVEH1NDZ
p1065
g1
((lp1066
S'friends'
p1067
atp1068
Rp1069
sVER1D
p1070
g1
((lp1071
S'heard'
p1072
aS'word'
p1073
aS'third'
p1074
aS'herd'
p1075
atp1076
Rp1077
sVER1N
p1078
g1
((lp1079
S'turn'
p1080
atp1081
Rp1082
sVER1L
p1083
g1
((lp1084
S'earl'
p1085
aS'girl'
p1086
atp1087
Rp1088
sVER1M
p1089
g1
((lp1090
S'worm'
p1091
atp1092
Rp1093
sVER1K
p1094
g1
((lp1095
S'perc'
p1096
aS'work'
p1097
atp1098
Rp1099
sS'G AA1 N'
p1100
g1
((lp1101
S"gon'"
p1102
atp1103
Rp1104
sVIY1DH
p1105
g1
((lp1106
S'breathe'
p1107
atp1108
Rp1109
sVAE1KS
p1110
g1
((lp1111
S'racks'
p1112
atp1113
Rp1114
sVAH0ND
p1115
g1
((lp1116
S'and'
p1117
atp1118
Rp1119
sVAE1KT
p1120
g1
((lp1121
S'cracked'
p1122
aS'fact'
p1123
aS'act'
p1124
atp1125
Rp1126
sVAH1ST
p1127
g1
((lp1128
S'trust'
p1129
aS'just'
p1130
aS'must'
p1131
atp1132
Rp1133
sVER1DZ
p1134
g1
((lp1135
S'words'
p1136
atp1137
Rp1138
sVIY1T
p1139
g1
((lp1140
S'beat'
p1141
aS'sweet'
p1142
aS'seat'
p1143
aS'cheat'
p1144
aS'street'
p1145
aS'treat'
p1146
aS'meet'
p1147
aS'eat'
p1148
atp1149
Rp1150
sVIY2
p1151
g1
((lp1152
S'before'
p1153
atp1154
Rp1155
sVEY1KS
p1156
g1
((lp1157
S'breaks'
p1158
atp1159
Rp1160
sVAA1RD
p1161
g1
((lp1162
S'hard'
p1163
atp1164
Rp1165
sVIY1MZ
p1166
g1
((lp1167
S'seems'
p1168
atp1169
Rp1170
sVAA1RK
p1171
g1
((lp1172
S'dark'
p1173
aS'spark'
p1174
aS'ark'
p1175
aS'park'
p1176
atp1177
Rp1178
sVIH1SH
p1179
g1
((lp1180
S'wish'
p1181
atp1182
Rp1183
sVAA1RM
p1184
g1
((lp1185
S'harm'
p1186
aS'charm'
p1187
aS'arm'
p1188
atp1189
Rp1190
sVIH1ST
p1191
g1
((lp1192
S'missed'
p1193
atp1194
Rp1195
sVAA1
p1196
g1
((lp1197
S'follow'
p1198
aS'modesty'
p1199
aS'carter'
p1200
aS'rocket'
p1201
aS'armchair'
p1202
aS'donnie'
p1203
aS'dollar'
p1204
aS'started'
p1205
aS'momma'
p1206
aS'harness'
p1207
aS'college'
p1208
aS'promised'
p1209
aS'pablo'
p1210
aS'politics'
p1211
aS"rockin'"
p1212
aS'blockbuster'
p1213
aS'arguments'
p1214
aS'cali'
p1215
aS'na'
p1216
aS'parliament'
p1217
aS'father'
p1218
aS'jolly'
p1219
aS'parties'
p1220
aS'harmless'
p1221
aS'yah'
p1222
aS'ah'
p1223
aS'mama'
p1224
aS'party'
p1225
aS'falling'
p1226
aS'wobbly'
p1227
aS'body'
p1228
aS'entree'
p1229
aS'molly'
p1230
aS'marbles'
p1231
aS'ya'
p1232
aS'modify'
p1233
aS'prodigy'
p1234
aS'problems'
p1235
aS'gonna'
p1236
aS'da'
p1237
aS'pocket'
p1238
aS'qualify'
p1239
aS'odyssey'
p1240
aS'collar'
p1241
aS'wanted'
p1242
aS'lobby'
p1243
aS'hopping'
p1244
aS"wasn't"
p1245
aS'gotta'
p1246
aS'la'
p1247
aS'barak'
p1248
aS'rollin'
p1249
aS'harley'
p1250
aS'project'
p1251
aS'concrete'
p1252
aS'barbershop'
p1253
aS'swallow'
p1254
aS'problem'
p1255
aS'wanna'
p1256
atp1257
Rp1258
sVIY1MD
p1259
g1
((lp1260
S'seemed'
p1261
atp1262
Rp1263
sVAA1RZ
p1264
g1
((lp1265
S'cars'
p1266
aS'scars'
p1267
aS'gars'
p1268
atp1269
Rp1270
sVAA1RT
p1271
g1
((lp1272
S'heart'
p1273
aS'start'
p1274
aS'art'
p1275
aS'fart'
p1276
atp1277
Rp1278
sVIH2
p1279
g1
((lp1280
S'disbelief'
p1281
atp1282
Rp1283
sVIH0
p1284
g1
((lp1285
S'elect'
p1286
aS'into'
p1287
aS'recruitment'
p1288
aS'discussions'
p1289
aS'respect'
p1290
aS'before'
p1291
aS'delivered'
p1292
aS'rely'
p1293
aS'invoked'
p1294
aS'incredible'
p1295
aS'electrify'
p1296
aS'deserve'
p1297
aS'deposits'
p1298
aS'to'
p1299
aS'behind'
p1300
aS'descend'
p1301
aS'employee'
p1302
aS'establishment'
p1303
aS'designer'
p1304
aS'enough'
p1305
aS'exalted'
p1306
aS'becoming'
p1307
aS'reclining'
p1308
aS'believe'
p1309
aS'declining'
p1310
aS'extreme'
p1311
aS'finesse'
p1312
aS'remember'
p1313
aS'disguise'
p1314
aS'involved'
p1315
aS'inside'
p1316
aS'discernment'
p1317
aS'determined'
p1318
aS'exalt'
p1319
aS"isn't"
p1320
atp1321
Rp1322
sVIH1
p1323
g1
((lp1324
S'digging'
p1325
aS'into'
p1326
aS'tippy'
p1327
aS'dripping'
p1328
aS'zero'
p1329
aS'intro'
p1330
aS'village'
p1331
aS'drinker'
p1332
aS'kidnap'
p1333
aS'singing'
p1334
aS'children'
p1335
aS'really'
p1336
aS'city'
p1337
aS'different'
p1338
aS'simba'
p1339
aS'milly'
p1340
aS"gettin'"
p1341
aS'giving'
p1342
aS'pictures'
p1343
aS'twisted'
p1344
aS'cinco'
p1345
aS'window'
p1346
aS'bigger'
p1347
aS'pretty'
p1348
aS'citywide'
p1349
aS'kingdom'
p1350
aS'mister'
p1351
aS'finish'
p1352
aS'interest'
p1353
aS'missing'
p1354
aS'bitches'
p1355
aS'little'
p1356
aS'whistle'
p1357
aS'finished'
p1358
aS'hillman'
p1359
aS'gimme'
p1360
aS'listening'
p1361
aS'drinking'
p1362
aS'difference'
p1363
aS'minute'
p1364
aS'women'
p1365
aS'mystery'
p1366
aS'sister'
p1367
aS'scriptures'
p1368
aS'getting'
p1369
aS"thinkin'"
p1370
aS'industry'
p1371
aS'hinges'
p1372
aS'chisel'
p1373
aS'miracle'
p1374
aS'windows'
p1375
aS'dinner'
p1376
aS'kiddies'
p1377
aS'river'
p1378
aS'inside'
p1379
aS"isn't"
p1380
aS'history'
p1381
atp1382
Rp1383
sVUH1RZ
p1384
g1
((lp1385
S'yours'
p1386
atp1387
Rp1388
sVEH1GZ
p1389
g1
((lp1390
S'legs'
p1391
atp1392
Rp1393
sVAH1LS
p1394
g1
((lp1395
S'pulse'
p1396
atp1397
Rp1398
sVAY1Z
p1399
g1
((lp1400
S'fries'
p1401
aS'pies'
p1402
atp1403
Rp1404
sVAH1MPT
p1405
g1
((lp1406
S'bumped'
p1407
atp1408
Rp1409
sVAY1P
p1410
g1
((lp1411
S'type'
p1412
atp1413
Rp1414
sVAY1S
p1415
g1
((lp1416
S'rice'
p1417
aS'ice'
p1418
aS'nice'
p1419
atp1420
Rp1421
sVAY1R
p1422
g1
((lp1423
S'fire'
p1424
atp1425
Rp1426
sVAY1T
p1427
g1
((lp1428
S'right'
p1429
aS'light'
p1430
aS'bite'
p1431
aS'fight'
p1432
aS'night'
p1433
aS'white'
p1434
aS'height'
p1435
aS'might'
p1436
atp1437
Rp1438
sVAY1V
p1439
g1
((lp1440
S'live'
p1441
aS'five'
p1442
aS'drive'
p1443
aS"i've"
p1444
atp1445
Rp1446
sVER1ST
p1447
g1
((lp1448
S'thirst'
p1449
aS'first'
p1450
atp1451
Rp1452
sVAY1M
p1453
g1
((lp1454
S"i'm"
p1455
aS'crime'
p1456
aS'slime'
p1457
aS'time'
p1458
atp1459
Rp1460
sVAY1L
p1461
g1
((lp1462
S"i'll"
p1463
aS'smile'
p1464
aS'while'
p1465
atp1466
Rp1467
sVAY1N
p1468
g1
((lp1469
S'shine'
p1470
aS'line'
p1471
aS'mine'
p1472
aS'sign'
p1473
atp1474
Rp1475
sVAY1D
p1476
g1
((lp1477
S'wide'
p1478
aS'hide'
p1479
aS'tried'
p1480
aS'ride'
p1481
aS'tied'
p1482
aS"i'd"
p1483
aS'eyed'
p1484
aS'fried'
p1485
aS'side'
p1486
aS'died'
p1487
atp1488
Rp1489
sVAY1F
p1490
g1
((lp1491
S'life'
p1492
atp1493
Rp1494
sVAW1
p1495
g1
((lp1496
S'mountain'
p1497
aS'outta'
p1498
aS'power'
p1499
aS'thousand'
p1500
aS'bounty'
p1501
aS'housewife'
p1502
aS'downtown'
p1503
aS'how'
p1504
aS'outside'
p1505
aS'sow'
p1506
aS'southside'
p1507
aS'now'
p1508
atp1509
Rp1510
sVAW0
p1511
g1
((lp1512
S'southampton'
p1513
atp1514
Rp1515
sS'AE1 M'
p1516
g1
((lp1517
S'am'
p1518
atp1519
Rp1520
sVAO1TS
p1521
g1
((lp1522
S'thoughts'
p1523
atp1524
Rp1525
sVAY1ST
p1526
g1
((lp1527
S'christ'
p1528
atp1529
Rp1530
sVAH1T
p1531
g1
((lp1532
S'what'
p1533
aS'shut'
p1534
aS'but'
p1535
atp1536
Rp1537
sVAH1V
p1538
g1
((lp1539
S'love'
p1540
atp1541
Rp1542
sVAH1P
p1543
g1
((lp1544
S'up'
p1545
atp1546
Rp1547
sVAE1PS
p1548
g1
((lp1549
S'raps'
p1550
atp1551
Rp1552
sVAH1Z
p1553
g1
((lp1554
S'was'
p1555
aS'buzz'
p1556
atp1557
Rp1558
sVAH1D
p1559
g1
((lp1560
S'mud'
p1561
aS'blood'
p1562
atp1563
Rp1564
sVAH1F
p1565
g1
((lp1566
S'puff'
p1567
aS'stuff'
p1568
atp1569
Rp1570
sVAH1G
p1571
g1
((lp1572
S'shrug'
p1573
aS'ugh'
p1574
atp1575
Rp1576
sVAH1B
p1577
g1
((lp1578
S'rub'
p1579
atp1580
Rp1581
sVOY1NTS
p1582
g1
((lp1583
S'joints'
p1584
aS'points'
p1585
atp1586
Rp1587
sVAH1M
p1588
g1
((lp1589
S'come'
p1590
aS'some'
p1591
aS'from'
p1592
atp1593
Rp1594
sVAH1N
p1595
g1
((lp1596
S'done'
p1597
aS'none'
p1598
aS'run'
p1599
aS'son'
p1600
atp1601
Rp1602
sVAH1K
p1603
g1
((lp1604
S'stuck'
p1605
aS'truck'
p1606
aS'fuck'
p1607
atp1608
Rp1609
sVIH1PS
p1610
g1
((lp1611
S'lips'
p1612
aS'ships'
p1613
aS'flips'
p1614
aS'hips'
p1615
aS'sips'
p1616
atp1617
Rp1618
sVOW1ZD
p1619
g1
((lp1620
S'closed'
p1621
atp1622
Rp1623
sVEY1VZ
p1624
g1
((lp1625
S'slaves'
p1626
aS'waves'
p1627
atp1628
Rp1629
sVIH1NG
p1630
g1
((lp1631
S'king'
p1632
aS'thing'
p1633
aS'sting'
p1634
aS'bring'
p1635
aS'cling'
p1636
aS'sing'
p1637
aS'ring'
p1638
atp1639
Rp1640
sVEY1LZ
p1641
g1
((lp1642
S'bales'
p1643
atp1644
Rp1645
sVIH1ND
p1646
g1
((lp1647
S'pinned'
p1648
atp1649
Rp1650
sVAE1NDZ
p1651
g1
((lp1652
S'lands'
p1653
aS'hands'
p1654
atp1655
Rp1656
sVIH1NT
p1657
g1
((lp1658
S"didn't"
p1659
atp1660
Rp1661
sVIH1NS
p1662
g1
((lp1663
S'since'
p1664
atp1665
Rp1666
sVAY1MZ
p1667
g1
((lp1668
S'rhymes'
p1669
aS'times'
p1670
atp1671
Rp1672
sVAE1
p1673
g1
((lp1674
S'fashion'
p1675
aS'apple'
p1676
aS'family'
p1677
aS'ratify'
p1678
aS'auntie'
p1679
aS'grandma'
p1680
aS'yeah'
p1681
aS'capitalized'
p1682
aS'catching'
p1683
aS'backyard'
p1684
aS'carry'
p1685
aS'happen'
p1686
aS'captain'
p1687
aS'hammer'
p1688
aS'panda'
p1689
aS'standing'
p1690
aS'daffodils'
p1691
aS'manor'
p1692
aS'dancing'
p1693
aS'campers'
p1694
aS'cali'
p1695
aS'acting'
p1696
aS'asking'
p1697
aS'passion'
p1698
aS'actual'
p1699
aS'rancher'
p1700
aS'master'
p1701
aS'valley'
p1702
aS'babylon'
p1703
aS'gallo'
p1704
aS'happy'
p1705
aS'after'
p1706
aS'magnify'
p1707
aS'dandelion'
p1708
aS'practice'
p1709
aS'caterpillar'
p1710
aS'cannot'
p1711
aS'baptized'
p1712
aS'santa'
p1713
aS'atom'
p1714
aS'magic'
p1715
aS'shadow'
p1716
aS'chatham'
p1717
aS'alibis'
p1718
aS'tassel'
p1719
aS'natural'
p1720
aS'packing'
p1721
aS'rapper'
p1722
aS"grandma's"
p1723
aS'taxes'
p1724
aS'matter'
p1725
aS'classes'
p1726
aS'laughing'
p1727
aS'african'
p1728
aS'cracking'
p1729
aS'daddy'
p1730
aS'apples'
p1731
atp1732
Rp1733
sVAE0
p1734
g1
((lp1735
S'tattoo'
p1736
aS'baptized'
p1737
aS'valet'
p1738
atp1739
Rp1740
sVAE2
p1741
g1
((lp1742
S'hallelujah'
p1743
atp1744
Rp1745
sVER1LDZ
p1746
g1
((lp1747
S"world's"
p1748
atp1749
Rp1750
sVAY1MD
p1751
g1
((lp1752
S'rhymed'
p1753
atp1754
Rp1755
sVAY1VD
p1756
g1
((lp1757
S'lived'
p1758
atp1759
Rp1760
sVAE1M
p1761
g1
((lp1762
S'jam'
p1763
aS'bam'
p1764
aS'damn'
p1765
atp1766
Rp1767
sVAE1N
p1768
g1
((lp1769
S'plan'
p1770
aS'fan'
p1771
aS'can'
p1772
aS'than'
p1773
aS'man'
p1774
atp1775
Rp1776
sVAE1K
p1777
g1
((lp1778
S'black'
p1779
aS'back'
p1780
aS'crack'
p1781
atp1782
Rp1783
sVEH1DZ
p1784
g1
((lp1785
S'heads'
p1786
atp1787
Rp1788
sVAE1D
p1789
g1
((lp1790
S'dad'
p1791
aS'bad'
p1792
aS'had'
p1793
aS'mad'
p1794
atp1795
Rp1796
sVAE1F
p1797
g1
((lp1798
S'laugh'
p1799
aS'half'
p1800
atp1801
Rp1802
sVAE1B
p1803
g1
((lp1804
S'cab'
p1805
aS'grab'
p1806
atp1807
Rp1808
sVAE1Z
p1809
g1
((lp1810
S'as'
p1811
aS'has'
p1812
atp1813
Rp1814
sVAE1T
p1815
g1
((lp1816
S'tat'
p1817
aS'pat'
p1818
aS'hat'
p1819
aS'nat'
p1820
aS'that'
p1821
atp1822
Rp1823
sVER0M
p1824
g1
((lp1825
S'from'
p1826
atp1827
Rp1828
sVAE1P
p1829
g1
((lp1830
S'nap'
p1831
aS'lap'
p1832
aS'scrap'
p1833
atp1834
Rp1835
sVAE1S
p1836
g1
((lp1837
S'ass'
p1838
aS'last'
p1839
aS'gas'
p1840
aS'pass'
p1841
atp1842
Rp1843
sVAA1CH
p1844
g1
((lp1845
S'watch'
p1846
atp1847
Rp1848
sS'D IY1'
p1849
g1
((lp1850
S'dj'
p1851
atp1852
Rp1853
sVUW1NZ
p1854
g1
((lp1855
S'goons'
p1856
atp1857
Rp1858
sVER1LZ
p1859
g1
((lp1860
S"girl's"
p1861
atp1862
Rp1863
sVIH1TH
p1864
g1
((lp1865
S'with'
p1866
atp1867
Rp1868
sVIH1TS
p1869
g1
((lp1870
S"it's"
p1871
aS'its'
p1872
atp1873
Rp1874
sVAE1CH
p1875
g1
((lp1876
S'catch'
p1877
atp1878
Rp1879
sVEY1JH
p1880
g1
((lp1881
S'wage'
p1882
aS'age'
p1883
atp1884
Rp1885
sVER1LD
p1886
g1
((lp1887
S'world'
p1888
atp1889
Rp1890
sVAA1RDZ
p1891
g1
((lp1892
S'cards'
p1893
atp1894
Rp1895
sVAO1LS
p1896
g1
((lp1897
S'false'
p1898
atp1899
Rp1900
sVOW1
p1901
g1
((lp1902
S'slower'
p1903
aS"noah's"
p1904
aS'throwing'
p1905
aS'over'
p1906
aS'bro'
p1907
aS'sow'
p1908
aS'go'
p1909
aS'poltergeist'
p1910
aS'row'
p1911
aS'slow'
p1912
aS'opened'
p1913
aS'no'
p1914
aS"o'"
p1915
aS'throw'
p1916
aS'only'
p1917
aS'going'
p1918
aS'holding'
p1919
aS'toe'
p1920
aS'noble'
p1921
aS'lonely'
p1922
aS'holy'
p1923
aS'though'
p1924
aS'bowen'
p1925
aS'mow'
p1926
aS'lotion'
p1927
aS'tokens'
p1928
aS'know'
p1929
aS'solar'
p1930
aS'rolling'
p1931
aS'smoking'
p1932
aS'grow'
p1933
aS'shoulder'
p1934
aS'joe'
p1935
aS'rollie'
p1936
aS'oh'
p1937
aS'holiest'
p1938
aS'kosher'
p1939
aS'rodeo'
p1940
aS"goin'"
p1941
aS'so'
p1942
aS'soda'
p1943
aS'growing'
p1944
aS'overseas'
p1945
aS'ho'
p1946
atp1947
Rp1948
sVOW0
p1949
g1
((lp1950
S'holistic'
p1951
aS'hotels'
p1952
atp1953
Rp1954
sVOW2
p1955
g1
((lp1956
S'okay'
p1957
aS'obama'
p1958
atp1959
Rp1960
sVIH1L
p1961
g1
((lp1962
S"we'll"
p1963
aS'lil'
p1964
aS'bill'
p1965
aS'till'
p1966
aS'kill'
p1967
aS"'til"
p1968
aS'still'
p1969
aS'chill'
p1970
atp1971
Rp1972
sVAA1RMZ
p1973
g1
((lp1974
S'arms'
p1975
atp1976
Rp1977
sVIY1D
p1978
g1
((lp1979
S'read'
p1980
aS'weed'
p1981
aS'seed'
p1982
aS'need'
p1983
aS'fried'
p1984
aS'bleed'
p1985
atp1986
Rp1987
sVIY1F
p1988
g1
((lp1989
S'keef'
p1990
aS'beef'
p1991
atp1992
Rp1993
sVIY1K
p1994
g1
((lp1995
S'week'
p1996
aS'tweak'
p1997
aS'speak'
p1998
atp1999
Rp2000
sVIY1M
p2001
g1
((lp2002
S'beam'
p2003
aS'dream'
p2004
aS'stream'
p2005
aS'cream'
p2006
atp2007
Rp2008
sVIY1L
p2009
g1
((lp2010
S'real'
p2011
aS'feel'
p2012
aS"we'll"
p2013
aS"she'll"
p2014
aS'deal'
p2015
atp2016
Rp2017
sVIY1N
p2018
g1
((lp2019
S'dean'
p2020
aS'queen'
p2021
aS'scene'
p2022
aS'bean'
p2023
aS'clean'
p2024
aS'seen'
p2025
aS'mean'
p2026
atp2027
Rp2028
sVIY1P
p2029
g1
((lp2030
S'sheep'
p2031
aS'sleep'
p2032
aS'deep'
p2033
aS'keep'
p2034
atp2035
Rp2036
sVIY1S
p2037
g1
((lp2038
S'peace'
p2039
aS'nice'
p2040
atp2041
Rp2042
sVIY1R
p2043
g1
((lp2044
S'hear'
p2045
aS"we're"
p2046
aS'here'
p2047
atp2048
Rp2049
sVIY1
p2050
g1
((lp2051
S've'
p2052
aS'people'
p2053
aS'being'
p2054
aS'tea'
p2055
aS'jesus'
p2056
aS'petey'
p2057
aS'see'
p2058
aS'peter'
p2059
aS'seamstress'
p2060
aS'really'
p2061
aS'even'
p2062
aS'leaving'
p2063
aS'three'
p2064
aS'needed'
p2065
aS'nico'
p2066
aS'beater'
p2067
aS'teaching'
p2068
aS"jesus'"
p2069
aS'be'
p2070
aS'we'
p2071
aS'deeper'
p2072
aS'de'
p2073
aS'ye'
p2074
aS'free'
p2075
aS'da'
p2076
aS"people's"
p2077
aS'weekend'
p2078
aS'he'
p2079
aS'me'
p2080
aS'reborn'
p2081
aS'realized'
p2082
aS'e'
p2083
aS'd'
p2084
aS'freedom'
p2085
aS'zero'
p2086
aS'bee'
p2087
aS'pico'
p2088
aS'she'
p2089
aS'feeling'
p2090
atp2091
Rp2092
sVIY0
p2093
g1
((lp2094
S'be'
p2095
aS'rely'
p2096
aS'reclining'
p2097
aS'remember'
p2098
aS'reviews'
p2099
aS'recruitment'
p2100
aS'enough'
p2101
aS'respect'
p2102
aS'the'
p2103
aS'establishment'
p2104
atp2105
Rp2106
sVIY1V
p2107
g1
((lp2108
S'steve'
p2109
aS"we've"
p2110
atp2111
Rp2112
sVIY1Z
p2113
g1
((lp2114
S'these'
p2115
aS'please'
p2116
atp2117
Rp2118
sVAO1SH
p2119
g1
((lp2120
S'wash'
p2121
atp2122
Rp2123
sS'K AA1 N'
p2124
g1
((lp2125
S'kanye'
p2126
atp2127
Rp2128
sVAO1RPS
p2129
g1
((lp2130
S'corpse'
p2131
atp2132
Rp2133
sVAO1LD
p2134
g1
((lp2135
S'called'
p2136
atp2137
Rp2138
sS'N IH1'
p2139
g1
((lp2140
S'nigga'
p2141
atp2142
Rp2143
sVAO1ST
p2144
g1
((lp2145
S'cost'
p2146
aS'last'
p2147
aS'lost'
p2148
atp2149
Rp2150
sVAH0T
p2151
g1
((lp2152
S'that'
p2153
atp2154
Rp2155
sVAH0Z
p2156
g1
((lp2157
S'has'
p2158
aS'was'
p2159
aS"'cause"
p2160
atp2161
Rp2162
sVAA1FT
p2163
g1
((lp2164
S'soft'
p2165
atp2166
Rp2167
sVAH0N
p2168
g1
((lp2169
S'can'
p2170
aS'been'
p2171
aS'than'
p2172
atp2173
Rp2174
sVAH0M
p2175
g1
((lp2176
S"i'm"
p2177
aS"'em"
p2178
atp2179
Rp2180
sVAE1SK
p2181
g1
((lp2182
S'ask'
p2183
atp2184
Rp2185
sVAA1TS
p2186
g1
((lp2187
S'shots'
p2188
atp2189
Rp2190
sVIH1Z
p2191
g1
((lp2192
S'is'
p2193
aS'his'
p2194
atp2195
Rp2196
sVIH1T
p2197
g1
((lp2198
S'hit'
p2199
aS'fit'
p2200
aS'spit'
p2201
aS'sit'
p2202
aS'get'
p2203
aS'it'
p2204
aS'split'
p2205
aS'bit'
p2206
aS'shit'
p2207
atp2208
Rp2209
sVIH1V
p2210
g1
((lp2211
S'live'
p2212
aS'give'
p2213
atp2214
Rp2215
sVIH1P
p2216
g1
((lp2217
S'hip'
p2218
aS'ship'
p2219
aS'trip'
p2220
aS'whip'
p2221
atp2222
Rp2223
sVIH1R
p2224
g1
((lp2225
S"we're"
p2226
aS'year'
p2227
atp2228
Rp2229
sVIH1S
p2230
g1
((lp2231
S'this'
p2232
aS'chris'
p2233
aS'miss'
p2234
atp2235
Rp2236
sVIH0DH
p2237
g1
((lp2238
S'with'
p2239
atp2240
Rp2241
sVIH1M
p2242
g1
((lp2243
S'him'
p2244
atp2245
Rp2246
sVIH1N
p2247
g1
((lp2248
S'win'
p2249
aS'when'
p2250
aS'been'
p2251
aS'in'
p2252
atp2253
Rp2254
sVIH1K
p2255
g1
((lp2256
S'pic'
p2257
aS'dick'
p2258
aS'trick'
p2259
aS'lick'
p2260
aS'stick'
p2261
aS'sick'
p2262
aS'pick'
p2263
aS'brick'
p2264
atp2265
Rp2266
sVIH1D
p2267
g1
((lp2268
S'did'
p2269
atp2270
Rp2271
sVIH1F
p2272
g1
((lp2273
S'if'
p2274
atp2275
Rp2276
sVIH1G
p2277
g1
((lp2278
S'big'
p2279
atp2280
Rp2281
sVIH1B
p2282
g1
((lp2283
S'crib'
p2284
atp2285
Rp2286
sVAO1Z
p2287
g1
((lp2288
S'cause'
p2289
aS'was'
p2290
atp2291
Rp2292
sVAO1S
p2293
g1
((lp2294
S'toss'
p2295
aS'sauce'
p2296
aS'boss'
p2297
atp2298
Rp2299
sVAO1R
p2300
g1
((lp2301
S'door'
p2302
aS'for'
p2303
aS'floor'
p2304
aS'war'
p2305
aS'four'
p2306
aS'score'
p2307
aS'your'
p2308
aS'whore'
p2309
aS'more'
p2310
atp2311
Rp2312
sVAO1P
p2313
g1
((lp2314
S'top'
p2315
aS'drop'
p2316
atp2317
Rp2318
sVAO1T
p2319
g1
((lp2320
S'thought'
p2321
aS'caught'
p2322
aS'bought'
p2323
atp2324
Rp2325
sVAO1K
p2326
g1
((lp2327
S'talk'
p2328
aS'walk'
p2329
atp2330
Rp2331
sVAO1N
p2332
g1
((lp2333
S'gone'
p2334
aS'lawn'
p2335
aS'dawn'
p2336
aS'on'
p2337
atp2338
Rp2339
sVAO1L
p2340
g1
((lp2341
S'all'
p2342
aS'ball'
p2343
aS'call'
p2344
aS'fall'
p2345
aS'tall'
p2346
aS'paul'
p2347
atp2348
Rp2349
sVAO1G
p2350
g1
((lp2351
S'dog'
p2352
atp2353
Rp2354
sVAO1F
p2355
g1
((lp2356
S'off'
p2357
atp2358
Rp2359
sVEY1K
p2360
g1
((lp2361
S'break'
p2362
aS'make'
p2363
aS'wake'
p2364
aS'take'
p2365
aS'shake'
p2366
atp2367
Rp2368
sVUW1
p2369
g1
((lp2370
S'uber'
p2371
aS'houston'
p2372
aS'booty'
p2373
aS'doing'
p2374
aS'juicy'
p2375
aS'through'
p2376
aS'sewers'
p2377
aS'outta'
p2378
aS'shooting'
p2379
aS'mutual'
p2380
aS'suicide'
p2381
aS'lukewarm'
p2382
aS'to'
p2383
aS'super'
p2384
aS'hugh'
p2385
aS'two'
p2386
aS'knew'
p2387
aS'coupon'
p2388
aS'woo'
p2389
aS'lucifer'
p2390
aS'music'
p2391
aS'too'
p2392
aS'booties'
p2393
aS'new'
p2394
aS'you'
p2395
aS'shooters'
p2396
aS'blueprint'
p2397
aS'do'
p2398
aS'who'
p2399
aS'stupid'
p2400
aS'beauty'
p2401
aS'students'
p2402
aS'mula'
p2403
aS'ooh'
p2404
aS'losing'
p2405
aS'true'
p2406
aS'grew'
p2407
aS'movies'
p2408
aS'goofy'
p2409
aS'crucifix'
p2410
aS'oooh'
p2411
aS'newborns'
p2412
atp2413
Rp2414
sVUW0
p2415
g1
((lp2416
S'today'
p2417
atp2418
Rp2419
sVOW1KT
p2420
g1
((lp2421
S'choked'
p2422
atp2423
Rp2424
sVOW1KS
p2425
g1
((lp2426
S'folks'
p2427
aS'jokes'
p2428
atp2429
Rp2430
sVAE1NGK
p2431
g1
((lp2432
S'tank'
p2433
atp2434
Rp2435
sVIY1LDZ
p2436
g1
((lp2437
S'fields'
p2438
atp2439
Rp2440
sVIH1RD
p2441
g1
((lp2442
S'weird'
p2443
atp2444
Rp2445
sVUH1SH
p2446
g1
((lp2447
S'push'
p2448
atp2449
Rp2450
sVIH1FT
p2451
g1
((lp2452
S'lift'
p2453
aS'gift'
p2454
atp2455
Rp2456
sVOY1L
p2457
g1
((lp2458
S'soil'
p2459
aS'oil'
p2460
aS'spoil'
p2461
atp2462
Rp2463
sVOY1S
p2464
g1
((lp2465
S'choice'
p2466
atp2467
Rp2468
sVAA1SH
p2469
g1
((lp2470
S'wash'
p2471
atp2472
Rp2473
sVOY1Z
p2474
g1
((lp2475
S'boys'
p2476
atp2477
Rp2478
sVAH1MP
p2479
g1
((lp2480
S'jump'
p2481
atp2482
Rp2483
sVAH1MZ
p2484
g1
((lp2485
S'comes'
p2486
aS'slums'
p2487
atp2488
Rp2489
sVUH1R
p2490
g1
((lp2491
S"you're"
p2492
aS'your'
p2493
atp2494
Rp2495
sVUH1T
p2496
g1
((lp2497
S'put'
p2498
aS'foot'
p2499
atp2500
Rp2501
sVUH1K
p2502
g1
((lp2503
S'book'
p2504
aS'took'
p2505
aS'look'
p2506
atp2507
Rp2508
sVUH1L
p2509
g1
((lp2510
S'pull'
p2511
aS'full'
p2512
atp2513
Rp2514
sVUH1D
p2515
g1
((lp2516
S'could'
p2517
aS'good'
p2518
aS"you'd"
p2519
aS'would'
p2520
aS'should'
p2521
atp2522
Rp2523
sVUH1F
p2524
g1
((lp2525
S'roof'
p2526
atp2527
Rp2528
sVOW1Z
p2529
g1
((lp2530
S'toes'
p2531
aS'woes'
p2532
aS'nose'
p2533
aS'hoes'
p2534
aS'close'
p2535
aS'those'
p2536
aS'clothes'
p2537
atp2538
Rp2539
sVAY1NZ
p2540
g1
((lp2541
S'signs'
p2542
atp2543
Rp2544
sVEH1D
p2545
g1
((lp2546
S'read'
p2547
aS'head'
p2548
aS'said'
p2549
aS'bed'
p2550
atp2551
Rp2552
sVOW1S
p2553
g1
((lp2554
S'close'
p2555
atp2556
Rp2557
sVOW1T
p2558
g1
((lp2559
S'boat'
p2560
atp2561
Rp2562
sVEY1JHD
p2563
g1
((lp2564
S'aged'
p2565
atp2566
Rp2567
sVOW1K
p2568
g1
((lp2569
S'poke'
p2570
aS'woke'
p2571
aS'smoke'
p2572
aS'choke'
p2573
atp2574
Rp2575
sVOW1L
p2576
g1
((lp2577
S'bowl'
p2578
aS'whole'
p2579
aS'roll'
p2580
aS'soul'
p2581
atp2582
Rp2583
sVOW1N
p2584
g1
((lp2585
S'grown'
p2586
aS'phone'
p2587
aS'stone'
p2588
aS'own'
p2589
aS"don't"
p2590
atp2591
Rp2592
sVAY1ND
p2593
g1
((lp2594
S'kind'
p2595
aS'mind'
p2596
aS'find'
p2597
aS'signed'
p2598
atp2599
Rp2600
sVAA1KT
p2601
g1
((lp2602
S'blocked'
p2603
atp2604
Rp2605
sVAA1KS
p2606
g1
((lp2607
S'knocks'
p2608
aS'socks'
p2609
atp2610
Rp2611
sVOW1D
p2612
g1
((lp2613
S'rode'
p2614
aS'sewed'
p2615
aS'road'
p2616
atp2617
Rp2618
sVER0Z
p2619
g1
((lp2620
S'yours'
p2621
aS'years'
p2622
atp2623
Rp2624
sVAE1GD
p2625
g1
((lp2626
S'jagged'
p2627
atp2628
Rp2629
sVAA1PT
p2630
g1
((lp2631
S'popped'
p2632
aS'dropped'
p2633
atp2634
Rp2635
sVEY1NT
p2636
g1
((lp2637
S"ain't"
p2638
atp2639
Rp2640
sVEY1NZ
p2641
g1
((lp2642
S'chains'
p2643
atp2644
Rp2645
sVAE1NS
p2646
g1
((lp2647
S'dance'
p2648
aS'chance'
p2649
atp2650
Rp2651
sVAE1NT
p2652
g1
((lp2653
S"can't"
p2654
aS'grant'
p2655
atp2656
Rp2657
sVEH1RZ
p2658
g1
((lp2659
S'tears'
p2660
aS"there's"
p2661
aS'stairs'
p2662
aS'cares'
p2663
atp2664
Rp2665
sVAE1NZ
p2666
g1
((lp2667
S'fans'
p2668
aS'hands'
p2669
atp2670
Rp2671
sVEY1KT
p2672
g1
((lp2673
S'faked'
p2674
atp2675
Rp2676
sVAE1ND
p2677
g1
((lp2678
S'and'
p2679
aS'land'
p2680
aS'grand'
p2681
aS'stand'
p2682
aS'hand'
p2683
atp2684
Rp2685
sVAE1NG
p2686
g1
((lp2687
S'gang'
p2688
atp2689
Rp2690
sVEH1RD
p2691
g1
((lp2692
S'cared'
p2693
aS'scared'
p2694
atp2695
Rp2696
sVIY1CH
p2697
g1
((lp2698
S'reach'
p2699
aS'each'
p2700
atp2701
Rp2702
sVUW1Z
p2703
g1
((lp2704
S'chews'
p2705
aS'use'
p2706
aS'lose'
p2707
atp2708
Rp2709
sVUW1V
p2710
g1
((lp2711
S'move'
p2712
aS"you've"
p2713
atp2714
Rp2715
sVUW1T
p2716
g1
((lp2717
S'cute'
p2718
aS'fruit'
p2719
atp2720
Rp2721
sVUW1S
p2722
g1
((lp2723
S'bruce'
p2724
aS'use'
p2725
atp2726
Rp2727
sVUW1R
p2728
g1
((lp2729
S"you're"
p2730
atp2731
Rp2732
sVUW1L
p2733
g1
((lp2734
S'fool'
p2735
aS'school'
p2736
aS'cool'
p2737
atp2738
Rp2739
sVUW1K
p2740
g1
((lp2741
S'luke'
p2742
aS'juke'
p2743
atp2744
Rp2745
sVUW1F
p2746
g1
((lp2747
S'roof'
p2748
atp2749
Rp2750
sVUW1D
p2751
g1
((lp2752
S'food'
p2753
aS"you'd"
p2754
atp2755
Rp2756
sVIH1CH
p2757
g1
((lp2758
S'bitch'
p2759
atp2760
Rp2761
sVEH1ND
p2762
g1
((lp2763
S'end'
p2764
aS'spend'
p2765
aS'friend'
p2766
atp2767
Rp2768
sVOW1NT
p2769
g1
((lp2770
S"won't"
p2771
aS"don't"
p2772
atp2773
Rp2774
sVIH1LT
p2775
g1
((lp2776
S'spilt'
p2777
atp2778
Rp2779
sVEH1NS
p2780
g1
((lp2781
S'tense'
p2782
atp2783
Rp2784
sVIH1LK
p2785
g1
((lp2786
S'milk'
p2787
atp2788
Rp2789
sVEH1NT
p2790
g1
((lp2791
S'meant'
p2792
aS'went'
p2793
aS'spent'
p2794
atp2795
Rp2796
sVEH1NZ
p2797
g1
((lp2798
S'friends'
p2799
atp2800
Rp2801
sVIH1LD
p2802
g1
((lp2803
S'build'
p2804
atp2805
Rp2806
sVAO1FT
p2807
g1
((lp2808
S'soft'
p2809
atp2810
Rp2811
sVEH1KST
p2812
g1
((lp2813
S'next'
p2814
atp2815
Rp2816
sVEY1NJH
p2817
g1
((lp2818
S'change'
p2819
atp2820
Rp2821
sVAA1D
p2822
g1
((lp2823
S'god'
p2824
atp2825
Rp2826
sVAA1G
p2827
g1
((lp2828
S'hog'
p2829
aS'jog'
p2830
atp2831
Rp2832
sVAA1K
p2833
g1
((lp2834
S'kok'
p2835
aS'walk'
p2836
atp2837
Rp2838
sVAA1M
p2839
g1
((lp2840
S'bom'
p2841
aS'mom'
p2842
atp2843
Rp2844
sVAA1L
p2845
g1
((lp2846
S'fall'
p2847
atp2848
Rp2849
sVAA1N
p2850
g1
((lp2851
S'on'
p2852
aS'xan'
p2853
atp2854
Rp2855
sVAA1P
p2856
g1
((lp2857
S'top'
p2858
aS'drop'
p2859
aS'stop'
p2860
atp2861
Rp2862
sVAA1S
p2863
g1
((lp2864
S'boss'
p2865
atp2866
Rp2867
sVAA1R
p2868
g1
((lp2869
S'far'
p2870
aS'our'
p2871
aS'are'
p2872
aS'car'
p2873
atp2874
Rp2875
sVAA1T
p2876
g1
((lp2877
S'spot'
p2878
aS'caught'
p2879
aS'yacht'
p2880
aS'hot'
p2881
aS'not'
p2882
aS'got'
p2883
aS'bought'
p2884
atp2885
Rp2886
sVAA1Z
p2887
g1
((lp2888
S'cause'
p2889
aS'was'
p2890
aS'cars'
p2891
atp2892
Rp2893
sVER1TH
p2894
g1
((lp2895
S'earth'
p2896
atp2897
Rp2898
s.