ccollections
defaultdict
p0
(cmodel
dd
p1
tp2
Rp3
I1
g0
(c__builtin__
float
p4
tp5
Rp6
I0
F0.02702702702702703
ssI2
g0
(g4
tp7
Rp8
I0
F0.03474903474903475
sI1
F0.015444015444015444
ssI3
g0
(g4
tp9
Rp10
I0
F0.011583011583011582
sI1
F0.03474903474903475
sI2
F0.02702702702702703
ssI4
g0
(g4
tp11
Rp12
I0
F0.023166023166023165
sI1
F0.015444015444015444
sI2
F0.04633204633204633
sI3
F0.023166023166023165
ssI5
g0
(g4
tp13
Rp14
I0
F0.011583011583011582
sI1
F0.023166023166023165
sI2
F0.019305019305019305
sI3
F0.023166023166023165
sI4
F0.003861003861003861
ssI6
g0
(g4
tp15
Rp16
I0
F0.02702702702702703
sI1
F0.015444015444015444
sI2
F0.04633204633204633
sI3
F0.015444015444015444
sI4
F0.019305019305019305
sI5
F0.011583011583011582
ssI7
g0
(g4
tp17
Rp18
I0
F0.015444015444015444
sI1
F0.007722007722007722
sI2
F0.015444015444015444
sI3
F0.019305019305019305
sI4
F0.023166023166023165
sI5
F0.03088803088803089
sI6
F0.003861003861003861
ssI8
g0
(g4
tp19
Rp20
I0
F0.011583011583011582
sI1
F0.007722007722007722
sI2
F0.03861003861003861
sI3
F0.019305019305019305
sI4
F0.03474903474903475
sI5
F0.03088803088803089
sI6
F0.011583011583011582
sI7
F0.007722007722007722
ssI9
g0
(g4
tp21
Rp22
I0
F0.011583011583011582
sI1
F0.011583011583011582
sI3
F0.02702702702702703
sI4
F0.03088803088803089
sI5
F0.007722007722007722
sI6
F0.007722007722007722
sI7
F0.023166023166023165
sI8
F0.011583011583011582
ssI10
g0
(g4
tp23
Rp24
I0
F0.023166023166023165
sI1
F0.007722007722007722
sI2
F0.003861003861003861
sI3
F0.015444015444015444
sI4
F0.02702702702702703
sI5
F0.023166023166023165
sI6
F0.023166023166023165
sI7
F0.019305019305019305
sI8
F0.03088803088803089
sI9
F0.023166023166023165
ssI11
g0
(g4
tp25
Rp26
I0
F0.011583011583011582
sI1
F0.02702702702702703
sI2
F0.02702702702702703
sI3
F0.02702702702702703
sI4
F0.023166023166023165
sI5
F0.011583011583011582
sI6
F0.007722007722007722
sI7
F0.023166023166023165
sI8
F0.03088803088803089
sI9
F0.019305019305019305
sI10
F0.015444015444015444
ssI12
g0
(g4
tp27
Rp28
I0
F0.023166023166023165
sI1
F0.019305019305019305
sI2
F0.019305019305019305
sI3
F0.03088803088803089
sI4
F0.03474903474903475
sI5
F0.03861003861003861
sI6
F0.023166023166023165
sI7
F0.007722007722007722
sI8
F0.011583011583011582
sI9
F0.019305019305019305
sI10
F0.03474903474903475
sI11
F0.02702702702702703
ssI13
g0
(g4
tp29
Rp30
I0
F0.015444015444015444
sI1
F0.023166023166023165
sI2
F0.015444015444015444
sI3
F0.011583011583011582
sI4
F0.02702702702702703
sI5
F0.023166023166023165
sI6
F0.019305019305019305
sI7
F0.007722007722007722
sI8
F0.023166023166023165
sI9
F0.015444015444015444
sI10
F0.011583011583011582
sI11
F0.015444015444015444
sI12
F0.015444015444015444
ssI14
g0
(g4
tp31
Rp32
I0
F0.003861003861003861
sI1
F0.007722007722007722
sI2
F0.02702702702702703
sI3
F0.019305019305019305
sI4
F0.03474903474903475
sI5
F0.03861003861003861
sI6
F0.03861003861003861
sI7
F0.02702702702702703
sI8
F0.019305019305019305
sI9
F0.023166023166023165
sI10
F0.03088803088803089
sI11
F0.011583011583011582
sI12
F0.011583011583011582
sI13
F0.007722007722007722
ssI15
g0
(g4
tp33
Rp34
I0
F0.007722007722007722
sI1
F0.011583011583011582
sI2
F0.03861003861003861
sI3
F0.015444015444015444
sI4
F0.023166023166023165
sI5
F0.03474903474903475
sI6
F0.023166023166023165
sI7
F0.03088803088803089
sI8
F0.015444015444015444
sI9
F0.011583011583011582
sI10
F0.015444015444015444
sI11
F0.02702702702702703
sI12
F0.015444015444015444
sI13
F0.011583011583011582
sI14
F0.019305019305019305
ssI16
g0
(g4
tp35
Rp36
I0
F0.011583011583011582
sI1
F0.007722007722007722
sI2
F0.007722007722007722
sI3
F0.007722007722007722
sI4
F0.023166023166023165
sI5
F0.015444015444015444
sI6
F0.019305019305019305
sI7
F0.019305019305019305
sI8
F0.019305019305019305
sI9
F0.02702702702702703
sI10
F0.019305019305019305
sI11
F0.015444015444015444
sI12
F0.011583011583011582
sI13
F0.011583011583011582
sI14
F0.007722007722007722
sI15
F0.007722007722007722
ssI17
g0
(g4
tp37
Rp38
I0
F0.019305019305019305
sI1
F0.015444015444015444
sI2
F0.02702702702702703
sI3
F0.015444015444015444
sI4
F0.03861003861003861
sI5
F0.015444015444015444
sI6
F0.03474903474903475
sI7
F0.015444015444015444
sI8
F0.011583011583011582
sI9
F0.019305019305019305
sI10
F0.023166023166023165
sI11
F0.011583011583011582
sI12
F0.019305019305019305
sI13
F0.019305019305019305
sI14
F0.015444015444015444
sI15
F0.015444015444015444
sI16
F0.023166023166023165
ssI18
g0
(g4
tp39
Rp40
I0
F0.011583011583011582
sI1
F0.015444015444015444
sI2
F0.015444015444015444
sI3
F0.015444015444015444
sI4
F0.019305019305019305
sI5
F0.003861003861003861
sI6
F0.015444015444015444
sI7
F0.011583011583011582
sI8
F0.019305019305019305
sI9
F0.015444015444015444
sI10
F0.015444015444015444
sI11
F0.02702702702702703
sI12
F0.02702702702702703
sI13
F0.023166023166023165
sI14
F0.019305019305019305
sI15
F0.023166023166023165
sI16
F0.03088803088803089
sI17
F0.011583011583011582
ssI19
g0
(g4
tp41
Rp42
I0
F0.007722007722007722
sI1
F0.015444015444015444
sI3
F0.019305019305019305
sI4
F0.003861003861003861
sI5
F0.015444015444015444
sI6
F0.011583011583011582
sI7
F0.03088803088803089
sI8
F0.015444015444015444
sI9
F0.015444015444015444
sI10
F0.019305019305019305
sI11
F0.015444015444015444
sI12
F0.015444015444015444
sI13
F0.02702702702702703
sI14
F0.023166023166023165
sI15
F0.03474903474903475
sI16
F0.019305019305019305
sI17
F0.03088803088803089
sI18
F0.019305019305019305
ssI20
g0
(g4
tp43
Rp44
I0
F0.003861003861003861
sI1
F0.003861003861003861
sI2
F0.015444015444015444
sI3
F0.019305019305019305
sI4
F0.003861003861003861
sI6
F0.015444015444015444
sI7
F0.011583011583011582
sI8
F0.023166023166023165
sI9
F0.023166023166023165
sI10
F0.007722007722007722
sI11
F0.011583011583011582
sI12
F0.02702702702702703
sI13
F0.019305019305019305
sI14
F0.019305019305019305
sI15
F0.019305019305019305
sI16
F0.023166023166023165
sI17
F0.015444015444015444
sI18
F0.015444015444015444
ssI21
g0
(g4
tp45
Rp46
I0
F0.023166023166023165
sI1
F0.011583011583011582
sI2
F0.023166023166023165
sI3
F0.015444015444015444
sI4
F0.007722007722007722
sI5
F0.015444015444015444
sI7
F0.015444015444015444
sI8
F0.015444015444015444
sI9
F0.015444015444015444
sI10
F0.023166023166023165
sI11
F0.007722007722007722
sI12
F0.015444015444015444
sI13
F0.015444015444015444
sI14
F0.007722007722007722
sI15
F0.011583011583011582
sI16
F0.015444015444015444
sI17
F0.011583011583011582
sI18
F0.015444015444015444
sI19
F0.007722007722007722
sI20
F0.02702702702702703
ssI22
g0
(g4
tp47
Rp48
I0
F0.003861003861003861
sI1
F0.003861003861003861
sI2
F0.003861003861003861
sI3
F0.023166023166023165
sI4
F0.011583011583011582
sI5
F0.007722007722007722
sI6
F0.011583011583011582
sI7
F0.011583011583011582
sI8
F0.03861003861003861
sI9
F0.011583011583011582
sI10
F0.023166023166023165
sI11
F0.023166023166023165
sI12
F0.019305019305019305
sI13
F0.003861003861003861
sI14
F0.011583011583011582
sI15
F0.007722007722007722
sI16
F0.011583011583011582
sI17
F0.023166023166023165
sI18
F0.015444015444015444
sI19
F0.011583011583011582
sI20
F0.007722007722007722
sI21
F0.011583011583011582
ssI23
g0
(g4
tp49
Rp50
I0
F0.003861003861003861
sI1
F0.003861003861003861
sI3
F0.007722007722007722
sI4
F0.011583011583011582
sI5
F0.011583011583011582
sI6
F0.003861003861003861
sI7
F0.007722007722007722
sI8
F0.003861003861003861
sI9
F0.003861003861003861
sI11
F0.019305019305019305
sI12
F0.011583011583011582
sI14
F0.003861003861003861
sI15
F0.007722007722007722
sI16
F0.003861003861003861
sI17
F0.007722007722007722
sI18
F0.019305019305019305
sI19
F0.007722007722007722
sI20
F0.007722007722007722
sI21
F0.015444015444015444
sI22
F0.003861003861003861
ssI24
g0
(g4
tp51
Rp52
I0
F0.011583011583011582
sI1
F0.007722007722007722
sI2
F0.011583011583011582
sI3
F0.007722007722007722
sI4
F0.011583011583011582
sI6
F0.003861003861003861
sI7
F0.007722007722007722
sI8
F0.007722007722007722
sI9
F0.011583011583011582
sI10
F0.003861003861003861
sI11
F0.007722007722007722
sI12
F0.015444015444015444
sI13
F0.007722007722007722
sI14
F0.011583011583011582
sI15
F0.003861003861003861
sI16
F0.007722007722007722
sI17
F0.003861003861003861
sI18
F0.011583011583011582
sI19
F0.011583011583011582
sI20
F0.015444015444015444
sI21
F0.003861003861003861
sI23
F0.007722007722007722
ssI25
g0
(g4
tp53
Rp54
I0
F0.003861003861003861
sI1
F0.003861003861003861
sI2
F0.007722007722007722
sI3
F0.007722007722007722
sI4
F0.011583011583011582
sI5
F0.015444015444015444
sI6
F0.007722007722007722
sI8
F0.003861003861003861
sI9
F0.011583011583011582
sI11
F0.019305019305019305
sI12
F0.011583011583011582
sI13
F0.003861003861003861
sI14
F0.011583011583011582
sI15
F0.007722007722007722
sI16
F0.007722007722007722
sI17
F0.011583011583011582
sI18
F0.003861003861003861
sI19
F0.011583011583011582
sI20
F0.007722007722007722
sI21
F0.007722007722007722
sI22
F0.003861003861003861
sI23
F0.011583011583011582
sI24
F0.011583011583011582
ssI26
g0
(g4
tp55
Rp56
I1
F0.003861003861003861
sI2
F0.003861003861003861
sI4
F0.011583011583011582
sI5
F0.007722007722007722
sI6
F0.003861003861003861
sI7
F0.007722007722007722
sI8
F0.011583011583011582
sI9
F0.007722007722007722
sI10
F0.011583011583011582
sI11
F0.015444015444015444
sI12
F0.019305019305019305
sI13
F0.019305019305019305
sI14
F0.007722007722007722
sI15
F0.007722007722007722
sI16
F0.007722007722007722
sI18
F0.007722007722007722
sI20
F0.003861003861003861
sI21
F0.011583011583011582
sI22
F0.011583011583011582
sI23
F0.007722007722007722
sI24
F0.011583011583011582
ssI27
g0
(g4
tp57
Rp58
I1
F0.003861003861003861
sI2
F0.011583011583011582
sI3
F0.003861003861003861
sI4
F0.019305019305019305
sI5
F0.003861003861003861
sI6
F0.007722007722007722
sI8
F0.011583011583011582
sI9
F0.007722007722007722
sI10
F0.015444015444015444
sI11
F0.019305019305019305
sI12
F0.011583011583011582
sI13
F0.019305019305019305
sI14
F0.007722007722007722
sI15
F0.007722007722007722
sI16
F0.003861003861003861
sI17
F0.019305019305019305
sI18
F0.015444015444015444
sI19
F0.015444015444015444
sI20
F0.007722007722007722
sI21
F0.015444015444015444
sI25
F0.007722007722007722
sI26
F0.003861003861003861
ssI28
g0
(g4
tp59
Rp60
I1
F0.003861003861003861
sI4
F0.007722007722007722
sI5
F0.003861003861003861
sI7
F0.011583011583011582
sI8
F0.007722007722007722
sI9
F0.007722007722007722
sI12
F0.015444015444015444
sI13
F0.015444015444015444
sI14
F0.007722007722007722
sI15
F0.003861003861003861
sI16
F0.011583011583011582
sI18
F0.003861003861003861
sI19
F0.007722007722007722
sI20
F0.003861003861003861
sI21
F0.003861003861003861
sI24
F0.003861003861003861
sI25
F0.011583011583011582
ssI29
g0
(g4
tp61
Rp62
I2
F0.003861003861003861
sI3
F0.007722007722007722
sI4
F0.007722007722007722
sI7
F0.003861003861003861
sI8
F0.003861003861003861
sI9
F0.003861003861003861
sI10
F0.003861003861003861
sI13
F0.011583011583011582
sI14
F0.003861003861003861
sI15
F0.007722007722007722
sI16
F0.003861003861003861
sI17
F0.007722007722007722
sI19
F0.007722007722007722
sI21
F0.003861003861003861
sI25
F0.003861003861003861
sI26
F0.003861003861003861
sI28
F0.007722007722007722
ssI30
g0
(g4
tp63
Rp64
I0
F0.003861003861003861
sI1
F0.003861003861003861
sI3
F0.007722007722007722
sI4
F0.003861003861003861
sI6
F0.011583011583011582
sI8
F0.003861003861003861
sI10
F0.003861003861003861
sI11
F0.003861003861003861
sI12
F0.003861003861003861
sI13
F0.007722007722007722
sI14
F0.015444015444015444
sI15
F0.007722007722007722
sI18
F0.003861003861003861
sI19
F0.003861003861003861
sI20
F0.003861003861003861
sI22
F0.007722007722007722
sI23
F0.003861003861003861
sI24
F0.007722007722007722
sI25
F0.007722007722007722
sI26
F0.007722007722007722
sI27
F0.003861003861003861
sI28
F0.003861003861003861
sI29
F0.003861003861003861
ssI31
g0
(g4
tp65
Rp66
I3
F0.003861003861003861
sI6
F0.003861003861003861
sI7
F0.011583011583011582
sI14
F0.003861003861003861
sI15
F0.011583011583011582
sI16
F0.003861003861003861
sI17
F0.003861003861003861
sI18
F0.003861003861003861
sI20
F0.011583011583011582
sI21
F0.007722007722007722
sI22
F0.003861003861003861
sI26
F0.007722007722007722
sI28
F0.003861003861003861
ssI32
g0
(g4
tp67
Rp68
I0
F0.007722007722007722
sI4
F0.003861003861003861
sI12
F0.003861003861003861
sI13
F0.003861003861003861
sI15
F0.003861003861003861
sI16
F0.003861003861003861
sI20
F0.003861003861003861
sI21
F0.003861003861003861
sI22
F0.003861003861003861
sI25
F0.003861003861003861
sI28
F0.003861003861003861
sI29
F0.003861003861003861
sI30
F0.003861003861003861
ssI33
g0
(g4
tp69
Rp70
I0
F0.003861003861003861
sI1
F0.003861003861003861
sI5
F0.003861003861003861
sI10
F0.003861003861003861
sI13
F0.003861003861003861
sI15
F0.003861003861003861
sI16
F0.003861003861003861
sI17
F0.003861003861003861
sI18
F0.003861003861003861
sI19
F0.007722007722007722
sI21
F0.007722007722007722
sI22
F0.007722007722007722
sI23
F0.003861003861003861
sI24
F0.003861003861003861
sI25
F0.003861003861003861
sI26
F0.007722007722007722
sI28
F0.003861003861003861
sI30
F0.003861003861003861
ssI34
g0
(g4
tp71
Rp72
I33
F0.003861003861003861
sI6
F0.003861003861003861
sI13
F0.003861003861003861
sI14
F0.003861003861003861
sI15
F0.003861003861003861
sI22
F0.007722007722007722
ssI35
g0
(g4
tp73
Rp74
I4
F0.003861003861003861
sI6
F0.003861003861003861
sI7
F0.003861003861003861
sI12
F0.003861003861003861
sI22
F0.003861003861003861
sI24
F0.003861003861003861
sI25
F0.003861003861003861
sI26
F0.003861003861003861
sI28
F0.003861003861003861
ssI36
g0
(g4
tp75
Rp76
I20
F0.003861003861003861
sI10
F0.003861003861003861
sI4
F0.003861003861003861
sI29
F0.003861003861003861
sI28
F0.003861003861003861
ssI37
g0
(g4
tp77
Rp78
I33
F0.007722007722007722
sI35
F0.003861003861003861
sI4
F0.003861003861003861
sI5
F0.003861003861003861
sI8
F0.003861003861003861
sI12
F0.003861003861003861
sI13
F0.003861003861003861
sI14
F0.003861003861003861
sI15
F0.003861003861003861
sI19
F0.003861003861003861
sI25
F0.003861003861003861
sI26
F0.003861003861003861
sI28
F0.003861003861003861
ssI38
g0
(g4
tp79
Rp80
I2
F0.003861003861003861
sI8
F0.003861003861003861
sI9
F0.003861003861003861
sI13
F0.003861003861003861
sI15
F0.003861003861003861
sI27
F0.003861003861003861
sI31
F0.003861003861003861
ssI39
g0
(g4
tp81
Rp82
I16
F0.003861003861003861
sI21
F0.003861003861003861
sI29
F0.003861003861003861
ssI40
g0
(g4
tp83
Rp84
I33
F0.007722007722007722
sI15
F0.003861003861003861
sI19
F0.003861003861003861
sI25
F0.003861003861003861
sI26
F0.003861003861003861
sI28
F0.003861003861003861
ssI41
g0
(g4
tp85
Rp86
I2
F0.003861003861003861
sI36
F0.003861003861003861
sI38
F0.003861003861003861
sI39
F0.003861003861003861
sI8
F0.003861003861003861
sI13
F0.003861003861003861
sI26
F0.003861003861003861
sI27
F0.003861003861003861
ssI42
g0
(g4
tp87
Rp88
I3
F0.003861003861003861
sI5
F0.003861003861003861
sI8
F0.007722007722007722
sI10
F0.003861003861003861
sI13
F0.003861003861003861
sI21
F0.003861003861003861
sI27
F0.003861003861003861
ssI43
g0
(g4
tp89
Rp90
I9
F0.003861003861003861
sI28
F0.003861003861003861
ssI44
g0
(g4
tp91
Rp92
I25
F0.003861003861003861
sI19
F0.003861003861003861
sI28
F0.003861003861003861
sI33
F0.003861003861003861
sI15
F0.003861003861003861
ssI45
g0
(g4
tp93
Rp94
I20
F0.003861003861003861
sI31
F0.003861003861003861
ssI46
g0
(g4
tp95
Rp96
I0
F0.003861003861003861
sI17
F0.003861003861003861
sI10
F0.003861003861003861
sI21
F0.007722007722007722
ssI47
g0
(g4
tp97
Rp98
I8
F0.003861003861003861
sI41
F0.003861003861003861
sI27
F0.003861003861003861
sI13
F0.003861003861003861
sI38
F0.003861003861003861
ssI48
g0
(g4
tp99
Rp100
I6
F0.003861003861003861
ss.