ccollections
defaultdict
p0
(c__builtin__
set
p1
tp2
Rp3
VIH0Z
p4
g1
((lp5
S'his'
p6
aS'is'
p7
aS'does'
p8
atp9
Rp10
sVAO1KS
p11
g1
((lp12
S'talks'
p13
atp14
Rp15
sVIH0T
p16
g1
((lp17
S'it'
p18
atp19
Rp20
sVIH0S
p21
g1
((lp22
S'this'
p23
atp24
Rp25
sVAO1KT
p26
g1
((lp27
S'talked'
p28
aS'walked'
p29
atp30
Rp31
sVAH2
p32
g1
((lp33
S'unafraid'
p34
aS'undeniable'
p35
aS'understand'
p36
aS'whatever'
p37
atp38
Rp39
sVIH0N
p40
g1
((lp41
S'ingenuitive'
p42
aS'been'
p43
aS'in'
p44
atp45
Rp46
sVAH0
p47
g1
((lp48
S'affair'
p49
aS'phenomenon'
p50
aS'agreed'
p51
aS'competitive'
p52
aS'unrest'
p53
aS'committed'
p54
aS'aggressive'
p55
aS'debate'
p56
aS'unfinished'
p57
aS'methodically'
p58
aS'amaze'
p59
aS'astonish'
p60
aS'surprised'
p61
aS'de'
p62
aS'cannot'
p63
aS'supplies'
p64
aS'accumulate'
p65
aS'success'
p66
aS'tobacco'
p67
aS'nathaniel'
p68
aS'specific'
p69
aS'consolidate'
p70
aS'financial'
p71
aS'regret'
p72
aS'quebec'
p73
aS'battalion'
p74
aS'financials'
p75
aS'subject'
p76
aS'provided'
p77
aS'recruits'
p78
aS'est'
p79
aS'record'
p80
aS'oppressors'
p81
aS'above'
p82
aS'surprise'
p83
aS'across'
p84
aS'parentis'
p85
aS'ability'
p86
aS'unmask'
p87
aS'agreement'
p88
aS'refused'
p89
aS'succeed'
p90
aS'advantages'
p91
aS'alone'
p92
aS'along'
p93
aS'advance'
p94
aS'about'
p95
aS'ahead'
p96
aS'against'
p97
aS'agree'
p98
aS'adored'
p99
aS'admit'
p100
aS'oppose'
p101
aS'opinion'
p102
aS'afar'
p103
aS'astute'
p104
aS'abet'
p105
aS'supply'
p106
aS'confession'
p107
aS'another'
p108
aS'apologize'
p109
aS'apply'
p110
aS'tomorrow'
p111
aS'conventional'
p112
aS'to'
p113
aS'political'
p114
aS'attack'
p115
aS'assistance'
p116
aS'until'
p117
aS'today'
p118
aS'attractive'
p119
aS'confer'
p120
aS'monsieur'
p121
aS'afford'
p122
aS'aware'
p123
aS'approachable'
p124
aS'alas'
p125
aS'awake'
p126
aS'july'
p127
aS'abandoning'
p128
aS'commence'
p129
aS'apprentice'
p130
aS'account'
p131
aS'civility'
p132
aS'promotes'
p133
aS'assume'
p134
aS'contrary'
p135
aS'abandon'
p136
aS'opponent'
p137
aS'ascendancy'
p138
aS'suggestions'
p139
aS'provoke'
p140
aS'again'
p141
aS'afraid'
p142
aS'suggests'
p143
aS'aside'
p144
aS'complicit'
p145
aS'towards'
p146
aS'unless'
p147
aS'confess'
p148
aS'advice'
p149
aS'negotiate'
p150
aS'collection'
p151
aS'abuse'
p152
aS'connected'
p153
aS'position'
p154
aS'apprenticeship'
p155
aS'america'
p156
aS'a'
p157
aS'attempt'
p158
aS'considered'
p159
aS'askance'
p160
aS'american'
p161
aS'sometimes'
p162
aS'upset'
p163
aS'together'
p164
aS'acquitted'
p165
aS'adrenaline'
p166
aS'command'
p167
aS'absurd'
p168
aS'consistency'
p169
aS'occasion'
p170
aS'the'
p171
aS'away'
p172
atp173
Rp174
sVAH1
p175
g1
((lp176
S'gunshot'
p177
aS'shovel'
p178
aS'hunger'
p179
aS'money'
p180
aS'trusting'
p181
aS'somehow'
p182
aS'hungry'
p183
aS'something'
p184
aS'summon'
p185
aS'subject'
p186
aS'buddy'
p187
aS'rather'
p188
aS'hudson'
p189
aS'hurricane'
p190
aS'other'
p191
aS'bloodstains'
p192
aS'under'
p193
aS'struggled'
p194
aS'hundred'
p195
aS'public'
p196
aS'covenant'
p197
aS'sullied'
p198
aS'someone'
p199
aS'somebody'
p200
aS'brothers'
p201
aS'government'
p202
aS'couple'
p203
aS'mother'
p204
aS'southern'
p205
aS'cover'
p206
aS'number'
p207
aS'running'
p208
aS'coming'
p209
aS'nothing'
p210
aS'cousin'
p211
aS'trouble'
p212
aS'upstate'
p213
aS'publishes'
p214
aS'younger'
p215
aS'someday'
p216
aS"wasn't"
p217
aS'double'
p218
aS'study'
p219
aS'sometimes'
p220
aS'upset'
p221
aS'brother'
p222
aS'doubled'
p223
aS'summary'
p224
aS"brother's"
p225
aS'uh'
p226
aS'country'
p227
aS'knuckleheads'
p228
aS'the'
p229
aS'mulligan'
p230
aS'smuggle'
p231
atp232
Rp233
sVIH0F
p234
g1
((lp235
S'if'
p236
atp237
Rp238
sVIH0D
p239
g1
((lp240
S'did'
p241
aS'good'
p242
atp243
Rp244
sVAE1BZ
p245
g1
((lp246
S'grabs'
p247
atp248
Rp249
sVUW1TH
p250
g1
((lp251
S'truth'
p252
atp253
Rp254
sVEH2
p255
g1
((lp256
S'revolutionary'
p257
aS'devastation'
p258
aS'revolution'
p259
aS'caribbean'
p260
aS'carolina'
p261
aS'expectation'
p262
aS'reputation'
p263
aS'guarantee'
p264
aS'declaration'
p265
aS'speculation'
p266
aS'education'
p267
aS'restitution'
p268
atp269
Rp270
sVEH0
p271
g1
((lp272
S'embezzling'
p273
aS'rep'
p274
aS'endorse'
p275
aS'engaged'
p276
aS'escorted'
p277
aS'escort'
p278
aS'endorsement'
p279
aS'entrust'
p280
aS'enlightenment'
p281
aS'essays'
p282
atp283
Rp284
sVEH1
p285
g1
((lp286
S'kettle'
p287
aS'questions'
p288
aS'enterprise'
p289
aS'carefully'
p290
aS'melody'
p291
aS'arrogant'
p292
aS'envy'
p293
aS'venerated'
p294
aS'headline'
p295
aS'betsy'
p296
aS'aaron'
p297
aS'treasury'
p298
aS'wearing'
p299
aS'very'
p300
aS'every'
p301
aS'pendleton'
p302
aS'reckoning'
p303
aS'jettison'
p304
aS'endless'
p305
aS'enemy'
p306
aS'heaven'
p307
aS'feral'
p308
aS'level'
p309
aS'excellency'
p310
aS'chesapeake'
p311
aS'pleasantries'
p312
aS'eloquence'
p313
aS'settle'
p314
aS'marry'
p315
aS'secretary'
p316
aS'seventeen'
p317
aS'specially'
p318
aS'redcoats'
p319
aS'messy'
p320
aS'second'
p321
aS'legacy'
p322
aS'carriages'
p323
aS'desperate'
p324
aS'helpless'
p325
aS'destitute'
p326
aS'centralizing'
p327
aS'enemies'
p328
aS'measurements'
p329
aS'everything'
p330
aS'medicine'
p331
aS'lecture'
p332
aS'ever'
p333
aS'temple'
p334
aS'checkered'
p335
aS'seconds'
p336
aS'never'
p337
aS'peggy'
p338
aS'enterprising'
p339
aS'frenchman'
p340
aS'scary'
p341
aS'benefits'
p342
aS'hesitant'
p343
aS'getting'
p344
aS'many'
p345
aS'terrible'
p346
aS'credit'
p347
aS'testament'
p348
aS'mentions'
p349
aS'reckoned'
p350
aS'letters'
p351
aS'plenty'
p352
aS'headed'
p353
aS'lesson'
p354
aS"ev'ry"
p355
aS'better'
p356
aS'spending'
p357
aS'twenty'
p358
aS'question'
p359
aS'anyone'
p360
aS'escort'
p361
aS'memory'
p362
aS'essays'
p363
aS'pencil'
p364
aS'fellow'
p365
aS'meddling'
p366
aS'everywhere'
p367
aS'mellow'
p368
aS'evidence'
p369
aS'endlessly'
p370
aS'present'
p371
aS'anything'
p372
aS'record'
p373
aS'henry'
p374
aS'seven'
p375
aS'century'
p376
aS'general'
p377
aS'ready'
p378
aS'pedestal'
p379
aS'reynolds'
p380
aS'any'
p381
aS'redder'
p382
aS'deadly'
p383
aS'veteran'
p384
aS'elegance'
p385
aS'gentlemen'
p386
aS'penniless'
p387
aS'relatives'
p388
aS'jefferson'
p389
aS'elephant'
p390
aS'elevates'
p391
aS'dresses'
p392
aS'separate'
p393
aS'welcome'
p394
aS'henchmen'
p395
aS'vengeance'
p396
aS'letter'
p397
aS'president'
p398
aS'decorated'
p399
aS'weapon'
p400
aS'sedative'
p401
aS'anybody'
p402
aS'element'
p403
aS'enter'
p404
aS'precedent'
p405
atp406
Rp407
sVEY1TS
p408
g1
((lp409
S'states'
p410
atp411
Rp412
sVAE1NTS
p413
g1
((lp414
S'pants'
p415
atp416
Rp417
sVUW1TS
p418
g1
((lp419
S'shoots'
p420
atp421
Rp422
sVIY1TS
p423
g1
((lp424
S'streets'
p425
atp426
Rp427
sVAH1CH
p428
g1
((lp429
S'such'
p430
aS'much'
p431
atp432
Rp433
sVER1MZ
p434
g1
((lp435
S'terms'
p436
atp437
Rp438
sVEY1MZ
p439
g1
((lp440
S'james'
p441
atp442
Rp443
sS'IH0M'
p444
g1
((lp445
S'impoverished'
p446
aS'him'
p447
atp448
Rp449
sVOY1
p450
g1
((lp451
S'boy'
p452
aS'poisoned'
p453
aS'loyalty'
p454
aS'choices'
p455
aS'royalty'
p456
aS'lawyer'
p457
aS'voices'
p458
aS'joining'
p459
atp460
Rp461
sVEY1MD
p462
g1
((lp463
S'named'
p464
atp465
Rp466
sVUW1ZD
p467
g1
((lp468
S'used'
p469
atp470
Rp471
sVUH0
p472
g1
((lp473
S'yourself'
p474
atp475
Rp476
sVUH1
p477
g1
((lp478
S'jury'
p479
aS'bullet'
p480
aS'crooked'
p481
aS'poorest'
p482
aS'sugar'
p483
aS'looking'
p484
aS'brooklyn'
p485
aS'bullets'
p486
aS'curious'
p487
atp488
Rp489
sVAH1NZ
p490
g1
((lp491
S'runs'
p492
aS'sons'
p493
aS'guns'
p494
atp495
Rp496
sVAH1NT
p497
g1
((lp498
S'front'
p499
atp500
Rp501
sVAH1NS
p502
g1
((lp503
S'once'
p504
atp505
Rp506
sVAH1NG
p507
g1
((lp508
S'hungriest'
p509
aS'young'
p510
atp511
Rp512
sVAO1RD
p513
g1
((lp514
S'lord'
p515
atp516
Rp517
sVAO1RK
p518
g1
((lp519
S'york'
p520
atp521
Rp522
sVAO1RN
p523
g1
((lp524
S'worn'
p525
atp526
Rp527
sVAA1NT
p528
g1
((lp529
S'want'
p530
atp531
Rp532
sVAO1RS
p533
g1
((lp534
S'course'
p535
aS'horse'
p536
atp537
Rp538
sVAO1RT
p539
g1
((lp540
S'sort'
p541
atp542
Rp543
sVAO1RZ
p544
g1
((lp545
S'yours'
p546
atp547
Rp548
sVER1CH
p549
g1
((lp550
S'search'
p551
aS'church'
p552
atp553
Rp554
sVAY1TS
p555
g1
((lp556
S'writes'
p557
aS'rights'
p558
atp559
Rp560
sVUH1KS
p561
g1
((lp562
S'looks'
p563
atp564
Rp565
sVUH1KT
p566
g1
((lp567
S'looked'
p568
atp569
Rp570
sVEH1D
p571
g1
((lp572
S'shed'
p573
aS'said'
p574
aS'led'
p575
aS'lead'
p576
aS'head'
p577
aS'bed'
p578
aS'spread'
p579
aS'dead'
p580
aS'red'
p581
atp582
Rp583
sVIH1RZ
p584
g1
((lp585
S'years'
p586
atp587
Rp588
sVEY1Z
p589
g1
((lp590
S'raise'
p591
atp592
Rp593
sVEY1T
p594
g1
((lp595
S'great'
p596
aS'straight'
p597
aS'late'
p598
aS'state'
p599
aS'eight'
p600
aS'wait'
p601
atp602
Rp603
sVEY1P
p604
g1
((lp605
S'shape'
p606
atp607
Rp608
sVEY1S
p609
g1
((lp610
S'case'
p611
aS'place'
p612
aS'face'
p613
atp614
Rp615
sVEY1M
p616
g1
((lp617
S'name'
p618
aS'same'
p619
aS'aim'
p620
aS'shame'
p621
aS'game'
p622
aS'flame'
p623
aS'came'
p624
atp625
Rp626
sVEY1N
p627
g1
((lp628
S'brain'
p629
aS'drain'
p630
aS'pain'
p631
aS'gain'
p632
aS'cane'
p633
atp634
Rp635
sVOW1TH
p636
g1
((lp637
S'both'
p638
atp639
Rp640
sVEY1D
p641
g1
((lp642
S'aid'
p643
aS'made'
p644
aS'shade'
p645
aS'paid'
p646
atp647
Rp648
sVAE1FT
p649
g1
((lp650
S'draft'
p651
atp652
Rp653
sVEH1K
p654
g1
((lp655
S'check'
p656
aS'neck'
p657
atp658
Rp659
sVEH1L
p660
g1
((lp661
S'hell'
p662
aS'spell'
p663
aS'well'
p664
aS'tell'
p665
atp666
Rp667
sVEH1M
p668
g1
((lp669
S'em'
p670
aS'm'
p671
atp672
Rp673
sVEH1N
p674
g1
((lp675
S'then'
p676
aS'ben'
p677
aS'ten'
p678
aS'men'
p679
aS'when'
p680
aS'n'
p681
atp682
Rp683
sVER1NZ
p684
g1
((lp685
S'turns'
p686
atp687
Rp688
sVEH1ST
p689
g1
((lp690
S'test'
p691
aS'west'
p692
aS'rest'
p693
aS'best'
p694
atp695
Rp696
sVAY1K
p697
g1
((lp698
S'like'
p699
atp700
Rp701
sVEH1G
p702
g1
((lp703
S'keg'
p704
aS'beg'
p705
atp706
Rp707
sVEH1Z
p708
g1
((lp709
S'as'
p710
aS'says'
p711
atp712
Rp713
sVER1ND
p714
g1
((lp715
S'learned'
p716
aS'turned'
p717
atp718
Rp719
sVAO1GZ
p720
g1
((lp721
S'dogs'
p722
atp723
Rp724
sVEH1P
p725
g1
((lp726
S'rep'
p727
aS'step'
p728
atp729
Rp730
sVEH1R
p731
g1
((lp732
S'there'
p733
aS'bear'
p734
aS'air'
p735
aS'swear'
p736
aS'wear'
p737
aS'where'
p738
atp739
Rp740
sVEH1S
p741
g1
((lp742
S'stress'
p743
aS'less'
p744
aS'mess'
p745
aS'ness'
p746
aS's'
p747
aS'chess'
p748
aS'press'
p749
aS'yes'
p750
atp751
Rp752
sVEH1T
p753
g1
((lp754
S'vet'
p755
aS'set'
p756
aS'get'
p757
aS'met'
p758
aS'let'
p759
aS'sweat'
p760
aS'debt'
p761
aS'yet'
p762
aS'bet'
p763
atp764
Rp765
sVIY1PS
p766
g1
((lp767
S'keeps'
p768
atp769
Rp770
sVAO1RDZ
p771
g1
((lp772
S'towards'
p773
atp774
Rp775
sVIH1MPS
p776
g1
((lp777
S'glimpse'
p778
atp779
Rp780
sVIH0TH
p781
g1
((lp782
S'with'
p783
atp784
Rp785
sVEH1FT
p786
g1
((lp787
S'left'
p788
atp789
Rp790
sVIH0TS
p791
g1
((lp792
S'its'
p793
atp794
Rp795
sVAA1DZ
p796
g1
((lp797
S'gods'
p798
aS'odds'
p799
atp800
Rp801
sVAO1NT
p802
g1
((lp803
S'want'
p804
atp805
Rp806
sVEY1ST
p807
g1
((lp808
S'placed'
p809
aS'raced'
p810
atp811
Rp812
sVAO1NG
p813
g1
((lp814
S'wrong'
p815
aS'song'
p816
atp817
Rp818
sVIH1NGZ
p819
g1
((lp820
S'things'
p821
atp822
Rp823
sVAH1NTS
p824
g1
((lp825
S'fronts'
p826
atp827
Rp828
sVER0
p829
g1
((lp830
S'forget'
p831
aS'terrain'
p832
aS'pursuits'
p833
aS'yourself'
p834
aS'are'
p835
aS'forgot'
p836
aS'caribbean'
p837
aS'for'
p838
aS'surprise'
p839
aS'forgets'
p840
aS'surprised'
p841
aS'around'
p842
aS'permission'
p843
aS'were'
p844
aS'virginia'
p845
aS'arrived'
p846
aS'pursuit'
p847
aS'virtuosity'
p848
aS'particular'
p849
aS'surrender'
p850
aS'present'
p851
aS'maria'
p852
aS'parentheses'
p853
aS'virginian'
p854
aS'career'
p855
aS'forgotten'
p856
aS'or'
p857
atp858
Rp859
sVEH1TH
p860
g1
((lp861
S'death'
p862
atp863
Rp864
sVAA1NTS
p865
g1
((lp866
S'wants'
p867
atp868
Rp869
sVEH1TS
p870
g1
((lp871
S'bets'
p872
aS'debts'
p873
aS'lets'
p874
aS'gets'
p875
aS'sets'
p876
atp877
Rp878
sVAE1KST
p879
g1
((lp880
S'taxed'
p881
atp882
Rp883
sVAH1NCH
p884
g1
((lp885
S'bunch'
p886
atp887
Rp888
sVEY1
p889
g1
((lp890
S'saying'
p891
aS'major'
p892
aS'stray'
p893
aS'bayonet'
p894
aS'ladies'
p895
aS'draining'
p896
aS'say'
p897
aS'paces'
p898
aS'trading'
p899
aS'labor'
p900
aS'patiently'
p901
aS'pray'
p902
aS'pay'
p903
aS'breaking'
p904
aS'hey'
p905
aS'pages'
p906
aS're'
p907
aS'waiting'
p908
aS'station'
p909
aS'way'
p910
aS'papers'
p911
aS'taken'
p912
aS'stalemate'
p913
aS'status'
p914
aS'play'
p915
aS'ration'
p916
aS'statement'
p917
aS'stay'
p918
aS'may'
p919
aS'de'
p920
aS'nation'
p921
aS'waving'
p922
aS'spray'
p923
aS'tailor'
p924
aS'lay'
p925
aS'they'
p926
aS'chasing'
p927
aS'je'
p928
aS'ha'
p929
aS'day'
p930
aS'bravery'
p931
aS'a'
p932
aS'mainland'
p933
aS'places'
p934
aS'sacred'
p935
aS'maybe'
p936
aS'later'
p937
aS'favorite'
p938
aS'slavery'
p939
aS'bay'
p940
aS'facing'
p941
aS'neighbor'
p942
aS'slaver'
p943
aS'making'
p944
aS'latest'
p945
atp946
Rp947
sVEY0
p948
g1
((lp949
S'elitist'
p950
atp951
Rp952
sVAY1NTS
p953
g1
((lp954
S'pints'
p955
atp956
Rp957
sVAO1CH
p958
g1
((lp959
S'watch'
p960
atp961
Rp962
sVAY1
p963
g1
((lp964
S'spy'
p965
aS'itemized'
p966
aS'schuyler'
p967
aS'high'
p968
aS'buy'
p969
aS'frightened'
p970
aS'crisis'
p971
aS'by'
p972
aS'eye'
p973
aS'dying'
p974
aS'lining'
p975
aS'flying'
p976
aS'sky'
p977
aS'silently'
p978
aS'writing'
p979
aS'finally'
p980
aS'ly'
p981
aS'diamond'
p982
aS'shiny'
p983
aS'rioting'
p984
aS'lighten'
p985
aS'dire'
p986
aS'nineteen'
p987
aS'why'
p988
aS'cycle'
p989
aS'dry'
p990
aS'die'
p991
aS'vice-president'
p992
aS'firing'
p993
aS'fighting'
p994
aS'try'
p995
aS'either'
p996
aS'shy'
p997
aS'guy'
p998
aS'higher'
p999
aS'my'
p1000
aS'lying'
p1001
atp1002
Rp1003
sVAE1SKT
p1004
g1
((lp1005
S'asked'
p1006
atp1007
Rp1008
sVAY2
p1009
g1
((lp1010
S'financial'
p1011
aS'financials'
p1012
aS'diuretic'
p1013
atp1014
Rp1015
sVIH0ST
p1016
g1
((lp1017
S'just'
p1018
atp1019
Rp1020
sVAW1TH
p1021
g1
((lp1022
S'mouth'
p1023
aS'south'
p1024
atp1025
Rp1026
sVAO2
p1027
g1
((lp1028
S'fourteen'
p1029
aS'alright'
p1030
aS'correspondence'
p1031
atp1032
Rp1033
sVAO1
p1034
g1
((lp1035
S'organize'
p1036
aS'almost'
p1037
aS'forfeit'
p1038
aS'washington'
p1039
aS'yourself'
p1040
aS'talking'
p1041
aS'lawyer'
p1042
aS'broadway'
p1043
aS'corner'
p1044
aS'forthcoming'
p1045
aS'saw'
p1046
aS'orders'
p1047
aS'story'
p1048
aS'law'
p1049
aS'yorkers'
p1050
aS'doctor'
p1051
aS'sordid'
p1052
aS'courted'
p1053
aS'forces'
p1054
aS'forward'
p1055
aS'daughters'
p1056
aS'slaughtered'
p1057
aS'horses'
p1058
aS'draw'
p1059
aS'offer'
p1060
aS'orphan'
p1061
aS'mortally'
p1062
aS'slaughter'
p1063
aS'fourteen'
p1064
aS'quarterly'
p1065
aS'wanted'
p1066
aS'boarding'
p1067
aS'longing'
p1068
aS'laurens'
p1069
aS'daughter'
p1070
aS'glory'
p1071
aS'always'
p1072
aS'dollars'
p1073
aS'yorktown'
p1074
aS'chorus'
p1075
aS'orderly'
p1076
atp1077
Rp1078
sVAO0
p1079
g1
((lp1080
S'forgets'
p1081
aS'forgot'
p1082
aS'forget'
p1083
aS'forgotten'
p1084
atp1085
Rp1086
sVIH1DH
p1087
g1
((lp1088
S'with'
p1089
atp1090
Rp1091
sVAE1SK
p1092
g1
((lp1093
S'ask'
p1094
aS'flask'
p1095
aS'task'
p1096
atp1097
Rp1098
sVEH1NCH
p1099
g1
((lp1100
S'trench'
p1101
aS'french'
p1102
aS'bench'
p1103
atp1104
Rp1105
sVAE1SH
p1106
g1
((lp1107
S'cash'
p1108
atp1109
Rp1110
sVAW1D
p1111
g1
((lp1112
S'proud'
p1113
aS'loud'
p1114
aS'crowd'
p1115
atp1116
Rp1117
sVAW1N
p1118
g1
((lp1119
S'down'
p1120
atp1121
Rp1122
sVAW1S
p1123
g1
((lp1124
S'house'
p1125
aS'douse'
p1126
atp1127
Rp1128
sVAW1R
p1129
g1
((lp1130
S'our'
p1131
aS'hour'
p1132
atp1133
Rp1134
sVAW1T
p1135
g1
((lp1136
S'bout'
p1137
aS'doubt'
p1138
aS'out'
p1139
atp1140
Rp1141
sVAE1ST
p1142
g1
((lp1143
S'past'
p1144
aS'last'
p1145
aS'passed'
p1146
aS'fast'
p1147
aS'asked'
p1148
atp1149
Rp1150
sVIH1NGK
p1151
g1
((lp1152
S'drink'
p1153
aS'think'
p1154
aS'brink'
p1155
atp1156
Rp1157
sVAY1NG
p1158
g1
((lp1159
S'trying'
p1160
atp1161
Rp1162
sVEY1NJHD
p1163
g1
((lp1164
S'changed'
p1165
atp1166
Rp1167
sS'AH2N'
p1168
g1
((lp1169
S'unimpeachable'
p1170
atp1171
Rp1172
sVAA1CHT
p1173
g1
((lp1174
S'watched'
p1175
atp1176
Rp1177
sVAA1GZ
p1178
g1
((lp1179
S'dogs'
p1180
atp1181
Rp1182
sVUW1LZ
p1183
g1
((lp1184
S'fools'
p1185
atp1186
Rp1187
sVEH1PT
p1188
g1
((lp1189
S'slept'
p1190
aS'kept'
p1191
atp1192
Rp1193
sVEH1LF
p1194
g1
((lp1195
S'shelf'
p1196
aS'self'
p1197
atp1198
Rp1199
sVAW1NT
p1200
g1
((lp1201
S'count'
p1202
aS'mount'
p1203
atp1204
Rp1205
sVAW1NS
p1206
g1
((lp1207
S'ounce'
p1208
atp1209
Rp1210
sVOW1LD
p1211
g1
((lp1212
S'old'
p1213
atp1214
Rp1215
sVIY1ST
p1216
g1
((lp1217
S'least'
p1218
atp1219
Rp1220
sVEH1LP
p1221
g1
((lp1222
S'help'
p1223
atp1224
Rp1225
sVEH1LS
p1226
g1
((lp1227
S'else'
p1228
atp1229
Rp1230
sVEH1NDZ
p1231
g1
((lp1232
S'friends'
p1233
atp1234
Rp1235
sVEH1LZ
p1236
g1
((lp1237
S'smells'
p1238
aS'bells'
p1239
atp1240
Rp1241
sVAW1ND
p1242
g1
((lp1243
S'ground'
p1244
atp1245
Rp1246
sVER1
p1247
g1
((lp1248
S'hercules'
p1249
aS'further'
p1250
aS'sir'
p1251
aS'merchants'
p1252
aS'working'
p1253
aS'nervous'
p1254
aS'hurricane'
p1255
aS"we're"
p1256
aS'blur'
p1257
aS'learned'
p1258
aS'stir'
p1259
aS'murder'
p1260
aS'early'
p1261
aS'vernon'
p1262
aS'courage'
p1263
aS'virtue'
p1264
aS'burden'
p1265
aS'burr'
p1266
aS'service'
p1267
aS'thirty'
p1268
aS'were'
p1269
aS'jersey'
p1270
atp1271
Rp1272
sVER1T
p1273
g1
((lp1274
S'flirt'
p1275
aS'dirt'
p1276
atp1277
Rp1278
sVEH1KS
p1279
g1
((lp1280
S'next'
p1281
aS'sex'
p1282
atp1283
Rp1284
sVAH1NDZ
p1285
g1
((lp1286
S'funds'
p1287
atp1288
Rp1289
sVER1D
p1290
g1
((lp1291
S'heard'
p1292
aS'word'
p1293
aS'third'
p1294
atp1295
Rp1296
sVER1N
p1297
g1
((lp1298
S'turn'
p1299
aS'burn'
p1300
atp1301
Rp1302
sVER1L
p1303
g1
((lp1304
S'girl'
p1305
atp1306
Rp1307
sVER1K
p1308
g1
((lp1309
S'work'
p1310
atp1311
Rp1312
sVAW1DHZ
p1313
g1
((lp1314
S'mouths'
p1315
atp1316
Rp1317
sVIH1NDZ
p1318
g1
((lp1319
S'winds'
p1320
atp1321
Rp1322
sVIH1KS
p1323
g1
((lp1324
S'six'
p1325
atp1326
Rp1327
sVUW1VD
p1328
g1
((lp1329
S'moved'
p1330
atp1331
Rp1332
sVAE1KS
p1333
g1
((lp1334
S'tax'
p1335
atp1336
Rp1337
sVAH0ND
p1338
g1
((lp1339
S'and'
p1340
atp1341
Rp1342
sVAE1KT
p1343
g1
((lp1344
S'act'
p1345
atp1346
Rp1347
sVAH1ST
p1348
g1
((lp1349
S'just'
p1350
aS'must'
p1351
atp1352
Rp1353
sVIY1DZ
p1354
g1
((lp1355
S'leads'
p1356
aS'seeds'
p1357
atp1358
Rp1359
sVER1DZ
p1360
g1
((lp1361
S'words'
p1362
atp1363
Rp1364
sVIY0
p1365
g1
((lp1366
S'reactions'
p1367
aS'be'
p1368
aS'creation'
p1369
aS'resist'
p1370
aS'redefining'
p1371
aS'resigned'
p1372
aS'resemblance'
p1373
aS'remains'
p1374
aS'create'
p1375
aS'creator'
p1376
aS'reality'
p1377
aS'enough'
p1378
aS'republic'
p1379
aS'retreat'
p1380
aS'between'
p1381
aS'eventually'
p1382
aS'return'
p1383
aS'recruits'
p1384
aS'require'
p1385
aS'resign'
p1386
aS'response'
p1387
aS'present'
p1388
aS'reaction'
p1389
aS'essentially'
p1390
aS'remember'
p1391
aS'created'
p1392
aS'reliable'
p1393
aS'resorted'
p1394
aS'remind'
p1395
aS'retreating'
p1396
aS'the'
p1397
aS'began'
p1398
atp1399
Rp1400
sVIY1V
p1401
g1
((lp1402
S'leave'
p1403
aS'sleeve'
p1404
atp1405
Rp1406
sVEY1KS
p1407
g1
((lp1408
S'makes'
p1409
aS'takes'
p1410
atp1411
Rp1412
sVAA1RD
p1413
g1
((lp1414
S'guard'
p1415
aS'hard'
p1416
atp1417
Rp1418
sVIY1MZ
p1419
g1
((lp1420
S'seems'
p1421
aS'screams'
p1422
atp1423
Rp1424
sVAA1RK
p1425
g1
((lp1426
S'dark'
p1427
aS'spark'
p1428
atp1429
Rp1430
sVIH1SH
p1431
g1
((lp1432
S'wish'
p1433
atp1434
Rp1435
sVIH1ST
p1436
g1
((lp1437
S'list'
p1438
aS'pissed'
p1439
atp1440
Rp1441
sVAA1
p1442
g1
((lp1443
S'thomas'
p1444
aS'barter'
p1445
aS'charles'
p1446
aS'farther'
p1447
aS'follow'
p1448
aS'pardon'
p1449
aS'father'
p1450
aS'prodigy'
p1451
aS'sorry'
p1452
aS'ami'
p1453
aS'garden'
p1454
aS'watching'
p1455
aS'ya'
p1456
aS'smarter'
p1457
aS'gonna'
p1458
aS'pocket'
p1459
aS'moi'
p1460
aS'posture'
p1461
aS'polish'
p1462
aS'scholar'
p1463
aS'harbor'
p1464
aS'borrow'
p1465
aS'common'
p1466
aS'bother'
p1467
aS'charter'
p1468
aS'onarchy'
p1469
aS'goddamn'
p1470
aS'fathers'
p1471
aS'carted'
p1472
aS'college'
p1473
aS'brrrah'
p1474
aS'gossip'
p1475
aS'conscience'
p1476
aS'bottom'
p1477
aS'monmouth'
p1478
aS'providence'
p1479
aS'contraband'
p1480
aS'sorrow'
p1481
aS'monarchy'
p1482
aS'wanted'
p1483
aS'knowledge'
p1484
aS'prospects'
p1485
aS'dollars'
p1486
aS'honest'
p1487
aS'pockets'
p1488
aS'fallen'
p1489
aS'honor'
p1490
aS'colony'
p1491
aS'promise'
p1492
aS'parties'
p1493
aS'army'
p1494
aS'constantly'
p1495
aS'toi'
p1496
aS'bargained'
p1497
aS'prosperous'
p1498
aS'started'
p1499
aS'brraaah'
p1500
aS'ardently'
p1501
aS'ha'
p1502
aS'starter'
p1503
aS'scotsman'
p1504
aS'washington'
p1505
aS"wasn't"
p1506
aS'gotta'
p1507
aS'harder'
p1508
aS'non-stop'
p1509
aS'contrary'
p1510
aS'holler'
p1511
aS'problem'
p1512
aS'modern'
p1513
aS'promised'
p1514
aS'martyr'
p1515
aS'doctor'
p1516
aS'heartbreak'
p1517
aS'goner'
p1518
aS'colonies'
p1519
aS'martha'
p1520
aS'commonplace'
p1521
aS'congress'
p1522
aS'opposite'
p1523
aS'squalor'
p1524
aS'law'
p1525
aS'scholars'
p1526
aS'tomcat'
p1527
aS'bondage'
p1528
aS'wanna'
p1529
aS'farmers'
p1530
aS'honestly'
p1531
aS'rendezvous'
p1532
aS'model'
p1533
aS'harlem'
p1534
aS'scholarship'
p1535
atp1536
Rp1537
sVAA0
p1538
g1
((lp1539
S'proximity'
p1540
aS'obnoxious'
p1541
aS'montgomery'
p1542
atp1543
Rp1544
sVAA2
p1545
g1
((lp1546
S'marquis'
p1547
aS'camaraderie'
p1548
aS'monticello'
p1549
aS'conversation'
p1550
aS'lafayette'
p1551
aS'particular'
p1552
aS'opportunity'
p1553
aS'volunteer'
p1554
atp1555
Rp1556
sVIY1MD
p1557
g1
((lp1558
S'screamed'
p1559
atp1560
Rp1561
sVAA1RT
p1562
g1
((lp1563
S'start'
p1564
aS'part'
p1565
aS'smart'
p1566
atp1567
Rp1568
sVIH2
p1569
g1
((lp1570
S'information'
p1571
aS'independently'
p1572
aS'indecisive'
p1573
aS'introduction'
p1574
aS'introduce'
p1575
aS'disagreements'
p1576
aS'situation'
p1577
aS'immature'
p1578
aS'independence'
p1579
aS'disadvantage'
p1580
atp1581
Rp1582
sVIH0
p1583
g1
((lp1584
S'beware'
p1585
aS'renown'
p1586
aS'before'
p1587
aS'resemblance'
p1588
aS'behind'
p1589
aS'destroyed'
p1590
aS'to'
p1591
aS'excited'
p1592
aS'eventually'
p1593
aS'embezzling'
p1594
aS'return'
p1595
aS'descendants'
p1596
aS'disquieting'
p1597
aS'redeem'
p1598
aS'deniability'
p1599
aS'decide'
p1600
aS'instead'
p1601
aS'resorted'
p1602
aS'relentlessly'
p1603
aS'specific'
p1604
aS'require'
p1605
aS'inexperienced'
p1606
aS'insane'
p1607
aS'because'
p1608
aS'financial'
p1609
aS'regret'
p1610
aS'resist'
p1611
aS'depends'
p1612
aS'decided'
p1613
aS'precedes'
p1614
aS'elitist'
p1615
aS'beyond'
p1616
aS'financials'
p1617
aS'explode'
p1618
aS'equivocate'
p1619
aS'inside'
p1620
aS'enough'
p1621
aS'experiment'
p1622
aS'between'
p1623
aS'recruits'
p1624
aS'degree'
p1625
aS'defend'
p1626
aS'refused'
p1627
aS'disputes'
p1628
aS'resign'
p1629
aS'imagine'
p1630
aS'beginning'
p1631
aS'defeatist'
p1632
aS'extreme'
p1633
aS'essentially'
p1634
aS'insidious'
p1635
aS'expecting'
p1636
aS'defeat'
p1637
aS'emerge'
p1638
aS'into'
p1639
aS'delighted'
p1640
aS'decides'
p1641
aS'defendants'
p1642
aS'resilience'
p1643
aS'despised'
p1644
aS'remains'
p1645
aS'distracted'
p1646
aS'betrays'
p1647
aS'victorious'
p1648
aS'dismisses'
p1649
aS'exactly'
p1650
aS'refrain'
p1651
aS'excuse'
p1652
aS'demand'
p1653
aS'believe'
p1654
aS'begins'
p1655
aS'reliable'
p1656
aS'devices'
p1657
aS'record'
p1658
aS'beliefs'
p1659
aS'examine'
p1660
aS'examined'
p1661
aS'information'
p1662
aS'resigned'
p1663
aS'extorted'
p1664
aS'began'
p1665
aS'belong'
p1666
aS'rebellion'
p1667
aS'equipment'
p1668
aS'disparaged'
p1669
aS'destroy'
p1670
aS'begin'
p1671
aS'negotiate'
p1672
aS'despondent'
p1673
aS'response'
p1674
aS'deny'
p1675
aS'remember'
p1676
aS'without'
p1677
aS'eliza'
p1678
atp1679
Rp1680
sVIH1
p1681
g1
((lp1682
S'immigrants'
p1683
aS'ringing'
p1684
aS'figure'
p1685
aS"sittin'"
p1686
aS'disciplined'
p1687
aS'visit'
p1688
aS'into'
p1689
aS'midnight'
p1690
aS'dripping'
p1691
aS'brilliance'
p1692
aS'immigrant'
p1693
aS'middle'
p1694
aS'britain'
p1695
aS'pistols'
p1696
aS'simply'
p1697
aS'symphony'
p1698
aS'singing'
p1699
aS'citizens'
p1700
aS'winning'
p1701
aS'mister'
p1702
aS'drinking'
p1703
aS'really'
p1704
aS'millisecond'
p1705
aS'city'
p1706
aS'little'
p1707
aS'intercourse'
p1708
aS'giving'
p1709
aS'imminent'
p1710
aS'fingerprints'
p1711
aS'divvy'
p1712
aS'dissidents'
p1713
aS'system'
p1714
aS'liberty'
p1715
aS'situated'
p1716
aS'trigger'
p1717
aS'fidgeting'
p1718
aS'witnessing'
p1719
aS'pretty'
p1720
aS'fiddled'
p1721
aS'military'
p1722
aS'listen'
p1723
aS'business'
p1724
aS'living'
p1725
aS'clearly'
p1726
aS'mission'
p1727
aS'given'
p1728
aS'wisdom'
p1729
aS'william'
p1730
aS'rigor'
p1731
aS'difficult'
p1732
aS'serious'
p1733
aS'sisters'
p1734
aS'witted'
p1735
aS'philip'
p1736
aS'difference'
p1737
aS'whisky'
p1738
aS'tyranny'
p1739
aS'distance'
p1740
aS'sister'
p1741
aS'pistol'
p1742
aS'frisky'
p1743
aS'getting'
p1744
aS'inside'
p1745
aS'princeton'
p1746
aS'single'
p1747
aS'british'
p1748
aS'different'
p1749
aS'civics'
p1750
aS'mr'
p1751
aS'giddyup'
p1752
aS'river'
p1753
aS'minutes'
p1754
aS'skittish'
p1755
aS'missing'
p1756
aS'history'
p1757
atp1758
Rp1759
sVUH1RZ
p1760
g1
((lp1761
S'yours'
p1762
atp1763
Rp1764
sVEH1GZ
p1765
g1
((lp1766
S'legs'
p1767
atp1768
Rp1769
sVAH1STS
p1770
g1
((lp1771
S'trusts'
p1772
atp1773
Rp1774
sVAY1Z
p1775
g1
((lp1776
S'eyes'
p1777
aS'wise'
p1778
aS'rise'
p1779
aS'spies'
p1780
aS'lies'
p1781
aS'guys'
p1782
aS'size'
p1783
atp1784
Rp1785
sVAY1S
p1786
g1
((lp1787
S'nice'
p1788
atp1789
Rp1790
sVAY1R
p1791
g1
((lp1792
S'fire'
p1793
aS'hire'
p1794
aS'dire'
p1795
atp1796
Rp1797
sVAY1T
p1798
g1
((lp1799
S'right'
p1800
aS'kite'
p1801
aS'knight'
p1802
aS'night'
p1803
aS'site'
p1804
aS'fight'
p1805
aS'write'
p1806
aS'sight'
p1807
aS'light'
p1808
aS'quite'
p1809
aS'might'
p1810
aS'cite'
p1811
atp1812
Rp1813
sVAY1V
p1814
g1
((lp1815
S'live'
p1816
aS'five'
p1817
aS'drive'
p1818
atp1819
Rp1820
sVER1ST
p1821
g1
((lp1822
S'first'
p1823
atp1824
Rp1825
sVAY1M
p1826
g1
((lp1827
S'climb'
p1828
aS"i'm"
p1829
aS'time'
p1830
atp1831
Rp1832
sVAY1L
p1833
g1
((lp1834
S'smile'
p1835
aS'while'
p1836
aS'file'
p1837
aS'trial'
p1838
atp1839
Rp1840
sVAY1N
p1841
g1
((lp1842
S'nine'
p1843
aS'line'
p1844
aS'fine'
p1845
aS'mine'
p1846
atp1847
Rp1848
sVAY1D
p1849
g1
((lp1850
S'ride'
p1851
aS'tide'
p1852
aS'bride'
p1853
aS'slide'
p1854
aS'pride'
p1855
aS'side'
p1856
aS'died'
p1857
atp1858
Rp1859
sVAY1F
p1860
g1
((lp1861
S'life'
p1862
aS'wife'
p1863
atp1864
Rp1865
sVAW1
p1866
g1
((lp1867
S'shower'
p1868
aS'founding'
p1869
aS'founder'
p1870
aS'power'
p1871
aS'scoundrel'
p1872
aS'thousand'
p1873
aS'bow'
p1874
aS'downtown'
p1875
aS'how'
p1876
aS'outside'
p1877
aS'powder'
p1878
aS'now'
p1879
aS'thousands'
p1880
atp1881
Rp1882
sVAW0
p1883
g1
((lp1884
S'outrageous'
p1885
atp1886
Rp1887
sVER1S
p1888
g1
((lp1889
S'verse'
p1890
aS'worse'
p1891
atp1892
Rp1893
sVAH1T
p1894
g1
((lp1895
S'what'
p1896
aS'cut'
p1897
aS'but'
p1898
atp1899
Rp1900
sVAH1V
p1901
g1
((lp1902
S'of'
p1903
aS'love'
p1904
atp1905
Rp1906
sVAH1P
p1907
g1
((lp1908
S'up'
p1909
atp1910
Rp1911
sS'AH1S'
p1912
g1
((lp1913
S'us'
p1914
atp1915
Rp1916
sVAH1Z
p1917
g1
((lp1918
S'does'
p1919
aS'was'
p1920
aS'cuz'
p1921
aS'fuzz'
p1922
atp1923
Rp1924
sVAH1D
p1925
g1
((lp1926
S'flood'
p1927
aS'blood'
p1928
atp1929
Rp1930
sVAH1F
p1931
g1
((lp1932
S'rough'
p1933
atp1934
Rp1935
sVAH1M
p1936
g1
((lp1937
S'from'
p1938
aS'rum'
p1939
aS'some'
p1940
aS'um'
p1941
aS'dumb'
p1942
aS'come'
p1943
atp1944
Rp1945
sVAH1N
p1946
g1
((lp1947
S'none'
p1948
aS'run'
p1949
aS'sun'
p1950
aS'gun'
p1951
aS'one'
p1952
aS'done'
p1953
aS'son'
p1954
atp1955
Rp1956
sVAH1K
p1957
g1
((lp1958
S'fuck'
p1959
aS'luck'
p1960
atp1961
Rp1962
sVIH1PS
p1963
g1
((lp1964
S'ships'
p1965
aS'chips'
p1966
atp1967
Rp1968
sS'AEM'
p1969
g1
((lp1970
S'famished'
p1971
atp1972
Rp1973
sVEY1VD
p1974
g1
((lp1975
S'saved'
p1976
atp1977
Rp1978
sVEY1VZ
p1979
g1
((lp1980
S'slaves'
p1981
aS'waves'
p1982
atp1983
Rp1984
sVUW1ST
p1985
g1
((lp1986
S'boost'
p1987
atp1988
Rp1989
sVIH1NG
p1990
g1
((lp1991
S'king'
p1992
aS'thing'
p1993
aS'bring'
p1994
aS'ning'
p1995
aS'sing'
p1996
atp1997
Rp1998
sVIH1ND
p1999
g1
((lp2000
S'wind'
p2001
atp2002
Rp2003
sVAE1NDZ
p2004
g1
((lp2005
S'stands'
p2006
aS'hands'
p2007
atp2008
Rp2009
sVIH1NT
p2010
g1
((lp2011
S'print'
p2012
atp2013
Rp2014
sVIH1NS
p2015
g1
((lp2016
S'since'
p2017
atp2018
Rp2019
sVIH1NZ
p2020
g1
((lp2021
S'sins'
p2022
atp2023
Rp2024
sVAE1
p2025
g1
((lp2026
S'madison'
p2027
aS'chances'
p2028
aS'scrappy'
p2029
aS'scattered'
p2030
aS'satisfied'
p2031
aS'battle'
p2032
aS'captain'
p2033
aS'brandish'
p2034
aS'happiness'
p2035
aS'glances'
p2036
aS'vacuous'
p2037
aS'stances'
p2038
aS'happened'
p2039
aS'handle'
p2040
aS'matches'
p2041
aS'cannon'
p2042
aS'hatter'
p2043
aS'cannot'
p2044
aS'hamilton'
p2045
aS'alex'
p2046
aS'ranting'
p2047
aS'adams'
p2048
aS'fragile'
p2049
aS'stagger'
p2050
aS'landlord'
p2051
aS'francophile'
p2052
aS'glasses'
p2053
aS'battlefield'
p2054
aS'national'
p2055
aS'yeah'
p2056
aS'carriages'
p2057
aS'happen'
p2058
aS'anarchy'
p2059
aS'happens'
p2060
aS'asking'
p2061
aS'passion'
p2062
aS'ration'
p2063
aS'stallion'
p2064
aS'answers'
p2065
aS'fractured'
p2066
aS'cannons'
p2067
aS'fantasies'
p2068
aS'lancelot'
p2069
aS'practical'
p2070
aS'franklin'
p2071
aS'tactical'
p2072
aS'action'
p2073
aS'battery'
p2074
aS'manage'
p2075
aS'dances'
p2076
aS'manumission'
p2077
aS'traction'
p2078
aS'strategy'
p2079
aS'stamina'
p2080
aS'handles'
p2081
aS'master'
p2082
aS'factions'
p2083
aS'fractions'
p2084
aS'cabinet'
p2085
aS'candidacy'
p2086
aS'casualties'
p2087
aS'handsome'
p2088
aS'practicing'
p2089
aS'frankly'
p2090
aS'challenge'
p2091
aS'classes'
p2092
aS'battering'
p2093
aS'balance'
p2094
aS'scatter'
p2095
aS'panicky'
p2096
aS'fashion'
p2097
aS'ragtag'
p2098
aS'rally'
p2099
aS'angelica'
p2100
aS'planting'
p2101
aS'bastard'
p2102
aS'rather'
p2103
aS'granted'
p2104
aS'battles'
p2105
aS'graduate'
p2106
aS'damages'
p2107
aS'answer'
p2108
aS'status'
p2109
aS'faction'
p2110
aS'passionately'
p2111
aS'after'
p2112
aS'blacker'
p2113
aS'sally'
p2114
aS'happening'
p2115
aS'lasted'
p2116
aS'quagmire'
p2117
aS'basket'
p2118
atp2119
Rp2120
sVAE0
p2121
g1
((lp2122
S'angelica'
p2123
aS'ambassador'
p2124
aS'advice'
p2125
aS'admire'
p2126
aS'accelerated'
p2127
aS'advantages'
p2128
aS'campaigning'
p2129
aS'manhattan'
p2130
atp2131
Rp2132
sVAE2
p2133
g1
((lp2134
S'satisfaction'
p2135
aS'ammunition'
p2136
aS'abolitionists'
p2137
aS'alexander'
p2138
atp2139
Rp2140
sVER1LDZ
p2141
g1
((lp2142
S"world's"
p2143
atp2144
Rp2145
sVOW1ST
p2146
g1
((lp2147
S'most'
p2148
aS'post'
p2149
aS'coast'
p2150
atp2151
Rp2152
sVAE1M
p2153
g1
((lp2154
S'damn'
p2155
aS'am'
p2156
aS'sam'
p2157
atp2158
Rp2159
sVAE1N
p2160
g1
((lp2161
S'van'
p2162
aS'an'
p2163
aS'fan'
p2164
aS'plan'
p2165
aS'man'
p2166
aS'than'
p2167
aS'can'
p2168
atp2169
Rp2170
sVAE1K
p2171
g1
((lp2172
S'smack'
p2173
aS'black'
p2174
aS'back'
p2175
aS'crack'
p2176
atp2177
Rp2178
sS'AA0N'
p2179
g1
((lp2180
S'bonsoir'
p2181
atp2182
Rp2183
sVAE1D
p2184
g1
((lp2185
S'had'
p2186
aS'mad'
p2187
atp2188
Rp2189
sVAE1G
p2190
g1
((lp2191
S'flag'
p2192
aS'dag'
p2193
aS'brag'
p2194
atp2195
Rp2196
sVAE1F
p2197
g1
((lp2198
S'staff'
p2199
aS'laugh'
p2200
aS'half'
p2201
atp2202
Rp2203
sVAE1B
p2204
g1
((lp2205
S'grab'
p2206
atp2207
Rp2208
sVAE1Z
p2209
g1
((lp2210
S'as'
p2211
aS'has'
p2212
atp2213
Rp2214
sVAE1T
p2215
g1
((lp2216
S'at'
p2217
aS'that'
p2218
atp2219
Rp2220
sVAE1V
p2221
g1
((lp2222
S'have'
p2223
atp2224
Rp2225
sVER0M
p2226
g1
((lp2227
S'from'
p2228
atp2229
Rp2230
sVAE1S
p2231
g1
((lp2232
S'ass'
p2233
aS'mass'
p2234
aS'last'
p2235
atp2236
Rp2237
sVAO1NTS
p2238
g1
((lp2239
S'wants'
p2240
atp2241
Rp2242
sVAE1NGKS
p2243
g1
((lp2244
S'thanks'
p2245
atp2246
Rp2247
sVAO1RTS
p2248
g1
((lp2249
S'sorts'
p2250
atp2251
Rp2252
sVAY0
p2253
g1
((lp2254
S'ideals'
p2255
atp2256
Rp2257
sVAO1RTH
p2258
g1
((lp2259
S'north'
p2260
aS'fourth'
p2261
atp2262
Rp2263
sVAH1NCHT
p2264
g1
((lp2265
S'punched'
p2266
atp2267
Rp2268
sVAA1CH
p2269
g1
((lp2270
S'watch'
p2271
atp2272
Rp2273
sVAH1BZ
p2274
g1
((lp2275
S'stubs'
p2276
atp2277
Rp2278
sVIY1LZ
p2279
g1
((lp2280
S'feels'
p2281
atp2282
Rp2283
sVAO1LZ
p2284
g1
((lp2285
S'calls'
p2286
atp2287
Rp2288
sVIH1TH
p2289
g1
((lp2290
S'with'
p2291
atp2292
Rp2293
sVIH1TS
p2294
g1
((lp2295
S'sits'
p2296
aS'wits'
p2297
aS'pits'
p2298
aS'fits'
p2299
aS'gets'
p2300
aS'its'
p2301
atp2302
Rp2303
sVAE1CH
p2304
g1
((lp2305
S'catch'
p2306
aS'scratch'
p2307
aS'snatch'
p2308
aS'match'
p2309
aS'hatch'
p2310
atp2311
Rp2312
sVEY1JH
p2313
g1
((lp2314
S'age'
p2315
atp2316
Rp2317
sVIY1LD
p2318
g1
((lp2319
S'field'
p2320
aS'yield'
p2321
atp2322
Rp2323
sVER1LD
p2324
g1
((lp2325
S'world'
p2326
atp2327
Rp2328
sVAA1RJH
p2329
g1
((lp2330
S'charge'
p2331
atp2332
Rp2333
sVOW1
p2334
g1
((lp2335
S'protean'
p2336
aS'show'
p2337
aS'throwing'
p2338
aS'colder'
p2339
aS'over'
p2340
aS'global'
p2341
aS'loco'
p2342
aS'openly'
p2343
aS'polish'
p2344
aS'go'
p2345
aS'loaded'
p2346
aS'total'
p2347
aS'blow'
p2348
aS'oldest'
p2349
aS'bolder'
p2350
aS'no'
p2351
aS'throw'
p2352
aS'only'
p2353
aS'going'
p2354
aS'slowly'
p2355
aS'poet'
p2356
aS'moses'
p2357
aS'local'
p2358
aS'toe'
p2359
aS'yo'
p2360
aS'though'
p2361
aS'socially'
p2362
aS'rochambeau'
p2363
aS'moment'
p2364
aS'slow'
p2365
aS'soldiers'
p2366
aS'know'
p2367
aS'grow'
p2368
aS'shoulder'
p2369
aS'lower'
p2370
aS'ok'
p2371
aS'oh'
p2372
aS'older'
p2373
aS'bow'
p2374
aS'soldier'
p2375
aS'so'
p2376
aS'social'
p2377
atp2378
Rp2379
sVOW0
p2380
g1
((lp2381
S'protean'
p2382
atp2383
Rp2384
sVOW2
p2385
g1
((lp2386
S'okay'
p2387
atp2388
Rp2389
sVIH0DH
p2390
g1
((lp2391
S'with'
p2392
atp2393
Rp2394
sVIY1D
p2395
g1
((lp2396
S'need'
p2397
aS"she'd"
p2398
aS'lead'
p2399
atp2400
Rp2401
sVAO1CHT
p2402
g1
((lp2403
S'watched'
p2404
atp2405
Rp2406
sVIY1K
p2407
g1
((lp2408
S'week'
p2409
aS'seek'
p2410
aS'weak'
p2411
aS'sneak'
p2412
atp2413
Rp2414
sVEH1ND
p2415
g1
((lp2416
S'fend'
p2417
aS'end'
p2418
aS'lend'
p2419
aS'send'
p2420
aS'bend'
p2421
aS'friend'
p2422
atp2423
Rp2424
sVIY1M
p2425
g1
((lp2426
S'dream'
p2427
aS'scream'
p2428
atp2429
Rp2430
sVIY1L
p2431
g1
((lp2432
S'real'
p2433
aS'feel'
p2434
aS'steal'
p2435
atp2436
Rp2437
sVIY1N
p2438
g1
((lp2439
S'seen'
p2440
aS'queen'
p2441
aS'green'
p2442
aS'mean'
p2443
atp2444
Rp2445
sVIY1P
p2446
g1
((lp2447
S'sleep'
p2448
aS'keep'
p2449
atp2450
Rp2451
sVIY1S
p2452
g1
((lp2453
S'piece'
p2454
aS'cease'
p2455
aS'peace'
p2456
aS'nice'
p2457
atp2458
Rp2459
sVIY1R
p2460
g1
((lp2461
S'hear'
p2462
aS"we're"
p2463
aS'here'
p2464
atp2465
Rp2466
sS'IY1'
p2467
g1
((lp2468
S'seeing'
p2469
aS'oui'
p2470
aS've'
p2471
aS'people'
p2472
aS'being'
p2473
aS'tea'
p2474
aS'jesus'
p2475
aS'really'
p2476
aS'see'
p2477
aS'sea'
p2478
aS'fleeting'
p2479
aS'reasons'
p2480
aS'she'
p2481
aS'even'
p2482
aS'creole'
p2483
aS'needy'
p2484
aS'leading'
p2485
aS'meanwhile'
p2486
aS'three'
p2487
aS'legal'
p2488
aS'fleeing'
p2489
aS're'
p2490
aS'secret'
p2491
aS'eating'
p2492
aS'easy'
p2493
aS'speaker'
p2494
aS'bleeding'
p2495
aS'he'
p2496
aS'meeting'
p2497
aS'either'
p2498
aS'be'
p2499
aS'we'
p2500
aS'hero'
p2501
aS'lee'
p2502
aS'seeking'
p2503
aS'de'
p2504
aS'free'
p2505
aS'reason'
p2506
aS'fee'
p2507
aS'grievance'
p2508
aS'key'
p2509
aS'previous'
p2510
aS'je'
p2511
aS'spree'
p2512
aS'd'
p2513
aS'me'
p2514
aS'feeling'
p2515
aS'e'
p2516
aS'treatise'
p2517
aS'freedom'
p2518
aS'emerge'
p2519
aS'equal'
p2520
aS'seated'
p2521
aS'treaty'
p2522
aS'p'
p2523
aS't'
p2524
aS'treason'
p2525
aS'geniuses'
p2526
atp2527
Rp2528
sVIY1T
p2529
g1
((lp2530
S'beat'
p2531
aS'seat'
p2532
aS'feet'
p2533
aS'heat'
p2534
aS'street'
p2535
aS'treat'
p2536
aS'meet'
p2537
atp2538
Rp2539
sVIY2
p2540
g1
((lp2541
S'require'
p2542
aS'beyond'
p2543
aS'before'
p2544
atp2545
Rp2546
sVIY1Z
p2547
g1
((lp2548
S'these'
p2549
aS'seize'
p2550
atp2551
Rp2552
sVAO1LD
p2553
g1
((lp2554
S'called'
p2555
atp2556
Rp2557
sVAY1RZ
p2558
g1
((lp2559
S'fires'
p2560
aS'hires'
p2561
atp2562
Rp2563
sVAO1ST
p2564
g1
((lp2565
S'last'
p2566
aS'lost'
p2567
atp2568
Rp2569
sVIH1NGKS
p2570
g1
((lp2571
S'thinks'
p2572
atp2573
Rp2574
sVAH0V
p2575
g1
((lp2576
S'of'
p2577
atp2578
Rp2579
sVAH0T
p2580
g1
((lp2581
S'that'
p2582
atp2583
Rp2584
sS'AH0S'
p2585
g1
((lp2586
S'casse'
p2587
atp2588
Rp2589
sVAH0Z
p2590
g1
((lp2591
S'has'
p2592
aS'was'
p2593
atp2594
Rp2595
sVAH0N
p2596
g1
((lp2597
S'an'
p2598
aS'can'
p2599
aS'been'
p2600
aS'than'
p2601
atp2602
Rp2603
sVAH0M
p2604
g1
((lp2605
S"i'm"
p2606
atp2607
Rp2608
sVIH1Z
p2609
g1
((lp2610
S'is'
p2611
aS'his'
p2612
aS'says'
p2613
atp2614
Rp2615
sVIH1T
p2616
g1
((lp2617
S'spit'
p2618
aS'sit'
p2619
aS'get'
p2620
aS'it'
p2621
aS'split'
p2622
aS'bit'
p2623
aS'shit'
p2624
atp2625
Rp2626
sVIH1V
p2627
g1
((lp2628
S'live'
p2629
aS'give'
p2630
atp2631
Rp2632
sVIH1P
p2633
g1
((lp2634
S'skip'
p2635
aS'tip'
p2636
aS'drip'
p2637
aS'slip'
p2638
aS'strip'
p2639
aS'ship'
p2640
atp2641
Rp2642
sVIH1R
p2643
g1
((lp2644
S'dear'
p2645
aS'beer'
p2646
aS"we're"
p2647
atp2648
Rp2649
sVIH1S
p2650
g1
((lp2651
S'this'
p2652
aS'miss'
p2653
aS'kiss'
p2654
aS'piss'
p2655
atp2656
Rp2657
sVIH1L
p2658
g1
((lp2659
S'til'
p2660
aS'till'
p2661
aS'skill'
p2662
aS'still'
p2663
aS'quill'
p2664
atp2665
Rp2666
sVIH1M
p2667
g1
((lp2668
S'him'
p2669
atp2670
Rp2671
sVIH1N
p2672
g1
((lp2673
S'win'
p2674
aS'when'
p2675
aS'kin'
p2676
aS'been'
p2677
aS'in'
p2678
atp2679
Rp2680
sVIH1K
p2681
g1
((lp2682
S'quick'
p2683
aS'thick'
p2684
aS'prick'
p2685
aS'sick'
p2686
aS'pick'
p2687
atp2688
Rp2689
sVIH1D
p2690
g1
((lp2691
S'did'
p2692
aS'hid'
p2693
aS'kid'
p2694
atp2695
Rp2696
sVIH1F
p2697
g1
((lp2698
S'if'
p2699
atp2700
Rp2701
sVIH1G
p2702
g1
((lp2703
S'dig'
p2704
atp2705
Rp2706
sVAO1Z
p2707
g1
((lp2708
S'jaws'
p2709
aS'cause'
p2710
aS'was'
p2711
atp2712
Rp2713
sVAO1S
p2714
g1
((lp2715
S'toss'
p2716
atp2717
Rp2718
sVAO1R
p2719
g1
((lp2720
S'or'
p2721
aS'door'
p2722
aS'for'
p2723
aS'pour'
p2724
aS'your'
p2725
aS'four'
p2726
aS'war'
p2727
aS'whore'
p2728
aS'more'
p2729
atp2730
Rp2731
sVAO1P
p2732
g1
((lp2733
S'top'
p2734
aS'drop'
p2735
atp2736
Rp2737
sVAO1T
p2738
g1
((lp2739
S'fraught'
p2740
aS'caught'
p2741
aS'thought'
p2742
aS'fought'
p2743
aS'taught'
p2744
aS'lot'
p2745
aS'ought'
p2746
atp2747
Rp2748
sVAO1K
p2749
g1
((lp2750
S'gawk'
p2751
aS'talk'
p2752
aS'walk'
p2753
atp2754
Rp2755
sVAO1N
p2756
g1
((lp2757
S'on'
p2758
aS'dawn'
p2759
aS'gone'
p2760
atp2761
Rp2762
sVAO1L
p2763
g1
((lp2764
S'wall'
p2765
aS'stall'
p2766
aS'ball'
p2767
aS'fall'
p2768
atp2769
Rp2770
sVIH1FTS
p2771
g1
((lp2772
S'gifts'
p2773
aS'shifts'
p2774
atp2775
Rp2776
sVAO1F
p2777
g1
((lp2778
S'off'
p2779
atp2780
Rp2781
sVEY1K
p2782
g1
((lp2783
S'break'
p2784
aS'make'
p2785
aS'shake'
p2786
aS'take'
p2787
aS'fake'
p2788
atp2789
Rp2790
sVUW2
p2791
g1
((lp2792
S'july'
p2793
aS'superpower'
p2794
atp2795
Rp2796
sVUW1
p2797
g1
((lp2798
S'doing'
p2799
aS'through'
p2800
aS'shoe'
p2801
aS'dueling'
p2802
aS'suicide'
p2803
aS'rumors'
p2804
aS'union'
p2805
aS'true'
p2806
aS'two'
p2807
aS'unite'
p2808
aS'crew'
p2809
aS'to'
p2810
aS'future'
p2811
aS'too'
p2812
aS'mutiny'
p2813
aS'new'
p2814
aS'you'
p2815
aS'movement'
p2816
aS'do'
p2817
aS'knew'
p2818
aS'duels'
p2819
aS'students'
p2820
aS'who'
p2821
aS'ooh'
p2822
aS'drew'
p2823
aS'scrutiny'
p2824
aS'sooner'
p2825
aS'useless'
p2826
aS'truly'
p2827
aS'super'
p2828
aS'ruinous'
p2829
aS'duel'
p2830
aS'ruined'
p2831
aS'fluent'
p2832
aS'stupid'
p2833
aS'brew'
p2834
aS'wounded'
p2835
aS'schoolboy'
p2836
atp2837
Rp2838
sVUW0
p2839
g1
((lp2840
S'uniquely'
p2841
aS'oui'
p2842
aS'lieutenant'
p2843
aS'neutrality'
p2844
aS'tomorrow'
p2845
aS'today'
p2846
atp2847
Rp2848
sVOW1KS
p2849
g1
((lp2850
S'folks'
p2851
atp2852
Rp2853
sVAY1NDZ
p2854
g1
((lp2855
S'winds'
p2856
aS'finds'
p2857
atp2858
Rp2859
sVIH1FS
p2860
g1
((lp2861
S'gifts'
p2862
atp2863
Rp2864
sVOY1N
p2865
g1
((lp2866
S'join'
p2867
atp2868
Rp2869
sVOY1S
p2870
g1
((lp2871
S'voice'
p2872
aS'choice'
p2873
atp2874
Rp2875
sVEH1LTH
p2876
g1
((lp2877
S'health'
p2878
aS'wealth'
p2879
atp2880
Rp2881
sVAH1MZ
p2882
g1
((lp2883
S'comes'
p2884
atp2885
Rp2886
sVUH1R
p2887
g1
((lp2888
S'poor'
p2889
aS'sure'
p2890
aS'your'
p2891
atp2892
Rp2893
sVUH1T
p2894
g1
((lp2895
S'put'
p2896
atp2897
Rp2898
sVUH1K
p2899
g1
((lp2900
S'rook'
p2901
aS'book'
p2902
aS'took'
p2903
aS'look'
p2904
atp2905
Rp2906
sVUH1L
p2907
g1
((lp2908
S'pull'
p2909
aS'full'
p2910
atp2911
Rp2912
sVUH1D
p2913
g1
((lp2914
S'could'
p2915
aS'good'
p2916
aS'would'
p2917
aS'should'
p2918
atp2919
Rp2920
sVOW1Z
p2921
g1
((lp2922
S'foes'
p2923
aS'knows'
p2924
aS'goes'
p2925
aS'those'
p2926
aS'close'
p2927
atp2928
Rp2929
sVAY1NZ
p2930
g1
((lp2931
S'lines'
p2932
atp2933
Rp2934
sVOW1P
p2935
g1
((lp2936
S'hope'
p2937
atp2938
Rp2939
sVOW1S
p2940
g1
((lp2941
S'close'
p2942
aS'most'
p2943
atp2944
Rp2945
sVOW1T
p2946
g1
((lp2947
S'vote'
p2948
aS'quote'
p2949
aS'note'
p2950
aS'wrote'
p2951
atp2952
Rp2953
sVOW1K
p2954
g1
((lp2955
S'broke'
p2956
atp2957
Rp2958
sVOW1M
p2959
g1
((lp2960
S'home'
p2961
atp2962
Rp2963
sVOW1L
p2964
g1
((lp2965
S'goal'
p2966
aS'stole'
p2967
aS'soul'
p2968
aS'coal'
p2969
aS'whole'
p2970
aS'roll'
p2971
atp2972
Rp2973
sVOW1N
p2974
g1
((lp2975
S'own'
p2976
aS'mon'
p2977
atp2978
Rp2979
sVAY1ND
p2980
g1
((lp2981
S'blind'
p2982
aS'kind'
p2983
aS'mind'
p2984
aS'signed'
p2985
aS'find'
p2986
aS'wind'
p2987
atp2988
Rp2989
sVOW1B
p2990
g1
((lp2991
S'job'
p2992
atp2993
Rp2994
sVAA1KS
p2995
g1
((lp2996
S'box'
p2997
aS'blocks'
p2998
aS'fox'
p2999
aS'socks'
p3000
aS'frocks'
p3001
aS'knox'
p3002
atp3003
Rp3004
sVOW1D
p3005
g1
((lp3006
S'load'
p3007
aS'rowed'
p3008
aS'code'
p3009
atp3010
Rp3011
sVAA1BZ
p3012
g1
((lp3013
S'robs'
p3014
atp3015
Rp3016
sVUW1PS
p3017
g1
((lp3018
S'troops'
p3019
atp3020
Rp3021
sVER0Z
p3022
g1
((lp3023
S'yours'
p3024
aS'years'
p3025
atp3026
Rp3027
sVEY1ND
p3028
g1
((lp3029
S'reigned'
p3030
atp3031
Rp3032
sVAA1PS
p3033
g1
((lp3034
S'pops'
p3035
aS'cops'
p3036
aS'stops'
p3037
atp3038
Rp3039
sVAA1PT
p3040
g1
((lp3041
S'dropped'
p3042
atp3043
Rp3044
sVEY1NJH
p3045
g1
((lp3046
S'change'
p3047
atp3048
Rp3049
sVOW1TS
p3050
g1
((lp3051
S'notes'
p3052
atp3053
Rp3054
sVEY1NZ
p3055
g1
((lp3056
S'brains'
p3057
aS'reins'
p3058
atp3059
Rp3060
sVAE1NS
p3061
g1
((lp3062
S'dance'
p3063
aS'chance'
p3064
aS'stance'
p3065
aS'france'
p3066
atp3067
Rp3068
sVAE1NT
p3069
g1
((lp3070
S'plant'
p3071
aS"can't"
p3072
atp3073
Rp3074
sVEH1RZ
p3075
g1
((lp3076
S"there's"
p3077
atp3078
Rp3079
sVAE1NZ
p3080
g1
((lp3081
S'hands'
p3082
atp3083
Rp3084
sVAE1ND
p3085
g1
((lp3086
S'and'
p3087
aS'land'
p3088
aS'stand'
p3089
aS'hand'
p3090
atp3091
Rp3092
sVAE1NG
p3093
g1
((lp3094
S'hang'
p3095
atp3096
Rp3097
sVIY1CH
p3098
g1
((lp3099
S'speech'
p3100
aS'teach'
p3101
aS'reach'
p3102
aS'peach'
p3103
aS'each'
p3104
atp3105
Rp3106
sVUW1Z
p3107
g1
((lp3108
S'whose'
p3109
aS'use'
p3110
aS'choose'
p3111
aS'lose'
p3112
atp3113
Rp3114
sVUW1V
p3115
g1
((lp3116
S'move'
p3117
aS'prove'
p3118
atp3119
Rp3120
sVUW1T
p3121
g1
((lp3122
S'shoot'
p3123
aS'suit'
p3124
atp3125
Rp3126
sVUW1S
p3127
g1
((lp3128
S'use'
p3129
atp3130
Rp3131
sVUW1P
p3132
g1
((lp3133
S'group'
p3134
atp3135
Rp3136
sVUW1M
p3137
g1
((lp3138
S'room'
p3139
aS'boom'
p3140
atp3141
Rp3142
sVUW1L
p3143
g1
((lp3144
S'fool'
p3145
aS'school'
p3146
atp3147
Rp3148
sVIH1CH
p3149
g1
((lp3150
S'which'
p3151
aS'rich'
p3152
atp3153
Rp3154
sVAA1RLZ
p3155
g1
((lp3156
S'charles'
p3157
atp3158
Rp3159
sVOW1NT
p3160
g1
((lp3161
S"won't"
p3162
atp3163
Rp3164
sVIH1SHT
p3165
g1
((lp3166
S'wished'
p3167
atp3168
Rp3169
sVEH1NS
p3170
g1
((lp3171
S'whence'
p3172
atp3173
Rp3174
sVEH1NT
p3175
g1
((lp3176
S'meant'
p3177
aS'spent'
p3178
aS'cent'
p3179
aS'went'
p3180
aS'scent'
p3181
aS'sent'
p3182
atp3183
Rp3184
sVEH1NZ
p3185
g1
((lp3186
S'tens'
p3187
aS'friends'
p3188
atp3189
Rp3190
sVAE1PT
p3191
g1
((lp3192
S'kept'
p3193
atp3194
Rp3195
sVEH1KST
p3196
g1
((lp3197
S'next'
p3198
atp3199
Rp3200
sVAA1B
p3201
g1
((lp3202
S'rob'
p3203
aS'job'
p3204
atp3205
Rp3206
sVAA1D
p3207
g1
((lp3208
S'god'
p3209
atp3210
Rp3211
sVAA1KT
p3212
g1
((lp3213
S'shocked'
p3214
atp3215
Rp3216
sVAO1RJH
p3217
g1
((lp3218
S'george'
p3219
atp3220
Rp3221
sVAA1K
p3222
g1
((lp3223
S'lock'
p3224
aS'rock'
p3225
aS'cock'
p3226
aS'knock'
p3227
aS'walk'
p3228
atp3229
Rp3230
sVAA1L
p3231
g1
((lp3232
S'fall'
p3233
atp3234
Rp3235
sVAA1N
p3236
g1
((lp3237
S'on'
p3238
aS'john'
p3239
aS'mon'
p3240
atp3241
Rp3242
sVAA1P
p3243
g1
((lp3244
S'top'
p3245
aS'drop'
p3246
aS'stop'
p3247
aS'pop'
p3248
atp3249
Rp3250
sVAA1R
p3251
g1
((lp3252
S'far'
p3253
aS'our'
p3254
aS'are'
p3255
atp3256
Rp3257
sVAA1T
p3258
g1
((lp3259
S'plot'
p3260
aS'squat'
p3261
aS'shot'
p3262
aS'pot'
p3263
aS'spot'
p3264
aS'hot'
p3265
aS'lot'
p3266
aS'not'
p3267
aS'got'
p3268
aS'caught'
p3269
atp3270
Rp3271
sVAA1Z
p3272
g1
((lp3273
S'cause'
p3274
aS'was'
p3275
atp3276
Rp3277
sVER1TH
p3278
g1
((lp3279
S'worth'
p3280
atp3281
Rp3282
s.