ccollections
defaultdict
p0
(c__main__
dd
p1
tp2
Rp3
I2
g0
(c__builtin__
float
p4
tp5
Rp6
I1
F0.5
ssI3
g0
(g4
tp7
Rp8
I1
F0.5
sI2
F0.5
ssI4
g0
(g4
tp9
Rp10
I0
F0.5
ssI5
g0
(g4
tp11
Rp12
I1
F0.5
ssI6
g0
(g4
tp13
Rp14
I1
F0.5
sI5
F0.5
ss.