ccollections
defaultdict
p0
(c__main__
dd
p1
tp2
Rp3
I1
g0
(c__builtin__
float
p4
tp5
Rp6
I0
F0.004830917874396135
ssI2
g0
(g4
tp7
Rp8
I0
F0.026570048309178744
sI1
F0.01932367149758454
ssI3
g0
(g4
tp9
Rp10
I0
F0.014492753623188406
sI1
F0.030193236714975844
sI2
F0.01932367149758454
ssI4
g0
(g4
tp11
Rp12
I0
F0.012077294685990338
sI1
F0.025362318840579712
sI2
F0.03743961352657005
sI3
F0.010869565217391304
ssI5
g0
(g4
tp13
Rp14
I0
F0.013285024154589372
sI1
F0.027777777777777776
sI2
F0.03743961352657005
sI3
F0.036231884057971016
sI4
F0.027777777777777776
ssI6
g0
(g4
tp15
Rp16
I0
F0.01570048309178744
sI1
F0.014492753623188406
sI2
F0.030193236714975844
sI3
F0.01932367149758454
sI4
F0.025362318840579712
sI5
F0.010869565217391304
ssI7
g0
(g4
tp17
Rp18
I0
F0.012077294685990338
sI1
F0.021739130434782608
sI2
F0.01932367149758454
sI3
F0.027777777777777776
sI4
F0.022946859903381644
sI5
F0.026570048309178744
sI6
F0.00966183574879227
ssI8
g0
(g4
tp19
Rp20
I0
F0.020531400966183576
sI1
F0.01932367149758454
sI2
F0.020531400966183576
sI3
F0.025362318840579712
sI4
F0.016908212560386472
sI5
F0.01570048309178744
sI6
F0.014492753623188406
sI7
F0.008454106280193236
ssI9
g0
(g4
tp21
Rp22
I0
F0.012077294685990338
sI1
F0.018115942028985508
sI2
F0.014492753623188406
sI3
F0.014492753623188406
sI4
F0.018115942028985508
sI5
F0.014492753623188406
sI6
F0.007246376811594203
sI7
F0.016908212560386472
sI8
F0.00966183574879227
ssI10
g0
(g4
tp23
Rp24
I0
F0.010869565217391304
sI1
F0.012077294685990338
sI2
F0.013285024154589372
sI3
F0.013285024154589372
sI4
F0.016908212560386472
sI5
F0.016908212560386472
sI6
F0.00966183574879227
sI7
F0.010869565217391304
sI8
F0.014492753623188406
sI9
F0.010869565217391304
ssI11
g0
(g4
tp25
Rp26
I0
F0.0036231884057971015
sI1
F0.008454106280193236
sI2
F0.00966183574879227
sI3
F0.008454106280193236
sI4
F0.004830917874396135
sI5
F0.004830917874396135
sI6
F0.007246376811594203
sI7
F0.007246376811594203
sI8
F0.014492753623188406
sI9
F0.006038647342995169
sI10
F0.007246376811594203
ssI12
g0
(g4
tp27
Rp28
I0
F0.006038647342995169
sI1
F0.006038647342995169
sI2
F0.012077294685990338
sI3
F0.008454106280193236
sI4
F0.0036231884057971015
sI5
F0.0036231884057971015
sI6
F0.0036231884057971015
sI7
F0.008454106280193236
sI8
F0.006038647342995169
sI9
F0.008454106280193236
sI10
F0.007246376811594203
sI11
F0.006038647342995169
ssI13
g0
(g4
tp29
Rp30
I0
F0.006038647342995169
sI1
F0.00966183574879227
sI2
F0.00966183574879227
sI3
F0.007246376811594203
sI4
F0.004830917874396135
sI5
F0.00966183574879227
sI6
F0.004830917874396135
sI7
F0.004830917874396135
sI8
F0.0036231884057971015
sI9
F0.007246376811594203
sI10
F0.006038647342995169
sI11
F0.004830917874396135
sI12
F0.0036231884057971015
ssI14
g0
(g4
tp31
Rp32
I1
F0.0036231884057971015
sI2
F0.004830917874396135
sI3
F0.0024154589371980675
sI4
F0.004830917874396135
sI5
F0.0036231884057971015
sI6
F0.0024154589371980675
sI7
F0.0024154589371980675
sI8
F0.0036231884057971015
sI9
F0.0012077294685990338
sI11
F0.0024154589371980675
sI12
F0.006038647342995169
sI13
F0.0024154589371980675
ssI15
g0
(g4
tp33
Rp34
I0
F0.0012077294685990338
sI1
F0.0024154589371980675
sI2
F0.0012077294685990338
sI3
F0.0024154589371980675
sI4
F0.0012077294685990338
sI5
F0.0012077294685990338
sI6
F0.0012077294685990338
sI7
F0.0036231884057971015
sI9
F0.0012077294685990338
sI10
F0.0036231884057971015
sI11
F0.0012077294685990338
sI12
F0.0024154589371980675
sI13
F0.006038647342995169
sI14
F0.0012077294685990338
ssI16
g0
(g4
tp35
Rp36
I1
F0.0012077294685990338
sI3
F0.0012077294685990338
sI10
F0.0012077294685990338
sI12
F0.0012077294685990338
sI13
F0.0012077294685990338
sI14
F0.0012077294685990338
ssI17
g0
(g4
tp37
Rp38
I9
F0.0012077294685990338
sI12
F0.0012077294685990338
sI5
F0.0012077294685990338
sI7
F0.0012077294685990338
ssI18
g0
(g4
tp39
Rp40
I9
F0.0012077294685990338
sI2
F0.0012077294685990338
sI12
F0.0012077294685990338
ssI19
g0
(g4
tp41
Rp42
I9
F0.0012077294685990338
sI18
F0.0012077294685990338
sI6
F0.0012077294685990338
sI17
F0.0012077294685990338
ssI20
g0
(g4
tp43
Rp44
I15
F0.0012077294685990338
sI3
F0.0012077294685990338
sI14
F0.0012077294685990338
sI6
F0.0012077294685990338
sI7
F0.0024154589371980675
ssI21
g0
(g4
tp45
Rp46
I4
F0.0012077294685990338
ssI22
g0
(g4
tp47
Rp48
I15
F0.0012077294685990338
sI3
F0.0012077294685990338
sI20
F0.0012077294685990338
sI7
F0.0012077294685990338
ssI24
g0
(g4
tp49
Rp50
I15
F0.0012077294685990338
sI3
F0.0012077294685990338
sI20
F0.0012077294685990338
sI22
F0.0012077294685990338
sI7
F0.0012077294685990338
ssI26
g0
(g4
tp51
Rp52
I4
F0.0012077294685990338
sI21
F0.0012077294685990338
ssI28
g0
(g4
tp53
Rp54
I19
F0.0012077294685990338
ss.