ccollections
defaultdict
p0
(c__main__
dd
p1
tp2
Rp3
I1
g0
(c__builtin__
float
p4
tp5
Rp6
I0
F0.004819277108433735
ssI2
g0
(g4
tp7
Rp8
I0
F0.01927710843373494
sI1
F0.01927710843373494
ssI3
g0
(g4
tp9
Rp10
I0
F0.014457831325301205
sI1
F0.02650602409638554
sI2
F0.016867469879518072
ssI4
g0
(g4
tp11
Rp12
I0
F0.014457831325301205
sI1
F0.01927710843373494
sI2
F0.03855421686746988
sI3
F0.007228915662650603
ssI5
g0
(g4
tp13
Rp14
I0
F0.012048192771084338
sI1
F0.01927710843373494
sI2
F0.03614457831325301
sI3
F0.05783132530120482
sI4
F0.01927710843373494
ssI6
g0
(g4
tp15
Rp16
I0
F0.02650602409638554
sI1
F0.016867469879518072
sI2
F0.03855421686746988
sI3
F0.02891566265060241
sI4
F0.02891566265060241
sI5
F0.012048192771084338
ssI7
g0
(g4
tp17
Rp18
I0
F0.01927710843373494
sI1
F0.021686746987951807
sI2
F0.024096385542168676
sI3
F0.03614457831325301
sI4
F0.02891566265060241
sI5
F0.02650602409638554
sI6
F0.012048192771084338
ssI8
g0
(g4
tp19
Rp20
I0
F0.02891566265060241
sI1
F0.01927710843373494
sI2
F0.03614457831325301
sI3
F0.043373493975903614
sI4
F0.01927710843373494
sI5
F0.033734939759036145
sI6
F0.021686746987951807
sI7
F0.012048192771084338
ssI9
g0
(g4
tp21
Rp22
I0
F0.024096385542168676
sI1
F0.033734939759036145
sI2
F0.02650602409638554
sI3
F0.02891566265060241
sI4
F0.03614457831325301
sI5
F0.021686746987951807
sI6
F0.021686746987951807
sI7
F0.033734939759036145
sI8
F0.021686746987951807
ssI10
g0
(g4
tp23
Rp24
I0
F0.033734939759036145
sI1
F0.021686746987951807
sI2
F0.01927710843373494
sI3
F0.04096385542168675
sI4
F0.02891566265060241
sI5
F0.024096385542168676
sI6
F0.01927710843373494
sI7
F0.02650602409638554
sI8
F0.04096385542168675
sI9
F0.02650602409638554
ssI11
g0
(g4
tp25
Rp26
I0
F0.016867469879518072
sI1
F0.01927710843373494
sI2
F0.021686746987951807
sI3
F0.01927710843373494
sI4
F0.024096385542168676
sI5
F0.021686746987951807
sI6
F0.021686746987951807
sI7
F0.021686746987951807
sI8
F0.02650602409638554
sI9
F0.03614457831325301
sI10
F0.01927710843373494
ssI12
g0
(g4
tp27
Rp28
I0
F0.00963855421686747
sI1
F0.016867469879518072
sI2
F0.04096385542168675
sI3
F0.01927710843373494
sI4
F0.024096385542168676
sI5
F0.04578313253012048
sI6
F0.024096385542168676
sI7
F0.014457831325301205
sI8
F0.014457831325301205
sI9
F0.033734939759036145
sI10
F0.021686746987951807
sI11
F0.024096385542168676
ssI13
g0
(g4
tp29
Rp30
I0
F0.016867469879518072
sI1
F0.00963855421686747
sI2
F0.02891566265060241
sI3
F0.01927710843373494
sI4
F0.014457831325301205
sI5
F0.02650602409638554
sI6
F0.024096385542168676
sI7
F0.016867469879518072
sI8
F0.02891566265060241
sI9
F0.02650602409638554
sI10
F0.024096385542168676
sI11
F0.012048192771084338
sI12
F0.016867469879518072
ssI14
g0
(g4
tp31
Rp32
I0
F0.012048192771084338
sI1
F0.007228915662650603
sI2
F0.033734939759036145
sI3
F0.016867469879518072
sI4
F0.024096385542168676
sI5
F0.00963855421686747
sI6
F0.033734939759036145
sI7
F0.016867469879518072
sI8
F0.03855421686746988
sI9
F0.01927710843373494
sI10
F0.02650602409638554
sI11
F0.021686746987951807
sI12
F0.03614457831325301
sI13
F0.00963855421686747
ssI15
g0
(g4
tp33
Rp34
I0
F0.014457831325301205
sI1
F0.016867469879518072
sI2
F0.021686746987951807
sI3
F0.01927710843373494
sI4
F0.01927710843373494
sI5
F0.02650602409638554
sI6
F0.01927710843373494
sI7
F0.03614457831325301
sI8
F0.016867469879518072
sI9
F0.021686746987951807
sI10
F0.016867469879518072
sI11
F0.024096385542168676
sI12
F0.024096385542168676
sI13
F0.01927710843373494
sI14
F0.007228915662650603
ssI16
g0
(g4
tp35
Rp36
I0
F0.007228915662650603
sI1
F0.00963855421686747
sI2
F0.014457831325301205
sI3
F0.007228915662650603
sI4
F0.024096385542168676
sI5
F0.016867469879518072
sI6
F0.02891566265060241
sI7
F0.014457831325301205
sI8
F0.024096385542168676
sI9
F0.03132530120481928
sI10
F0.02650602409638554
sI11
F0.012048192771084338
sI12
F0.024096385542168676
sI13
F0.014457831325301205
sI14
F0.016867469879518072
sI15
F0.004819277108433735
ssI17
g0
(g4
tp37
Rp38
I0
F0.00963855421686747
sI1
F0.012048192771084338
sI2
F0.00963855421686747
sI3
F0.01927710843373494
sI4
F0.024096385542168676
sI5
F0.02650602409638554
sI6
F0.004819277108433735
sI7
F0.02650602409638554
sI8
F0.012048192771084338
sI9
F0.02891566265060241
sI10
F0.01927710843373494
sI11
F0.024096385542168676
sI12
F0.02650602409638554
sI13
F0.012048192771084338
sI14
F0.004819277108433735
sI15
F0.012048192771084338
sI16
F0.00963855421686747
ssI18
g0
(g4
tp39
Rp40
I0
F0.00963855421686747
sI1
F0.007228915662650603
sI2
F0.02891566265060241
sI3
F0.024096385542168676
sI4
F0.004819277108433735
sI5
F0.00963855421686747
sI6
F0.016867469879518072
sI7
F0.00963855421686747
sI8
F0.016867469879518072
sI9
F0.024096385542168676
sI10
F0.012048192771084338
sI11
F0.024096385542168676
sI12
F0.016867469879518072
sI13
F0.01927710843373494
sI14
F0.021686746987951807
sI15
F0.016867469879518072
sI16
F0.016867469879518072
sI17
F0.014457831325301205
ssI19
g0
(g4
tp41
Rp42
I0
F0.014457831325301205
sI1
F0.004819277108433735
sI2
F0.007228915662650603
sI3
F0.014457831325301205
sI4
F0.024096385542168676
sI5
F0.016867469879518072
sI6
F0.01927710843373494
sI7
F0.016867469879518072
sI8
F0.016867469879518072
sI9
F0.016867469879518072
sI10
F0.016867469879518072
sI11
F0.012048192771084338
sI12
F0.016867469879518072
sI13
F0.012048192771084338
sI14
F0.007228915662650603
sI15
F0.012048192771084338
sI16
F0.00963855421686747
sI17
F0.012048192771084338
sI18
F0.016867469879518072
ssI20
g0
(g4
tp43
Rp44
I0
F0.014457831325301205
sI1
F0.012048192771084338
sI2
F0.021686746987951807
sI3
F0.007228915662650603
sI4
F0.01927710843373494
sI5
F0.014457831325301205
sI6
F0.033734939759036145
sI7
F0.012048192771084338
sI8
F0.016867469879518072
sI9
F0.00963855421686747
sI10
F0.014457831325301205
sI11
F0.014457831325301205
sI12
F0.02650602409638554
sI13
F0.012048192771084338
sI14
F0.021686746987951807
sI15
F0.00963855421686747
sI17
F0.012048192771084338
sI18
F0.00963855421686747
sI19
F0.007228915662650603
ssI21
g0
(g4
tp45
Rp46
I0
F0.0024096385542168677
sI1
F0.0024096385542168677
sI2
F0.014457831325301205
sI3
F0.004819277108433735
sI4
F0.014457831325301205
sI5
F0.00963855421686747
sI6
F0.00963855421686747
sI7
F0.014457831325301205
sI8
F0.004819277108433735
sI9
F0.02891566265060241
sI10
F0.00963855421686747
sI11
F0.00963855421686747
sI12
F0.012048192771084338
sI13
F0.00963855421686747
sI14
F0.007228915662650603
sI15
F0.0024096385542168677
sI16
F0.021686746987951807
sI17
F0.00963855421686747
sI18
F0.014457831325301205
sI19
F0.0024096385542168677
sI20
F0.004819277108433735
ssI22
g0
(g4
tp47
Rp48
I1
F0.012048192771084338
sI2
F0.014457831325301205
sI3
F0.012048192771084338
sI4
F0.007228915662650603
sI5
F0.012048192771084338
sI6
F0.004819277108433735
sI7
F0.012048192771084338
sI8
F0.012048192771084338
sI9
F0.014457831325301205
sI10
F0.014457831325301205
sI11
F0.00963855421686747
sI12
F0.012048192771084338
sI13
F0.0024096385542168677
sI14
F0.004819277108433735
sI15
F0.00963855421686747
sI16
F0.00963855421686747
sI17
F0.016867469879518072
sI18
F0.012048192771084338
sI19
F0.007228915662650603
sI20
F0.014457831325301205
sI21
F0.016867469879518072
ssI23
g0
(g4
tp49
Rp50
I0
F0.0024096385542168677
sI1
F0.007228915662650603
sI2
F0.012048192771084338
sI3
F0.00963855421686747
sI4
F0.004819277108433735
sI6
F0.007228915662650603
sI7
F0.004819277108433735
sI8
F0.016867469879518072
sI9
F0.01927710843373494
sI10
F0.014457831325301205
sI11
F0.012048192771084338
sI12
F0.016867469879518072
sI13
F0.004819277108433735
sI14
F0.007228915662650603
sI15
F0.004819277108433735
sI16
F0.00963855421686747
sI17
F0.004819277108433735
sI18
F0.012048192771084338
sI19
F0.00963855421686747
sI20
F0.014457831325301205
sI21
F0.012048192771084338
sI22
F0.0024096385542168677
ssI24
g0
(g4
tp51
Rp52
I0
F0.0024096385542168677
sI1
F0.0024096385542168677
sI2
F0.004819277108433735
sI3
F0.00963855421686747
sI4
F0.0024096385542168677
sI5
F0.004819277108433735
sI7
F0.004819277108433735
sI8
F0.0024096385542168677
sI9
F0.0024096385542168677
sI10
F0.007228915662650603
sI11
F0.012048192771084338
sI12
F0.012048192771084338
sI13
F0.0024096385542168677
sI14
F0.007228915662650603
sI15
F0.012048192771084338
sI16
F0.007228915662650603
sI17
F0.004819277108433735
sI18
F0.004819277108433735
sI19
F0.007228915662650603
sI20
F0.007228915662650603
sI21
F0.0024096385542168677
sI22
F0.00963855421686747
ssI25
g0
(g4
tp53
Rp54
I0
F0.0024096385542168677
sI2
F0.0024096385542168677
sI3
F0.004819277108433735
sI4
F0.004819277108433735
sI5
F0.007228915662650603
sI6
F0.007228915662650603
sI7
F0.007228915662650603
sI8
F0.0024096385542168677
sI9
F0.004819277108433735
sI10
F0.004819277108433735
sI11
F0.00963855421686747
sI12
F0.004819277108433735
sI13
F0.007228915662650603
sI14
F0.00963855421686747
sI15
F0.004819277108433735
sI16
F0.0024096385542168677
sI17
F0.00963855421686747
sI18
F0.004819277108433735
sI19
F0.004819277108433735
sI20
F0.004819277108433735
sI21
F0.021686746987951807
sI23
F0.0024096385542168677
ssI26
g0
(g4
tp55
Rp56
I1
F0.0024096385542168677
sI2
F0.00963855421686747
sI3
F0.004819277108433735
sI4
F0.004819277108433735
sI5
F0.0024096385542168677
sI6
F0.00963855421686747
sI7
F0.007228915662650603
sI8
F0.0024096385542168677
sI9
F0.004819277108433735
sI11
F0.00963855421686747
sI12
F0.012048192771084338
sI13
F0.004819277108433735
sI14
F0.00963855421686747
sI15
F0.0024096385542168677
sI16
F0.007228915662650603
sI18
F0.007228915662650603
sI19
F0.0024096385542168677
sI20
F0.00963855421686747
sI21
F0.007228915662650603
sI22
F0.004819277108433735
sI23
F0.004819277108433735
sI24
F0.007228915662650603
sI25
F0.0024096385542168677
ssI27
g0
(g4
tp57
Rp58
I1
F0.0024096385542168677
sI2
F0.007228915662650603
sI3
F0.00963855421686747
sI5
F0.004819277108433735
sI7
F0.004819277108433735
sI8
F0.0024096385542168677
sI9
F0.0024096385542168677
sI10
F0.007228915662650603
sI11
F0.0024096385542168677
sI12
F0.0024096385542168677
sI13
F0.004819277108433735
sI14
F0.0024096385542168677
sI15
F0.0024096385542168677
sI17
F0.004819277108433735
sI18
F0.0024096385542168677
sI19
F0.0024096385542168677
sI25
F0.0024096385542168677
sI26
F0.0024096385542168677
ssI28
g0
(g4
tp59
Rp60
I5
F0.0024096385542168677
sI7
F0.0024096385542168677
sI10
F0.0024096385542168677
sI11
F0.007228915662650603
sI12
F0.004819277108433735
sI14
F0.004819277108433735
sI17
F0.004819277108433735
sI18
F0.0024096385542168677
sI19
F0.004819277108433735
sI20
F0.004819277108433735
sI21
F0.0024096385542168677
sI22
F0.0024096385542168677
sI23
F0.004819277108433735
sI25
F0.004819277108433735
sI26
F0.0024096385542168677
sI27
F0.0024096385542168677
ssI29
g0
(g4
tp61
Rp62
I0
F0.0024096385542168677
sI1
F0.0024096385542168677
sI3
F0.004819277108433735
sI7
F0.0024096385542168677
sI9
F0.0024096385542168677
sI11
F0.0024096385542168677
sI12
F0.0024096385542168677
sI14
F0.0024096385542168677
sI16
F0.0024096385542168677
sI17
F0.0024096385542168677
sI18
F0.0024096385542168677
sI20
F0.004819277108433735
sI23
F0.0024096385542168677
sI26
F0.0024096385542168677
sI27
F0.007228915662650603
sI28
F0.0024096385542168677
ssI30
g0
(g4
tp63
Rp64
I2
F0.0024096385542168677
sI7
F0.0024096385542168677
sI11
F0.007228915662650603
sI15
F0.0024096385542168677
sI18
F0.0024096385542168677
sI19
F0.0024096385542168677
sI21
F0.0024096385542168677
sI25
F0.0024096385542168677
sI27
F0.0024096385542168677
sI28
F0.0024096385542168677
ssI31
g0
(g4
tp65
Rp66
I1
F0.0024096385542168677
sI2
F0.0024096385542168677
sI9
F0.004819277108433735
sI12
F0.004819277108433735
sI19
F0.0024096385542168677
sI21
F0.0024096385542168677
sI23
F0.0024096385542168677
ssI32
g0
(g4
tp67
Rp68
I1
F0.004819277108433735
sI8
F0.0024096385542168677
sI14
F0.0024096385542168677
sI21
F0.0024096385542168677
sI23
F0.0024096385542168677
sI27
F0.0024096385542168677
sI29
F0.0024096385542168677
sI30
F0.0024096385542168677
ssI33
g0
(g4
tp69
Rp70
I1
F0.0024096385542168677
sI2
F0.0024096385542168677
sI5
F0.0024096385542168677
sI9
F0.0024096385542168677
sI12
F0.0024096385542168677
sI15
F0.0024096385542168677
sI17
F0.0024096385542168677
sI18
F0.0024096385542168677
sI19
F0.0024096385542168677
sI21
F0.0024096385542168677
sI23
F0.0024096385542168677
sI25
F0.0024096385542168677
sI28
F0.0024096385542168677
sI31
F0.0024096385542168677
ssI34
g0
(g4
tp71
Rp72
I11
F0.0024096385542168677
sI18
F0.0024096385542168677
sI19
F0.004819277108433735
sI28
F0.0024096385542168677
ssI35
g0
(g4
tp73
Rp74
I33
F0.0024096385542168677
sI5
F0.0024096385542168677
sI9
F0.0024096385542168677
sI12
F0.0024096385542168677
sI14
F0.0024096385542168677
sI17
F0.0024096385542168677
sI21
F0.004819277108433735
sI24
F0.0024096385542168677
sI26
F0.0024096385542168677
sI28
F0.0024096385542168677
ssI36
g0
(g4
tp75
Rp76
I4
F0.0024096385542168677
sI34
F0.0024096385542168677
sI12
F0.0024096385542168677
ssI37
g0
(g4
tp77
Rp78
I2
F0.0024096385542168677
sI3
F0.0024096385542168677
sI7
F0.0024096385542168677
sI8
F0.0024096385542168677
sI9
F0.004819277108433735
sI10
F0.0024096385542168677
sI11
F0.0024096385542168677
sI12
F0.0024096385542168677
ssI38
g0
(g4
tp79
Rp80
I34
F0.0024096385542168677
sI3
F0.0024096385542168677
sI36
F0.0024096385542168677
ssI39
g0
(g4
tp81
Rp82
I24
F0.0024096385542168677
sI3
F0.0024096385542168677
sI37
F0.0024096385542168677
ssI40
g0
(g4
tp83
Rp84
I9
F0.0024096385542168677
sI19
F0.0024096385542168677
ss.