ccollections
defaultdict
p0
(c__builtin__
set
p1
tp2
Rp3
VAA1NTS
p4
g1
((lp5
S'wants'
p6
atp7
Rp8
sVAH1NT
p9
g1
((lp10
S'front'
p11
atp12
Rp13
sVIH0Z
p14
g1
((lp15
S'is'
p16
aS'his'
p17
atp18
Rp19
sVIH2
p20
g1
((lp21
S'insecurities'
p22
atp23
Rp24
sVAO1SH
p25
g1
((lp26
S'wash'
p27
atp28
Rp29
sVIH0
p30
g1
((lp31
S'because'
p32
aS'relate'
p33
aS'into'
p34
aS'retire'
p35
aS'neglected'
p36
aS'imprint'
p37
aS'itself'
p38
aS'respect'
p39
aS'beyond'
p40
aS'integrity'
p41
aS'before'
p42
aS'rely'
p43
aS'believe'
p44
aS'dividing'
p45
aS'to'
p46
aS'indict'
p47
aS'defend'
p48
aS'mistakes'
p49
aS'eleven'
p50
aS'enough'
p51
aS'without'
p52
aS'recess'
p53
aS'eventually'
p54
aS'invite'
p55
aS'expose'
p56
aS'delayed'
p57
aS'reflect'
p58
aS'records'
p59
aS'intent'
p60
aS'decipher'
p61
aS'sixteen'
p62
aS'remember'
p63
aS'reflection'
p64
aS'excuse'
p65
aS'intimidate'
p66
aS'detroit'
p67
aS'record'
p68
aS'remain'
p69
aS'fictitious'
p70
aS'deposit'
p71
aS'invented'
p72
aS'become'
p73
aS'giuseppe'
p74
aS'mistake'
p75
atp76
Rp77
sVIH1
p78
g1
((lp79
S'bridges'
p80
aS'lifted'
p81
aS'videos'
p82
aS'imitate'
p83
aS'into'
p84
aS'mission'
p85
aS'twisted'
p86
aS'imprint'
p87
aS'single'
p88
aS'diddy'
p89
aS'fifty'
p90
aS'ninja'
p91
aS'sixes'
p92
aS"livin'"
p93
aS'bigger'
p94
aS'children'
p95
aS'really'
p96
aS'vixen'
p97
aS'little'
p98
aS'busy'
p99
aS'winter'
p100
aS'dishes'
p101
aS"gettin'"
p102
aS'thinking'
p103
aS'missing'
p104
aS'dinner'
p105
aS'brisbane'
p106
aS'nicki'
p107
aS'finger'
p108
aS'pretty'
p109
aS'milli'
p110
aS'biggest'
p111
aS'figure'
p112
aS'hidden'
p113
aS'millions'
p114
aS'issue'
p115
aS'city'
p116
aS'difficult'
p117
aS'finish'
p118
aS'ticking'
p119
aS'business'
p120
aS'sitting'
p121
aS'dividends'
p122
aS'bitches'
p123
aS'kitty'
p124
aS'different'
p125
aS'shitty'
p126
aS'finished'
p127
aS'kinda'
p128
aS'kitten'
p129
aS'dividend'
p130
aS'sixteen'
p131
aS'nickname'
p132
aS'minute'
p133
aS'women'
p134
aS'building'
p135
aS'million'
p136
aS'sister'
p137
aS'figured'
p138
aS'getting'
p139
aS'windows'
p140
aS'industry'
p141
aS'gifted'
p142
aS'chickens'
p143
aS"widow's"
p144
aS"thinkin'"
p145
aS'gimme'
p146
aS'tissue'
p147
aS'inches'
p148
aS'criticizing'
p149
aS'listen'
p150
aS'pillow'
p151
aS'vision'
p152
atp153
Rp154
sVIH0S
p155
g1
((lp156
S'this'
p157
atp158
Rp159
sVUW1NDZ
p160
g1
((lp161
S'wounds'
p162
atp163
Rp164
sVAH2
p165
g1
((lp166
S'understands'
p167
aS'understand'
p168
atp169
Rp170
sVIH0N
p171
g1
((lp172
S'been'
p173
atp174
Rp175
sVAH0
p176
g1
((lp177
S'control'
p178
aS'maclaren'
p179
aS'proposed'
p180
aS'confide'
p181
aS'abusive'
p182
aS'civilians'
p183
aS'neglected'
p184
aS'tonight'
p185
aS'connect'
p186
aS'another'
p187
aS'apologize'
p188
aS'spaghetti'
p189
aS'along'
p190
aS'again'
p191
aS'agendas'
p192
aS'allege'
p193
aS'away'
p194
aS'connection'
p195
aS'to'
p196
aS'compete'
p197
aS'appeal'
p198
aS'approach'
p199
aS'until'
p200
aS'today'
p201
aS'deposit'
p202
aS'a'
p203
aS'material'
p204
aS'unless'
p205
aS'promoters'
p206
aS'apparent'
p207
aS'about'
p208
aS'update'
p209
aS'reflect'
p210
aS'records'
p211
aS'competing'
p212
aS'alone'
p213
aS'machete'
p214
aS'magician'
p215
aS'kahuna'
p216
aS'chanel'
p217
aS'debated'
p218
aS'salute'
p219
aS'ago'
p220
aS'ungrateful'
p221
aS'protect'
p222
aS'reflection'
p223
aS'canadian'
p224
aS'assume'
p225
aS'mcqueen'
p226
aS'lewinsky'
p227
aS'record'
p228
aS'american'
p229
aS'suppose'
p230
aS'supposed'
p231
aS'position'
p232
aS'the'
p233
aS'support'
p234
atp235
Rp236
sVAH1
p237
g1
((lp238
S'fucking'
p239
aS'money'
p240
aS'wonderland'
p241
aS'somehow'
p242
aS"nothin'"
p243
aS"runnin'"
p244
aS'london'
p245
aS'something'
p246
aS'suckers'
p247
aS'touchdown'
p248
aS'rundown'
p249
aS'funny'
p250
aS'sundown'
p251
aS'other'
p252
aS'under'
p253
aS'public'
p254
aS'someone'
p255
aS'somebody'
p256
aS'bruckner'
p257
aS'sunny'
p258
aS'update'
p259
aS'uhh'
p260
aS'number'
p261
aS'jumping'
p262
aS'putting'
p263
aS'coming'
p264
aS'nothing'
p265
aS'cousin'
p266
aS'rucker'
p267
aS'cupcake'
p268
aS'butter'
p269
aS'couple'
p270
aS"wasn't"
p271
aS'study'
p272
aS'humble'
p273
aS'hungry'
p274
aS'lucky'
p275
aS'cutting'
p276
aS'mother'
p277
aS'the'
p278
aS'motherfuckers'
p279
aS'punchline'
p280
atp281
Rp282
sVAO1ST
p283
g1
((lp284
S'cost'
p285
aS'last'
p286
aS'lost'
p287
atp288
Rp289
sVAE1PS
p290
g1
((lp291
S'raps'
p292
atp293
Rp294
sVIH1NGKS
p295
g1
((lp296
S'drinks'
p297
atp298
Rp299
sVIH0F
p300
g1
((lp301
S'if'
p302
atp303
Rp304
sVIH0D
p305
g1
((lp306
S'did'
p307
aS'good'
p308
atp309
Rp310
sVUW1TH
p311
g1
((lp312
S'truth'
p313
atp314
Rp315
sVIH0M
p316
g1
((lp317
S'him'
p318
atp319
Rp320
sVAY1Z
p321
g1
((lp322
S'ties'
p323
aS'eyes'
p324
aS'size'
p325
aS'lies'
p326
atp327
Rp328
sVEH2
p329
g1
((lp330
S'beneficial'
p331
atp332
Rp333
sVAA1S
p334
g1
((lp335
S'floss'
p336
atp337
Rp338
sVEH0
p339
g1
((lp340
S'entitled'
p341
atp342
Rp343
sVEH1
p344
g1
((lp345
S'heavy'
p346
aS'bellamy'
p347
aS'seven'
p348
aS'married'
p349
aS'empire'
p350
aS'regulars'
p351
aS'bentley'
p352
aS'anybody'
p353
aS'ready'
p354
aS"tellin'"
p355
aS'breakfast'
p356
aS'any'
p357
aS'kevin'
p358
aS'envy'
p359
aS'perry'
p360
aS"there'll"
p361
aS'paris'
p362
aS'senseless'
p363
aS'everyday'
p364
aS'better'
p365
aS'everything'
p366
aS'aaron'
p367
aS'lemme'
p368
aS'ghetto'
p369
aS'ever'
p370
aS'texas'
p371
aS'belly'
p372
aS'website'
p373
aS'never'
p374
aS'parent'
p375
aS'deli'
p376
aS'felony'
p377
aS'welcome'
p378
aS'yesterday'
p379
aS'records'
p380
aS'dentist'
p381
aS'regular'
p382
aS'frenzy'
p383
aS'legendary'
p384
aS'wedding'
p385
aS'telling'
p386
aS'sexy'
p387
aS'legend'
p388
aS'present'
p389
aS'staring'
p390
aS'scary'
p391
aS'benches'
p392
aS'everytime'
p393
aS'setup'
p394
aS'getting'
p395
aS'jelly'
p396
aS'karan'
p397
aS'record'
p398
aS'peasant'
p399
aS'reckless'
p400
aS'cherish'
p401
aS'every'
p402
atp403
Rp404
sVAY1P
p405
g1
((lp406
S'pipe'
p407
aS'hype'
p408
aS'type'
p409
atp410
Rp411
sVAY1S
p412
g1
((lp413
S'ice'
p414
atp415
Rp416
sVAY1R
p417
g1
((lp418
S'wire'
p419
atp420
Rp421
sVAH0Z
p422
g1
((lp423
S'was'
p424
atp425
Rp426
sVAY1V
p427
g1
((lp428
S'live'
p429
aS'five'
p430
aS'drive'
p431
aS"i've"
p432
atp433
Rp434
sVEY1
p435
g1
((lp436
S'saying'
p437
aS'crazy'
p438
aS'angel'
p439
aS'wasting'
p440
aS'player'
p441
aS'say'
p442
aS'asian'
p443
aS'ay'
p444
aS'graceful'
p445
aS'skated'
p446
aS'ayo'
p447
aS'jay'
p448
aS'glacier'
p449
aS'pay'
p450
aS"takin'"
p451
aS're'
p452
aS'way'
p453
aS"playin'"
p454
aS'status'
p455
aS"sayin'"
p456
aS'play'
p457
aS'tasteful'
p458
aS'nature'
p459
aS'eighty'
p460
aS'stay'
p461
aS'regular'
p462
aS'they'
p463
aS'baby'
p464
aS'day'
p465
aS'a'
p466
aS'laser'
p467
aS'mayweather'
p468
aS'taking'
p469
aS'spaceship'
p470
aS'stadiums'
p471
aS'bey'
p472
aS'greatest'
p473
aS'faces'
p474
aS'breaker'
p475
aS'waited'
p476
atp477
Rp478
sVAY1K
p479
g1
((lp480
S'like'
p481
atp482
Rp483
sVIH1FTS
p484
g1
((lp485
S'gifts'
p486
atp487
Rp488
sVAY1M
p489
g1
((lp490
S"i'm"
p491
aS'time'
p492
atp493
Rp494
sVAY1L
p495
g1
((lp496
S"i'll"
p497
aS'while'
p498
aS'style'
p499
atp500
Rp501
sVAY1N
p502
g1
((lp503
S'shyne'
p504
aS'vine'
p505
aS'mine'
p506
aS'sign'
p507
atp508
Rp509
sVAH0N
p510
g1
((lp511
S'than'
p512
aS'been'
p513
aS'can'
p514
atp515
Rp516
sVAH0M
p517
g1
((lp518
S"i'm"
p519
aS'them'
p520
aS"'em"
p521
atp522
Rp523
sVAA1R
p524
g1
((lp525
S'car'
p526
aS'are'
p527
aS'our'
p528
atp529
Rp530
sVAY1
p531
g1
((lp532
S'eyelid'
p533
aS'high'
p534
aS'ay'
p535
aS'liking'
p536
aS'smiling'
p537
aS'lie'
p538
aS'eye'
p539
aS'aye'
p540
aS'flying'
p541
aS'hybrid'
p542
aS'writing'
p543
aS'rivals'
p544
aS'icy'
p545
aS'miles'
p546
aS"i'mma"
p547
aS'linebacker'
p548
aS'rider'
p549
aS'buy'
p550
aS'crying'
p551
aS'python'
p552
aS'fireworks'
p553
aS'diet'
p554
aS'lighter'
p555
aS'rifle'
p556
aS'highest'
p557
aS'why'
p558
aS'tri-state'
p559
aS'bible'
p560
aS'fighter'
p561
aS'island'
p562
aS'violence'
p563
aS'michael'
p564
aS'try'
p565
aS'bae'
p566
aS'die'
p567
aS'stylish'
p568
aS'highland'
p569
aS'my'
p570
aS'lying'
p571
atp572
Rp573
sVAY1D
p574
g1
((lp575
S'slide'
p576
aS"i'd"
p577
aS'ride'
p578
aS'tied'
p579
atp580
Rp581
sVAY1F
p582
g1
((lp583
S'life'
p584
aS'knife'
p585
aS'wife'
p586
atp587
Rp588
sVAO1D
p589
g1
((lp590
S'fraud'
p591
atp592
Rp593
sVAH1T
p594
g1
((lp595
S'what'
p596
aS'cut'
p597
aS'but'
p598
aS'butt'
p599
atp600
Rp601
sVAH0T
p602
g1
((lp603
S'that'
p604
atp605
Rp606
sVIY1TS
p607
g1
((lp608
S'sheets'
p609
aS'seats'
p610
atp611
Rp612
sVIH1Z
p613
g1
((lp614
S'is'
p615
aS'his'
p616
aS'quiz'
p617
atp618
Rp619
sVIH1T
p620
g1
((lp621
S'hit'
p622
aS'fit'
p623
aS'get'
p624
aS'sit'
p625
aS'it'
p626
aS'lit'
p627
aS'shit'
p628
atp629
Rp630
sVIH0ST
p631
g1
((lp632
S'just'
p633
atp634
Rp635
sVIH1V
p636
g1
((lp637
S'live'
p638
aS'give'
p639
atp640
Rp641
sVEH1NT
p642
g1
((lp643
S'meant'
p644
aS'rent'
p645
atp646
Rp647
sVIH1P
p648
g1
((lp649
S'dip'
p650
aS'whip'
p651
atp652
Rp653
sVAW1
p654
g1
((lp655
S'counting'
p656
aS'thousand'
p657
aS'bow'
p658
aS'how'
p659
aS'tower'
p660
aS'now'
p661
aS'hourglass'
p662
atp663
Rp664
sVIH1S
p665
g1
((lp666
S'this'
p667
aS'diss'
p668
aS'miss'
p669
aS'kiss'
p670
atp671
Rp672
sVIH1L
p673
g1
((lp674
S'thrill'
p675
aS'lil'
p676
aS'bill'
p677
aS'kill'
p678
aS"'til"
p679
aS'mil'
p680
aS'still'
p681
aS'pill'
p682
aS'chill'
p683
atp684
Rp685
sVIH1M
p686
g1
((lp687
S'him'
p688
atp689
Rp690
sVIH1N
p691
g1
((lp692
S'when'
p693
aS'been'
p694
atp695
Rp696
sS'AE1 M'
p697
g1
((lp698
S'am'
p699
atp700
Rp701
sVAH1CH
p702
g1
((lp703
S'touch'
p704
aS'clutch'
p705
aS'much'
p706
atp707
Rp708
sVAO2
p709
g1
((lp710
S'automobile'
p711
aS'automatic'
p712
atp713
Rp714
sVAO1
p715
g1
((lp716
S'talking'
p717
aS'shorter'
p718
aS'ballpoint'
p719
aS'law'
p720
aS'daughter'
p721
aS"talkin'"
p722
aS'always'
p723
aS'slaughter'
p724
aS'calling'
p725
aS'flawless'
p726
aS'also'
p727
aS'quarter'
p728
aS'causing'
p729
aS'automobile'
p730
aS'ordered'
p731
aS'wanted'
p732
aS'saw'
p733
aS'order'
p734
atp735
Rp736
sVIH1K
p737
g1
((lp738
S'dick'
p739
aS'mic'
p740
aS'pic'
p741
aS'slick'
p742
aS'stick'
p743
aS'sick'
p744
aS'quick'
p745
aS'kick'
p746
atp747
Rp748
sVIH1D
p749
g1
((lp750
S'did'
p751
aS'kid'
p752
atp753
Rp754
sVAE1NT
p755
g1
((lp756
S"can't"
p757
atp758
Rp759
sVIH1F
p760
g1
((lp761
S'if'
p762
atp763
Rp764
sVIH1G
p765
g1
((lp766
S'big'
p767
atp768
Rp769
sVIH1B
p770
g1
((lp771
S'crib'
p772
atp773
Rp774
sVEH1RZ
p775
g1
((lp776
S'tears'
p777
atp778
Rp779
sVAE1SK
p780
g1
((lp781
S'ask'
p782
aS'mask'
p783
atp784
Rp785
sVAO1Z
p786
g1
((lp787
S'cause'
p788
aS'claus'
p789
aS'was'
p790
atp791
Rp792
sVAH1V
p793
g1
((lp794
S'love'
p795
atp796
Rp797
sVAE1SH
p798
g1
((lp799
S'cash'
p800
atp801
Rp802
sVAH1P
p803
g1
((lp804
S'up'
p805
atp806
Rp807
sS'AH1 S'
p808
g1
((lp809
S'us'
p810
atp811
Rp812
sVAH1S
p813
g1
((lp814
S'plus'
p815
atp816
Rp817
sVAO1S
p818
g1
((lp819
S'toss'
p820
aS'sauce'
p821
aS'loss'
p822
atp823
Rp824
sVAO1R
p825
g1
((lp826
S'for'
p827
aS'floor'
p828
aS'your'
p829
aS'four'
p830
aS'or'
p831
aS'more'
p832
atp833
Rp834
sVAO1P
p835
g1
((lp836
S'top'
p837
aS'drop'
p838
atp839
Rp840
sVAO1LZ
p841
g1
((lp842
S'balls'
p843
atp844
Rp845
sVAW1N
p846
g1
((lp847
S'down'
p848
atp849
Rp850
sVAH1Z
p851
g1
((lp852
S'was'
p853
aS'buzz'
p854
atp855
Rp856
sVAO1T
p857
g1
((lp858
S'thought'
p859
aS'brought'
p860
aS'caught'
p861
aS'lot'
p862
atp863
Rp864
sVAH1D
p865
g1
((lp866
S'blood'
p867
atp868
Rp869
sVAE1JH
p870
g1
((lp871
S'badge'
p872
atp873
Rp874
sVAH1F
p875
g1
((lp876
S'puff'
p877
aS'rough'
p878
aS'tough'
p879
atp880
Rp881
sS'N IH1'
p882
g1
((lp883
S'nigga'
p884
atp885
Rp886
sVAO1N
p887
g1
((lp888
S'on'
p889
aS'dawn'
p890
aS'gone'
p891
atp892
Rp893
sVAH1B
p894
g1
((lp895
S'club'
p896
atp897
Rp898
sVAW1T
p899
g1
((lp900
S"'bout"
p901
aS'bout'
p902
aS'route'
p903
aS'out'
p904
atp905
Rp906
sVAH1M
p907
g1
((lp908
S'come'
p909
aS'dumb'
p910
aS'some'
p911
atp912
Rp913
sVAH1N
p914
g1
((lp915
S'run'
p916
aS'gun'
p917
aS'son'
p918
aS'won'
p919
aS'done'
p920
aS'fun'
p921
aS'one'
p922
atp923
Rp924
sVAA1RDZ
p925
g1
((lp926
S'cards'
p927
atp928
Rp929
sVOW1
p930
g1
((lp931
S'hoping'
p932
aS'show'
p933
aS'throwing'
p934
aS'over'
p935
aS'boney'
p936
aS'go'
p937
aS'open'
p938
aS'blow'
p939
aS'slow'
p940
aS'no'
p941
aS'snowing'
p942
aS'snow'
p943
aS'showtime'
p944
aS'only'
p945
aS'going'
p946
aS'low'
p947
aS'poet'
p948
aS'notice'
p949
aS'oceans'
p950
aS'yo'
p951
aS'though'
p952
aS'poster'
p953
aS'showing'
p954
aS'nobody'
p955
aS'broken'
p956
aS'moment'
p957
aS'know'
p958
aS'boeing'
p959
aS'throw'
p960
aS'nowhere'
p961
aS'ok'
p962
aS'motorcycles'
p963
aS'oh'
p964
aS'tokyo'
p965
aS'flow'
p966
aS'bow'
p967
aS"goin'"
p968
aS'so'
p969
aS'coco'
p970
aS'ho'
p971
atp972
Rp973
sVAO1F
p974
g1
((lp975
S'off'
p976
atp977
Rp978
sVAE1ST
p979
g1
((lp980
S'last'
p981
aS'asked'
p982
aS'gassed'
p983
atp984
Rp985
sVOY1Z
p986
g1
((lp987
S'boys'
p988
aS'noise'
p989
aS'toys'
p990
atp991
Rp992
sVUH1SH
p993
g1
((lp994
S'push'
p995
atp996
Rp997
sVIH1GZ
p998
g1
((lp999
S'pigs'
p1000
atp1001
Rp1002
sVOW1TH
p1003
g1
((lp1004
S'both'
p1005
atp1006
Rp1007
sVAH1SH
p1008
g1
((lp1009
S'rush'
p1010
atp1011
Rp1012
sVUW1
p1013
g1
((lp1014
S'cuba'
p1015
aS'shooter'
p1016
aS'rumors'
p1017
aS'to'
p1018
aS'union'
p1019
aS'movie'
p1020
aS'doing'
p1021
aS'who'
p1022
aS'two'
p1023
aS"doin'"
p1024
aS'stupid'
p1025
aS'through'
p1026
aS'too'
p1027
aS'beautician'
p1028
aS'new'
p1029
aS'you'
p1030
aS'shootouts'
p1031
aS'shoe'
p1032
atp1033
Rp1034
sVAH1K
p1035
g1
((lp1036
S'suck'
p1037
aS'truck'
p1038
aS'fuck'
p1039
aS'duck'
p1040
atp1041
Rp1042
sVUW1V
p1043
g1
((lp1044
S'move'
p1045
atp1046
Rp1047
sVIH1NGK
p1048
g1
((lp1049
S'think'
p1050
atp1051
Rp1052
sVIH1PS
p1053
g1
((lp1054
S'whips'
p1055
aS'lips'
p1056
aS'trips'
p1057
atp1058
Rp1059
sVUH1LD
p1060
g1
((lp1061
S'pulled'
p1062
atp1063
Rp1064
sVAY1LD
p1065
g1
((lp1066
S'child'
p1067
atp1068
Rp1069
sVUH2
p1070
g1
((lp1071
S'european'
p1072
atp1073
Rp1074
sVOY1
p1075
g1
((lp1076
S'boy'
p1077
aS'troy'
p1078
aS'toy'
p1079
atp1080
Rp1081
sVUH0
p1082
g1
((lp1083
S'muhammad'
p1084
atp1085
Rp1086
sVUH1
p1087
g1
((lp1088
S'putting'
p1089
aS"lookin'"
p1090
aS'pushing'
p1091
aS'gooder'
p1092
aS'pussy'
p1093
aS"should've"
p1094
aS'football'
p1095
aS'looking'
p1096
aS'pulling'
p1097
aS"couldn't"
p1098
aS"would've"
p1099
atp1100
Rp1101
sVAE1NGK
p1102
g1
((lp1103
S'thank'
p1104
aS'bank'
p1105
aS'blank'
p1106
atp1107
Rp1108
sVAE1CH
p1109
g1
((lp1110
S'catch'
p1111
atp1112
Rp1113
sS'B AE1'
p1114
g1
((lp1115
S'baddest'
p1116
atp1117
Rp1118
sVAE1TS
p1119
g1
((lp1120
S'hats'
p1121
aS"that's"
p1122
atp1123
Rp1124
sVEY1F
p1125
g1
((lp1126
S'safe'
p1127
atp1128
Rp1129
sVAH1NZ
p1130
g1
((lp1131
S'sons'
p1132
aS'ones'
p1133
atp1134
Rp1135
sVAW1R
p1136
g1
((lp1137
S'our'
p1138
aS'hour'
p1139
atp1140
Rp1141
sVUW1DZ
p1142
g1
((lp1143
S'dudes'
p1144
atp1145
Rp1146
sVAE1F
p1147
g1
((lp1148
S'half'
p1149
atp1150
Rp1151
sVIY0
p1152
g1
((lp1153
S'eventually'
p1154
aS'rely'
p1155
aS'pretend'
p1156
aS'remember'
p1157
aS'be'
p1158
aS'relate'
p1159
aS'retire'
p1160
aS'remain'
p1161
aS'enough'
p1162
aS'present'
p1163
aS'respect'
p1164
aS'the'
p1165
aS'reinvent'
p1166
aS'rekindle'
p1167
aS'preschool'
p1168
atp1169
Rp1170
sVER1D
p1171
g1
((lp1172
S'heard'
p1173
atp1174
Rp1175
sVAH1G
p1176
g1
((lp1177
S'drug'
p1178
atp1179
Rp1180
sVAH1NG
p1181
g1
((lp1182
S'young'
p1183
atp1184
Rp1185
sVEH1TH
p1186
g1
((lp1187
S'death'
p1188
atp1189
Rp1190
sVEH1JH
p1191
g1
((lp1192
S'sledge'
p1193
aS'wedge'
p1194
aS'pledge'
p1195
aS'ledge'
p1196
atp1197
Rp1198
sVIH1NG
p1199
g1
((lp1200
S'king'
p1201
aS'string'
p1202
aS'bring'
p1203
aS'spring'
p1204
aS'thing'
p1205
aS'sing'
p1206
aS'ring'
p1207
atp1208
Rp1209
sVAA1RM
p1210
g1
((lp1211
S'arm'
p1212
atp1213
Rp1214
sVIH1FT
p1215
g1
((lp1216
S'gift'
p1217
atp1218
Rp1219
sVOY1NZ
p1220
g1
((lp1221
S'coins'
p1222
atp1223
Rp1224
sVAO1RK
p1225
g1
((lp1226
S'york'
p1227
atp1228
Rp1229
sVAO2L
p1230
g1
((lp1231
S"y'all"
p1232
atp1233
Rp1234
sVAO1L
p1235
g1
((lp1236
S'all'
p1237
aS'stall'
p1238
aS'call'
p1239
aS'ball'
p1240
aS'fall'
p1241
atp1242
Rp1243
sVIH1FS
p1244
g1
((lp1245
S'gifts'
p1246
atp1247
Rp1248
sVAE1NDZ
p1249
g1
((lp1250
S'hands'
p1251
atp1252
Rp1253
sVAA1NT
p1254
g1
((lp1255
S'want'
p1256
atp1257
Rp1258
sVAW1D
p1259
g1
((lp1260
S'loud'
p1261
atp1262
Rp1263
sVIH1NT
p1264
g1
((lp1265
S"didn't"
p1266
atp1267
Rp1268
sVIH1NS
p1269
g1
((lp1270
S'since'
p1271
atp1272
Rp1273
sVUH1L
p1274
g1
((lp1275
S'pull'
p1276
aS'full'
p1277
atp1278
Rp1279
sVAO1RZ
p1280
g1
((lp1281
S'whores'
p1282
aS'doors'
p1283
atp1284
Rp1285
sVAH1KT
p1286
g1
((lp1287
S'fucked'
p1288
aS'duct'
p1289
aS'sucked'
p1290
atp1291
Rp1292
sVUW1LZ
p1293
g1
((lp1294
S'tools'
p1295
atp1296
Rp1297
sVAY1MZ
p1298
g1
((lp1299
S'times'
p1300
atp1301
Rp1302
sVOY1S
p1303
g1
((lp1304
S'royce'
p1305
atp1306
Rp1307
sVER1L
p1308
g1
((lp1309
S'girl'
p1310
atp1311
Rp1312
sVIY1NZ
p1313
g1
((lp1314
S'queens'
p1315
atp1316
Rp1317
sVIH1KS
p1318
g1
((lp1319
S'bricks'
p1320
aS'mix'
p1321
aS'six'
p1322
aS'picks'
p1323
aS'knicks'
p1324
atp1325
Rp1326
sVAE1
p1327
g1
((lp1328
S'flammable'
p1329
aS'rabbit'
p1330
aS'family'
p1331
aS'classic'
p1332
aS'planking'
p1333
aS'national'
p1334
aS'smashing'
p1335
aS'yeah'
p1336
aS'alice'
p1337
aS'lavish'
p1338
aS'planning'
p1339
aS'analyzing'
p1340
aS'hammer'
p1341
aS'panel'
p1342
aS'balcony'
p1343
aS'happens'
p1344
aS'daffodils'
p1345
aS'palace'
p1346
aS'baggage'
p1347
aS'paris'
p1348
aS'anthem'
p1349
aS'habit'
p1350
aS'hangover'
p1351
aS'cali'
p1352
aS'acting'
p1353
aS'panties'
p1354
aS'fantasizing'
p1355
aS'happy'
p1356
aS'status'
p1357
aS'album'
p1358
aS'banging'
p1359
aS'rappers'
p1360
aS'classy'
p1361
aS'matters'
p1362
aS'santa'
p1363
aS'tackle'
p1364
aS"that'll"
p1365
aS'albums'
p1366
aS'talented'
p1367
aS'fatter'
p1368
aS'balance'
p1369
aS'magic'
p1370
aS'salad'
p1371
aS'mavericks'
p1372
aS'rapper'
p1373
aS'lasted'
p1374
aS'planet'
p1375
aS'matter'
p1376
aS'bracket'
p1377
aS'laughing'
p1378
aS'african'
p1379
aS'daddy'
p1380
aS'aggy'
p1381
atp1382
Rp1383
sS'IH1 L'
p1384
g1
((lp1385
S'illest'
p1386
atp1387
Rp1388
sVAH1MP
p1389
g1
((lp1390
S'jump'
p1391
atp1392
Rp1393
sVAE2
p1394
g1
((lp1395
S'alexander'
p1396
atp1397
Rp1398
sVAE1K
p1399
g1
((lp1400
S'wack'
p1401
aS'back'
p1402
aS'mac'
p1403
aS'black'
p1404
aS'jack'
p1405
aS'crack'
p1406
atp1407
Rp1408
sVIH1BZ
p1409
g1
((lp1410
S'cribs'
p1411
atp1412
Rp1413
sVAA1CHT
p1414
g1
((lp1415
S'watched'
p1416
atp1417
Rp1418
sVUH1R
p1419
g1
((lp1420
S"you're"
p1421
aS'tour'
p1422
aS'sure'
p1423
aS'your'
p1424
atp1425
Rp1426
sVUH1T
p1427
g1
((lp1428
S'put'
p1429
atp1430
Rp1431
sVAY1TS
p1432
g1
((lp1433
S'nights'
p1434
atp1435
Rp1436
sVEY1MD
p1437
g1
((lp1438
S'named'
p1439
atp1440
Rp1441
sVAE1B
p1442
g1
((lp1443
S'grab'
p1444
aS'jab'
p1445
atp1446
Rp1447
sVUH1K
p1448
g1
((lp1449
S'book'
p1450
aS'look'
p1451
aS'took'
p1452
atp1453
Rp1454
sVUH1KT
p1455
g1
((lp1456
S'looked'
p1457
atp1458
Rp1459
sVEH1ST
p1460
g1
((lp1461
S'test'
p1462
aS'dressed'
p1463
aS'vest'
p1464
aS'best'
p1465
atp1466
Rp1467
sVAW1S
p1468
g1
((lp1469
S'house'
p1470
atp1471
Rp1472
sVOW1P
p1473
g1
((lp1474
S'dope'
p1475
aS'hope'
p1476
atp1477
Rp1478
sVOW1ST
p1479
g1
((lp1480
S'most'
p1481
atp1482
Rp1483
sVUH1D
p1484
g1
((lp1485
S'good'
p1486
aS"you'd"
p1487
aS'would'
p1488
aS'could'
p1489
aS'should'
p1490
aS'hood'
p1491
atp1492
Rp1493
sVER1LD
p1494
g1
((lp1495
S'world'
p1496
atp1497
Rp1498
sVIH1RZ
p1499
g1
((lp1500
S'tears'
p1501
aS'years'
p1502
atp1503
Rp1504
sVOW1Z
p1505
g1
((lp1506
S'hoes'
p1507
atp1508
Rp1509
sVAY1NZ
p1510
g1
((lp1511
S'lines'
p1512
atp1513
Rp1514
sVEY1Z
p1515
g1
((lp1516
S'ways'
p1517
aS'days'
p1518
atp1519
Rp1520
sVEY1T
p1521
g1
((lp1522
S'ate'
p1523
aS'straight'
p1524
aS'late'
p1525
aS'skate'
p1526
aS'eight'
p1527
aS'hate'
p1528
aS'kate'
p1529
atp1530
Rp1531
sVOW1S
p1532
g1
((lp1533
S'most'
p1534
atp1535
Rp1536
sVEY1P
p1537
g1
((lp1538
S'tape'
p1539
atp1540
Rp1541
sVEY1S
p1542
g1
((lp1543
S'ace'
p1544
aS'face'
p1545
atp1546
Rp1547
sVAY1T
p1548
g1
((lp1549
S'write'
p1550
aS'tight'
p1551
aS'right'
p1552
aS'might'
p1553
aS'night'
p1554
atp1555
Rp1556
sVEY1M
p1557
g1
((lp1558
S'name'
p1559
aS'same'
p1560
aS'aim'
p1561
aS'game'
p1562
aS'fame'
p1563
aS'came'
p1564
atp1565
Rp1566
sVOW1K
p1567
g1
((lp1568
S'soak'
p1569
atp1570
Rp1571
sVEY1N
p1572
g1
((lp1573
S'brain'
p1574
aS'stain'
p1575
aS'wayne'
p1576
atp1577
Rp1578
sVOW1M
p1579
g1
((lp1580
S'home'
p1581
atp1582
Rp1583
sVOW1L
p1584
g1
((lp1585
S'roll'
p1586
aS'pole'
p1587
aS'whole'
p1588
aS'soul'
p1589
aS'toll'
p1590
atp1591
Rp1592
sVEY1K
p1593
g1
((lp1594
S'sake'
p1595
aS'make'
p1596
aS'drake'
p1597
aS'break'
p1598
aS'brake'
p1599
aS'take'
p1600
aS'fake'
p1601
atp1602
Rp1603
sVOW1N
p1604
g1
((lp1605
S'own'
p1606
aS"don't"
p1607
atp1608
Rp1609
sVAY1ND
p1610
g1
((lp1611
S'mind'
p1612
atp1613
Rp1614
sVEY1D
p1615
g1
((lp1616
S'shade'
p1617
aS'made'
p1618
aS'paid'
p1619
aS'spade'
p1620
atp1621
Rp1622
sVAY1NG
p1623
g1
((lp1624
S'trying'
p1625
atp1626
Rp1627
sVAA1KS
p1628
g1
((lp1629
S'box'
p1630
atp1631
Rp1632
sVOW1D
p1633
g1
((lp1634
S'mode'
p1635
aS'road'
p1636
atp1637
Rp1638
sVAE1M
p1639
g1
((lp1640
S'damn'
p1641
atp1642
Rp1643
sVAE1L
p1644
g1
((lp1645
S'dal'
p1646
atp1647
Rp1648
sVAE1N
p1649
g1
((lp1650
S'ran'
p1651
aS'fan'
p1652
aS'than'
p1653
aS'can'
p1654
aS'man'
p1655
atp1656
Rp1657
sVEH1L
p1658
g1
((lp1659
S'sell'
p1660
aS'hell'
p1661
aS'yell'
p1662
aS'tell'
p1663
atp1664
Rp1665
sVEH1M
p1666
g1
((lp1667
S'em'
p1668
aS'them'
p1669
aS'm'
p1670
atp1671
Rp1672
sVEH1N
p1673
g1
((lp1674
S'then'
p1675
aS'when'
p1676
aS'ten'
p1677
atp1678
Rp1679
sVAE1D
p1680
g1
((lp1681
S'bad'
p1682
aS'add'
p1683
aS'had'
p1684
aS'mad'
p1685
atp1686
Rp1687
sVAE1G
p1688
g1
((lp1689
S'bag'
p1690
aS'rag'
p1691
atp1692
Rp1693
sVER0Z
p1694
g1
((lp1695
S'years'
p1696
atp1697
Rp1698
sVEH1D
p1699
g1
((lp1700
S'head'
p1701
aS'said'
p1702
aS'bed'
p1703
aS'dead'
p1704
aS'sped'
p1705
aS'red'
p1706
atp1707
Rp1708
sVER1ST
p1709
g1
((lp1710
S'first'
p1711
atp1712
Rp1713
sVAA1SH
p1714
g1
((lp1715
S'wash'
p1716
atp1717
Rp1718
sVEH1SH
p1719
g1
((lp1720
S'fresh'
p1721
atp1722
Rp1723
sVEH1Z
p1724
g1
((lp1725
S'as'
p1726
atp1727
Rp1728
sVIY1ST
p1729
g1
((lp1730
S'beast'
p1731
aS'feast'
p1732
atp1733
Rp1734
sVER1ND
p1735
g1
((lp1736
S'learned'
p1737
aS'earned'
p1738
atp1739
Rp1740
sVEH1LS
p1741
g1
((lp1742
S'else'
p1743
atp1744
Rp1745
sVAE1Z
p1746
g1
((lp1747
S'as'
p1748
atp1749
Rp1750
sVEH1P
p1751
g1
((lp1752
S'step'
p1753
atp1754
Rp1755
sVAE1T
p1756
g1
((lp1757
S'sat'
p1758
aS'cat'
p1759
aS'pat'
p1760
aS'fat'
p1761
aS'that'
p1762
atp1763
Rp1764
sVEH1R
p1765
g1
((lp1766
S'stare'
p1767
aS"they're"
p1768
aS'swear'
p1769
aS'chair'
p1770
aS'where'
p1771
aS'dare'
p1772
aS'care'
p1773
atp1774
Rp1775
sVEH1S
p1776
g1
((lp1777
S'mess'
p1778
aS'yes'
p1779
aS's'
p1780
atp1781
Rp1782
sVEH1T
p1783
g1
((lp1784
S'jet'
p1785
aS'get'
p1786
aS'let'
p1787
aS'sweat'
p1788
aS'wet'
p1789
aS'yet'
p1790
atp1791
Rp1792
sVAE1P
p1793
g1
((lp1794
S'slap'
p1795
aS'strap'
p1796
aS'trap'
p1797
aS'rap'
p1798
aS'lap'
p1799
aS'clap'
p1800
atp1801
Rp1802
sVAE1S
p1803
g1
((lp1804
S'ass'
p1805
aS'last'
p1806
aS'pass'
p1807
atp1808
Rp1809
sVEH1LP
p1810
g1
((lp1811
S'help'
p1812
atp1813
Rp1814
sVAO1NTS
p1815
g1
((lp1816
S'wants'
p1817
atp1818
Rp1819
sVEH1KST
p1820
g1
((lp1821
S'next'
p1822
atp1823
Rp1824
sVUW0
p1825
g1
((lp1826
S'tonight'
p1827
aS'nutrition'
p1828
aS'lewinsky'
p1829
aS'today'
p1830
aS'tuition'
p1831
atp1832
Rp1833
sVAE0
p1834
g1
((lp1835
S'ambition'
p1836
atp1837
Rp1838
sVUW1D
p1839
g1
((lp1840
S'chewed'
p1841
aS'dude'
p1842
aS"you'd"
p1843
atp1844
Rp1845
sVAY1LZ
p1846
g1
((lp1847
S'miles'
p1848
atp1849
Rp1850
sVAE1GD
p1851
g1
((lp1852
S'bagged'
p1853
atp1854
Rp1855
sVAA1PT
p1856
g1
((lp1857
S'popped'
p1858
aS'hopped'
p1859
aS'copped'
p1860
atp1861
Rp1862
sVIH0T
p1863
g1
((lp1864
S'it'
p1865
atp1866
Rp1867
sVEH1G
p1868
g1
((lp1869
S'leg'
p1870
atp1871
Rp1872
sVEY1NJH
p1873
g1
((lp1874
S'change'
p1875
atp1876
Rp1877
sVEY1NT
p1878
g1
((lp1879
S"ain't"
p1880
atp1881
Rp1882
sVAE1GZ
p1883
g1
((lp1884
S'bags'
p1885
aS'tags'
p1886
atp1887
Rp1888
sVAO1CH
p1889
g1
((lp1890
S'watch'
p1891
atp1892
Rp1893
sVAA1RD
p1894
g1
((lp1895
S'hard'
p1896
aS'card'
p1897
atp1898
Rp1899
sVUW1P
p1900
g1
((lp1901
S'scoop'
p1902
atp1903
Rp1904
sVAW1ND
p1905
g1
((lp1906
S'pound'
p1907
atp1908
Rp1909
sVER1
p1910
g1
((lp1911
S'urban'
p1912
aS"workin'"
p1913
aS'service'
p1914
aS'worried'
p1915
aS'learned'
p1916
aS'spur'
p1917
aS'worry'
p1918
atp1919
Rp1920
sVER1V
p1921
g1
((lp1922
S'curve'
p1923
atp1924
Rp1925
sVER1T
p1926
g1
((lp1927
S'skirt'
p1928
aS'hurt'
p1929
atp1930
Rp1931
sVAE1NS
p1932
g1
((lp1933
S'lance'
p1934
atp1935
Rp1936
sVAH1GD
p1937
g1
((lp1938
S'shrugged'
p1939
atp1940
Rp1941
sVER1S
p1942
g1
((lp1943
S'purse'
p1944
atp1945
Rp1946
sVER1TH
p1947
g1
((lp1948
S'worth'
p1949
atp1950
Rp1951
sVOW1LD
p1952
g1
((lp1953
S'sold'
p1954
aS'told'
p1955
atp1956
Rp1957
sVAE1NZ
p1958
g1
((lp1959
S'mans'
p1960
aS'benz'
p1961
aS'hands'
p1962
atp1963
Rp1964
sVEH1NDZ
p1965
g1
((lp1966
S'friends'
p1967
atp1968
Rp1969
sVAY0
p1970
g1
((lp1971
S'idea'
p1972
aS'minute'
p1973
atp1974
Rp1975
sVEH1NZ
p1976
g1
((lp1977
S'benz'
p1978
aS'friends'
p1979
atp1980
Rp1981
sVAE1SKT
p1982
g1
((lp1983
S'asked'
p1984
atp1985
Rp1986
sVUW1L
p1987
g1
((lp1988
S'drool'
p1989
aS'school'
p1990
aS"you'll"
p1991
aS'pool'
p1992
atp1993
Rp1994
sVAE1ND
p1995
g1
((lp1996
S'and'
p1997
aS'hand'
p1998
atp1999
Rp2000
sVAH1PS
p2001
g1
((lp2002
S'ups'
p2003
atp2004
Rp2005
sVAE1NG
p2006
g1
((lp2007
S'bang'
p2008
aS'gang'
p2009
aS'slang'
p2010
atp2011
Rp2012
sVER1N
p2013
g1
((lp2014
S'burn'
p2015
atp2016
Rp2017
sVOW1KS
p2018
g1
((lp2019
S'jokes'
p2020
atp2021
Rp2022
sVAH1GZ
p2023
g1
((lp2024
S'drugs'
p2025
aS'rugs'
p2026
aS'slugs'
p2027
atp2028
Rp2029
sVAY2
p2030
g1
((lp2031
S'myself'
p2032
aS'gynecologist'
p2033
aS'diabetes'
p2034
atp2035
Rp2036
sVER1K
p2037
g1
((lp2038
S'perc'
p2039
aS'work'
p2040
atp2041
Rp2042
sVIY1CH
p2043
g1
((lp2044
S'teach'
p2045
aS'each'
p2046
atp2047
Rp2048
sVEH1KS
p2049
g1
((lp2050
S'next'
p2051
aS'sex'
p2052
atp2053
Rp2054
sVUW1Z
p2055
g1
((lp2056
S'use'
p2057
aS'cruise'
p2058
aS'shoes'
p2059
aS'dues'
p2060
aS'lose'
p2061
atp2062
Rp2063
sVOW1LZ
p2064
g1
((lp2065
S'rolls'
p2066
atp2067
Rp2068
sVAA1ST
p2069
g1
((lp2070
S'cost'
p2071
atp2072
Rp2073
sVAH1BZ
p2074
g1
((lp2075
S'clubs'
p2076
atp2077
Rp2078
sVUW1T
p2079
g1
((lp2080
S'shoot'
p2081
aS'route'
p2082
atp2083
Rp2084
sVUW1S
p2085
g1
((lp2086
S'use'
p2087
aS'loose'
p2088
atp2089
Rp2090
sVUW1R
p2091
g1
((lp2092
S"you're"
p2093
atp2094
Rp2095
sVAA1L
p2096
g1
((lp2097
S'fall'
p2098
atp2099
Rp2100
sVUW1N
p2101
g1
((lp2102
S'soon'
p2103
atp2104
Rp2105
sVUW1M
p2106
g1
((lp2107
S'room'
p2108
atp2109
Rp2110
sVAE1NGKS
p2111
g1
((lp2112
S'tanks'
p2113
atp2114
Rp2115
sVIH1LZ
p2116
g1
((lp2117
S'grills'
p2118
aS'pills'
p2119
aS'hills'
p2120
atp2121
Rp2122
sVAO1LT
p2123
g1
((lp2124
S'fault'
p2125
atp2126
Rp2127
sVUW1F
p2128
g1
((lp2129
S'proof'
p2130
atp2131
Rp2132
sVAA1N
p2133
g1
((lp2134
S'on'
p2135
aS'john'
p2136
aS'won'
p2137
atp2138
Rp2139
sVIH1CH
p2140
g1
((lp2141
S'ditch'
p2142
aS'bitch'
p2143
aS'rich'
p2144
atp2145
Rp2146
sVIY1K
p2147
g1
((lp2148
S'geek'
p2149
aS'peak'
p2150
aS'fleek'
p2151
aS'speak'
p2152
atp2153
Rp2154
sVAH1JH
p2155
g1
((lp2156
S'budge'
p2157
atp2158
Rp2159
sVIY1LZ
p2160
g1
((lp2161
S'meals'
p2162
atp2163
Rp2164
sVER1LZ
p2165
g1
((lp2166
S'girls'
p2167
atp2168
Rp2169
sVAA1CH
p2170
g1
((lp2171
S'watch'
p2172
atp2173
Rp2174
sVIY1P
p2175
g1
((lp2176
S'sleep'
p2177
aS'keep'
p2178
atp2179
Rp2180
sVOW1NT
p2181
g1
((lp2182
S"won't"
p2183
aS"don't"
p2184
atp2185
Rp2186
sVIH1SHT
p2187
g1
((lp2188
S'wished'
p2189
atp2190
Rp2191
sS'K AA1 N'
p2192
g1
((lp2193
S'kanye'
p2194
atp2195
Rp2196
sVIY1DH
p2197
g1
((lp2198
S'breathe'
p2199
atp2200
Rp2201
sVEH1FT
p2202
g1
((lp2203
S'left'
p2204
atp2205
Rp2206
sVAE1KS
p2207
g1
((lp2208
S'plaques'
p2209
aS'tax'
p2210
aS'whacks'
p2211
aS'saks'
p2212
aS'wax'
p2213
atp2214
Rp2215
sVUW1TS
p2216
g1
((lp2217
S'boots'
p2218
atp2219
Rp2220
sVIH1TS
p2221
g1
((lp2222
S"it's"
p2223
aS'hits'
p2224
atp2225
Rp2226
sVAH1VD
p2227
g1
((lp2228
S'loved'
p2229
atp2230
Rp2231
sVAH0ND
p2232
g1
((lp2233
S'and'
p2234
atp2235
Rp2236
sVAE1KT
p2237
g1
((lp2238
S'fact'
p2239
aS'act'
p2240
atp2241
Rp2242
sVAH1ST
p2243
g1
((lp2244
S'bust'
p2245
aS'just'
p2246
aS'must'
p2247
atp2248
Rp2249
sVAA1
p2250
g1
((lp2251
S'vodka'
p2252
aS'hotter'
p2253
aS'ali'
p2254
aS'colleges'
p2255
aS'topic'
p2256
aS'raw'
p2257
aS'college'
p2258
aS'parties'
p2259
aS'gossip'
p2260
aS'darkest'
p2261
aS'popping'
p2262
aS'law'
p2263
aS'bottles'
p2264
aS'closet'
p2265
aS'barbie'
p2266
aS'nah'
p2267
aS'contemplating'
p2268
aS'cali'
p2269
aS'causing'
p2270
aS'wanting'
p2271
aS'hollywood'
p2272
aS'monster'
p2273
aS'watching'
p2274
aS'ya'
p2275
aS'smarter'
p2276
aS'octagon'
p2277
aS'pocket'
p2278
aS'pockets'
p2279
aS'gonna'
p2280
aS'party'
p2281
aS'motto'
p2282
aS'wanted'
p2283
aS'bartender'
p2284
aS'column'
p2285
aS'gotta'
p2286
aS'contacts'
p2287
aS"wasn't"
p2288
aS'contact'
p2289
aS'donna'
p2290
aS'bottle'
p2291
aS'problem'
p2292
aS'wanna'
p2293
atp2294
Rp2295
sVIH0TS
p2296
g1
((lp2297
S"it's"
p2298
atp2299
Rp2300
sVAA1DZ
p2301
g1
((lp2302
S"god's"
p2303
atp2304
Rp2305
sVUW1ZD
p2306
g1
((lp2307
S'used'
p2308
atp2309
Rp2310
sVIY1T
p2311
g1
((lp2312
S'sweet'
p2313
aS'heat'
p2314
aS'eat'
p2315
aS'meet'
p2316
atp2317
Rp2318
sVAO1RTH
p2319
g1
((lp2320
S'north'
p2321
aS'fourth'
p2322
atp2323
Rp2324
sVAO1NT
p2325
g1
((lp2326
S'want'
p2327
atp2328
Rp2329
sVEH1NTS
p2330
g1
((lp2331
S'vents'
p2332
atp2333
Rp2334
sVAO0
p2335
g1
((lp2336
S'already'
p2337
aS'forget'
p2338
aS'forgive'
p2339
aS'australia'
p2340
aS'australian'
p2341
aS'forgiveness'
p2342
aS'caucasian'
p2343
atp2344
Rp2345
sVIY1V
p2346
g1
((lp2347
S'leave'
p2348
atp2349
Rp2350
sVEY1ST
p2351
g1
((lp2352
S'laced'
p2353
aS'based'
p2354
atp2355
Rp2356
sVAO1NG
p2357
g1
((lp2358
S'thong'
p2359
aS'long'
p2360
aS'song'
p2361
atp2362
Rp2363
sVIH1NGZ
p2364
g1
((lp2365
S'kings'
p2366
aS'things'
p2367
atp2368
Rp2369
sVIH1R
p2370
g1
((lp2371
S'clear'
p2372
aS'near'
p2373
atp2374
Rp2375
sVAA2
p2376
g1
((lp2377
S'competition'
p2378
atp2379
Rp2380
sVAO1K
p2381
g1
((lp2382
S'talk'
p2383
aS'walk'
p2384
atp2385
Rp2386
sVIH1DNT
p2387
g1
((lp2388
S"didn't"
p2389
atp2390
Rp2391
sVOW0
p2392
g1
((lp2393
S'romaine'
p2394
aS'cocaine'
p2395
aS'moscato'
p2396
atp2397
Rp2398
sVOW2
p2399
g1
((lp2400
S'overprotective'
p2401
atp2402
Rp2403
sVAH1VZ
p2404
g1
((lp2405
S'doves'
p2406
atp2407
Rp2408
sVEH1RD
p2409
g1
((lp2410
S'shared'
p2411
atp2412
Rp2413
sVIY1Z
p2414
g1
((lp2415
S'these'
p2416
aS'keys'
p2417
aS"b's"
p2418
aS"he's"
p2419
atp2420
Rp2421
sVER0
p2422
g1
((lp2423
S'protect'
p2424
aS'around'
p2425
aS'for'
p2426
aS'spring'
p2427
aS'forgive'
p2428
aS'syringes'
p2429
aS'replace'
p2430
aS'are'
p2431
aS'forgiveness'
p2432
aS'or'
p2433
aS'present'
p2434
aS'forget'
p2435
atp2436
Rp2437
sVIY1D
p2438
g1
((lp2439
S'need'
p2440
aS'feed'
p2441
aS'freed'
p2442
aS'weed'
p2443
atp2444
Rp2445
sVAO1CHT
p2446
g1
((lp2447
S'watched'
p2448
atp2449
Rp2450
sVAA1KT
p2451
g1
((lp2452
S'locked'
p2453
atp2454
Rp2455
sVEH1K
p2456
g1
((lp2457
S'check'
p2458
atp2459
Rp2460
sVAA1K
p2461
g1
((lp2462
S'walk'
p2463
aS'cock'
p2464
aS'rock'
p2465
atp2466
Rp2467
sVEH1ND
p2468
g1
((lp2469
S'end'
p2470
aS'friend'
p2471
aS'send'
p2472
atp2473
Rp2474
sVIH1SH
p2475
g1
((lp2476
S'wish'
p2477
atp2478
Rp2479
sVIY1L
p2480
g1
((lp2481
S'feel'
p2482
aS'real'
p2483
atp2484
Rp2485
sVIY1N
p2486
g1
((lp2487
S'seen'
p2488
aS'jean'
p2489
aS'queen'
p2490
aS'mean'
p2491
atp2492
Rp2493
sVIH1ST
p2494
g1
((lp2495
S'twist'
p2496
aS'wrist'
p2497
aS'list'
p2498
aS'missed'
p2499
aS'pissed'
p2500
atp2501
Rp2502
sVAA1P
p2503
g1
((lp2504
S'cop'
p2505
aS'top'
p2506
aS'drop'
p2507
aS'stop'
p2508
aS'pop'
p2509
atp2510
Rp2511
sVIY1S
p2512
g1
((lp2513
S'piece'
p2514
atp2515
Rp2516
sVIY1R
p2517
g1
((lp2518
S'hear'
p2519
aS'here'
p2520
atp2521
Rp2522
sVIY1
p2523
g1
((lp2524
S'recess'
p2525
aS'people'
p2526
aS'seasoning'
p2527
aS'shia'
p2528
aS'feelings'
p2529
aS'see'
p2530
aS'leeway'
p2531
aS'female'
p2532
aS'dealer'
p2533
aS'really'
p2534
aS'even'
p2535
aS'three'
p2536
aS're'
p2537
aS'peanut'
p2538
aS'feature'
p2539
aS'eleven'
p2540
aS'sneakers'
p2541
aS'peaceful'
p2542
aS"feelin'"
p2543
aS'speaking'
p2544
aS'she'
p2545
aS'be'
p2546
aS'we'
p2547
aS'eating'
p2548
aS'sequel'
p2549
aS'free'
p2550
aS'gee'
p2551
aS'teacher'
p2552
aS'preschool'
p2553
aS'he'
p2554
aS'me'
p2555
aS'keeping'
p2556
aS'b'
p2557
aS'e'
p2558
aS'd'
p2559
aS'stephenson'
p2560
aS'seesaw'
p2561
aS'detroit'
p2562
aS'leaving'
p2563
aS'ego'
p2564
aS't'
p2565
aS'v'
p2566
aS'feeling'
p2567
atp2568
Rp2569
sVAA1T
p2570
g1
((lp2571
S'shot'
p2572
aS'caught'
p2573
aS'spot'
p2574
aS'hot'
p2575
aS'lot'
p2576
aS'not'
p2577
aS'got'
p2578
atp2579
Rp2580
sVIY2
p2581
g1
((lp2582
S'retire'
p2583
aS'replace'
p2584
aS'beyond'
p2585
aS'before'
p2586
atp2587
Rp2588
sVAW1TH
p2589
g1
((lp2590
S'mouth'
p2591
aS'south'
p2592
atp2593
Rp2594
sVAA1RZ
p2595
g1
((lp2596
S'stars'
p2597
atp2598
Rp2599
sVAA1Z
p2600
g1
((lp2601
S'cause'
p2602
aS'was'
p2603
atp2604
Rp2605
sVAA1RT
p2606
g1
((lp2607
S'heart'
p2608
aS'hart'
p2609
aS'start'
p2610
atp2611
Rp2612
sVEH1TS
p2613
g1
((lp2614
S"let's"
p2615
atp2616
Rp2617
sS'G AA1 N'
p2618
g1
((lp2619
S"gon'"
p2620
atp2621
Rp2622
s.