ccollections
defaultdict
p0
(c__builtin__
set
p1
tp2
Rp3
VIH0Z
p4
g1
((lp5
S'his'
p6
aS'is'
p7
aS'does'
p8
atp9
Rp10
sVAO1KS
p11
g1
((lp12
S'talks'
p13
atp14
Rp15
sVIH0T
p16
g1
((lp17
S'it'
p18
atp19
Rp20
sVIH0S
p21
g1
((lp22
S'this'
p23
atp24
Rp25
sVAO1KT
p26
g1
((lp27
S'talked'
p28
aS'walked'
p29
atp30
Rp31
sVAH2
p32
g1
((lp33
S'unafraid'
p34
aS'undeniable'
p35
aS'understand'
p36
aS'whatever'
p37
atp38
Rp39
sVIH0N
p40
g1
((lp41
S'ingenuitive'
p42
aS'been'
p43
aS'in'
p44
atp45
Rp46
sVAH0
p47
g1
((lp48
S'affair'
p49
aS'phenomenon'
p50
aS'agreed'
p51
aS'competitive'
p52
aS'unrest'
p53
aS'committed'
p54
aS'aggressive'
p55
aS'debate'
p56
aS'unfinished'
p57
aS'methodically'
p58
aS'to'
p59
aS'astonish'
p60
aS'surprised'
p61
aS'de'
p62
aS'cannot'
p63
aS'supplies'
p64
aS'accumulate'
p65
aS'success'
p66
aS'tobacco'
p67
aS'nathaniel'
p68
aS'specific'
p69
aS'consolidate'
p70
aS'financial'
p71
aS'regret'
p72
aS'quebec'
p73
aS'battalion'
p74
aS'financials'
p75
aS'subject'
p76
aS'provided'
p77
aS'recruits'
p78
aS"america's"
p79
aS'record'
p80
aS'oppressors'
p81
aS'above'
p82
aS'surprise'
p83
aS'across'
p84
aS'parentis'
p85
aS'ability'
p86
aS'unmask'
p87
aS'agreement'
p88
aS'refused'
p89
aS'succeed'
p90
aS'advantages'
p91
aS'alone'
p92
aS'along'
p93
aS'advance'
p94
aS'about'
p95
aS'ahead'
p96
aS'against'
p97
aS'agree'
p98
aS'adored'
p99
aS'admit'
p100
aS'oppose'
p101
aS'opinion'
p102
aS'afar'
p103
aS'astute'
p104
aS'abet'
p105
aS'supply'
p106
aS'confession'
p107
aS'another'
p108
aS'apologize'
p109
aS'apply'
p110
aS'tomorrow'
p111
aS'conventional'
p112
aS'amaze'
p113
aS'political'
p114
aS'attack'
p115
aS'assistance'
p116
aS'until'
p117
aS'today'
p118
aS'attractive'
p119
aS'confer'
p120
aS'monsieur'
p121
aS'afford'
p122
aS'aware'
p123
aS'approachable'
p124
aS'alas'
p125
aS'awake'
p126
aS'july'
p127
aS'abandoning'
p128
aS'commence'
p129
aS'apprentice'
p130
aS'account'
p131
aS'civility'
p132
aS'promotes'
p133
aS'assume'
p134
aS'contrary'
p135
aS'abandon'
p136
aS'opponent'
p137
aS'ascendancy'
p138
aS'suggestions'
p139
aS'provoke'
p140
aS'again'
p141
aS'afraid'
p142
aS"m'appelle"
p143
aS'suggests'
p144
aS'aside'
p145
aS'complicit'
p146
aS'towards'
p147
aS'unless'
p148
aS'confess'
p149
aS'advice'
p150
aS'negotiate'
p151
aS'collection'
p152
aS'abuse'
p153
aS'connected'
p154
aS'position'
p155
aS'apprenticeship'
p156
aS'america'
p157
aS'a'
p158
aS'attempt'
p159
aS'considered'
p160
aS'askance'
p161
aS'american'
p162
aS'sometimes'
p163
aS'upset'
p164
aS'together'
p165
aS'acquitted'
p166
aS'adrenaline'
p167
aS'command'
p168
aS'absurd'
p169
aS'consistency'
p170
aS'occasion'
p171
aS'the'
p172
aS'away'
p173
atp174
Rp175
sVAH1
p176
g1
((lp177
S'gunshot'
p178
aS'shovel'
p179
aS'someday'
p180
aS'hunger'
p181
aS'runner'
p182
aS'money'
p183
aS'trusting'
p184
aS'somehow'
p185
aS'hungry'
p186
aS'running'
p187
aS'something'
p188
aS'summon'
p189
aS'subject'
p190
aS"doesn't"
p191
aS'buddy'
p192
aS'rather'
p193
aS'hudson'
p194
aS'hurricane'
p195
aS'other'
p196
aS'bloodstains'
p197
aS'under'
p198
aS'struggled'
p199
aS'hundred'
p200
aS'public'
p201
aS'covenant'
p202
aS'sullied'
p203
aS'someone'
p204
aS'somebody'
p205
aS'brothers'
p206
aS'government'
p207
aS'couple'
p208
aS'mother'
p209
aS'southern'
p210
aS'cover'
p211
aS'number'
p212
aS"what'll"
p213
aS'coming'
p214
aS'nothing'
p215
aS'cousin'
p216
aS'trouble'
p217
aS'upstate'
p218
aS'publishes'
p219
aS'younger'
p220
aS"someone's"
p221
aS"mother's"
p222
aS"wasn't"
p223
aS'double'
p224
aS'study'
p225
aS'sometimes'
p226
aS'upset'
p227
aS'brother'
p228
aS'doubled'
p229
aS'summary'
p230
aS"brother's"
p231
aS'uh'
p232
aS'country'
p233
aS'knuckleheads'
p234
aS'the'
p235
aS'mulligan'
p236
aS'smuggle'
p237
atp238
Rp239
sVIH0F
p240
g1
((lp241
S'if'
p242
atp243
Rp244
sVIH0D
p245
g1
((lp246
S'did'
p247
aS'good'
p248
atp249
Rp250
sVAE1BZ
p251
g1
((lp252
S'grabs'
p253
atp254
Rp255
sVUW1TH
p256
g1
((lp257
S'truth'
p258
atp259
Rp260
sVEH2
p261
g1
((lp262
S'revolutionary'
p263
aS'devastation'
p264
aS'revolution'
p265
aS'caribbean'
p266
aS'carolina'
p267
aS"revolution's"
p268
aS'expectation'
p269
aS'reputation'
p270
aS'guarantee'
p271
aS'declaration'
p272
aS'speculation'
p273
aS'education'
p274
aS'democratic'
p275
aS'restitution'
p276
atp277
Rp278
sVEH0
p279
g1
((lp280
S'embezzling'
p281
aS'rep'
p282
aS'endorse'
p283
aS'engaged'
p284
aS'escorted'
p285
aS'escort'
p286
aS'endorsement'
p287
aS'entrust'
p288
aS'enlightenment'
p289
aS'essays'
p290
atp291
Rp292
sVEH1
p293
g1
((lp294
S'measurements'
p295
aS'questions'
p296
aS'enterprise'
p297
aS'carefully'
p298
aS'melody'
p299
aS'arrogant'
p300
aS'envy'
p301
aS'venerated'
p302
aS'headline'
p303
aS'betsy'
p304
aS'aaron'
p305
aS'parents'
p306
aS'treasury'
p307
aS'wearing'
p308
aS'very'
p309
aS'every'
p310
aS'pendleton'
p311
aS'reckoning'
p312
aS'jettison'
p313
aS'endless'
p314
aS'enemy'
p315
aS'heaven'
p316
aS'feral'
p317
aS'level'
p318
aS'excellency'
p319
aS'chesapeake'
p320
aS'pleasantries'
p321
aS'eloquence'
p322
aS'settle'
p323
aS'marry'
p324
aS'secretary'
p325
aS'seventeen'
p326
aS'specially'
p327
aS'redcoats'
p328
aS'tempered'
p329
aS'messy'
p330
aS'second'
p331
aS'legacy'
p332
aS'carriages'
p333
aS'desperate'
p334
aS'helpless'
p335
aS'destitute'
p336
aS'centralizing'
p337
aS'enemies'
p338
aS"jefferson's"
p339
aS'kettle'
p340
aS'everything'
p341
aS'medicine'
p342
aS'lecture'
p343
aS"ev'ryone"
p344
aS'ever'
p345
aS'temple'
p346
aS'checkered'
p347
aS'seconds'
p348
aS'never'
p349
aS'peggy'
p350
aS'enterprising'
p351
aS'frenchman'
p352
aS'scary'
p353
aS'benefits'
p354
aS'hesitant'
p355
aS'getting'
p356
aS'many'
p357
aS'terrible'
p358
aS'credit'
p359
aS'testament'
p360
aS'mentions'
p361
aS'reckoned'
p362
aS'letters'
p363
aS'letter'
p364
aS'headed'
p365
aS'lesson'
p366
aS"ev'ry"
p367
aS'better'
p368
aS'spending'
p369
aS'twenty'
p370
aS'question'
p371
aS'anyone'
p372
aS'escort'
p373
aS'memory'
p374
aS'essays'
p375
aS'pencil'
p376
aS'fellow'
p377
aS'meddling'
p378
aS'everywhere'
p379
aS'mellow'
p380
aS'evidence'
p381
aS'endlessly'
p382
aS'present'
p383
aS'anything'
p384
aS'record'
p385
aS'henry'
p386
aS'seven'
p387
aS'century'
p388
aS'general'
p389
aS'ready'
p390
aS'pedestal'
p391
aS'reynolds'
p392
aS'any'
p393
aS'redder'
p394
aS'deadly'
p395
aS'veteran'
p396
aS'elegance'
p397
aS'gentlemen'
p398
aS'penniless'
p399
aS'relatives'
p400
aS'jefferson'
p401
aS'elephant'
p402
aS'elevates'
p403
aS'dresses'
p404
aS'separate'
p405
aS'welcome'
p406
aS'henchmen'
p407
aS'vengeance'
p408
aS'plenty'
p409
aS'president'
p410
aS'decorated'
p411
aS'weapon'
p412
aS'sedative'
p413
aS'anybody'
p414
aS'element'
p415
aS'enter'
p416
aS'precedent'
p417
atp418
Rp419
sVEY1TS
p420
g1
((lp421
S'states'
p422
aS"state's"
p423
atp424
Rp425
sVAE1NTS
p426
g1
((lp427
S'pants'
p428
atp429
Rp430
sVUW1TS
p431
g1
((lp432
S'shoots'
p433
atp434
Rp435
sVIY1TS
p436
g1
((lp437
S'streets'
p438
atp439
Rp440
sVAH1CH
p441
g1
((lp442
S'such'
p443
aS'much'
p444
atp445
Rp446
sVER1MZ
p447
g1
((lp448
S'terms'
p449
atp450
Rp451
sVEY1MZ
p452
g1
((lp453
S'james'
p454
atp455
Rp456
sS'IH0M'
p457
g1
((lp458
S'impoverished'
p459
aS'him'
p460
atp461
Rp462
sVOY1
p463
g1
((lp464
S'boy'
p465
aS'poisoned'
p466
aS'loyalty'
p467
aS'choices'
p468
aS'royalty'
p469
aS'lawyer'
p470
aS'voices'
p471
aS'joining'
p472
atp473
Rp474
sVEY1MD
p475
g1
((lp476
S'named'
p477
atp478
Rp479
sVUW1ZD
p480
g1
((lp481
S'used'
p482
atp483
Rp484
sVUH0
p485
g1
((lp486
S'yourself'
p487
atp488
Rp489
sVUH1
p490
g1
((lp491
S'jury'
p492
aS'bullet'
p493
aS'crooked'
p494
aS"wouldn't"
p495
aS'poorest'
p496
aS'sugar'
p497
aS'looking'
p498
aS'brooklyn'
p499
aS'bullets'
p500
aS"shouldn't"
p501
aS'curious'
p502
atp503
Rp504
sVAE1TS
p505
g1
((lp506
S"that's"
p507
atp508
Rp509
sVAH1NZ
p510
g1
((lp511
S'runs'
p512
aS'sons'
p513
aS'guns'
p514
atp515
Rp516
sVAH1NT
p517
g1
((lp518
S'front'
p519
atp520
Rp521
sVAH1NS
p522
g1
((lp523
S'once'
p524
atp525
Rp526
sVAH1NG
p527
g1
((lp528
S'hungriest'
p529
aS'young'
p530
atp531
Rp532
sVAO1RD
p533
g1
((lp534
S'lord'
p535
atp536
Rp537
sVAO1RK
p538
g1
((lp539
S'york'
p540
atp541
Rp542
sVAO2L
p543
g1
((lp544
S"y'all"
p545
atp546
Rp547
sVAO1RN
p548
g1
((lp549
S'worn'
p550
atp551
Rp552
sVAY1MZ
p553
g1
((lp554
S"time's"
p555
atp556
Rp557
sVAA1NT
p558
g1
((lp559
S'want'
p560
atp561
Rp562
sVAO1RS
p563
g1
((lp564
S'course'
p565
aS'horse'
p566
atp567
Rp568
sVAO1RT
p569
g1
((lp570
S'sort'
p571
aS'short'
p572
atp573
Rp574
sVAO1RZ
p575
g1
((lp576
S'yours'
p577
atp578
Rp579
sVER1CH
p580
g1
((lp581
S'search'
p582
aS'church'
p583
atp584
Rp585
sVOW1TS
p586
g1
((lp587
S'notes'
p588
atp589
Rp590
sVAY1TS
p591
g1
((lp592
S'writes'
p593
aS'rights'
p594
atp595
Rp596
sVUH1KS
p597
g1
((lp598
S'looks'
p599
atp600
Rp601
sVUH1KT
p602
g1
((lp603
S'looked'
p604
atp605
Rp606
sVEH1D
p607
g1
((lp608
S'shed'
p609
aS'said'
p610
aS'led'
p611
aS'lead'
p612
aS'head'
p613
aS'dead'
p614
aS'spread'
p615
aS'bed'
p616
aS'red'
p617
atp618
Rp619
sVIH1RZ
p620
g1
((lp621
S"here's"
p622
aS'years'
p623
atp624
Rp625
sVEY1Z
p626
g1
((lp627
S"day's"
p628
aS'raise'
p629
atp630
Rp631
sVEY1T
p632
g1
((lp633
S'great'
p634
aS'straight'
p635
aS'late'
p636
aS'state'
p637
aS'eight'
p638
aS'wait'
p639
atp640
Rp641
sVEY1P
p642
g1
((lp643
S'shape'
p644
atp645
Rp646
sVEY1S
p647
g1
((lp648
S'case'
p649
aS'place'
p650
aS'face'
p651
atp652
Rp653
sVEY1M
p654
g1
((lp655
S'name'
p656
aS'same'
p657
aS'aim'
p658
aS'shame'
p659
aS'game'
p660
aS'flame'
p661
aS'came'
p662
atp663
Rp664
sVEY1L
p665
g1
((lp666
S"they'll"
p667
atp668
Rp669
sVEY1N
p670
g1
((lp671
S'brain'
p672
aS'drain'
p673
aS'pain'
p674
aS'gain'
p675
aS'cane'
p676
atp677
Rp678
sVEY1K
p679
g1
((lp680
S'break'
p681
aS'make'
p682
aS'shake'
p683
aS'take'
p684
aS'fake'
p685
atp686
Rp687
sVEY1D
p688
g1
((lp689
S'aid'
p690
aS'made'
p691
aS'shade'
p692
aS'paid'
p693
atp694
Rp695
sVAE1FT
p696
g1
((lp697
S'draft'
p698
atp699
Rp700
sVEH1K
p701
g1
((lp702
S'check'
p703
aS'neck'
p704
atp705
Rp706
sVEH1L
p707
g1
((lp708
S'hell'
p709
aS'spell'
p710
aS'well'
p711
aS'tell'
p712
aS'l'
p713
atp714
Rp715
sVEH1M
p716
g1
((lp717
S'em'
p718
atp719
Rp720
sVEH1N
p721
g1
((lp722
S'then'
p723
aS'ben'
p724
aS'ten'
p725
aS'men'
p726
aS'when'
p727
aS'n'
p728
atp729
Rp730
sVER1NZ
p731
g1
((lp732
S'turns'
p733
atp734
Rp735
sVEH1ST
p736
g1
((lp737
S'test'
p738
aS'west'
p739
aS"c'est"
p740
aS'rest'
p741
aS'best'
p742
atp743
Rp744
sVAY1K
p745
g1
((lp746
S'like'
p747
atp748
Rp749
sVEH1G
p750
g1
((lp751
S'keg'
p752
aS'beg'
p753
atp754
Rp755
sVEH1Z
p756
g1
((lp757
S'as'
p758
aS'says'
p759
atp760
Rp761
sVER1ND
p762
g1
((lp763
S'learned'
p764
aS'turned'
p765
atp766
Rp767
sVAO1GZ
p768
g1
((lp769
S'dogs'
p770
atp771
Rp772
sVEH1P
p773
g1
((lp774
S'rep'
p775
aS'step'
p776
atp777
Rp778
sVEH1R
p779
g1
((lp780
S"they're"
p781
aS'there'
p782
aS'bear'
p783
aS'air'
p784
aS'swear'
p785
aS'wear'
p786
aS'where'
p787
atp788
Rp789
sVEH1S
p790
g1
((lp791
S'stress'
p792
aS'less'
p793
aS'mess'
p794
aS'ness'
p795
aS'chess'
p796
aS'press'
p797
aS'yes'
p798
atp799
Rp800
sVEH1T
p801
g1
((lp802
S'vet'
p803
aS'set'
p804
aS'get'
p805
aS'met'
p806
aS'let'
p807
aS'sweat'
p808
aS'debt'
p809
aS'yet'
p810
aS'bet'
p811
atp812
Rp813
sVIY1PS
p814
g1
((lp815
S'keeps'
p816
atp817
Rp818
sVAO1RDZ
p819
g1
((lp820
S'towards'
p821
atp822
Rp823
sVIH1MPS
p824
g1
((lp825
S'glimpse'
p826
atp827
Rp828
sVIH0TH
p829
g1
((lp830
S'with'
p831
atp832
Rp833
sVAO1CHT
p834
g1
((lp835
S'watched'
p836
atp837
Rp838
sVEH1FT
p839
g1
((lp840
S'left'
p841
atp842
Rp843
sVIH0TS
p844
g1
((lp845
S"it's"
p846
aS'its'
p847
atp848
Rp849
sVAA1DZ
p850
g1
((lp851
S'gods'
p852
aS'odds'
p853
atp854
Rp855
sVAO1NT
p856
g1
((lp857
S'want'
p858
atp859
Rp860
sVEY1ST
p861
g1
((lp862
S'placed'
p863
aS'raced'
p864
atp865
Rp866
sVAO1NG
p867
g1
((lp868
S'wrong'
p869
aS'song'
p870
atp871
Rp872
sVIH1NGZ
p873
g1
((lp874
S'things'
p875
aS"king's"
p876
atp877
Rp878
sVIH1DNT
p879
g1
((lp880
S"didn't"
p881
atp882
Rp883
sVAH1NTS
p884
g1
((lp885
S'fronts'
p886
atp887
Rp888
sVER0
p889
g1
((lp890
S'forget'
p891
aS'terrain'
p892
aS'pursuits'
p893
aS'yourself'
p894
aS'are'
p895
aS'forgot'
p896
aS'caribbean'
p897
aS'for'
p898
aS'surprise'
p899
aS'forgets'
p900
aS'surprised'
p901
aS'around'
p902
aS'permission'
p903
aS'were'
p904
aS'virginia'
p905
aS'arrived'
p906
aS'pursuit'
p907
aS'virtuosity'
p908
aS'particular'
p909
aS'surrender'
p910
aS'present'
p911
aS'maria'
p912
aS'parentheses'
p913
aS'virginian'
p914
aS'career'
p915
aS'forgotten'
p916
aS'or'
p917
atp918
Rp919
sVEH1TH
p920
g1
((lp921
S'death'
p922
atp923
Rp924
sVAA1NTS
p925
g1
((lp926
S'wants'
p927
atp928
Rp929
sVEH1TS
p930
g1
((lp931
S'bets'
p932
aS'debts'
p933
aS"let's"
p934
aS'lets'
p935
aS'sets'
p936
aS'gets'
p937
atp938
Rp939
sVAE1KST
p940
g1
((lp941
S'taxed'
p942
atp943
Rp944
sVAH1NCH
p945
g1
((lp946
S'bunch'
p947
atp948
Rp949
sVEY1
p950
g1
((lp951
S'saying'
p952
aS'major'
p953
aS'breaking'
p954
aS'stray'
p955
aS'bayonet'
p956
aS'ladies'
p957
aS'draining'
p958
aS'say'
p959
aS'paces'
p960
aS'trading'
p961
aS'labor'
p962
aS'patiently'
p963
aS'pray'
p964
aS'pay'
p965
aS"c'est"
p966
aS'hey'
p967
aS'pages'
p968
aS'waiting'
p969
aS'station'
p970
aS'way'
p971
aS'papers'
p972
aS'taken'
p973
aS'stalemate'
p974
aS'status'
p975
aS'play'
p976
aS'ration'
p977
aS'statement'
p978
aS'stay'
p979
aS'may'
p980
aS'de'
p981
aS'nation'
p982
aS'waving'
p983
aS'spray'
p984
aS'tailor'
p985
aS'lay'
p986
aS'they'
p987
aS'chasing'
p988
aS'je'
p989
aS'ha'
p990
aS'day'
p991
aS'bravery'
p992
aS'a'
p993
aS'mainland'
p994
aS'places'
p995
aS'sacred'
p996
aS'maybe'
p997
aS'later'
p998
aS'favorite'
p999
aS'slavery'
p1000
aS'bay'
p1001
aS'facing'
p1002
aS'neighbor'
p1003
aS'slaver'
p1004
aS'making'
p1005
aS'latest'
p1006
atp1007
Rp1008
sVEY0
p1009
g1
((lp1010
S'elitist'
p1011
atp1012
Rp1013
sVAY1NTS
p1014
g1
((lp1015
S'pints'
p1016
atp1017
Rp1018
sVAO1CH
p1019
g1
((lp1020
S'watch'
p1021
atp1022
Rp1023
sVAY1
p1024
g1
((lp1025
S'spy'
p1026
aS'itemized'
p1027
aS'schuyler'
p1028
aS'high'
p1029
aS'buy'
p1030
aS'my'
p1031
aS'frightened'
p1032
aS'crisis'
p1033
aS'by'
p1034
aS'eye'
p1035
aS'dying'
p1036
aS'lining'
p1037
aS'flying'
p1038
aS'sky'
p1039
aS'silently'
p1040
aS'writing'
p1041
aS'finally'
p1042
aS'higher'
p1043
aS'diamond'
p1044
aS'rioting'
p1045
aS'lighten'
p1046
aS'dire'
p1047
aS'nineteen'
p1048
aS'why'
p1049
aS'cycle'
p1050
aS'dry'
p1051
aS'die'
p1052
aS'firing'
p1053
aS'fighting'
p1054
aS'try'
p1055
aS'ninety'
p1056
aS'either'
p1057
aS'shy'
p1058
aS'guy'
p1059
aS'shiny'
p1060
aS'lying'
p1061
atp1062
Rp1063
sVAE1SKT
p1064
g1
((lp1065
S'asked'
p1066
atp1067
Rp1068
sVAY2
p1069
g1
((lp1070
S'financial'
p1071
aS'financials'
p1072
aS'diuretic'
p1073
atp1074
Rp1075
sVIH0ST
p1076
g1
((lp1077
S'just'
p1078
atp1079
Rp1080
sVAW1TH
p1081
g1
((lp1082
S'mouth'
p1083
aS'south'
p1084
atp1085
Rp1086
sVAO2
p1087
g1
((lp1088
S'fourteen'
p1089
aS'alright'
p1090
aS'correspondence'
p1091
atp1092
Rp1093
sVAO1
p1094
g1
((lp1095
S'organize'
p1096
aS'almost'
p1097
aS'forfeit'
p1098
aS'orphan'
p1099
aS'yourself'
p1100
aS'talking'
p1101
aS'lawyer'
p1102
aS'broadway'
p1103
aS'corner'
p1104
aS'forthcoming'
p1105
aS'saw'
p1106
aS'orders'
p1107
aS"washington's"
p1108
aS'story'
p1109
aS'law'
p1110
aS'yorkers'
p1111
aS'doctor'
p1112
aS'sordid'
p1113
aS'courted'
p1114
aS'forces'
p1115
aS'forward'
p1116
aS'daughters'
p1117
aS'slaughtered'
p1118
aS'horses'
p1119
aS'draw'
p1120
aS'offer'
p1121
aS'dollar'
p1122
aS'mortally'
p1123
aS'washington'
p1124
aS'fourteen'
p1125
aS'quarterly'
p1126
aS'slaughter'
p1127
aS'wanted'
p1128
aS'boarding'
p1129
aS'longing'
p1130
aS'laurens'
p1131
aS'daughter'
p1132
aS'glory'
p1133
aS'always'
p1134
aS'dollars'
p1135
aS'yorktown'
p1136
aS'chorus'
p1137
aS'orderly'
p1138
atp1139
Rp1140
sVAO0
p1141
g1
((lp1142
S'forgets'
p1143
aS'forgot'
p1144
aS'forget'
p1145
aS'forgotten'
p1146
atp1147
Rp1148
sVIH1DH
p1149
g1
((lp1150
S'with'
p1151
atp1152
Rp1153
sVAE1SK
p1154
g1
((lp1155
S'ask'
p1156
aS'flask'
p1157
aS'task'
p1158
atp1159
Rp1160
sVEH1NCH
p1161
g1
((lp1162
S'trench'
p1163
aS'french'
p1164
aS'bench'
p1165
atp1166
Rp1167
sVAE1SH
p1168
g1
((lp1169
S'cash'
p1170
atp1171
Rp1172
sVAW1D
p1173
g1
((lp1174
S"how'd"
p1175
aS'proud'
p1176
aS'loud'
p1177
aS'crowd'
p1178
atp1179
Rp1180
sVAW1N
p1181
g1
((lp1182
S'down'
p1183
atp1184
Rp1185
sVAW1S
p1186
g1
((lp1187
S'house'
p1188
aS'douse'
p1189
atp1190
Rp1191
sVAW1R
p1192
g1
((lp1193
S'our'
p1194
aS'hour'
p1195
atp1196
Rp1197
sVAW1T
p1198
g1
((lp1199
S'bout'
p1200
aS'doubt'
p1201
aS'out'
p1202
atp1203
Rp1204
sVAE1ST
p1205
g1
((lp1206
S'past'
p1207
aS'last'
p1208
aS'passed'
p1209
aS'fast'
p1210
aS'asked'
p1211
atp1212
Rp1213
sVIH1NGK
p1214
g1
((lp1215
S'drink'
p1216
aS'think'
p1217
aS'brink'
p1218
atp1219
Rp1220
sVAY1NG
p1221
g1
((lp1222
S'trying'
p1223
atp1224
Rp1225
sVEY1NJHD
p1226
g1
((lp1227
S'changed'
p1228
atp1229
Rp1230
sS'AH2N'
p1231
g1
((lp1232
S'unimpeachable'
p1233
atp1234
Rp1235
sVAA1CHT
p1236
g1
((lp1237
S'watched'
p1238
atp1239
Rp1240
sVAA1GZ
p1241
g1
((lp1242
S'dogs'
p1243
atp1244
Rp1245
sVUW1LZ
p1246
g1
((lp1247
S'fools'
p1248
atp1249
Rp1250
sVEH1PT
p1251
g1
((lp1252
S'slept'
p1253
aS'kept'
p1254
atp1255
Rp1256
sVEH1LF
p1257
g1
((lp1258
S'shelf'
p1259
aS'self'
p1260
atp1261
Rp1262
sVAW1NT
p1263
g1
((lp1264
S'count'
p1265
aS'mount'
p1266
atp1267
Rp1268
sVAW1NS
p1269
g1
((lp1270
S'ounce'
p1271
atp1272
Rp1273
sVOW1LD
p1274
g1
((lp1275
S'old'
p1276
atp1277
Rp1278
sVIY1ST
p1279
g1
((lp1280
S'least'
p1281
atp1282
Rp1283
sVEH1LP
p1284
g1
((lp1285
S'help'
p1286
atp1287
Rp1288
sVEH1LS
p1289
g1
((lp1290
S'else'
p1291
atp1292
Rp1293
sVEH1NDZ
p1294
g1
((lp1295
S'friends'
p1296
atp1297
Rp1298
sVEH1LZ
p1299
g1
((lp1300
S'smells'
p1301
aS'bells'
p1302
atp1303
Rp1304
sVAW1ND
p1305
g1
((lp1306
S'ground'
p1307
atp1308
Rp1309
sVER1
p1310
g1
((lp1311
S'hercules'
p1312
aS'further'
p1313
aS'sir'
p1314
aS'merchants'
p1315
aS'clerkin'
p1316
aS'working'
p1317
aS'nervous'
p1318
aS'hurricane'
p1319
aS"we're"
p1320
aS'blur'
p1321
aS'learned'
p1322
aS'stir'
p1323
aS'murder'
p1324
aS'early'
p1325
aS'vernon'
p1326
aS'courage'
p1327
aS'virtue'
p1328
aS'burden'
p1329
aS'burr'
p1330
aS'service'
p1331
aS'thirty'
p1332
aS'were'
p1333
aS'jersey'
p1334
atp1335
Rp1336
sVER1T
p1337
g1
((lp1338
S'flirt'
p1339
aS'dirt'
p1340
atp1341
Rp1342
sVEH1KS
p1343
g1
((lp1344
S'x'
p1345
aS'next'
p1346
aS'sex'
p1347
atp1348
Rp1349
sVER1S
p1350
g1
((lp1351
S'verse'
p1352
aS'worse'
p1353
atp1354
Rp1355
sVER1D
p1356
g1
((lp1357
S'heard'
p1358
aS'word'
p1359
aS'third'
p1360
atp1361
Rp1362
sVER1N
p1363
g1
((lp1364
S'turn'
p1365
aS'burn'
p1366
atp1367
Rp1368
sVER1L
p1369
g1
((lp1370
S'girl'
p1371
atp1372
Rp1373
sVER1K
p1374
g1
((lp1375
S'work'
p1376
atp1377
Rp1378
sVAW1DHZ
p1379
g1
((lp1380
S'mouths'
p1381
atp1382
Rp1383
sVIH1NDZ
p1384
g1
((lp1385
S'winds'
p1386
atp1387
Rp1388
sVIH1KS
p1389
g1
((lp1390
S'six'
p1391
atp1392
Rp1393
sVUW1VD
p1394
g1
((lp1395
S'moved'
p1396
atp1397
Rp1398
sVAE1KS
p1399
g1
((lp1400
S'tax'
p1401
atp1402
Rp1403
sVAH0ND
p1404
g1
((lp1405
S'and'
p1406
atp1407
Rp1408
sVAE1KT
p1409
g1
((lp1410
S'act'
p1411
atp1412
Rp1413
sVAH1ST
p1414
g1
((lp1415
S'just'
p1416
aS'must'
p1417
atp1418
Rp1419
sVIY1DZ
p1420
g1
((lp1421
S'leads'
p1422
aS'seeds'
p1423
atp1424
Rp1425
sVER1DZ
p1426
g1
((lp1427
S'words'
p1428
atp1429
Rp1430
sVEH1THS
p1431
g1
((lp1432
S"death's"
p1433
atp1434
Rp1435
sVIY2
p1436
g1
((lp1437
S'require'
p1438
aS'beyond'
p1439
aS'before'
p1440
atp1441
Rp1442
sVEY1KS
p1443
g1
((lp1444
S'makes'
p1445
aS'takes'
p1446
atp1447
Rp1448
sVAA1RD
p1449
g1
((lp1450
S'guard'
p1451
aS'hard'
p1452
atp1453
Rp1454
sVIY1MZ
p1455
g1
((lp1456
S'seems'
p1457
aS'screams'
p1458
atp1459
Rp1460
sVAA1RK
p1461
g1
((lp1462
S'dark'
p1463
aS'spark'
p1464
atp1465
Rp1466
sVIH1SH
p1467
g1
((lp1468
S'wish'
p1469
atp1470
Rp1471
sVIH1ST
p1472
g1
((lp1473
S'list'
p1474
aS'pissed'
p1475
atp1476
Rp1477
sVAA1
p1478
g1
((lp1479
S'thomas'
p1480
aS'barter'
p1481
aS'charles'
p1482
aS'dollar'
p1483
aS'farther'
p1484
aS'follow'
p1485
aS'pardon'
p1486
aS'father'
p1487
aS'prodigy'
p1488
aS'sorry'
p1489
aS'ami'
p1490
aS'garden'
p1491
aS'watching'
p1492
aS'ya'
p1493
aS'smarter'
p1494
aS'gonna'
p1495
aS'pocket'
p1496
aS'moi'
p1497
aS'posture'
p1498
aS'polish'
p1499
aS'scholar'
p1500
aS'harbor'
p1501
aS'borrow'
p1502
aS'common'
p1503
aS'bother'
p1504
aS'charter'
p1505
aS'onarchy'
p1506
aS'goddamn'
p1507
aS'fathers'
p1508
aS'carted'
p1509
aS'college'
p1510
aS'brrrah'
p1511
aS'gossip'
p1512
aS'conscience'
p1513
aS'bottom'
p1514
aS'monmouth'
p1515
aS"father's"
p1516
aS'providence'
p1517
aS'contraband'
p1518
aS'contrary'
p1519
aS'sorrow'
p1520
aS'monarchy'
p1521
aS'colony'
p1522
aS'wanted'
p1523
aS'knowledge'
p1524
aS'prospects'
p1525
aS"prob'ly"
p1526
aS'dollars'
p1527
aS'honest'
p1528
aS'pockets'
p1529
aS'fallen'
p1530
aS'honor'
p1531
aS'washington'
p1532
aS'promise'
p1533
aS'parties'
p1534
aS"washington's"
p1535
aS'army'
p1536
aS'constantly'
p1537
aS'toi'
p1538
aS'bargained'
p1539
aS'prosperous'
p1540
aS'started'
p1541
aS'brraaah'
p1542
aS'ardently'
p1543
aS'ha'
p1544
aS'starter'
p1545
aS'scotsman'
p1546
aS"wasn't"
p1547
aS'gotta'
p1548
aS'harder'
p1549
aS"body's"
p1550
aS'holler'
p1551
aS'problem'
p1552
aS'modern'
p1553
aS'promised'
p1554
aS'martyr'
p1555
aS'doctor'
p1556
aS'heartbreak'
p1557
aS'goner'
p1558
aS'party'
p1559
aS'colonies'
p1560
aS'martha'
p1561
aS'talkin'
p1562
aS'commonplace'
p1563
aS'congress'
p1564
aS'opposite'
p1565
aS'squalor'
p1566
aS'law'
p1567
aS'scholars'
p1568
aS'tomcat'
p1569
aS'bondage'
p1570
aS'wanna'
p1571
aS'farmers'
p1572
aS'nothin'
p1573
aS'honestly'
p1574
aS'rendezvous'
p1575
aS'model'
p1576
aS'harlem'
p1577
aS'scholarship'
p1578
atp1579
Rp1580
sVAA0
p1581
g1
((lp1582
S'proximity'
p1583
aS'obnoxious'
p1584
aS'montgomery'
p1585
atp1586
Rp1587
sVAA2
p1588
g1
((lp1589
S'marquis'
p1590
aS'camaraderie'
p1591
aS'monticello'
p1592
aS'conversation'
p1593
aS'lafayette'
p1594
aS'particular'
p1595
aS'opportunity'
p1596
aS'volunteer'
p1597
atp1598
Rp1599
sVIY1MD
p1600
g1
((lp1601
S'screamed'
p1602
atp1603
Rp1604
sVAA1RT
p1605
g1
((lp1606
S'start'
p1607
aS'part'
p1608
aS'smart'
p1609
atp1610
Rp1611
sVIH2
p1612
g1
((lp1613
S'information'
p1614
aS'independently'
p1615
aS'indecisive'
p1616
aS'introduction'
p1617
aS'introduce'
p1618
aS'disagreements'
p1619
aS'situation'
p1620
aS'immature'
p1621
aS'independence'
p1622
aS'disadvantage'
p1623
atp1624
Rp1625
sVIH0
p1626
g1
((lp1627
S'beware'
p1628
aS'renown'
p1629
aS'before'
p1630
aS'resemblance'
p1631
aS'behind'
p1632
aS'destroyed'
p1633
aS'to'
p1634
aS'excited'
p1635
aS'eventually'
p1636
aS'embezzling'
p1637
aS'return'
p1638
aS'descendants'
p1639
aS'disquieting'
p1640
aS'redeem'
p1641
aS'deniability'
p1642
aS'decide'
p1643
aS'instead'
p1644
aS'republican'
p1645
aS'resorted'
p1646
aS'relentlessly'
p1647
aS'specific'
p1648
aS'require'
p1649
aS"isn't"
p1650
aS'insane'
p1651
aS'because'
p1652
aS'financial'
p1653
aS'regret'
p1654
aS'resist'
p1655
aS'depends'
p1656
aS'decided'
p1657
aS'precedes'
p1658
aS'elitist'
p1659
aS'beyond'
p1660
aS'financials'
p1661
aS'explode'
p1662
aS'equivocate'
p1663
aS'inside'
p1664
aS'enough'
p1665
aS'experiment'
p1666
aS'between'
p1667
aS'recruits'
p1668
aS'degree'
p1669
aS'defend'
p1670
aS'refused'
p1671
aS'disputes'
p1672
aS'resign'
p1673
aS'imagine'
p1674
aS'beginning'
p1675
aS'defeatist'
p1676
aS'extreme'
p1677
aS'essentially'
p1678
aS'insidious'
p1679
aS'expecting'
p1680
aS'inexperienced'
p1681
aS'defeat'
p1682
aS'emerge'
p1683
aS'into'
p1684
aS'delighted'
p1685
aS'decides'
p1686
aS'defendants'
p1687
aS'resilience'
p1688
aS'despised'
p1689
aS'remains'
p1690
aS'distracted'
p1691
aS'betrays'
p1692
aS'victorious'
p1693
aS'dismisses'
p1694
aS'exactly'
p1695
aS'refrain'
p1696
aS'excuse'
p1697
aS'demand'
p1698
aS'believe'
p1699
aS'begins'
p1700
aS'reliable'
p1701
aS'devices'
p1702
aS'record'
p1703
aS'beliefs'
p1704
aS'deliberation'
p1705
aS'examine'
p1706
aS'examined'
p1707
aS'information'
p1708
aS'resigned'
p1709
aS'extorted'
p1710
aS'began'
p1711
aS'belong'
p1712
aS'rebellion'
p1713
aS'equipment'
p1714
aS'disparaged'
p1715
aS'destroy'
p1716
aS'begin'
p1717
aS'negotiate'
p1718
aS'despondent'
p1719
aS'response'
p1720
aS'deny'
p1721
aS'remember'
p1722
aS'without'
p1723
aS'eliza'
p1724
atp1725
Rp1726
sVIH1
p1727
g1
((lp1728
S'immigrants'
p1729
aS'missing'
p1730
aS'ringing'
p1731
aS'figure'
p1732
aS'disciplined'
p1733
aS'visit'
p1734
aS'into'
p1735
aS'midnight'
p1736
aS'dripping'
p1737
aS'brilliance'
p1738
aS'immigrant'
p1739
aS'middle'
p1740
aS'britain'
p1741
aS'pistols'
p1742
aS'simply'
p1743
aS'symphony'
p1744
aS'singing'
p1745
aS'citizens'
p1746
aS"sister's"
p1747
aS'winning'
p1748
aS'mister'
p1749
aS'drinking'
p1750
aS'really'
p1751
aS'millisecond'
p1752
aS'city'
p1753
aS'little'
p1754
aS'william'
p1755
aS'intercourse'
p1756
aS'giving'
p1757
aS'imminent'
p1758
aS'thinkin'
p1759
aS'divvy'
p1760
aS'dissidents'
p1761
aS'system'
p1762
aS'liberty'
p1763
aS'situated'
p1764
aS'trigger'
p1765
aS'fidgeting'
p1766
aS'witnessing'
p1767
aS'pretty'
p1768
aS"hist'ry"
p1769
aS'fiddled'
p1770
aS'military'
p1771
aS'fingerprints'
p1772
aS'listen'
p1773
aS'business'
p1774
aS'living'
p1775
aS'clearly'
p1776
aS'mission'
p1777
aS'given'
p1778
aS'wisdom'
p1779
aS'ridden'
p1780
aS"winter's"
p1781
aS'rigor'
p1782
aS'difficult'
p1783
aS'serious'
p1784
aS'sisters'
p1785
aS'witted'
p1786
aS'philip'
p1787
aS'difference'
p1788
aS'whisky'
p1789
aS'tyranny'
p1790
aS'distance'
p1791
aS'sister'
p1792
aS'pistol'
p1793
aS'frisky'
p1794
aS'getting'
p1795
aS'inside'
p1796
aS'princeton'
p1797
aS'single'
p1798
aS'british'
p1799
aS'different'
p1800
aS'civics'
p1801
aS'mr'
p1802
aS'giddyup'
p1803
aS'river'
p1804
aS'minutes'
p1805
aS'skittish'
p1806
aS"isn't"
p1807
aS'history'
p1808
atp1809
Rp1810
sVUH1RZ
p1811
g1
((lp1812
S'yours'
p1813
atp1814
Rp1815
sVEH1GZ
p1816
g1
((lp1817
S'legs'
p1818
atp1819
Rp1820
sVAH1STS
p1821
g1
((lp1822
S'trusts'
p1823
atp1824
Rp1825
sVAY1Z
p1826
g1
((lp1827
S'eyes'
p1828
aS'wise'
p1829
aS'rise'
p1830
aS'spies'
p1831
aS'lies'
p1832
aS'guys'
p1833
aS'size'
p1834
atp1835
Rp1836
sVAY1S
p1837
g1
((lp1838
S'vice'
p1839
aS'nice'
p1840
atp1841
Rp1842
sVAY1R
p1843
g1
((lp1844
S'fire'
p1845
aS'hire'
p1846
aS'dire'
p1847
atp1848
Rp1849
sVAY1T
p1850
g1
((lp1851
S'right'
p1852
aS'kite'
p1853
aS'knight'
p1854
aS'night'
p1855
aS'site'
p1856
aS'fight'
p1857
aS'write'
p1858
aS'sight'
p1859
aS'light'
p1860
aS'quite'
p1861
aS'might'
p1862
aS'cite'
p1863
atp1864
Rp1865
sVAY1V
p1866
g1
((lp1867
S'live'
p1868
aS'five'
p1869
aS'drive'
p1870
aS"i've"
p1871
atp1872
Rp1873
sVER1ST
p1874
g1
((lp1875
S'first'
p1876
atp1877
Rp1878
sVAY1M
p1879
g1
((lp1880
S"i'm"
p1881
aS'climb'
p1882
aS'time'
p1883
atp1884
Rp1885
sVAY1L
p1886
g1
((lp1887
S"i'll"
p1888
aS'smile'
p1889
aS'while'
p1890
aS'file'
p1891
aS'trial'
p1892
atp1893
Rp1894
sVAY1N
p1895
g1
((lp1896
S'nine'
p1897
aS'line'
p1898
aS'fine'
p1899
aS'mine'
p1900
atp1901
Rp1902
sVAY1D
p1903
g1
((lp1904
S'ride'
p1905
aS'tide'
p1906
aS'bride'
p1907
aS'slide'
p1908
aS"i'd"
p1909
aS'pride'
p1910
aS'side'
p1911
aS'died'
p1912
atp1913
Rp1914
sVAY1F
p1915
g1
((lp1916
S'life'
p1917
aS'wife'
p1918
atp1919
Rp1920
sVAW1
p1921
g1
((lp1922
S'shower'
p1923
aS'founding'
p1924
aS'founder'
p1925
aS'power'
p1926
aS'scoundrel'
p1927
aS'thousand'
p1928
aS'bow'
p1929
aS'downtown'
p1930
aS'how'
p1931
aS'outside'
p1932
aS'powder'
p1933
aS'now'
p1934
aS'thousands'
p1935
atp1936
Rp1937
sVAW0
p1938
g1
((lp1939
S'outrageous'
p1940
atp1941
Rp1942
sVAH1T
p1943
g1
((lp1944
S'what'
p1945
aS'cut'
p1946
aS'but'
p1947
atp1948
Rp1949
sVAH1V
p1950
g1
((lp1951
S'of'
p1952
aS'love'
p1953
atp1954
Rp1955
sVAH1P
p1956
g1
((lp1957
S'up'
p1958
atp1959
Rp1960
sS'AH1S'
p1961
g1
((lp1962
S'us'
p1963
atp1964
Rp1965
sVAH1Z
p1966
g1
((lp1967
S'does'
p1968
aS'was'
p1969
aS'cuz'
p1970
aS'fuzz'
p1971
atp1972
Rp1973
sVAH1D
p1974
g1
((lp1975
S'flood'
p1976
aS'blood'
p1977
atp1978
Rp1979
sVAH1F
p1980
g1
((lp1981
S'rough'
p1982
atp1983
Rp1984
sVAH1M
p1985
g1
((lp1986
S'from'
p1987
aS'rum'
p1988
aS'some'
p1989
aS'um'
p1990
aS'dumb'
p1991
aS'come'
p1992
atp1993
Rp1994
sVAH1N
p1995
g1
((lp1996
S'none'
p1997
aS'run'
p1998
aS'sun'
p1999
aS'gun'
p2000
aS'one'
p2001
aS'done'
p2002
aS'son'
p2003
atp2004
Rp2005
sVAH1K
p2006
g1
((lp2007
S'fuck'
p2008
aS'luck'
p2009
atp2010
Rp2011
sVIH1PS
p2012
g1
((lp2013
S'ships'
p2014
aS'chips'
p2015
atp2016
Rp2017
sS'AEM'
p2018
g1
((lp2019
S'famished'
p2020
atp2021
Rp2022
sVIY0
p2023
g1
((lp2024
S'reactions'
p2025
aS'be'
p2026
aS'creation'
p2027
aS'resist'
p2028
aS'redefining'
p2029
aS'resigned'
p2030
aS'resemblance'
p2031
aS'remains'
p2032
aS'create'
p2033
aS'creator'
p2034
aS'reality'
p2035
aS'enough'
p2036
aS'republic'
p2037
aS'retreat'
p2038
aS'between'
p2039
aS'eventually'
p2040
aS'return'
p2041
aS'recruits'
p2042
aS'require'
p2043
aS'resign'
p2044
aS'republican'
p2045
aS'response'
p2046
aS'present'
p2047
aS'reaction'
p2048
aS'essentially'
p2049
aS'remember'
p2050
aS'created'
p2051
aS'reliable'
p2052
aS'resorted'
p2053
aS'remind'
p2054
aS'retreating'
p2055
aS'the'
p2056
aS'began'
p2057
atp2058
Rp2059
sVEY1VD
p2060
g1
((lp2061
S'saved'
p2062
atp2063
Rp2064
sVEY1VZ
p2065
g1
((lp2066
S'slaves'
p2067
aS'waves'
p2068
atp2069
Rp2070
sVUW1ST
p2071
g1
((lp2072
S'boost'
p2073
atp2074
Rp2075
sVIH1NG
p2076
g1
((lp2077
S'king'
p2078
aS'thing'
p2079
aS'bring'
p2080
aS'sing'
p2081
atp2082
Rp2083
sVIH1ND
p2084
g1
((lp2085
S'wind'
p2086
atp2087
Rp2088
sVAE1NDZ
p2089
g1
((lp2090
S'stands'
p2091
aS'hands'
p2092
atp2093
Rp2094
sVIH1NT
p2095
g1
((lp2096
S'print'
p2097
aS"didn't"
p2098
atp2099
Rp2100
sVIH1NS
p2101
g1
((lp2102
S'since'
p2103
atp2104
Rp2105
sVIH1NZ
p2106
g1
((lp2107
S'sins'
p2108
atp2109
Rp2110
sVAE1
p2111
g1
((lp2112
S'madison'
p2113
aS'chances'
p2114
aS'scrappy'
p2115
aS'scattered'
p2116
aS'satisfied'
p2117
aS'battle'
p2118
aS'captain'
p2119
aS'brandish'
p2120
aS'happiness'
p2121
aS'glances'
p2122
aS'vacuous'
p2123
aS"action's"
p2124
aS'stances'
p2125
aS"haven't"
p2126
aS'happened'
p2127
aS'handle'
p2128
aS'matches'
p2129
aS'cannon'
p2130
aS'hatter'
p2131
aS'cannot'
p2132
aS'hamilton'
p2133
aS'alex'
p2134
aS'ranting'
p2135
aS'adams'
p2136
aS'fragile'
p2137
aS'stagger'
p2138
aS'landlord'
p2139
aS'challenge'
p2140
aS'glasses'
p2141
aS'battlefield'
p2142
aS'national'
p2143
aS'yeah'
p2144
aS'carriages'
p2145
aS'happen'
p2146
aS'anarchy'
p2147
aS'happens'
p2148
aS"cabinet's"
p2149
aS'asking'
p2150
aS'passion'
p2151
aS'ration'
p2152
aS'stallion'
p2153
aS'answers'
p2154
aS'fractured'
p2155
aS"hadn't"
p2156
aS'cannons'
p2157
aS'fantasies'
p2158
aS'lancelot'
p2159
aS'practical'
p2160
aS'franklin'
p2161
aS'tactical'
p2162
aS'action'
p2163
aS'battery'
p2164
aS'manage'
p2165
aS'makin'
p2166
aS'dances'
p2167
aS'manumission'
p2168
aS"hamilton's"
p2169
aS'traction'
p2170
aS'strategy'
p2171
aS'stamina'
p2172
aS'handles'
p2173
aS'master'
p2174
aS'factions'
p2175
aS'fractions'
p2176
aS'cabinet'
p2177
aS'candidacy'
p2178
aS'casualties'
p2179
aS'handsome'
p2180
aS'practicing'
p2181
aS'frankly'
p2182
aS'francophile'
p2183
aS'classes'
p2184
aS'battering'
p2185
aS'balance'
p2186
aS'scatter'
p2187
aS'panicky'
p2188
aS'fashion'
p2189
aS'ragtag'
p2190
aS'rally'
p2191
aS'angelica'
p2192
aS'planting'
p2193
aS'bastard'
p2194
aS'rather'
p2195
aS'granted'
p2196
aS'battles'
p2197
aS'graduate'
p2198
aS'damages'
p2199
aS'answer'
p2200
aS'status'
p2201
aS'faction'
p2202
aS'passionately'
p2203
aS'after'
p2204
aS'blacker'
p2205
aS'sally'
p2206
aS'happening'
p2207
aS"adam's"
p2208
aS'lasted'
p2209
aS'quagmire'
p2210
aS'basket'
p2211
atp2212
Rp2213
sVAE0
p2214
g1
((lp2215
S'angelica'
p2216
aS'ambassador'
p2217
aS'advice'
p2218
aS'admire'
p2219
aS'accelerated'
p2220
aS'advantages'
p2221
aS'campaigning'
p2222
aS'manhattan'
p2223
atp2224
Rp2225
sVAE2
p2226
g1
((lp2227
S'satisfaction'
p2228
aS'ammunition'
p2229
aS'abolitionists'
p2230
aS'alexander'
p2231
atp2232
Rp2233
sVER1LDZ
p2234
g1
((lp2235
S"world's"
p2236
atp2237
Rp2238
sVOW1ST
p2239
g1
((lp2240
S'most'
p2241
aS'post'
p2242
aS'coast'
p2243
atp2244
Rp2245
sVAE1M
p2246
g1
((lp2247
S'damn'
p2248
aS'am'
p2249
aS'sam'
p2250
atp2251
Rp2252
sVAE1N
p2253
g1
((lp2254
S'van'
p2255
aS'an'
p2256
aS'fan'
p2257
aS'plan'
p2258
aS'man'
p2259
aS'than'
p2260
aS'can'
p2261
atp2262
Rp2263
sVAE1K
p2264
g1
((lp2265
S'smack'
p2266
aS'black'
p2267
aS'back'
p2268
aS'crack'
p2269
atp2270
Rp2271
sS'AA0N'
p2272
g1
((lp2273
S'bonsoir'
p2274
atp2275
Rp2276
sVAE1D
p2277
g1
((lp2278
S'had'
p2279
aS'mad'
p2280
atp2281
Rp2282
sVAE1G
p2283
g1
((lp2284
S'flag'
p2285
aS'dag'
p2286
aS'brag'
p2287
atp2288
Rp2289
sVAE1F
p2290
g1
((lp2291
S'staff'
p2292
aS'laugh'
p2293
aS'half'
p2294
atp2295
Rp2296
sVAE1B
p2297
g1
((lp2298
S'grab'
p2299
atp2300
Rp2301
sVAO1RKS
p2302
g1
((lp2303
S"york's"
p2304
atp2305
Rp2306
sVAE1Z
p2307
g1
((lp2308
S'as'
p2309
aS'has'
p2310
atp2311
Rp2312
sVAE1T
p2313
g1
((lp2314
S'at'
p2315
aS'that'
p2316
atp2317
Rp2318
sVAE1V
p2319
g1
((lp2320
S'have'
p2321
atp2322
Rp2323
sVER0M
p2324
g1
((lp2325
S'from'
p2326
atp2327
Rp2328
sVAE1S
p2329
g1
((lp2330
S'ass'
p2331
aS'mass'
p2332
aS'last'
p2333
atp2334
Rp2335
sVAO1NTS
p2336
g1
((lp2337
S'wants'
p2338
atp2339
Rp2340
sVAE1NGKS
p2341
g1
((lp2342
S'thanks'
p2343
atp2344
Rp2345
sVAO1RTS
p2346
g1
((lp2347
S'sorts'
p2348
atp2349
Rp2350
sVAY0
p2351
g1
((lp2352
S'ideals'
p2353
atp2354
Rp2355
sVAO1RTH
p2356
g1
((lp2357
S'north'
p2358
aS'fourth'
p2359
atp2360
Rp2361
sVAH1NCHT
p2362
g1
((lp2363
S'punched'
p2364
atp2365
Rp2366
sVAA1CH
p2367
g1
((lp2368
S'watch'
p2369
atp2370
Rp2371
sVAH1BZ
p2372
g1
((lp2373
S'stubs'
p2374
atp2375
Rp2376
sVIY1LZ
p2377
g1
((lp2378
S'feels'
p2379
atp2380
Rp2381
sVAO1LZ
p2382
g1
((lp2383
S'calls'
p2384
atp2385
Rp2386
sVIH1TH
p2387
g1
((lp2388
S'with'
p2389
atp2390
Rp2391
sVIH1TS
p2392
g1
((lp2393
S'sits'
p2394
aS'wits'
p2395
aS"it's"
p2396
aS'pits'
p2397
aS'fits'
p2398
aS'gets'
p2399
aS'its'
p2400
atp2401
Rp2402
sVAE1CH
p2403
g1
((lp2404
S'catch'
p2405
aS'scratch'
p2406
aS'snatch'
p2407
aS'match'
p2408
aS'hatch'
p2409
atp2410
Rp2411
sVEY1JH
p2412
g1
((lp2413
S'age'
p2414
atp2415
Rp2416
sVIY1LD
p2417
g1
((lp2418
S'field'
p2419
aS'yield'
p2420
atp2421
Rp2422
sVER1LD
p2423
g1
((lp2424
S'world'
p2425
atp2426
Rp2427
sVAA1RJH
p2428
g1
((lp2429
S'charge'
p2430
atp2431
Rp2432
sVOW1
p2433
g1
((lp2434
S'protean'
p2435
aS'show'
p2436
aS'throwing'
p2437
aS'colder'
p2438
aS'over'
p2439
aS'global'
p2440
aS'loco'
p2441
aS'openly'
p2442
aS'loaded'
p2443
aS'go'
p2444
aS'polish'
p2445
aS'total'
p2446
aS'blow'
p2447
aS'oldest'
p2448
aS'bolder'
p2449
aS'no'
p2450
aS'throw'
p2451
aS'only'
p2452
aS'going'
p2453
aS'slowly'
p2454
aS'poet'
p2455
aS'moses'
p2456
aS'local'
p2457
aS'toe'
p2458
aS'yo'
p2459
aS'though'
p2460
aS'socially'
p2461
aS'rochambeau'
p2462
aS'lovin'
p2463
aS'moment'
p2464
aS'slow'
p2465
aS'soldiers'
p2466
aS'know'
p2467
aS'grow'
p2468
aS'shoulder'
p2469
aS'lower'
p2470
aS'ok'
p2471
aS'oh'
p2472
aS'older'
p2473
aS'o'
p2474
aS'bow'
p2475
aS'soldier'
p2476
aS'so'
p2477
aS'social'
p2478
atp2479
Rp2480
sVOW0
p2481
g1
((lp2482
S'protean'
p2483
atp2484
Rp2485
sVOW2
p2486
g1
((lp2487
S'okay'
p2488
atp2489
Rp2490
sVIH0DH
p2491
g1
((lp2492
S'with'
p2493
atp2494
Rp2495
sVIY1D
p2496
g1
((lp2497
S'need'
p2498
aS"he'd"
p2499
aS"she'd"
p2500
aS'lead'
p2501
aS"we'd"
p2502
atp2503
Rp2504
sVAH1NDZ
p2505
g1
((lp2506
S'funds'
p2507
atp2508
Rp2509
sVIY1K
p2510
g1
((lp2511
S'week'
p2512
aS'seek'
p2513
aS'weak'
p2514
aS'sneak'
p2515
atp2516
Rp2517
sVEH1ND
p2518
g1
((lp2519
S'fend'
p2520
aS'end'
p2521
aS'lend'
p2522
aS'send'
p2523
aS'bend'
p2524
aS'friend'
p2525
atp2526
Rp2527
sVIY1M
p2528
g1
((lp2529
S'dream'
p2530
aS'scream'
p2531
atp2532
Rp2533
sVIY1L
p2534
g1
((lp2535
S'real'
p2536
aS'feel'
p2537
aS"we'll"
p2538
aS'steal'
p2539
aS"he'll"
p2540
atp2541
Rp2542
sVIY1N
p2543
g1
((lp2544
S'seen'
p2545
aS'queen'
p2546
aS'green'
p2547
aS'mean'
p2548
atp2549
Rp2550
sVIY1P
p2551
g1
((lp2552
S'sleep'
p2553
aS'keep'
p2554
atp2555
Rp2556
sVIY1S
p2557
g1
((lp2558
S'piece'
p2559
aS'cease'
p2560
aS'peace'
p2561
aS'nice'
p2562
atp2563
Rp2564
sVIY1R
p2565
g1
((lp2566
S'hear'
p2567
aS"we're"
p2568
aS'here'
p2569
atp2570
Rp2571
sS'IY1'
p2572
g1
((lp2573
S'seeing'
p2574
aS'oui'
p2575
aS've'
p2576
aS'people'
p2577
aS'being'
p2578
aS'tea'
p2579
aS'jesus'
p2580
aS'see'
p2581
aS'sea'
p2582
aS'fleeting'
p2583
aS'reasons'
p2584
aS'really'
p2585
aS'even'
p2586
aS'creole'
p2587
aS'needy'
p2588
aS'leading'
p2589
aS'meanwhile'
p2590
aS'three'
p2591
aS'legal'
p2592
aS'fleeing'
p2593
aS'bleeding'
p2594
aS'secret'
p2595
aS'eating'
p2596
aS'easy'
p2597
aS'speaker'
p2598
aS'he'
p2599
aS'meeting'
p2600
aS'she'
p2601
aS'be'
p2602
aS'we'
p2603
aS'hero'
p2604
aS'lee'
p2605
aS'seeking'
p2606
aS'de'
p2607
aS'free'
p2608
aS'reason'
p2609
aS'fee'
p2610
aS'grievance'
p2611
aS'key'
p2612
aS'previous'
p2613
aS'je'
p2614
aS'spree'
p2615
aS'd'
p2616
aS'me'
p2617
aS'feeling'
p2618
aS'e'
p2619
aS'treatise'
p2620
aS'freedom'
p2621
aS'emerge'
p2622
aS'equal'
p2623
aS'seated'
p2624
aS'treaty'
p2625
aS'p'
p2626
aS'either'
p2627
aS'treason'
p2628
aS'geniuses'
p2629
atp2630
Rp2631
sVIY1T
p2632
g1
((lp2633
S'beat'
p2634
aS'seat'
p2635
aS'feet'
p2636
aS'heat'
p2637
aS'street'
p2638
aS'treat'
p2639
aS'meet'
p2640
atp2641
Rp2642
sVIY1V
p2643
g1
((lp2644
S'leave'
p2645
aS"we've"
p2646
aS'sleeve'
p2647
atp2648
Rp2649
sVIY1Z
p2650
g1
((lp2651
S'these'
p2652
aS'seize'
p2653
aS"he's"
p2654
atp2655
Rp2656
sVAO1LD
p2657
g1
((lp2658
S'called'
p2659
atp2660
Rp2661
sVAY1RZ
p2662
g1
((lp2663
S'fires'
p2664
aS'hires'
p2665
atp2666
Rp2667
sVAO1ST
p2668
g1
((lp2669
S'last'
p2670
aS'lost'
p2671
atp2672
Rp2673
sVIH1NGKS
p2674
g1
((lp2675
S'thinks'
p2676
atp2677
Rp2678
sVAH0V
p2679
g1
((lp2680
S'of'
p2681
atp2682
Rp2683
sVAH0T
p2684
g1
((lp2685
S'that'
p2686
atp2687
Rp2688
sS'AH0S'
p2689
g1
((lp2690
S'casse'
p2691
atp2692
Rp2693
sVAH0Z
p2694
g1
((lp2695
S'has'
p2696
aS'was'
p2697
atp2698
Rp2699
sVAH0N
p2700
g1
((lp2701
S'an'
p2702
aS'can'
p2703
aS'been'
p2704
aS'than'
p2705
atp2706
Rp2707
sVAH0M
p2708
g1
((lp2709
S"i'm"
p2710
atp2711
Rp2712
sVIH1Z
p2713
g1
((lp2714
S'is'
p2715
aS'his'
p2716
aS'says'
p2717
atp2718
Rp2719
sVIH1T
p2720
g1
((lp2721
S'spit'
p2722
aS'sit'
p2723
aS'get'
p2724
aS'it'
p2725
aS'split'
p2726
aS'bit'
p2727
aS'shit'
p2728
atp2729
Rp2730
sVIH1V
p2731
g1
((lp2732
S'live'
p2733
aS'give'
p2734
atp2735
Rp2736
sVIH1P
p2737
g1
((lp2738
S'skip'
p2739
aS'tip'
p2740
aS'drip'
p2741
aS'slip'
p2742
aS'strip'
p2743
aS'ship'
p2744
atp2745
Rp2746
sVIH1R
p2747
g1
((lp2748
S'dear'
p2749
aS'beer'
p2750
aS"we're"
p2751
atp2752
Rp2753
sVIH1S
p2754
g1
((lp2755
S'this'
p2756
aS'miss'
p2757
aS'kiss'
p2758
aS'piss'
p2759
atp2760
Rp2761
sVIH1L
p2762
g1
((lp2763
S"we'll"
p2764
aS'til'
p2765
aS'till'
p2766
aS'skill'
p2767
aS'still'
p2768
aS'quill'
p2769
atp2770
Rp2771
sVIH1M
p2772
g1
((lp2773
S'him'
p2774
atp2775
Rp2776
sVIH1N
p2777
g1
((lp2778
S'win'
p2779
aS'when'
p2780
aS'kin'
p2781
aS'been'
p2782
aS'in'
p2783
atp2784
Rp2785
sVIH1K
p2786
g1
((lp2787
S'prick'
p2788
aS'sick'
p2789
aS'pick'
p2790
aS'quick'
p2791
aS'chick'
p2792
aS'thick'
p2793
atp2794
Rp2795
sVIH1D
p2796
g1
((lp2797
S'did'
p2798
aS'hid'
p2799
aS'kid'
p2800
atp2801
Rp2802
sVIH1F
p2803
g1
((lp2804
S'if'
p2805
atp2806
Rp2807
sVIH1G
p2808
g1
((lp2809
S'dig'
p2810
atp2811
Rp2812
sVAO1Z
p2813
g1
((lp2814
S'jaws'
p2815
aS'cause'
p2816
aS'was'
p2817
atp2818
Rp2819
sVAO1S
p2820
g1
((lp2821
S'toss'
p2822
aS'ross'
p2823
atp2824
Rp2825
sVAO1R
p2826
g1
((lp2827
S'or'
p2828
aS'door'
p2829
aS'for'
p2830
aS'pour'
p2831
aS'your'
p2832
aS'four'
p2833
aS'war'
p2834
aS'whore'
p2835
aS'more'
p2836
atp2837
Rp2838
sVAO1P
p2839
g1
((lp2840
S'top'
p2841
aS'drop'
p2842
atp2843
Rp2844
sVAO1T
p2845
g1
((lp2846
S'fraught'
p2847
aS'caught'
p2848
aS'thought'
p2849
aS'fought'
p2850
aS'taught'
p2851
aS'lot'
p2852
aS'ought'
p2853
atp2854
Rp2855
sVAO1K
p2856
g1
((lp2857
S'gawk'
p2858
aS'talk'
p2859
aS'walk'
p2860
atp2861
Rp2862
sVAO1N
p2863
g1
((lp2864
S'on'
p2865
aS'dawn'
p2866
aS'gone'
p2867
atp2868
Rp2869
sVAO1L
p2870
g1
((lp2871
S'wall'
p2872
aS'stall'
p2873
aS'ball'
p2874
aS'fall'
p2875
atp2876
Rp2877
sVAH1TS
p2878
g1
((lp2879
S"what's"
p2880
atp2881
Rp2882
sVIH1FTS
p2883
g1
((lp2884
S'gifts'
p2885
aS'shifts'
p2886
atp2887
Rp2888
sVAO1F
p2889
g1
((lp2890
S'off'
p2891
atp2892
Rp2893
sVOW1TH
p2894
g1
((lp2895
S'both'
p2896
atp2897
Rp2898
sVUW2
p2899
g1
((lp2900
S'july'
p2901
aS'superpower'
p2902
atp2903
Rp2904
sVUW1
p2905
g1
((lp2906
S'doing'
p2907
aS'through'
p2908
aS'shoe'
p2909
aS'crew'
p2910
aS"louis's"
p2911
aS'suicide'
p2912
aS'rumors'
p2913
aS'union'
p2914
aS'true'
p2915
aS'two'
p2916
aS'unite'
p2917
aS'dueling'
p2918
aS'to'
p2919
aS'future'
p2920
aS'too'
p2921
aS'mutiny'
p2922
aS'new'
p2923
aS'you'
p2924
aS'movement'
p2925
aS'do'
p2926
aS'knew'
p2927
aS'duels'
p2928
aS'students'
p2929
aS'who'
p2930
aS'ooh'
p2931
aS'drew'
p2932
aS'scrutiny'
p2933
aS'sooner'
p2934
aS'useless'
p2935
aS'truly'
p2936
aS'super'
p2937
aS'ruinous'
p2938
aS'duel'
p2939
aS'ruined'
p2940
aS'fluent'
p2941
aS'stupid'
p2942
aS'brew'
p2943
aS'wounded'
p2944
aS'schoolboy'
p2945
atp2946
Rp2947
sVUW0
p2948
g1
((lp2949
S'uniquely'
p2950
aS'oui'
p2951
aS'lieutenant'
p2952
aS'neutrality'
p2953
aS'tomorrow'
p2954
aS'today'
p2955
atp2956
Rp2957
sVOW1KS
p2958
g1
((lp2959
S'folks'
p2960
atp2961
Rp2962
sVAY1NDZ
p2963
g1
((lp2964
S'winds'
p2965
aS'finds'
p2966
atp2967
Rp2968
sVIH1FS
p2969
g1
((lp2970
S'gifts'
p2971
atp2972
Rp2973
sVOY1N
p2974
g1
((lp2975
S'join'
p2976
aS'goin'
p2977
atp2978
Rp2979
sVOY1S
p2980
g1
((lp2981
S'voice'
p2982
aS'choice'
p2983
atp2984
Rp2985
sVEH1LTH
p2986
g1
((lp2987
S'health'
p2988
aS'wealth'
p2989
atp2990
Rp2991
sVAH1MZ
p2992
g1
((lp2993
S'comes'
p2994
atp2995
Rp2996
sVUH1R
p2997
g1
((lp2998
S'poor'
p2999
aS"you're"
p3000
aS'sure'
p3001
aS'your'
p3002
atp3003
Rp3004
sVUH1T
p3005
g1
((lp3006
S'put'
p3007
atp3008
Rp3009
sVUH1K
p3010
g1
((lp3011
S'rook'
p3012
aS'book'
p3013
aS'took'
p3014
aS'look'
p3015
atp3016
Rp3017
sVUH1L
p3018
g1
((lp3019
S'pull'
p3020
aS'full'
p3021
atp3022
Rp3023
sVUH1D
p3024
g1
((lp3025
S'could'
p3026
aS'good'
p3027
aS"you'd"
p3028
aS'would'
p3029
aS'should'
p3030
atp3031
Rp3032
sVOW1Z
p3033
g1
((lp3034
S'foes'
p3035
aS'knows'
p3036
aS'goes'
p3037
aS'those'
p3038
aS'close'
p3039
atp3040
Rp3041
sVAY1NZ
p3042
g1
((lp3043
S'lines'
p3044
atp3045
Rp3046
sVOW1P
p3047
g1
((lp3048
S'hope'
p3049
atp3050
Rp3051
sVOW1S
p3052
g1
((lp3053
S'close'
p3054
aS'most'
p3055
atp3056
Rp3057
sVOW1T
p3058
g1
((lp3059
S'vote'
p3060
aS'quote'
p3061
aS'note'
p3062
aS'wrote'
p3063
atp3064
Rp3065
sVOW1K
p3066
g1
((lp3067
S'broke'
p3068
atp3069
Rp3070
sVOW1M
p3071
g1
((lp3072
S'home'
p3073
atp3074
Rp3075
sVOW1L
p3076
g1
((lp3077
S'goal'
p3078
aS'stole'
p3079
aS'soul'
p3080
aS'coal'
p3081
aS'whole'
p3082
aS'roll'
p3083
atp3084
Rp3085
sVOW1N
p3086
g1
((lp3087
S'own'
p3088
aS'mon'
p3089
aS"don't"
p3090
atp3091
Rp3092
sVAY1ND
p3093
g1
((lp3094
S'blind'
p3095
aS'kind'
p3096
aS'mind'
p3097
aS'signed'
p3098
aS'find'
p3099
aS'wind'
p3100
atp3101
Rp3102
sVOW1B
p3103
g1
((lp3104
S'job'
p3105
atp3106
Rp3107
sVAA1KS
p3108
g1
((lp3109
S'box'
p3110
aS'blocks'
p3111
aS'fox'
p3112
aS'socks'
p3113
aS'frocks'
p3114
aS'knox'
p3115
atp3116
Rp3117
sVOW1D
p3118
g1
((lp3119
S'load'
p3120
aS'rowed'
p3121
aS'code'
p3122
atp3123
Rp3124
sVAA1BZ
p3125
g1
((lp3126
S'robs'
p3127
atp3128
Rp3129
sVUW1PS
p3130
g1
((lp3131
S'troops'
p3132
atp3133
Rp3134
sVER0Z
p3135
g1
((lp3136
S'yours'
p3137
aS'years'
p3138
atp3139
Rp3140
sVEY1ND
p3141
g1
((lp3142
S'reigned'
p3143
atp3144
Rp3145
sVAA1PS
p3146
g1
((lp3147
S'pops'
p3148
aS'cops'
p3149
aS'stops'
p3150
atp3151
Rp3152
sVAA1PT
p3153
g1
((lp3154
S'dropped'
p3155
atp3156
Rp3157
sVEY1NJH
p3158
g1
((lp3159
S'change'
p3160
atp3161
Rp3162
sVEY1NT
p3163
g1
((lp3164
S"ain't"
p3165
atp3166
Rp3167
sVEY1NZ
p3168
g1
((lp3169
S'brains'
p3170
aS'reins'
p3171
aS"brain's"
p3172
atp3173
Rp3174
sVAE1NS
p3175
g1
((lp3176
S'dance'
p3177
aS'chance'
p3178
aS'stance'
p3179
aS'france'
p3180
atp3181
Rp3182
sVAE1NT
p3183
g1
((lp3184
S'plant'
p3185
aS"can't"
p3186
atp3187
Rp3188
sVEH1RZ
p3189
g1
((lp3190
S"there's"
p3191
atp3192
Rp3193
sVAE1NZ
p3194
g1
((lp3195
S"man's"
p3196
aS'hands'
p3197
atp3198
Rp3199
sVAE1ND
p3200
g1
((lp3201
S'and'
p3202
aS'brand'
p3203
aS'land'
p3204
aS'stand'
p3205
aS'hand'
p3206
atp3207
Rp3208
sVAE1NG
p3209
g1
((lp3210
S'hang'
p3211
atp3212
Rp3213
sVIY1CH
p3214
g1
((lp3215
S'speech'
p3216
aS'teach'
p3217
aS'reach'
p3218
aS'peach'
p3219
aS'each'
p3220
atp3221
Rp3222
sVUW1Z
p3223
g1
((lp3224
S'whose'
p3225
aS'use'
p3226
aS"who's"
p3227
aS'choose'
p3228
aS'lose'
p3229
atp3230
Rp3231
sVUW1V
p3232
g1
((lp3233
S'move'
p3234
aS"you've"
p3235
aS'prove'
p3236
atp3237
Rp3238
sVUW1T
p3239
g1
((lp3240
S'shoot'
p3241
aS'suit'
p3242
atp3243
Rp3244
sVUW1S
p3245
g1
((lp3246
S'use'
p3247
atp3248
Rp3249
sVUW1R
p3250
g1
((lp3251
S"you're"
p3252
atp3253
Rp3254
sVUW1P
p3255
g1
((lp3256
S'group'
p3257
atp3258
Rp3259
sVUW1M
p3260
g1
((lp3261
S'room'
p3262
aS'boom'
p3263
atp3264
Rp3265
sVUW1L
p3266
g1
((lp3267
S'fool'
p3268
aS"you'll"
p3269
aS'school'
p3270
atp3271
Rp3272
sVUW1D
p3273
g1
((lp3274
S"you'd"
p3275
atp3276
Rp3277
sVIH1CH
p3278
g1
((lp3279
S'which'
p3280
aS'rich'
p3281
atp3282
Rp3283
sVAA1RLZ
p3284
g1
((lp3285
S'charles'
p3286
atp3287
Rp3288
sVOW1NT
p3289
g1
((lp3290
S"won't"
p3291
aS"don't"
p3292
atp3293
Rp3294
sVIH1SHT
p3295
g1
((lp3296
S'wished'
p3297
atp3298
Rp3299
sVEH1NS
p3300
g1
((lp3301
S'whence'
p3302
atp3303
Rp3304
sVEH1NT
p3305
g1
((lp3306
S'meant'
p3307
aS'spent'
p3308
aS'cent'
p3309
aS'went'
p3310
aS'scent'
p3311
aS'sent'
p3312
atp3313
Rp3314
sVEH1NZ
p3315
g1
((lp3316
S"when's"
p3317
aS'tens'
p3318
aS'friends'
p3319
atp3320
Rp3321
sVAE1PT
p3322
g1
((lp3323
S'kept'
p3324
atp3325
Rp3326
sVEH1KST
p3327
g1
((lp3328
S'next'
p3329
atp3330
Rp3331
sVAA1B
p3332
g1
((lp3333
S'rob'
p3334
aS'job'
p3335
atp3336
Rp3337
sVAA1D
p3338
g1
((lp3339
S'god'
p3340
atp3341
Rp3342
sVAA1KT
p3343
g1
((lp3344
S'shocked'
p3345
atp3346
Rp3347
sVAO1RJH
p3348
g1
((lp3349
S'george'
p3350
atp3351
Rp3352
sVAA1K
p3353
g1
((lp3354
S'lock'
p3355
aS'rock'
p3356
aS'cock'
p3357
aS'knock'
p3358
aS'walk'
p3359
atp3360
Rp3361
sVAA1L
p3362
g1
((lp3363
S'fall'
p3364
atp3365
Rp3366
sVAA1N
p3367
g1
((lp3368
S'on'
p3369
aS'non'
p3370
aS'john'
p3371
aS'mon'
p3372
atp3373
Rp3374
sVAA1P
p3375
g1
((lp3376
S'top'
p3377
aS'drop'
p3378
aS'stop'
p3379
aS'pop'
p3380
atp3381
Rp3382
sVAA1S
p3383
g1
((lp3384
S'ross'
p3385
atp3386
Rp3387
sVAA1R
p3388
g1
((lp3389
S'far'
p3390
aS'our'
p3391
aS'r'
p3392
aS'are'
p3393
atp3394
Rp3395
sVAA1T
p3396
g1
((lp3397
S'plot'
p3398
aS'squat'
p3399
aS'shot'
p3400
aS'pot'
p3401
aS'spot'
p3402
aS'hot'
p3403
aS'lot'
p3404
aS'not'
p3405
aS'got'
p3406
aS'caught'
p3407
atp3408
Rp3409
sVAA1Z
p3410
g1
((lp3411
S'cause'
p3412
aS'was'
p3413
atp3414
Rp3415
sVER1TH
p3416
g1
((lp3417
S'worth'
p3418
atp3419
Rp3420
s.