ccollections
defaultdict
p0
(cmodel
dd
p1
tp2
Rp3
I1
g0
(c__builtin__
float
p4
tp5
Rp6
I0
F0.027045634274549937
ssI2
g0
(g4
tp7
Rp8
I0
F0.034823463739126384
sI1
F0.015518444434107083
ssI3
g0
(g4
tp9
Rp10
I0
F0.011638833325580314
sI1
F0.034851374610410754
sI2
F0.027092152393357213
ssI4
g0
(g4
tp11
Rp12
I0
F0.023221844908591898
sI1
F0.015518444434107083
sI2
F0.04648090431222962
sI3
F0.02319393403730753
ssI5
g0
(g4
tp13
Rp14
I0
F0.01162952970181886
sI1
F0.023240452156114807
sI2
F0.019444573661441134
sI3
F0.023389310136298087
sI4
F0.003935432851095501
ssI6
g0
(g4
tp15
Rp16
I0
F0.027129366888403034
sI1
F0.015509140810345629
sI2
F0.04648090431222962
sI3
F0.015555658929152906
sI4
F0.019416662790156768
sI5
F0.01162952970181886
ssI7
g0
(g4
tp17
Rp18
I0
F0.015518444434107083
sI1
F0.007805740335860818
sI2
F0.015537051681629997
sI3
F0.019444573661441134
sI4
F0.023277666651160628
sI5
F0.03099037074940689
sI6
F0.0039075219798111365
ssI8
g0
(g4
tp19
Rp20
I0
F0.011694655068149044
sI1
F0.007796436712099362
sI2
F0.03874959296646044
sI3
F0.019472484532725497
sI4
F0.034823463739126384
sI5
F0.031018281620691257
sI6
F0.011666744196864679
sI7
F0.0077685258408149984
ssI9
g0
(g4
tp21
Rp22
I0
F0.011676047820626135
sI1
F0.011713262315671952
sI2
F0.00010233986137600595
sI3
F0.027138670512164488
sI4
F0.031027585244452715
sI5
F0.007805740335860818
sI6
F0.007805740335860818
sI7
F0.023296273898683537
sI8
F0.011666744196864679
ssI10
g0
(g4
tp23
Rp24
I0
F0.023296273898683537
sI1
F0.007805740335860818
sI2
F0.003935432851095501
sI3
F0.015602177047960181
sI4
F0.027138670512164488
sI5
F0.02325905940363772
sI6
F0.023240452156114807
sI7
F0.019407359166395313
sI8
F0.031046192491975624
sI9
F0.023268363027399173
ssI11
g0
(g4
tp25
Rp26
I0
F0.011648136949341768
sI1
F0.027101456017118667
sI2
F0.02711075964088012
sI3
F0.027101456017118667
sI4
F0.02325905940363772
sI5
F0.011666744196864679
sI6
F0.007805740335860818
sI7
F0.02324975577987626
sI8
F0.03099037074940689
sI9
F0.019444573661441134
sI10
F0.015518444434107083
ssI12
g0
(g4
tp27
Rp28
I0
F0.023203237661068986
sI1
F0.01937014467134949
sI2
F0.019463180908964043
sI3
F0.030962459878122524
sI4
F0.0348420709866493
sI5
F0.038786807461506256
sI6
F0.02325905940363772
sI7
F0.007777829464576453
sI8
F0.011638833325580314
sI9
F0.019435270037679676
sI10
F0.034832767362887845
sI11
F0.02712006326464158
ssI13
g0
(g4
tp29
Rp30
I0
F0.015509140810345629
sI1
F0.023203237661068986
sI2
F0.015555658929152906
sI3
F0.011657440573103223
sI4
F0.02708284876959576
sI5
F0.023268363027399173
sI6
F0.019398055542633855
sI7
F0.007787133088337907
sI8
F0.023277666651160628
sI9
F0.015546355305391451
sI10
F0.011676047820626135
sI11
F0.01549053356282272
sI12
F0.015509140810345629
ssI14
g0
(g4
tp31
Rp32
I0
F0.0039075219798111365
sI1
F0.007749918593292087
sI2
F0.027157277759687397
sI3
F0.01937014467134949
sI4
F0.0348420709866493
sI5
F0.03864725310508443
sI6
F0.03874028934269898
sI7
F0.027092152393357213
sI8
F0.01945387728520259
sI9
F0.023240452156114807
sI10
F0.03099037074940689
sI11
F0.011666744196864679
sI12
F0.011722565939433409
sI13
F0.007759222217053543
ssI15
g0
(g4
tp33
Rp34
I0
F0.007777829464576453
sI1
F0.011648136949341768
sI2
F0.038693771223891706
sI3
F0.015518444434107083
sI4
F0.023240452156114807
sI5
F0.034851374610410754
sI6
F0.023240452156114807
sI7
F0.031027585244452715
sI8
F0.015509140810345629
sI9
F0.011666744196864679
sI10
F0.015509140810345629
sI11
F0.02712006326464158
sI12
F0.015537051681629997
sI13
F0.011657440573103223
sI14
F0.01933293017630367
ssI16
g0
(g4
tp35
Rp36
I0
F0.011610922454295949
sI1
F0.007759222217053543
sI2
F0.007777829464576453
sI3
F0.007749918593292087
sI4
F0.02325905940363772
sI5
F0.015509140810345629
sI6
F0.019416662790156768
sI7
F0.019360841047588034
sI8
F0.019398055542633855
sI9
F0.027147974135925942
sI10
F0.019407359166395313
sI11
F0.01549053356282272
sI12
F0.011676047820626135
sI13
F0.011638833325580314
sI14
F0.007787133088337907
sI15
F0.007740614969530631
ssI17
g0
(g4
tp37
Rp38
I0
F0.019342233800065126
sI1
F0.01549053356282272
sI2
F0.02706424152207285
sI3
F0.015518444434107083
sI4
F0.03870307484765316
sI5
F0.015546355305391451
sI6
F0.03476764199655766
sI7
F0.015546355305391451
sI8
F0.01162952970181886
sI9
F0.019416662790156768
sI10
F0.023240452156114807
sI11
F0.011676047820626135
sI12
F0.019407359166395313
sI13
F0.01935153742382658
sI14
F0.015462622691538353
sI15
F0.01549053356282272
sI16
F0.023203237661068986
ssI18
g0
(g4
tp39
Rp40
I0
F0.011620226078057405
sI1
F0.015471926315299811
sI2
F0.015555658929152906
sI3
F0.015537051681629997
sI4
F0.019323626552542213
sI5
F0.0038982183560496817
sI6
F0.015509140810345629
sI7
F0.011620226078057405
sI8
F0.01937014467134949
sI9
F0.015537051681629997
sI10
F0.01549053356282272
sI11
F0.02712006326464158
sI12
F0.027092152393357213
sI13
F0.023240452156114807
sI14
F0.019388751918872398
sI15
F0.023231148532353352
sI16
F0.030953156254361073
sI17
F0.011638833325580314
ssI19
g0
(g4
tp41
Rp42
I0
F0.007777829464576453
sI1
F0.015462622691538353
sI2
F2.7910871284365262e-05
sI3
F0.019360841047588034
sI4
F0.003954040098618412
sI5
F0.015509140810345629
sI6
F0.011657440573103223
sI7
F0.030953156254361073
sI8
F0.015509140810345629
sI9
F0.015509140810345629
sI10
F0.01937014467134949
sI11
F0.01549053356282272
sI12
F0.015509140810345629
sI13
F0.027073545145834304
sI14
F0.02319393403730753
sI15
F0.03479555286784203
sI16
F0.019342233800065126
sI17
F0.030934549006838164
sI18
F0.01937014467134949
ssI20
g0
(g4
tp43
Rp44
I0
F0.003916825603572592
sI1
F0.0039075219798111365
sI2
F0.015527748057868537
sI3
F0.01933293017630367
sI4
F0.003935432851095501
sI5
F5.5821742568730524e-05
sI6
F0.015574266176675814
sI7
F0.01162952970181886
sI8
F0.023231148532353352
sI9
F0.023203237661068986
sI10
F0.007777829464576453
sI11
F0.011638833325580314
sI12
F0.027129366888403034
sI13
F0.01935153742382658
sI14
F0.019388751918872398
sI15
F0.019342233800065126
sI16
F0.023166023166023165
sI17
F0.01549053356282272
sI18
F0.015481229939061265
sI19
F2.7910871284365262e-05
ssI21
g0
(g4
tp45
Rp46
I0
F0.02317532678978462
sI1
F0.011592315206773037
sI2
F0.023221844908591898
sI3
F0.015462622691538353
sI4
F0.007777829464576453
sI5
F0.015481229939061265
sI6
F3.721449504582035e-05
sI7
F0.015499837186584174
sI8
F0.015462622691538353
sI9
F0.015555658929152906
sI10
F0.023203237661068986
sI11
F0.007759222217053543
sI12
F0.01549053356282272
sI13
F0.015481229939061265
sI14
F0.007749918593292087
sI15
F0.011592315206773037
sI16
F0.015527748057868537
sI17
F0.011620226078057405
sI18
F0.015499837186584174
sI19
F0.007731311345769177
sI20
F0.027045634274549937
ssI22
g0
(g4
tp47
Rp48
I0
F0.003861003861003861
sI1
F0.0039075219798111365
sI2
F0.003916825603572592
sI3
F0.023212541284830444
sI4
F0.011610922454295949
sI5
F0.0077685258408149984
sI6
F0.011601618830534491
sI7
F0.01162952970181886
sI8
F0.03865655672884589
sI9
F0.011638833325580314
sI10
F0.023221844908591898
sI11
F0.023203237661068986
sI12
F0.01935153742382658
sI13
F0.0038703074847653163
sI14
F0.011601618830534491
sI15
F0.007759222217053543
sI16
F0.011620226078057405
sI17
F0.023231148532353352
sI18
F0.01549053356282272
sI19
F0.011610922454295949
sI20
F0.007777829464576453
sI21
F0.011648136949341768
ssI23
g0
(g4
tp49
Rp50
I0
F0.0038703074847653163
sI1
F0.0038889147322882264
sI2
F4.651811880727544e-05
sI3
F0.007759222217053543
sI4
F0.011601618830534491
sI5
F0.011583011583011582
sI6
F0.0038889147322882264
sI7
F0.007740614969530631
sI8
F0.003926129227334047
sI9
F0.003935432851095501
sI10
F5.5821742568730524e-05
sI11
F0.01935153742382658
sI12
F0.011648136949341768
sI13
F1.8607247522910175e-05
sI14
F0.0038889147322882264
sI15
F0.007740614969530631
sI16
F0.0038982183560496817
sI17
F0.007740614969530631
sI18
F0.01935153742382658
sI19
F0.007759222217053543
sI20
F0.007777829464576453
sI21
F0.01549053356282272
sI22
F0.0038703074847653163
ssI24
g0
(g4
tp51
Rp52
I0
F0.011592315206773037
sI1
F0.007731311345769177
sI2
F0.011601618830534491
sI3
F0.007759222217053543
sI4
F0.011592315206773037
sI5
F1.8607247522910175e-05
sI6
F0.003861003861003861
sI7
F0.007740614969530631
sI8
F0.007731311345769177
sI9
F0.011592315206773037
sI10
F0.0038889147322882264
sI11
F0.0077685258408149984
sI12
F0.01549053356282272
sI13
F0.007731311345769177
sI14
F0.011610922454295949
sI15
F0.0039075219798111365
sI16
F0.007749918593292087
sI17
F0.0038796111085267707
sI18
F0.011601618830534491
sI19
F0.011610922454295949
sI20
F0.015471926315299811
sI21
F0.0038703074847653163
sI22
F3.721449504582035e-05
sI23
F0.007722007722007722
ssI25
g0
(g4
tp53
Rp54
I0
F0.0038703074847653163
sI1
F0.003861003861003861
sI2
F0.007731311345769177
sI3
F0.007740614969530631
sI4
F0.011601618830534491
sI5
F0.015471926315299811
sI6
F0.007749918593292087
sI7
F2.7910871284365262e-05
sI8
F0.0038703074847653163
sI9
F0.011601618830534491
sI10
F1.8607247522910175e-05
sI11
F0.019342233800065126
sI12
F0.011601618830534491
sI13
F0.0038889147322882264
sI14
F0.011620226078057405
sI15
F0.007740614969530631
sI16
F0.007731311345769177
sI17
F0.011620226078057405
sI18
F0.0038796111085267707
sI19
F0.011601618830534491
sI20
F0.007740614969530631
sI21
F0.007805740335860818
sI22
F0.003861003861003861
sI23
F0.011592315206773037
sI24
F0.011583011583011582
ssI26
g0
(g4
tp55
Rp56
I1
F0.0038703074847653163
sI2
F0.0038982183560496817
sI3
F1.8607247522910175e-05
sI4
F0.011601618830534491
sI5
F0.007731311345769177
sI6
F0.0038982183560496817
sI7
F0.007749918593292087
sI8
F0.011592315206773037
sI9
F0.007740614969530631
sI10
F0.011583011583011582
sI11
F0.015481229939061265
sI12
F0.01935153742382658
sI13
F0.019323626552542213
sI14
F0.007759222217053543
sI15
F0.007731311345769177
sI16
F0.007749918593292087
sI18
F0.007749918593292087
sI19
F9.303623761455087e-06
sI20
F0.0038982183560496817
sI21
F0.011610922454295949
sI22
F0.011601618830534491
sI23
F0.007740614969530631
sI24
F0.011610922454295949
sI25
F9.303623761455087e-06
ssI27
g0
(g4
tp57
Rp58
I1
F0.0038703074847653163
sI2
F0.011610922454295949
sI3
F0.0038982183560496817
sI4
F0.019305019305019305
sI5
F0.0038796111085267707
sI6
F0.007722007722007722
sI7
F1.8607247522910175e-05
sI8
F0.011592315206773037
sI9
F0.007731311345769177
sI10
F0.015471926315299811
sI11
F0.01931432292878076
sI12
F0.011592315206773037
sI13
F0.019323626552542213
sI14
F0.007731311345769177
sI15
F0.007731311345769177
sI16
F0.003861003861003861
sI17
F0.019323626552542213
sI18
F0.015453319067776899
sI19
F0.015453319067776899
sI20
F0.007722007722007722
sI21
F0.015444015444015444
sI25
F0.007731311345769177
sI26
F0.0038703074847653163
ssI28
g0
(g4
tp59
Rp60
I1
F0.003861003861003861
sI4
F0.007722007722007722
sI5
F0.0038703074847653163
sI7
F0.011592315206773037
sI8
F0.007722007722007722
sI9
F0.007722007722007722
sI10
F9.303623761455087e-06
sI11
F2.7910871284365262e-05
sI12
F0.015462622691538353
sI13
F0.015444015444015444
sI14
F0.007740614969530631
sI15
F0.003861003861003861
sI16
F0.011583011583011582
sI17
F1.8607247522910175e-05
sI18
F0.0038703074847653163
sI19
F0.007740614969530631
sI20
F0.0038796111085267707
sI21
F0.0038703074847653163
sI22
F9.303623761455087e-06
sI23
F1.8607247522910175e-05
sI24
F0.003861003861003861
sI25
F0.011601618830534491
sI26
F9.303623761455087e-06
sI27
F9.303623761455087e-06
ssI29
g0
(g4
tp61
Rp62
I0
F9.303623761455087e-06
sI1
F9.303623761455087e-06
sI2
F0.003861003861003861
sI3
F0.007740614969530631
sI4
F0.007722007722007722
sI7
F0.0038703074847653163
sI8
F0.003861003861003861
sI9
F0.0038703074847653163
sI10
F0.003861003861003861
sI11
F9.303623761455087e-06
sI12
F9.303623761455087e-06
sI13
F0.011583011583011582
sI14
F0.0038703074847653163
sI15
F0.007722007722007722
sI16
F0.0038703074847653163
sI17
F0.007731311345769177
sI18
F9.303623761455087e-06
sI19
F0.007722007722007722
sI20
F1.8607247522910175e-05
sI21
F0.003861003861003861
sI23
F9.303623761455087e-06
sI25
F0.003861003861003861
sI26
F0.0038703074847653163
sI27
F2.7910871284365262e-05
sI28
F0.007731311345769177
ssI30
g0
(g4
tp63
Rp64
I0
F0.003861003861003861
sI1
F0.003861003861003861
sI2
F9.303623761455087e-06
sI3
F0.007722007722007722
sI4
F0.003861003861003861
sI6
F0.011583011583011582
sI7
F9.303623761455087e-06
sI8
F0.003861003861003861
sI10
F0.003861003861003861
sI11
F0.0038889147322882264
sI12
F0.003861003861003861
sI13
F0.007722007722007722
sI14
F0.015444015444015444
sI15
F0.007731311345769177
sI18
F0.0038703074847653163
sI19
F0.0038703074847653163
sI20
F0.003861003861003861
sI21
F9.303623761455087e-06
sI22
F0.007722007722007722
sI23
F0.003861003861003861
sI24
F0.007722007722007722
sI25
F0.007731311345769177
sI26
F0.007722007722007722
sI27
F0.0038703074847653163
sI28
F0.0038703074847653163
sI29
F0.003861003861003861
ssI31
g0
(g4
tp65
Rp66
I1
F9.303623761455087e-06
sI2
F9.303623761455087e-06
sI3
F0.003861003861003861
sI6
F0.003861003861003861
sI7
F0.011583011583011582
sI9
F1.8607247522910175e-05
sI12
F1.8607247522910175e-05
sI14
F0.003861003861003861
sI15
F0.011583011583011582
sI16
F0.003861003861003861
sI17
F0.003861003861003861
sI18
F0.003861003861003861
sI19
F9.303623761455087e-06
sI20
F0.011583011583011582
sI21
F0.007731311345769177
sI22
F0.003861003861003861
sI23
F9.303623761455087e-06
sI26
F0.007722007722007722
sI28
F0.003861003861003861
ssI32
g0
(g4
tp67
Rp68
I0
F0.007722007722007722
sI1
F1.8607247522910175e-05
sI4
F0.003861003861003861
sI8
F9.303623761455087e-06
sI12
F0.003861003861003861
sI13
F0.003861003861003861
sI14
F9.303623761455087e-06
sI15
F0.003861003861003861
sI16
F0.003861003861003861
sI20
F0.003861003861003861
sI21
F0.0038703074847653163
sI22
F0.003861003861003861
sI23
F9.303623761455087e-06
sI25
F0.003861003861003861
sI27
F9.303623761455087e-06
sI28
F0.003861003861003861
sI29
F0.0038703074847653163
sI30
F0.0038703074847653163
ssI33
g0
(g4
tp69
Rp70
I0
F0.003861003861003861
sI1
F0.0038703074847653163
sI2
F9.303623761455087e-06
sI5
F0.0038703074847653163
sI9
F9.303623761455087e-06
sI10
F0.003861003861003861
sI12
F9.303623761455087e-06
sI13
F0.003861003861003861
sI15
F0.0038703074847653163
sI16
F0.003861003861003861
sI17
F0.0038703074847653163
sI18
F0.0038703074847653163
sI19
F0.007731311345769177
sI21
F0.007731311345769177
sI22
F0.007722007722007722
sI23
F0.0038703074847653163
sI24
F0.003861003861003861
sI25
F0.0038703074847653163
sI26
F0.007722007722007722
sI28
F0.0038703074847653163
sI30
F0.003861003861003861
sI31
F9.303623761455087e-06
ssI34
g0
(g4
tp71
Rp72
I33
F0.003861003861003861
sI6
F0.003861003861003861
sI11
F9.303623761455087e-06
sI13
F0.003861003861003861
sI14
F0.003861003861003861
sI15
F0.003861003861003861
sI18
F9.303623761455087e-06
sI19
F1.8607247522910175e-05
sI22
F0.007722007722007722
sI28
F9.303623761455087e-06
ssI35
g0
(g4
tp73
Rp74
I33
F9.303623761455087e-06
sI4
F0.003861003861003861
sI5
F9.303623761455087e-06
sI6
F0.003861003861003861
sI7
F0.003861003861003861
sI9
F9.303623761455087e-06
sI12
F0.0038703074847653163
sI14
F9.303623761455087e-06
sI17
F9.303623761455087e-06
sI21
F1.8607247522910175e-05
sI22
F0.003861003861003861
sI24
F0.0038703074847653163
sI25
F0.003861003861003861
sI26
F0.0038703074847653163
sI28
F0.0038703074847653163
ssI36
g0
(g4
tp75
Rp76
I34
F9.303623761455087e-06
sI4
F0.0038703074847653163
sI10
F0.003861003861003861
sI12
F9.303623761455087e-06
sI20
F0.003861003861003861
sI28
F0.003861003861003861
sI29
F0.003861003861003861
ssI37
g0
(g4
tp77
Rp78
I19
F0.003861003861003861
sI33
F0.007722007722007722
sI2
F9.303623761455087e-06
sI3
F9.303623761455087e-06
sI4
F0.003861003861003861
sI5
F0.003861003861003861
sI7
F9.303623761455087e-06
sI8
F0.0038703074847653163
sI9
F1.8607247522910175e-05
sI10
F9.303623761455087e-06
sI11
F9.303623761455087e-06
sI12
F0.0038703074847653163
sI13
F0.003861003861003861
sI14
F0.003861003861003861
sI15
F0.003861003861003861
sI35
F0.003861003861003861
sI25
F0.003861003861003861
sI26
F0.003861003861003861
sI28
F0.003861003861003861
ssI38
g0
(g4
tp79
Rp80
I34
F9.303623761455087e-06
sI3
F9.303623761455087e-06
sI36
F9.303623761455087e-06
sI8
F0.003861003861003861
sI9
F0.003861003861003861
sI2
F0.003861003861003861
sI15
F0.003861003861003861
sI13
F0.003861003861003861
sI27
F0.003861003861003861
sI31
F0.003861003861003861
ssI39
g0
(g4
tp81
Rp82
I3
F9.303623761455087e-06
sI37
F9.303623761455087e-06
sI16
F0.003861003861003861
sI21
F0.003861003861003861
sI24
F9.303623761455087e-06
sI29
F0.003861003861003861
ssI40
g0
(g4
tp83
Rp84
I33
F0.007722007722007722
sI9
F9.303623761455087e-06
sI15
F0.003861003861003861
sI19
F0.0038703074847653163
sI25
F0.003861003861003861
sI26
F0.003861003861003861
sI28
F0.003861003861003861
ssI41
g0
(g4
tp85
Rp86
I2
F0.003861003861003861
sI36
F0.003861003861003861
sI38
F0.003861003861003861
sI39
F0.003861003861003861
sI8
F0.003861003861003861
sI13
F0.003861003861003861
sI26
F0.003861003861003861
sI27
F0.003861003861003861
ssI42
g0
(g4
tp87
Rp88
I3
F0.003861003861003861
sI5
F0.003861003861003861
sI8
F0.007722007722007722
sI10
F0.003861003861003861
sI13
F0.003861003861003861
sI21
F0.003861003861003861
sI27
F0.003861003861003861
ssI43
g0
(g4
tp89
Rp90
I9
F0.003861003861003861
sI28
F0.003861003861003861
ssI44
g0
(g4
tp91
Rp92
I25
F0.003861003861003861
sI19
F0.003861003861003861
sI28
F0.003861003861003861
sI33
F0.003861003861003861
sI15
F0.003861003861003861
ssI45
g0
(g4
tp93
Rp94
I20
F0.003861003861003861
sI31
F0.003861003861003861
ssI46
g0
(g4
tp95
Rp96
I0
F0.003861003861003861
sI17
F0.003861003861003861
sI10
F0.003861003861003861
sI21
F0.007722007722007722
ssI47
g0
(g4
tp97
Rp98
I8
F0.003861003861003861
sI41
F0.003861003861003861
sI27
F0.003861003861003861
sI13
F0.003861003861003861
sI38
F0.003861003861003861
ssI48
g0
(g4
tp99
Rp100
I6
F0.003861003861003861
ss.