ccollections
defaultdict
p0
(c__main__
dd
p1
tp2
Rp3
I1
g0
(c__builtin__
float
p4
tp5
Rp6
I0
F1.0
ssI2
g0
(g4
tp7
Rp8
I0
F0.4838709677419355
sI1
F0.5161290322580645
ssI3
g0
(g4
tp9
Rp10
I0
F0.3543307086614173
sI1
F0.4645669291338583
sI2
F0.18110236220472442
ssI4
g0
(g4
tp11
Rp12
I0
F0.28
sI1
F0.28
sI2
F0.29
sI3
F0.15
ssI5
g0
(g4
tp13
Rp14
I0
F0.14728682170542637
sI1
F0.22868217054263565
sI2
F0.22093023255813954
sI3
F0.24806201550387597
sI4
F0.15503875968992248
ssI6
g0
(g4
tp15
Rp16
I0
F0.18729096989966554
sI1
F0.17725752508361203
sI2
F0.18394648829431437
sI3
F0.18394648829431437
sI4
F0.17391304347826086
sI5
F0.09364548494983277
ssI7
g0
(g4
tp17
Rp18
I0
F0.16962025316455695
sI1
F0.1620253164556962
sI2
F0.13164556962025317
sI3
F0.189873417721519
sI4
F0.10632911392405063
sI5
F0.15443037974683543
sI6
F0.08607594936708861
ssI8
g0
(g4
tp19
Rp20
I0
F0.11981566820276497
sI1
F0.1336405529953917
sI2
F0.1313364055299539
sI3
F0.15207373271889402
sI4
F0.0967741935483871
sI5
F0.1175115207373272
sI6
F0.15207373271889402
sI7
F0.0967741935483871
ssI9
g0
(g4
tp21
Rp22
I0
F0.125
sI1
F0.0967741935483871
sI2
F0.11491935483870967
sI3
F0.13911290322580644
sI4
F0.12298387096774194
sI5
F0.10685483870967742
sI6
F0.07862903225806452
sI7
F0.15120967741935484
sI8
F0.06451612903225806
ssI10
g0
(g4
tp23
Rp24
I0
F0.1090146750524109
sI1
F0.09224318658280922
sI2
F0.08176100628930817
sI3
F0.11320754716981132
sI4
F0.1069182389937107
sI5
F0.11740041928721175
sI6
F0.09853249475890985
sI7
F0.09224318658280922
sI8
F0.11530398322851153
sI9
F0.07337526205450734
ssI11
g0
(g4
tp25
Rp26
I0
F0.07207207207207207
sI1
F0.08828828828828829
sI2
F0.09549549549549549
sI3
F0.07927927927927927
sI4
F0.09549549549549549
sI5
F0.09549549549549549
sI6
F0.09009009009009009
sI7
F0.0936936936936937
sI8
F0.09549549549549549
sI9
F0.11531531531531532
sI10
F0.07927927927927927
ssI12
g0
(g4
tp27
Rp28
I0
F0.07678244972577697
sI1
F0.07678244972577697
sI2
F0.09506398537477148
sI3
F0.05850091407678245
sI4
F0.10420475319926874
sI5
F0.11151736745886655
sI6
F0.08409506398537477
sI7
F0.06398537477148081
sI8
F0.09323583180987204
sI9
F0.08592321755027423
sI10
F0.08043875685557587
sI11
F0.06946983546617916
ssI13
g0
(g4
tp29
Rp30
I0
F0.07939508506616257
sI1
F0.07939508506616257
sI2
F0.06427221172022685
sI3
F0.0888468809073724
sI4
F0.06427221172022685
sI5
F0.07750472589792061
sI6
F0.09073724007561437
sI7
F0.08506616257088846
sI8
F0.0831758034026465
sI9
F0.09262759924385633
sI10
F0.07939508506616257
sI11
F0.054820415879017016
sI12
F0.06049149338374291
ssI14
g0
(g4
tp31
Rp32
I0
F0.05190311418685121
sI1
F0.058823529411764705
sI2
F0.07785467128027682
sI3
F0.07439446366782007
sI4
F0.07958477508650519
sI5
F0.058823529411764705
sI6
F0.09169550173010381
sI7
F0.07612456747404844
sI8
F0.09342560553633218
sI9
F0.06920415224913495
sI10
F0.06228373702422145
sI11
F0.0657439446366782
sI12
F0.08996539792387544
sI13
F0.050173010380622836
ssI15
g0
(g4
tp33
Rp34
I0
F0.06104129263913824
sI1
F0.0466786355475763
sI2
F0.0718132854578097
sI3
F0.06822262118491922
sI4
F0.05745062836624776
sI5
F0.06822262118491922
sI6
F0.05745062836624776
sI7
F0.09156193895870736
sI8
F0.0807899461400359
sI9
F0.06283662477558348
sI10
F0.05745062836624776
sI11
F0.0807899461400359
sI12
F0.06463195691202872
sI13
F0.0718132854578097
sI14
F0.059245960502693
ssI16
g0
(g4
tp35
Rp36
I0
F0.052123552123552123
sI1
F0.055984555984555984
sI2
F0.04826254826254826
sI3
F0.0694980694980695
sI4
F0.07142857142857142
sI5
F0.07528957528957529
sI6
F0.07528957528957529
sI7
F0.05405405405405406
sI8
F0.06563706563706563
sI9
F0.07528957528957529
sI10
F0.0694980694980695
sI11
F0.06756756756756757
sI12
F0.0694980694980695
sI13
F0.04826254826254826
sI14
F0.07335907335907337
sI15
F0.02895752895752896
ssI17
g0
(g4
tp37
Rp38
I0
F0.02912621359223301
sI1
F0.06601941747572816
sI2
F0.05631067961165048
sI3
F0.05631067961165048
sI4
F0.05048543689320388
sI5
F0.06990291262135923
sI6
F0.040776699029126215
sI7
F0.0854368932038835
sI8
F0.06601941747572816
sI9
F0.06796116504854369
sI10
F0.07184466019417475
sI11
F0.06601941747572816
sI12
F0.05048543689320388
sI13
F0.06796116504854369
sI14
F0.04660194174757282
sI15
F0.062135922330097085
sI16
F0.04660194174757282
ssI18
g0
(g4
tp39
Rp40
I0
F0.041928721174004195
sI1
F0.03773584905660377
sI2
F0.06708595387840671
sI3
F0.0649895178197065
sI4
F0.050314465408805034
sI5
F0.04612159329140461
sI6
F0.06079664570230608
sI7
F0.05870020964360587
sI8
F0.06079664570230608
sI9
F0.0649895178197065
sI10
F0.041928721174004195
sI11
F0.07337526205450734
sI12
F0.04612159329140461
sI13
F0.05450733752620545
sI14
F0.06918238993710692
sI15
F0.05450733752620545
sI16
F0.05870020964360587
sI17
F0.04821802935010482
ssI19
g0
(g4
tp41
Rp42
I0
F0.053811659192825115
sI1
F0.04035874439461883
sI2
F0.053811659192825115
sI3
F0.053811659192825115
sI4
F0.04035874439461883
sI5
F0.04708520179372197
sI6
F0.04932735426008968
sI7
F0.0515695067264574
sI8
F0.06278026905829596
sI9
F0.06726457399103139
sI10
F0.04932735426008968
sI11
F0.06726457399103139
sI12
F0.06950672645739911
sI13
F0.04932735426008968
sI14
F0.04932735426008968
sI15
F0.04932735426008968
sI16
F0.05605381165919283
sI17
F0.0515695067264574
sI18
F0.03811659192825112
ssI20
g0
(g4
tp43
Rp44
I0
F0.05543237250554324
sI1
F0.037694013303769404
sI2
F0.04656319290465632
sI3
F0.03991130820399113
sI4
F0.03547671840354767
sI5
F0.04656319290465632
sI6
F0.07095343680709534
sI7
F0.05321507760532151
sI8
F0.0598669623059867
sI9
F0.03991130820399113
sI10
F0.0598669623059867
sI11
F0.04656319290465632
sI12
F0.06208425720620843
sI13
F0.057649667405764965
sI14
F0.05321507760532151
sI15
F0.057649667405764965
sI16
F0.04434589800443459
sI17
F0.050997782705099776
sI18
F0.04212860310421286
sI19
F0.03991130820399113
ssI21
g0
(g4
tp45
Rp46
I0
F0.045563549160671464
sI1
F0.03117505995203837
sI2
F0.04316546762589928
sI3
F0.045563549160671464
sI4
F0.04316546762589928
sI5
F0.045563549160671464
sI6
F0.06474820143884892
sI7
F0.05515587529976019
sI8
F0.047961630695443645
sI9
F0.07673860911270983
sI10
F0.047961630695443645
sI11
F0.04316546762589928
sI12
F0.03357314148681055
sI13
F0.050359712230215826
sI14
F0.05755395683453238
sI15
F0.04316546762589928
sI16
F0.047961630695443645
sI17
F0.05995203836930456
sI18
F0.050359712230215826
sI19
F0.03357314148681055
sI20
F0.03357314148681055
ssI22
g0
(g4
tp47
Rp48
I0
F0.021406727828746176
sI1
F0.045871559633027525
sI2
F0.039755351681957186
sI3
F0.05198776758409786
sI4
F0.05198776758409786
sI5
F0.03363914373088685
sI6
F0.04281345565749235
sI7
F0.04892966360856269
sI8
F0.03363914373088685
sI9
F0.05504587155963303
sI10
F0.0581039755351682
sI11
F0.03363914373088685
sI12
F0.05198776758409786
sI13
F0.04892966360856269
sI14
F0.04281345565749235
sI15
F0.07033639143730887
sI16
F0.04281345565749235
sI17
F0.05504587155963303
sI18
F0.04281345565749235
sI19
F0.03363914373088685
sI20
F0.04892966360856269
sI21
F0.045871559633027525
ssI23
g0
(g4
tp49
Rp50
I0
F0.030612244897959183
sI1
F0.030612244897959183
sI2
F0.05442176870748299
sI3
F0.04421768707482993
sI4
F0.027210884353741496
sI5
F0.030612244897959183
sI6
F0.05102040816326531
sI7
F0.03741496598639456
sI8
F0.034013605442176874
sI9
F0.061224489795918366
sI10
F0.05442176870748299
sI11
F0.06462585034013606
sI12
F0.05442176870748299
sI13
F0.047619047619047616
sI14
F0.04081632653061224
sI15
F0.027210884353741496
sI16
F0.034013605442176874
sI17
F0.047619047619047616
sI18
F0.05782312925170068
sI19
F0.05102040816326531
sI20
F0.04421768707482993
sI21
F0.04421768707482993
sI22
F0.030612244897959183
ssI24
g0
(g4
tp51
Rp52
I0
F0.029045643153526972
sI1
F0.029045643153526972
sI2
F0.03734439834024896
sI3
F0.058091286307053944
sI4
F0.024896265560165973
sI5
F0.06224066390041494
sI6
F0.016597510373443983
sI7
F0.04149377593360996
sI8
F0.016597510373443983
sI9
F0.04564315352697095
sI10
F0.04149377593360996
sI11
F0.07053941908713693
sI12
F0.05394190871369295
sI13
F0.03319502074688797
sI14
F0.04149377593360996
sI15
F0.058091286307053944
sI16
F0.04564315352697095
sI17
F0.04979253112033195
sI18
F0.06224066390041494
sI19
F0.04149377593360996
sI20
F0.04149377593360996
sI21
F0.03734439834024896
sI22
F0.04564315352697095
sI23
F0.016597510373443983
ssI25
g0
(g4
tp53
Rp54
I0
F0.014218009478672985
sI1
F0.04739336492890995
sI2
F0.023696682464454975
sI3
F0.04739336492890995
sI4
F0.023696682464454975
sI5
F0.037914691943127965
sI6
F0.05687203791469194
sI7
F0.04265402843601896
sI8
F0.02843601895734597
sI9
F0.04265402843601896
sI10
F0.03317535545023697
sI11
F0.061611374407582936
sI12
F0.037914691943127965
sI13
F0.037914691943127965
sI14
F0.03317535545023697
sI15
F0.061611374407582936
sI16
F0.02843601895734597
sI17
F0.06635071090047394
sI18
F0.037914691943127965
sI19
F0.037914691943127965
sI20
F0.04265402843601896
sI21
F0.07109004739336493
sI22
F0.02843601895734597
sI23
F0.02843601895734597
sI24
F0.02843601895734597
ssI26
g0
(g4
tp55
Rp56
I0
F0.013888888888888888
sI1
F0.032407407407407406
sI2
F0.046296296296296294
sI3
F0.037037037037037035
sI4
F0.041666666666666664
sI5
F0.05092592592592592
sI6
F0.037037037037037035
sI7
F0.041666666666666664
sI8
F0.037037037037037035
sI9
F0.032407407407407406
sI10
F0.037037037037037035
sI11
F0.037037037037037035
sI12
F0.06481481481481481
sI13
F0.05092592592592592
sI14
F0.05555555555555555
sI15
F0.032407407407407406
sI16
F0.018518518518518517
sI17
F0.037037037037037035
sI18
F0.037037037037037035
sI19
F0.032407407407407406
sI20
F0.041666666666666664
sI21
F0.037037037037037035
sI22
F0.046296296296296294
sI23
F0.027777777777777776
sI24
F0.037037037037037035
sI25
F0.037037037037037035
ssI27
g0
(g4
tp57
Rp58
I0
F0.008403361344537815
sI1
F0.03361344537815126
sI2
F0.05042016806722689
sI3
F0.04201680672268908
sI4
F0.01680672268907563
sI5
F0.05042016806722689
sI6
F0.025210084033613446
sI7
F0.04201680672268908
sI8
F0.04201680672268908
sI9
F0.025210084033613446
sI10
F0.07563025210084033
sI11
F0.025210084033613446
sI12
F0.03361344537815126
sI13
F0.04201680672268908
sI14
F0.05042016806722689
sI15
F0.01680672268907563
sI16
F0.06722689075630252
sI17
F0.05042016806722689
sI18
F0.025210084033613446
sI19
F0.058823529411764705
sI20
F0.01680672268907563
sI21
F0.04201680672268908
sI22
F0.01680672268907563
sI23
F0.07563025210084033
sI24
F0.03361344537815126
sI25
F0.025210084033613446
sI26
F0.008403361344537815
ssI28
g0
(g4
tp59
Rp60
I0
F0.022556390977443608
sI1
F0.022556390977443608
sI2
F0.022556390977443608
sI3
F0.03759398496240601
sI4
F0.03007518796992481
sI5
F0.03007518796992481
sI6
F0.05263157894736842
sI7
F0.03007518796992481
sI8
F0.022556390977443608
sI9
F0.03007518796992481
sI10
F0.03759398496240601
sI11
F0.06015037593984962
sI12
F0.03759398496240601
sI13
F0.05263157894736842
sI14
F0.06015037593984962
sI15
F0.03007518796992481
sI16
F0.045112781954887216
sI17
F0.03007518796992481
sI18
F0.03007518796992481
sI19
F0.03007518796992481
sI20
F0.05263157894736842
sI21
F0.045112781954887216
sI22
F0.03007518796992481
sI23
F0.045112781954887216
sI24
F0.007518796992481203
sI25
F0.03007518796992481
sI26
F0.05263157894736842
sI27
F0.022556390977443608
ssI29
g0
(g4
tp61
Rp62
I0
F0.0375
sI1
F0.025
sI2
F0.025
sI3
F0.05
sI4
F0.0125
sI5
F0.0625
sI6
F0.025
sI7
F0.05
sI8
F0.0125
sI9
F0.05
sI10
F0.025
sI11
F0.0375
sI12
F0.0625
sI13
F0.0625
sI14
F0.025
sI15
F0.0625
sI16
F0.0375
sI17
F0.05
sI18
F0.0125
sI19
F0.025
sI20
F0.0375
sI21
F0.0125
sI22
F0.0125
sI23
F0.025
sI24
F0.05
sI26
F0.025
sI27
F0.0375
sI28
F0.05
ssI30
g0
(g4
tp63
Rp64
I1
F0.013888888888888888
sI2
F0.041666666666666664
sI3
F0.041666666666666664
sI4
F0.027777777777777776
sI5
F0.027777777777777776
sI6
F0.041666666666666664
sI7
F0.05555555555555555
sI8
F0.013888888888888888
sI9
F0.013888888888888888
sI10
F0.041666666666666664
sI11
F0.041666666666666664
sI12
F0.05555555555555555
sI14
F0.027777777777777776
sI15
F0.041666666666666664
sI16
F0.027777777777777776
sI17
F0.041666666666666664
sI18
F0.027777777777777776
sI19
F0.027777777777777776
sI20
F0.027777777777777776
sI21
F0.027777777777777776
sI22
F0.013888888888888888
sI23
F0.041666666666666664
sI24
F0.027777777777777776
sI25
F0.013888888888888888
sI26
F0.041666666666666664
sI27
F0.06944444444444445
sI28
F0.08333333333333333
sI29
F0.041666666666666664
ssI31
g0
(g4
tp65
Rp66
I0
F0.011904761904761904
sI1
F0.03571428571428571
sI2
F0.011904761904761904
sI3
F0.023809523809523808
sI4
F0.03571428571428571
sI5
F0.03571428571428571
sI6
F0.047619047619047616
sI7
F0.023809523809523808
sI9
F0.07142857142857142
sI10
F0.03571428571428571
sI11
F0.011904761904761904
sI12
F0.03571428571428571
sI13
F0.023809523809523808
sI14
F0.023809523809523808
sI15
F0.03571428571428571
sI16
F0.023809523809523808
sI17
F0.023809523809523808
sI18
F0.023809523809523808
sI19
F0.05952380952380952
sI20
F0.047619047619047616
sI21
F0.08333333333333333
sI22
F0.023809523809523808
sI23
F0.08333333333333333
sI24
F0.023809523809523808
sI25
F0.011904761904761904
sI26
F0.03571428571428571
sI27
F0.03571428571428571
sI28
F0.023809523809523808
sI29
F0.023809523809523808
sI30
F0.011904761904761904
ssI32
g0
(g4
tp67
Rp68
I1
F0.04838709677419355
sI2
F0.03225806451612903
sI3
F0.03225806451612903
sI4
F0.016129032258064516
sI5
F0.03225806451612903
sI6
F0.03225806451612903
sI8
F0.03225806451612903
sI9
F0.016129032258064516
sI10
F0.03225806451612903
sI11
F0.03225806451612903
sI12
F0.016129032258064516
sI13
F0.03225806451612903
sI14
F0.06451612903225806
sI15
F0.016129032258064516
sI16
F0.016129032258064516
sI17
F0.06451612903225806
sI18
F0.03225806451612903
sI19
F0.03225806451612903
sI21
F0.03225806451612903
sI22
F0.04838709677419355
sI23
F0.06451612903225806
sI24
F0.016129032258064516
sI26
F0.04838709677419355
sI27
F0.06451612903225806
sI28
F0.04838709677419355
sI29
F0.03225806451612903
sI30
F0.04838709677419355
sI31
F0.016129032258064516
ssI33
g0
(g4
tp69
Rp70
I1
F0.03773584905660377
sI2
F0.03773584905660377
sI3
F0.03773584905660377
sI4
F0.018867924528301886
sI5
F0.03773584905660377
sI6
F0.03773584905660377
sI7
F0.018867924528301886
sI9
F0.03773584905660377
sI10
F0.018867924528301886
sI11
F0.018867924528301886
sI12
F0.05660377358490566
sI13
F0.018867924528301886
sI14
F0.018867924528301886
sI15
F0.018867924528301886
sI17
F0.03773584905660377
sI18
F0.05660377358490566
sI19
F0.05660377358490566
sI21
F0.07547169811320754
sI22
F0.018867924528301886
sI23
F0.03773584905660377
sI24
F0.018867924528301886
sI25
F0.03773584905660377
sI26
F0.05660377358490566
sI27
F0.018867924528301886
sI28
F0.03773584905660377
sI30
F0.018867924528301886
sI31
F0.09433962264150944
sI32
F0.018867924528301886
ssI34
g0
(g4
tp71
Rp72
I0
F0.02631578947368421
sI1
F0.02631578947368421
sI2
F0.02631578947368421
sI3
F0.02631578947368421
sI4
F0.05263157894736842
sI6
F0.02631578947368421
sI8
F0.02631578947368421
sI9
F0.02631578947368421
sI10
F0.07894736842105263
sI11
F0.05263157894736842
sI13
F0.02631578947368421
sI15
F0.02631578947368421
sI16
F0.02631578947368421
sI17
F0.02631578947368421
sI18
F0.05263157894736842
sI19
F0.07894736842105263
sI20
F0.02631578947368421
sI21
F0.02631578947368421
sI22
F0.02631578947368421
sI23
F0.02631578947368421
sI24
F0.02631578947368421
sI26
F0.02631578947368421
sI27
F0.05263157894736842
sI28
F0.05263157894736842
sI29
F0.02631578947368421
sI31
F0.02631578947368421
sI32
F0.05263157894736842
sI33
F0.02631578947368421
ssI35
g0
(g4
tp73
Rp74
I0
F0.041666666666666664
sI33
F0.08333333333333333
sI32
F0.041666666666666664
sI5
F0.041666666666666664
sI7
F0.041666666666666664
sI9
F0.08333333333333333
sI11
F0.041666666666666664
sI12
F0.08333333333333333
sI13
F0.041666666666666664
sI14
F0.041666666666666664
sI16
F0.041666666666666664
sI17
F0.08333333333333333
sI18
F0.041666666666666664
sI20
F0.041666666666666664
sI24
F0.041666666666666664
sI26
F0.041666666666666664
sI28
F0.08333333333333333
sI29
F0.041666666666666664
sI30
F0.041666666666666664
ssI36
g0
(g4
tp75
Rp76
I1
F0.10526315789473684
sI34
F0.10526315789473684
sI3
F0.05263157894736842
sI4
F0.05263157894736842
sI10
F0.05263157894736842
sI12
F0.10526315789473684
sI16
F0.05263157894736842
sI17
F0.05263157894736842
sI18
F0.05263157894736842
sI22
F0.10526315789473684
sI23
F0.05263157894736842
sI26
F0.05263157894736842
sI27
F0.05263157894736842
sI29
F0.05263157894736842
sI30
F0.05263157894736842
ssI37
g0
(g4
tp77
Rp78
I32
F0.047619047619047616
sI33
F0.047619047619047616
sI2
F0.047619047619047616
sI3
F0.047619047619047616
sI6
F0.047619047619047616
sI7
F0.047619047619047616
sI8
F0.047619047619047616
sI9
F0.09523809523809523
sI10
F0.047619047619047616
sI11
F0.047619047619047616
sI12
F0.047619047619047616
sI14
F0.047619047619047616
sI21
F0.047619047619047616
sI22
F0.047619047619047616
sI23
F0.047619047619047616
sI26
F0.047619047619047616
sI27
F0.047619047619047616
sI30
F0.047619047619047616
sI31
F0.09523809523809523
ssI38
g0
(g4
tp79
Rp80
I1
F0.15384615384615385
sI34
F0.07692307692307693
sI3
F0.07692307692307693
sI36
F0.15384615384615385
sI7
F0.07692307692307693
sI9
F0.07692307692307693
sI17
F0.07692307692307693
sI19
F0.07692307692307693
sI23
F0.07692307692307693
sI27
F0.07692307692307693
sI30
F0.07692307692307693
ssI39
g0
(g4
tp81
Rp82
I32
F0.06666666666666667
sI33
F0.06666666666666667
sI3
F0.06666666666666667
sI4
F0.06666666666666667
sI37
F0.06666666666666667
sI6
F0.06666666666666667
sI14
F0.06666666666666667
sI19
F0.06666666666666667
sI20
F0.06666666666666667
sI22
F0.06666666666666667
sI24
F0.06666666666666667
sI26
F0.13333333333333333
sI28
F0.06666666666666667
sI31
F0.06666666666666667
ssI40
g0
(g4
tp83
Rp84
I1
F0.07142857142857142
sI36
F0.07142857142857142
sI38
F0.14285714285714285
sI7
F0.07142857142857142
sI9
F0.07142857142857142
sI39
F0.07142857142857142
sI17
F0.07142857142857142
sI19
F0.14285714285714285
sI20
F0.07142857142857142
sI4
F0.07142857142857142
sI26
F0.07142857142857142
sI28
F0.07142857142857142
ssI41
g0
(g4
tp85
Rp86
I34
F0.07692307692307693
sI35
F0.07692307692307693
sI4
F0.07692307692307693
sI7
F0.07692307692307693
sI9
F0.07692307692307693
sI11
F0.07692307692307693
sI13
F0.07692307692307693
sI14
F0.07692307692307693
sI16
F0.07692307692307693
sI18
F0.07692307692307693
sI22
F0.07692307692307693
sI36
F0.07692307692307693
sI27
F0.07692307692307693
ssI43
g0
(g4
tp87
Rp88
I32
F0.25
sI1
F0.25
sI27
F0.25
sI29
F0.25
ss.